ARM GAS  C:\Users\lidka\AppData\Local\Temp\ccz4b9BB.s 			page 1


   1              		.cpu cortex-m0plus
   2              		.arch armv6s-m
   3              		.fpu softvfp
   4              		.eabi_attribute 20, 1
   5              		.eabi_attribute 21, 1
   6              		.eabi_attribute 23, 3
   7              		.eabi_attribute 24, 1
   8              		.eabi_attribute 25, 1
   9              		.eabi_attribute 26, 1
  10              		.eabi_attribute 30, 6
  11              		.eabi_attribute 34, 0
  12              		.eabi_attribute 18, 4
  13              		.file	"stm32l0xx_hal_timebase_tim.c"
  14              		.text
  15              	.Ltext0:
  16              		.cfi_sections	.debug_frame
  17              		.global	htim2
  18              		.section	.bss.htim2,"aw",%nobits
  19              		.align	2
  22              	htim2:
  23 0000 00000000 		.space	64
  23      00000000 
  23      00000000 
  23      00000000 
  23      00000000 
  24              		.global	__aeabi_uidiv
  25              		.section	.text.HAL_InitTick,"ax",%progbits
  26              		.align	1
  27              		.global	HAL_InitTick
  28              		.syntax unified
  29              		.code	16
  30              		.thumb_func
  32              	HAL_InitTick:
  33              	.LFB47:
  34              		.file 1 "Core/Src/stm32l0xx_hal_timebase_tim.c"
   1:Core/Src/stm32l0xx_hal_timebase_tim.c **** /* USER CODE BEGIN Header */
   2:Core/Src/stm32l0xx_hal_timebase_tim.c **** /**
   3:Core/Src/stm32l0xx_hal_timebase_tim.c ****   ******************************************************************************
   4:Core/Src/stm32l0xx_hal_timebase_tim.c ****   * @file    stm32l0xx_hal_timebase_TIM.c
   5:Core/Src/stm32l0xx_hal_timebase_tim.c ****   * @brief   HAL time base based on the hardware TIM.
   6:Core/Src/stm32l0xx_hal_timebase_tim.c ****   ******************************************************************************
   7:Core/Src/stm32l0xx_hal_timebase_tim.c ****   * @attention
   8:Core/Src/stm32l0xx_hal_timebase_tim.c ****   *
   9:Core/Src/stm32l0xx_hal_timebase_tim.c ****   * Copyright (c) 2022 STMicroelectronics.
  10:Core/Src/stm32l0xx_hal_timebase_tim.c ****   * All rights reserved.
  11:Core/Src/stm32l0xx_hal_timebase_tim.c ****   *
  12:Core/Src/stm32l0xx_hal_timebase_tim.c ****   * This software is licensed under terms that can be found in the LICENSE file
  13:Core/Src/stm32l0xx_hal_timebase_tim.c ****   * in the root directory of this software component.
  14:Core/Src/stm32l0xx_hal_timebase_tim.c ****   * If no LICENSE file comes with this software, it is provided AS-IS.
  15:Core/Src/stm32l0xx_hal_timebase_tim.c ****   *
  16:Core/Src/stm32l0xx_hal_timebase_tim.c ****   ******************************************************************************
  17:Core/Src/stm32l0xx_hal_timebase_tim.c ****   */
  18:Core/Src/stm32l0xx_hal_timebase_tim.c **** /* USER CODE END Header */
  19:Core/Src/stm32l0xx_hal_timebase_tim.c **** 
  20:Core/Src/stm32l0xx_hal_timebase_tim.c **** /* Includes ------------------------------------------------------------------*/
  21:Core/Src/stm32l0xx_hal_timebase_tim.c **** #include "stm32l0xx_hal.h"
  22:Core/Src/stm32l0xx_hal_timebase_tim.c **** #include "stm32l0xx_hal_tim.h"
ARM GAS  C:\Users\lidka\AppData\Local\Temp\ccz4b9BB.s 			page 2


  23:Core/Src/stm32l0xx_hal_timebase_tim.c **** 
  24:Core/Src/stm32l0xx_hal_timebase_tim.c **** /* Private typedef -----------------------------------------------------------*/
  25:Core/Src/stm32l0xx_hal_timebase_tim.c **** /* Private define ------------------------------------------------------------*/
  26:Core/Src/stm32l0xx_hal_timebase_tim.c **** /* Private macro -------------------------------------------------------------*/
  27:Core/Src/stm32l0xx_hal_timebase_tim.c **** /* Private variables ---------------------------------------------------------*/
  28:Core/Src/stm32l0xx_hal_timebase_tim.c **** TIM_HandleTypeDef        htim2;
  29:Core/Src/stm32l0xx_hal_timebase_tim.c **** /* Private function prototypes -----------------------------------------------*/
  30:Core/Src/stm32l0xx_hal_timebase_tim.c **** /* Private functions ---------------------------------------------------------*/
  31:Core/Src/stm32l0xx_hal_timebase_tim.c **** 
  32:Core/Src/stm32l0xx_hal_timebase_tim.c **** /**
  33:Core/Src/stm32l0xx_hal_timebase_tim.c ****   * @brief  This function configures the TIM2 as a time base source.
  34:Core/Src/stm32l0xx_hal_timebase_tim.c ****   *         The time source is configured  to have 1ms time base with a dedicated
  35:Core/Src/stm32l0xx_hal_timebase_tim.c ****   *         Tick interrupt priority.
  36:Core/Src/stm32l0xx_hal_timebase_tim.c ****   * @note   This function is called  automatically at the beginning of program after
  37:Core/Src/stm32l0xx_hal_timebase_tim.c ****   *         reset by HAL_Init() or at any time when clock is configured, by HAL_RCC_ClockConfig().
  38:Core/Src/stm32l0xx_hal_timebase_tim.c ****   * @param  TickPriority: Tick interrupt priority.
  39:Core/Src/stm32l0xx_hal_timebase_tim.c ****   * @retval HAL status
  40:Core/Src/stm32l0xx_hal_timebase_tim.c ****   */
  41:Core/Src/stm32l0xx_hal_timebase_tim.c **** HAL_StatusTypeDef HAL_InitTick(uint32_t TickPriority)
  42:Core/Src/stm32l0xx_hal_timebase_tim.c **** {
  35              		.loc 1 42 1
  36              		.cfi_startproc
  37              		@ args = 0, pretend = 0, frame = 40
  38              		@ frame_needed = 1, uses_anonymous_args = 0
  39 0000 80B5     		push	{r7, lr}
  40              	.LCFI0:
  41              		.cfi_def_cfa_offset 8
  42              		.cfi_offset 7, -8
  43              		.cfi_offset 14, -4
  44 0002 8AB0     		sub	sp, sp, #40
  45              	.LCFI1:
  46              		.cfi_def_cfa_offset 48
  47 0004 00AF     		add	r7, sp, #0
  48              	.LCFI2:
  49              		.cfi_def_cfa_register 7
  50 0006 7860     		str	r0, [r7, #4]
  43:Core/Src/stm32l0xx_hal_timebase_tim.c ****   RCC_ClkInitTypeDef    clkconfig;
  44:Core/Src/stm32l0xx_hal_timebase_tim.c ****   uint32_t              uwTimclock = 0;
  51              		.loc 1 44 25
  52 0008 0023     		movs	r3, #0
  53 000a 7B62     		str	r3, [r7, #36]
  45:Core/Src/stm32l0xx_hal_timebase_tim.c ****   uint32_t              uwPrescalerValue = 0;
  54              		.loc 1 45 25
  55 000c 0023     		movs	r3, #0
  56 000e 3B62     		str	r3, [r7, #32]
  46:Core/Src/stm32l0xx_hal_timebase_tim.c ****   uint32_t              pFLatency;
  47:Core/Src/stm32l0xx_hal_timebase_tim.c ****   /*Configure the TIM2 IRQ priority */
  48:Core/Src/stm32l0xx_hal_timebase_tim.c ****   HAL_NVIC_SetPriority(TIM2_IRQn, TickPriority ,0);
  57              		.loc 1 48 3
  58 0010 7B68     		ldr	r3, [r7, #4]
  59 0012 0022     		movs	r2, #0
  60 0014 1900     		movs	r1, r3
  61 0016 0F20     		movs	r0, #15
  62 0018 FFF7FEFF 		bl	HAL_NVIC_SetPriority
  49:Core/Src/stm32l0xx_hal_timebase_tim.c **** 
  50:Core/Src/stm32l0xx_hal_timebase_tim.c ****   /* Enable the TIM2 global Interrupt */
  51:Core/Src/stm32l0xx_hal_timebase_tim.c ****   HAL_NVIC_EnableIRQ(TIM2_IRQn);
ARM GAS  C:\Users\lidka\AppData\Local\Temp\ccz4b9BB.s 			page 3


  63              		.loc 1 51 3
  64 001c 0F20     		movs	r0, #15
  65 001e FFF7FEFF 		bl	HAL_NVIC_EnableIRQ
  52:Core/Src/stm32l0xx_hal_timebase_tim.c **** 
  53:Core/Src/stm32l0xx_hal_timebase_tim.c ****   /* Enable TIM2 clock */
  54:Core/Src/stm32l0xx_hal_timebase_tim.c ****   __HAL_RCC_TIM2_CLK_ENABLE();
  66              		.loc 1 54 3
  67 0022 1D4B     		ldr	r3, .L5
  68 0024 9A6B     		ldr	r2, [r3, #56]
  69 0026 1C4B     		ldr	r3, .L5
  70 0028 0121     		movs	r1, #1
  71 002a 0A43     		orrs	r2, r1
  72 002c 9A63     		str	r2, [r3, #56]
  55:Core/Src/stm32l0xx_hal_timebase_tim.c **** 
  56:Core/Src/stm32l0xx_hal_timebase_tim.c ****   /* Get clock configuration */
  57:Core/Src/stm32l0xx_hal_timebase_tim.c ****   HAL_RCC_GetClockConfig(&clkconfig, &pFLatency);
  73              		.loc 1 57 3
  74 002e 0823     		movs	r3, #8
  75 0030 FA18     		adds	r2, r7, r3
  76 0032 0C23     		movs	r3, #12
  77 0034 FB18     		adds	r3, r7, r3
  78 0036 1100     		movs	r1, r2
  79 0038 1800     		movs	r0, r3
  80 003a FFF7FEFF 		bl	HAL_RCC_GetClockConfig
  58:Core/Src/stm32l0xx_hal_timebase_tim.c **** 
  59:Core/Src/stm32l0xx_hal_timebase_tim.c ****   /* Compute TIM2 clock */
  60:Core/Src/stm32l0xx_hal_timebase_tim.c ****   uwTimclock = HAL_RCC_GetPCLK1Freq();
  81              		.loc 1 60 16
  82 003e FFF7FEFF 		bl	HAL_RCC_GetPCLK1Freq
  83 0042 0300     		movs	r3, r0
  84 0044 7B62     		str	r3, [r7, #36]
  61:Core/Src/stm32l0xx_hal_timebase_tim.c ****   /* Compute the prescaler value to have TIM2 counter clock equal to 1MHz */
  62:Core/Src/stm32l0xx_hal_timebase_tim.c ****   uwPrescalerValue = (uint32_t) ((uwTimclock / 1000000U) - 1U);
  85              		.loc 1 62 46
  86 0046 7B6A     		ldr	r3, [r7, #36]
  87 0048 1449     		ldr	r1, .L5+4
  88 004a 1800     		movs	r0, r3
  89 004c FFF7FEFF 		bl	__aeabi_uidiv
  90 0050 0300     		movs	r3, r0
  91              		.loc 1 62 20
  92 0052 013B     		subs	r3, r3, #1
  93 0054 3B62     		str	r3, [r7, #32]
  63:Core/Src/stm32l0xx_hal_timebase_tim.c **** 
  64:Core/Src/stm32l0xx_hal_timebase_tim.c ****   /* Initialize TIM2 */
  65:Core/Src/stm32l0xx_hal_timebase_tim.c ****   htim2.Instance = TIM2;
  94              		.loc 1 65 18
  95 0056 124B     		ldr	r3, .L5+8
  96 0058 8022     		movs	r2, #128
  97 005a D205     		lsls	r2, r2, #23
  98 005c 1A60     		str	r2, [r3]
  66:Core/Src/stm32l0xx_hal_timebase_tim.c **** 
  67:Core/Src/stm32l0xx_hal_timebase_tim.c ****   /* Initialize TIMx peripheral as follow:
  68:Core/Src/stm32l0xx_hal_timebase_tim.c ****   + Period = [(TIM2CLK/1000) - 1]. to have a (1/1000) s time base.
  69:Core/Src/stm32l0xx_hal_timebase_tim.c ****   + Prescaler = (uwTimclock/1000000 - 1) to have a 1MHz counter clock.
  70:Core/Src/stm32l0xx_hal_timebase_tim.c ****   + ClockDivision = 0
  71:Core/Src/stm32l0xx_hal_timebase_tim.c ****   + Counter direction = Up
  72:Core/Src/stm32l0xx_hal_timebase_tim.c ****   */
ARM GAS  C:\Users\lidka\AppData\Local\Temp\ccz4b9BB.s 			page 4


  73:Core/Src/stm32l0xx_hal_timebase_tim.c ****   htim2.Init.Period = (1000000U / 1000U) - 1U;
  99              		.loc 1 73 21
 100 005e 104B     		ldr	r3, .L5+8
 101 0060 104A     		ldr	r2, .L5+12
 102 0062 DA60     		str	r2, [r3, #12]
  74:Core/Src/stm32l0xx_hal_timebase_tim.c ****   htim2.Init.Prescaler = uwPrescalerValue;
 103              		.loc 1 74 24
 104 0064 0E4B     		ldr	r3, .L5+8
 105 0066 3A6A     		ldr	r2, [r7, #32]
 106 0068 5A60     		str	r2, [r3, #4]
  75:Core/Src/stm32l0xx_hal_timebase_tim.c ****   htim2.Init.ClockDivision = 0;
 107              		.loc 1 75 28
 108 006a 0D4B     		ldr	r3, .L5+8
 109 006c 0022     		movs	r2, #0
 110 006e 1A61     		str	r2, [r3, #16]
  76:Core/Src/stm32l0xx_hal_timebase_tim.c ****   htim2.Init.CounterMode = TIM_COUNTERMODE_UP;
 111              		.loc 1 76 26
 112 0070 0B4B     		ldr	r3, .L5+8
 113 0072 0022     		movs	r2, #0
 114 0074 9A60     		str	r2, [r3, #8]
  77:Core/Src/stm32l0xx_hal_timebase_tim.c **** 
  78:Core/Src/stm32l0xx_hal_timebase_tim.c ****   if(HAL_TIM_Base_Init(&htim2) == HAL_OK)
 115              		.loc 1 78 6
 116 0076 0A4B     		ldr	r3, .L5+8
 117 0078 1800     		movs	r0, r3
 118 007a FFF7FEFF 		bl	HAL_TIM_Base_Init
 119 007e 031E     		subs	r3, r0, #0
 120              		.loc 1 78 5
 121 0080 05D1     		bne	.L2
  79:Core/Src/stm32l0xx_hal_timebase_tim.c ****   {
  80:Core/Src/stm32l0xx_hal_timebase_tim.c ****     /* Start the TIM time Base generation in interrupt mode */
  81:Core/Src/stm32l0xx_hal_timebase_tim.c ****     return HAL_TIM_Base_Start_IT(&htim2);
 122              		.loc 1 81 12
 123 0082 074B     		ldr	r3, .L5+8
 124 0084 1800     		movs	r0, r3
 125 0086 FFF7FEFF 		bl	HAL_TIM_Base_Start_IT
 126 008a 0300     		movs	r3, r0
 127 008c 00E0     		b	.L4
 128              	.L2:
  82:Core/Src/stm32l0xx_hal_timebase_tim.c ****   }
  83:Core/Src/stm32l0xx_hal_timebase_tim.c **** 
  84:Core/Src/stm32l0xx_hal_timebase_tim.c ****   /* Return function status */
  85:Core/Src/stm32l0xx_hal_timebase_tim.c ****   return HAL_ERROR;
 129              		.loc 1 85 10
 130 008e 0123     		movs	r3, #1
 131              	.L4:
  86:Core/Src/stm32l0xx_hal_timebase_tim.c **** }
 132              		.loc 1 86 1 discriminator 1
 133 0090 1800     		movs	r0, r3
 134 0092 BD46     		mov	sp, r7
 135 0094 0AB0     		add	sp, sp, #40
 136              		@ sp needed
 137 0096 80BD     		pop	{r7, pc}
 138              	.L6:
 139              		.align	2
 140              	.L5:
 141 0098 00100240 		.word	1073876992
ARM GAS  C:\Users\lidka\AppData\Local\Temp\ccz4b9BB.s 			page 5


 142 009c 40420F00 		.word	1000000
 143 00a0 00000000 		.word	htim2
 144 00a4 E7030000 		.word	999
 145              		.cfi_endproc
 146              	.LFE47:
 148              		.section	.text.HAL_SuspendTick,"ax",%progbits
 149              		.align	1
 150              		.global	HAL_SuspendTick
 151              		.syntax unified
 152              		.code	16
 153              		.thumb_func
 155              	HAL_SuspendTick:
 156              	.LFB48:
  87:Core/Src/stm32l0xx_hal_timebase_tim.c **** 
  88:Core/Src/stm32l0xx_hal_timebase_tim.c **** /**
  89:Core/Src/stm32l0xx_hal_timebase_tim.c ****   * @brief  Suspend Tick increment.
  90:Core/Src/stm32l0xx_hal_timebase_tim.c ****   * @note   Disable the tick increment by disabling TIM2 update interrupt.
  91:Core/Src/stm32l0xx_hal_timebase_tim.c ****   * @param  None
  92:Core/Src/stm32l0xx_hal_timebase_tim.c ****   * @retval None
  93:Core/Src/stm32l0xx_hal_timebase_tim.c ****   */
  94:Core/Src/stm32l0xx_hal_timebase_tim.c **** void HAL_SuspendTick(void)
  95:Core/Src/stm32l0xx_hal_timebase_tim.c **** {
 157              		.loc 1 95 1
 158              		.cfi_startproc
 159              		@ args = 0, pretend = 0, frame = 0
 160              		@ frame_needed = 1, uses_anonymous_args = 0
 161 0000 80B5     		push	{r7, lr}
 162              	.LCFI3:
 163              		.cfi_def_cfa_offset 8
 164              		.cfi_offset 7, -8
 165              		.cfi_offset 14, -4
 166 0002 00AF     		add	r7, sp, #0
 167              	.LCFI4:
 168              		.cfi_def_cfa_register 7
  96:Core/Src/stm32l0xx_hal_timebase_tim.c ****   /* Disable TIM2 update Interrupt */
  97:Core/Src/stm32l0xx_hal_timebase_tim.c ****   __HAL_TIM_DISABLE_IT(&htim2, TIM_IT_UPDATE);
 169              		.loc 1 97 3
 170 0004 054B     		ldr	r3, .L8
 171 0006 1B68     		ldr	r3, [r3]
 172 0008 DA68     		ldr	r2, [r3, #12]
 173 000a 044B     		ldr	r3, .L8
 174 000c 1B68     		ldr	r3, [r3]
 175 000e 0121     		movs	r1, #1
 176 0010 8A43     		bics	r2, r1
 177 0012 DA60     		str	r2, [r3, #12]
  98:Core/Src/stm32l0xx_hal_timebase_tim.c **** }
 178              		.loc 1 98 1
 179 0014 C046     		nop
 180 0016 BD46     		mov	sp, r7
 181              		@ sp needed
 182 0018 80BD     		pop	{r7, pc}
 183              	.L9:
 184 001a C046     		.align	2
 185              	.L8:
 186 001c 00000000 		.word	htim2
 187              		.cfi_endproc
 188              	.LFE48:
ARM GAS  C:\Users\lidka\AppData\Local\Temp\ccz4b9BB.s 			page 6


 190              		.section	.text.HAL_ResumeTick,"ax",%progbits
 191              		.align	1
 192              		.global	HAL_ResumeTick
 193              		.syntax unified
 194              		.code	16
 195              		.thumb_func
 197              	HAL_ResumeTick:
 198              	.LFB49:
  99:Core/Src/stm32l0xx_hal_timebase_tim.c **** 
 100:Core/Src/stm32l0xx_hal_timebase_tim.c **** /**
 101:Core/Src/stm32l0xx_hal_timebase_tim.c ****   * @brief  Resume Tick increment.
 102:Core/Src/stm32l0xx_hal_timebase_tim.c ****   * @note   Enable the tick increment by Enabling TIM2 update interrupt.
 103:Core/Src/stm32l0xx_hal_timebase_tim.c ****   * @param  None
 104:Core/Src/stm32l0xx_hal_timebase_tim.c ****   * @retval None
 105:Core/Src/stm32l0xx_hal_timebase_tim.c ****   */
 106:Core/Src/stm32l0xx_hal_timebase_tim.c **** void HAL_ResumeTick(void)
 107:Core/Src/stm32l0xx_hal_timebase_tim.c **** {
 199              		.loc 1 107 1
 200              		.cfi_startproc
 201              		@ args = 0, pretend = 0, frame = 0
 202              		@ frame_needed = 1, uses_anonymous_args = 0
 203 0000 80B5     		push	{r7, lr}
 204              	.LCFI5:
 205              		.cfi_def_cfa_offset 8
 206              		.cfi_offset 7, -8
 207              		.cfi_offset 14, -4
 208 0002 00AF     		add	r7, sp, #0
 209              	.LCFI6:
 210              		.cfi_def_cfa_register 7
 108:Core/Src/stm32l0xx_hal_timebase_tim.c ****   /* Enable TIM2 Update interrupt */
 109:Core/Src/stm32l0xx_hal_timebase_tim.c ****   __HAL_TIM_ENABLE_IT(&htim2, TIM_IT_UPDATE);
 211              		.loc 1 109 3
 212 0004 054B     		ldr	r3, .L11
 213 0006 1B68     		ldr	r3, [r3]
 214 0008 DA68     		ldr	r2, [r3, #12]
 215 000a 044B     		ldr	r3, .L11
 216 000c 1B68     		ldr	r3, [r3]
 217 000e 0121     		movs	r1, #1
 218 0010 0A43     		orrs	r2, r1
 219 0012 DA60     		str	r2, [r3, #12]
 110:Core/Src/stm32l0xx_hal_timebase_tim.c **** }
 220              		.loc 1 110 1
 221 0014 C046     		nop
 222 0016 BD46     		mov	sp, r7
 223              		@ sp needed
 224 0018 80BD     		pop	{r7, pc}
 225              	.L12:
 226 001a C046     		.align	2
 227              	.L11:
 228 001c 00000000 		.word	htim2
 229              		.cfi_endproc
 230              	.LFE49:
 232              		.text
 233              	.Letext0:
 234              		.file 2 "d:\\program files (x86)\\gnu arm embedded toolchain\\10 2021.10\\arm-none-eabi\\include\\
 235              		.file 3 "d:\\program files (x86)\\gnu arm embedded toolchain\\10 2021.10\\arm-none-eabi\\include\\
 236              		.file 4 "Drivers/CMSIS/Device/ST/STM32L0xx/Include/stm32l053xx.h"
ARM GAS  C:\Users\lidka\AppData\Local\Temp\ccz4b9BB.s 			page 7


 237              		.file 5 "Drivers/STM32L0xx_HAL_Driver/Inc/stm32l0xx_hal_def.h"
 238              		.file 6 "Drivers/STM32L0xx_HAL_Driver/Inc/stm32l0xx_hal_rcc.h"
 239              		.file 7 "Drivers/STM32L0xx_HAL_Driver/Inc/stm32l0xx_hal_dma.h"
 240              		.file 8 "Drivers/STM32L0xx_HAL_Driver/Inc/stm32l0xx_hal_tim.h"
ARM GAS  C:\Users\lidka\AppData\Local\Temp\ccz4b9BB.s 			page 8

