ARM GAS  C:\Users\lidka\AppData\Local\Temp\ccqOATUZ.s 			page 1


   1              		.cpu cortex-m0plus
   2              		.arch armv6s-m
   3              		.fpu softvfp
   4              		.eabi_attribute 20, 1
   5              		.eabi_attribute 21, 1
   6              		.eabi_attribute 23, 3
   7              		.eabi_attribute 24, 1
   8              		.eabi_attribute 25, 1
   9              		.eabi_attribute 26, 1
  10              		.eabi_attribute 30, 6
  11              		.eabi_attribute 34, 0
  12              		.eabi_attribute 18, 4
  13              		.file	"stm32l0xx_hal_uart.c"
  14              		.text
  15              	.Ltext0:
  16              		.cfi_sections	.debug_frame
  17              		.section	.text.HAL_UART_Init,"ax",%progbits
  18              		.align	1
  19              		.global	HAL_UART_Init
  20              		.syntax unified
  21              		.code	16
  22              		.thumb_func
  24              	HAL_UART_Init:
  25              	.LFB47:
  26              		.file 1 "Drivers/STM32L0xx_HAL_Driver/Src/stm32l0xx_hal_uart.c"
   1:Drivers/STM32L0xx_HAL_Driver/Src/stm32l0xx_hal_uart.c **** /**
   2:Drivers/STM32L0xx_HAL_Driver/Src/stm32l0xx_hal_uart.c ****   ******************************************************************************
   3:Drivers/STM32L0xx_HAL_Driver/Src/stm32l0xx_hal_uart.c ****   * @file    stm32l0xx_hal_uart.c
   4:Drivers/STM32L0xx_HAL_Driver/Src/stm32l0xx_hal_uart.c ****   * @author  MCD Application Team
   5:Drivers/STM32L0xx_HAL_Driver/Src/stm32l0xx_hal_uart.c ****   * @brief   UART HAL module driver.
   6:Drivers/STM32L0xx_HAL_Driver/Src/stm32l0xx_hal_uart.c ****   *          This file provides firmware functions to manage the following
   7:Drivers/STM32L0xx_HAL_Driver/Src/stm32l0xx_hal_uart.c ****   *          functionalities of the Universal Asynchronous Receiver Transmitter Peripheral (UART).
   8:Drivers/STM32L0xx_HAL_Driver/Src/stm32l0xx_hal_uart.c ****   *           + Initialization and de-initialization functions
   9:Drivers/STM32L0xx_HAL_Driver/Src/stm32l0xx_hal_uart.c ****   *           + IO operation functions
  10:Drivers/STM32L0xx_HAL_Driver/Src/stm32l0xx_hal_uart.c ****   *           + Peripheral Control functions
  11:Drivers/STM32L0xx_HAL_Driver/Src/stm32l0xx_hal_uart.c ****   *
  12:Drivers/STM32L0xx_HAL_Driver/Src/stm32l0xx_hal_uart.c ****   *
  13:Drivers/STM32L0xx_HAL_Driver/Src/stm32l0xx_hal_uart.c ****   @verbatim
  14:Drivers/STM32L0xx_HAL_Driver/Src/stm32l0xx_hal_uart.c ****  ===============================================================================
  15:Drivers/STM32L0xx_HAL_Driver/Src/stm32l0xx_hal_uart.c ****                         ##### How to use this driver #####
  16:Drivers/STM32L0xx_HAL_Driver/Src/stm32l0xx_hal_uart.c ****  ===============================================================================
  17:Drivers/STM32L0xx_HAL_Driver/Src/stm32l0xx_hal_uart.c ****   [..]
  18:Drivers/STM32L0xx_HAL_Driver/Src/stm32l0xx_hal_uart.c ****     The UART HAL driver can be used as follows:
  19:Drivers/STM32L0xx_HAL_Driver/Src/stm32l0xx_hal_uart.c **** 
  20:Drivers/STM32L0xx_HAL_Driver/Src/stm32l0xx_hal_uart.c ****     (#) Declare a UART_HandleTypeDef handle structure (eg. UART_HandleTypeDef huart).
  21:Drivers/STM32L0xx_HAL_Driver/Src/stm32l0xx_hal_uart.c ****     (#) Initialize the UART low level resources by implementing the HAL_UART_MspInit() API:
  22:Drivers/STM32L0xx_HAL_Driver/Src/stm32l0xx_hal_uart.c ****         (++) Enable the USARTx interface clock.
  23:Drivers/STM32L0xx_HAL_Driver/Src/stm32l0xx_hal_uart.c ****         (++) UART pins configuration:
  24:Drivers/STM32L0xx_HAL_Driver/Src/stm32l0xx_hal_uart.c ****             (+++) Enable the clock for the UART GPIOs.
  25:Drivers/STM32L0xx_HAL_Driver/Src/stm32l0xx_hal_uart.c ****             (+++) Configure these UART pins as alternate function pull-up.
  26:Drivers/STM32L0xx_HAL_Driver/Src/stm32l0xx_hal_uart.c ****         (++) NVIC configuration if you need to use interrupt process (HAL_UART_Transmit_IT()
  27:Drivers/STM32L0xx_HAL_Driver/Src/stm32l0xx_hal_uart.c ****              and HAL_UART_Receive_IT() APIs):
  28:Drivers/STM32L0xx_HAL_Driver/Src/stm32l0xx_hal_uart.c ****             (+++) Configure the USARTx interrupt priority.
  29:Drivers/STM32L0xx_HAL_Driver/Src/stm32l0xx_hal_uart.c ****             (+++) Enable the NVIC USART IRQ handle.
  30:Drivers/STM32L0xx_HAL_Driver/Src/stm32l0xx_hal_uart.c ****         (++) UART interrupts handling:
  31:Drivers/STM32L0xx_HAL_Driver/Src/stm32l0xx_hal_uart.c ****               -@@-  The specific UART interrupts (Transmission complete interrupt,
  32:Drivers/STM32L0xx_HAL_Driver/Src/stm32l0xx_hal_uart.c ****                 RXNE interrupt, RX/TX FIFOs related interrupts and Error Interrupts)
ARM GAS  C:\Users\lidka\AppData\Local\Temp\ccqOATUZ.s 			page 2


  33:Drivers/STM32L0xx_HAL_Driver/Src/stm32l0xx_hal_uart.c ****                 are managed using the macros __HAL_UART_ENABLE_IT() and __HAL_UART_DISABLE_IT()
  34:Drivers/STM32L0xx_HAL_Driver/Src/stm32l0xx_hal_uart.c ****                 inside the transmit and receive processes.
  35:Drivers/STM32L0xx_HAL_Driver/Src/stm32l0xx_hal_uart.c ****         (++) DMA Configuration if you need to use DMA process (HAL_UART_Transmit_DMA()
  36:Drivers/STM32L0xx_HAL_Driver/Src/stm32l0xx_hal_uart.c ****              and HAL_UART_Receive_DMA() APIs):
  37:Drivers/STM32L0xx_HAL_Driver/Src/stm32l0xx_hal_uart.c ****             (+++) Declare a DMA handle structure for the Tx/Rx channel.
  38:Drivers/STM32L0xx_HAL_Driver/Src/stm32l0xx_hal_uart.c ****             (+++) Enable the DMAx interface clock.
  39:Drivers/STM32L0xx_HAL_Driver/Src/stm32l0xx_hal_uart.c ****             (+++) Configure the declared DMA handle structure with the required Tx/Rx parameters.
  40:Drivers/STM32L0xx_HAL_Driver/Src/stm32l0xx_hal_uart.c ****             (+++) Configure the DMA Tx/Rx channel.
  41:Drivers/STM32L0xx_HAL_Driver/Src/stm32l0xx_hal_uart.c ****             (+++) Associate the initialized DMA handle to the UART DMA Tx/Rx handle.
  42:Drivers/STM32L0xx_HAL_Driver/Src/stm32l0xx_hal_uart.c ****             (+++) Configure the priority and enable the NVIC for the transfer complete
  43:Drivers/STM32L0xx_HAL_Driver/Src/stm32l0xx_hal_uart.c ****                   interrupt on the DMA Tx/Rx channel.
  44:Drivers/STM32L0xx_HAL_Driver/Src/stm32l0xx_hal_uart.c **** 
  45:Drivers/STM32L0xx_HAL_Driver/Src/stm32l0xx_hal_uart.c ****     (#) Program the Baud Rate, Word Length, Stop Bit, Parity, Hardware
  46:Drivers/STM32L0xx_HAL_Driver/Src/stm32l0xx_hal_uart.c ****         flow control and Mode (Receiver/Transmitter) in the huart handle Init structure.
  47:Drivers/STM32L0xx_HAL_Driver/Src/stm32l0xx_hal_uart.c **** 
  48:Drivers/STM32L0xx_HAL_Driver/Src/stm32l0xx_hal_uart.c ****     (#) If required, program UART advanced features (TX/RX pins swap, auto Baud rate detection,...)
  49:Drivers/STM32L0xx_HAL_Driver/Src/stm32l0xx_hal_uart.c ****         in the huart handle AdvancedInit structure.
  50:Drivers/STM32L0xx_HAL_Driver/Src/stm32l0xx_hal_uart.c **** 
  51:Drivers/STM32L0xx_HAL_Driver/Src/stm32l0xx_hal_uart.c ****     (#) For the UART asynchronous mode, initialize the UART registers by calling
  52:Drivers/STM32L0xx_HAL_Driver/Src/stm32l0xx_hal_uart.c ****         the HAL_UART_Init() API.
  53:Drivers/STM32L0xx_HAL_Driver/Src/stm32l0xx_hal_uart.c **** 
  54:Drivers/STM32L0xx_HAL_Driver/Src/stm32l0xx_hal_uart.c ****     (#) For the UART Half duplex mode, initialize the UART registers by calling
  55:Drivers/STM32L0xx_HAL_Driver/Src/stm32l0xx_hal_uart.c ****         the HAL_HalfDuplex_Init() API.
  56:Drivers/STM32L0xx_HAL_Driver/Src/stm32l0xx_hal_uart.c **** 
  57:Drivers/STM32L0xx_HAL_Driver/Src/stm32l0xx_hal_uart.c ****     (#) For the UART LIN (Local Interconnection Network) mode, initialize the UART registers
  58:Drivers/STM32L0xx_HAL_Driver/Src/stm32l0xx_hal_uart.c ****         by calling the HAL_LIN_Init() API.
  59:Drivers/STM32L0xx_HAL_Driver/Src/stm32l0xx_hal_uart.c **** 
  60:Drivers/STM32L0xx_HAL_Driver/Src/stm32l0xx_hal_uart.c ****     (#) For the UART Multiprocessor mode, initialize the UART registers
  61:Drivers/STM32L0xx_HAL_Driver/Src/stm32l0xx_hal_uart.c ****         by calling the HAL_MultiProcessor_Init() API.
  62:Drivers/STM32L0xx_HAL_Driver/Src/stm32l0xx_hal_uart.c **** 
  63:Drivers/STM32L0xx_HAL_Driver/Src/stm32l0xx_hal_uart.c ****     (#) For the UART RS485 Driver Enabled mode, initialize the UART registers
  64:Drivers/STM32L0xx_HAL_Driver/Src/stm32l0xx_hal_uart.c ****         by calling the HAL_RS485Ex_Init() API.
  65:Drivers/STM32L0xx_HAL_Driver/Src/stm32l0xx_hal_uart.c **** 
  66:Drivers/STM32L0xx_HAL_Driver/Src/stm32l0xx_hal_uart.c ****     [..]
  67:Drivers/STM32L0xx_HAL_Driver/Src/stm32l0xx_hal_uart.c ****     (@) These API's (HAL_UART_Init(), HAL_HalfDuplex_Init(), HAL_LIN_Init(), HAL_MultiProcessor_Ini
  68:Drivers/STM32L0xx_HAL_Driver/Src/stm32l0xx_hal_uart.c ****         also configure the low level Hardware GPIO, CLOCK, CORTEX...etc) by
  69:Drivers/STM32L0xx_HAL_Driver/Src/stm32l0xx_hal_uart.c ****         calling the customized HAL_UART_MspInit() API.
  70:Drivers/STM32L0xx_HAL_Driver/Src/stm32l0xx_hal_uart.c **** 
  71:Drivers/STM32L0xx_HAL_Driver/Src/stm32l0xx_hal_uart.c ****     ##### Callback registration #####
  72:Drivers/STM32L0xx_HAL_Driver/Src/stm32l0xx_hal_uart.c ****     ==================================
  73:Drivers/STM32L0xx_HAL_Driver/Src/stm32l0xx_hal_uart.c **** 
  74:Drivers/STM32L0xx_HAL_Driver/Src/stm32l0xx_hal_uart.c ****     [..]
  75:Drivers/STM32L0xx_HAL_Driver/Src/stm32l0xx_hal_uart.c ****     The compilation define USE_HAL_UART_REGISTER_CALLBACKS when set to 1
  76:Drivers/STM32L0xx_HAL_Driver/Src/stm32l0xx_hal_uart.c ****     allows the user to configure dynamically the driver callbacks.
  77:Drivers/STM32L0xx_HAL_Driver/Src/stm32l0xx_hal_uart.c **** 
  78:Drivers/STM32L0xx_HAL_Driver/Src/stm32l0xx_hal_uart.c ****     [..]
  79:Drivers/STM32L0xx_HAL_Driver/Src/stm32l0xx_hal_uart.c ****     Use Function HAL_UART_RegisterCallback() to register a user callback.
  80:Drivers/STM32L0xx_HAL_Driver/Src/stm32l0xx_hal_uart.c ****     Function HAL_UART_RegisterCallback() allows to register following callbacks:
  81:Drivers/STM32L0xx_HAL_Driver/Src/stm32l0xx_hal_uart.c ****     (+) TxHalfCpltCallback        : Tx Half Complete Callback.
  82:Drivers/STM32L0xx_HAL_Driver/Src/stm32l0xx_hal_uart.c ****     (+) TxCpltCallback            : Tx Complete Callback.
  83:Drivers/STM32L0xx_HAL_Driver/Src/stm32l0xx_hal_uart.c ****     (+) RxHalfCpltCallback        : Rx Half Complete Callback.
  84:Drivers/STM32L0xx_HAL_Driver/Src/stm32l0xx_hal_uart.c ****     (+) RxCpltCallback            : Rx Complete Callback.
  85:Drivers/STM32L0xx_HAL_Driver/Src/stm32l0xx_hal_uart.c ****     (+) ErrorCallback             : Error Callback.
  86:Drivers/STM32L0xx_HAL_Driver/Src/stm32l0xx_hal_uart.c ****     (+) AbortCpltCallback         : Abort Complete Callback.
  87:Drivers/STM32L0xx_HAL_Driver/Src/stm32l0xx_hal_uart.c ****     (+) AbortTransmitCpltCallback : Abort Transmit Complete Callback.
  88:Drivers/STM32L0xx_HAL_Driver/Src/stm32l0xx_hal_uart.c ****     (+) AbortReceiveCpltCallback  : Abort Receive Complete Callback.
  89:Drivers/STM32L0xx_HAL_Driver/Src/stm32l0xx_hal_uart.c ****     (+) WakeupCallback            : Wakeup Callback.
ARM GAS  C:\Users\lidka\AppData\Local\Temp\ccqOATUZ.s 			page 3


  90:Drivers/STM32L0xx_HAL_Driver/Src/stm32l0xx_hal_uart.c ****     (+) MspInitCallback           : UART MspInit.
  91:Drivers/STM32L0xx_HAL_Driver/Src/stm32l0xx_hal_uart.c ****     (+) MspDeInitCallback         : UART MspDeInit.
  92:Drivers/STM32L0xx_HAL_Driver/Src/stm32l0xx_hal_uart.c ****     This function takes as parameters the HAL peripheral handle, the Callback ID
  93:Drivers/STM32L0xx_HAL_Driver/Src/stm32l0xx_hal_uart.c ****     and a pointer to the user callback function.
  94:Drivers/STM32L0xx_HAL_Driver/Src/stm32l0xx_hal_uart.c **** 
  95:Drivers/STM32L0xx_HAL_Driver/Src/stm32l0xx_hal_uart.c ****     [..]
  96:Drivers/STM32L0xx_HAL_Driver/Src/stm32l0xx_hal_uart.c ****     Use function HAL_UART_UnRegisterCallback() to reset a callback to the default
  97:Drivers/STM32L0xx_HAL_Driver/Src/stm32l0xx_hal_uart.c ****     weak (surcharged) function.
  98:Drivers/STM32L0xx_HAL_Driver/Src/stm32l0xx_hal_uart.c ****     HAL_UART_UnRegisterCallback() takes as parameters the HAL peripheral handle,
  99:Drivers/STM32L0xx_HAL_Driver/Src/stm32l0xx_hal_uart.c ****     and the Callback ID.
 100:Drivers/STM32L0xx_HAL_Driver/Src/stm32l0xx_hal_uart.c ****     This function allows to reset following callbacks:
 101:Drivers/STM32L0xx_HAL_Driver/Src/stm32l0xx_hal_uart.c ****     (+) TxHalfCpltCallback        : Tx Half Complete Callback.
 102:Drivers/STM32L0xx_HAL_Driver/Src/stm32l0xx_hal_uart.c ****     (+) TxCpltCallback            : Tx Complete Callback.
 103:Drivers/STM32L0xx_HAL_Driver/Src/stm32l0xx_hal_uart.c ****     (+) RxHalfCpltCallback        : Rx Half Complete Callback.
 104:Drivers/STM32L0xx_HAL_Driver/Src/stm32l0xx_hal_uart.c ****     (+) RxCpltCallback            : Rx Complete Callback.
 105:Drivers/STM32L0xx_HAL_Driver/Src/stm32l0xx_hal_uart.c ****     (+) ErrorCallback             : Error Callback.
 106:Drivers/STM32L0xx_HAL_Driver/Src/stm32l0xx_hal_uart.c ****     (+) AbortCpltCallback         : Abort Complete Callback.
 107:Drivers/STM32L0xx_HAL_Driver/Src/stm32l0xx_hal_uart.c ****     (+) AbortTransmitCpltCallback : Abort Transmit Complete Callback.
 108:Drivers/STM32L0xx_HAL_Driver/Src/stm32l0xx_hal_uart.c ****     (+) AbortReceiveCpltCallback  : Abort Receive Complete Callback.
 109:Drivers/STM32L0xx_HAL_Driver/Src/stm32l0xx_hal_uart.c ****     (+) WakeupCallback            : Wakeup Callback.
 110:Drivers/STM32L0xx_HAL_Driver/Src/stm32l0xx_hal_uart.c ****     (+) MspInitCallback           : UART MspInit.
 111:Drivers/STM32L0xx_HAL_Driver/Src/stm32l0xx_hal_uart.c ****     (+) MspDeInitCallback         : UART MspDeInit.
 112:Drivers/STM32L0xx_HAL_Driver/Src/stm32l0xx_hal_uart.c **** 
 113:Drivers/STM32L0xx_HAL_Driver/Src/stm32l0xx_hal_uart.c ****     [..]
 114:Drivers/STM32L0xx_HAL_Driver/Src/stm32l0xx_hal_uart.c ****     For specific callback RxEventCallback, use dedicated registration/reset functions:
 115:Drivers/STM32L0xx_HAL_Driver/Src/stm32l0xx_hal_uart.c ****     respectively HAL_UART_RegisterRxEventCallback() , HAL_UART_UnRegisterRxEventCallback().
 116:Drivers/STM32L0xx_HAL_Driver/Src/stm32l0xx_hal_uart.c **** 
 117:Drivers/STM32L0xx_HAL_Driver/Src/stm32l0xx_hal_uart.c ****     [..]
 118:Drivers/STM32L0xx_HAL_Driver/Src/stm32l0xx_hal_uart.c ****     By default, after the HAL_UART_Init() and when the state is HAL_UART_STATE_RESET
 119:Drivers/STM32L0xx_HAL_Driver/Src/stm32l0xx_hal_uart.c ****     all callbacks are set to the corresponding weak (surcharged) functions:
 120:Drivers/STM32L0xx_HAL_Driver/Src/stm32l0xx_hal_uart.c ****     examples HAL_UART_TxCpltCallback(), HAL_UART_RxHalfCpltCallback().
 121:Drivers/STM32L0xx_HAL_Driver/Src/stm32l0xx_hal_uart.c ****     Exception done for MspInit and MspDeInit functions that are respectively
 122:Drivers/STM32L0xx_HAL_Driver/Src/stm32l0xx_hal_uart.c ****     reset to the legacy weak (surcharged) functions in the HAL_UART_Init()
 123:Drivers/STM32L0xx_HAL_Driver/Src/stm32l0xx_hal_uart.c ****     and HAL_UART_DeInit() only when these callbacks are null (not registered beforehand).
 124:Drivers/STM32L0xx_HAL_Driver/Src/stm32l0xx_hal_uart.c ****     If not, MspInit or MspDeInit are not null, the HAL_UART_Init() and HAL_UART_DeInit()
 125:Drivers/STM32L0xx_HAL_Driver/Src/stm32l0xx_hal_uart.c ****     keep and use the user MspInit/MspDeInit callbacks (registered beforehand).
 126:Drivers/STM32L0xx_HAL_Driver/Src/stm32l0xx_hal_uart.c **** 
 127:Drivers/STM32L0xx_HAL_Driver/Src/stm32l0xx_hal_uart.c ****     [..]
 128:Drivers/STM32L0xx_HAL_Driver/Src/stm32l0xx_hal_uart.c ****     Callbacks can be registered/unregistered in HAL_UART_STATE_READY state only.
 129:Drivers/STM32L0xx_HAL_Driver/Src/stm32l0xx_hal_uart.c ****     Exception done MspInit/MspDeInit that can be registered/unregistered
 130:Drivers/STM32L0xx_HAL_Driver/Src/stm32l0xx_hal_uart.c ****     in HAL_UART_STATE_READY or HAL_UART_STATE_RESET state, thus registered (user)
 131:Drivers/STM32L0xx_HAL_Driver/Src/stm32l0xx_hal_uart.c ****     MspInit/DeInit callbacks can be used during the Init/DeInit.
 132:Drivers/STM32L0xx_HAL_Driver/Src/stm32l0xx_hal_uart.c ****     In that case first register the MspInit/MspDeInit user callbacks
 133:Drivers/STM32L0xx_HAL_Driver/Src/stm32l0xx_hal_uart.c ****     using HAL_UART_RegisterCallback() before calling HAL_UART_DeInit()
 134:Drivers/STM32L0xx_HAL_Driver/Src/stm32l0xx_hal_uart.c ****     or HAL_UART_Init() function.
 135:Drivers/STM32L0xx_HAL_Driver/Src/stm32l0xx_hal_uart.c **** 
 136:Drivers/STM32L0xx_HAL_Driver/Src/stm32l0xx_hal_uart.c ****     [..]
 137:Drivers/STM32L0xx_HAL_Driver/Src/stm32l0xx_hal_uart.c ****     When The compilation define USE_HAL_UART_REGISTER_CALLBACKS is set to 0 or
 138:Drivers/STM32L0xx_HAL_Driver/Src/stm32l0xx_hal_uart.c ****     not defined, the callback registration feature is not available
 139:Drivers/STM32L0xx_HAL_Driver/Src/stm32l0xx_hal_uart.c ****     and weak (surcharged) callbacks are used.
 140:Drivers/STM32L0xx_HAL_Driver/Src/stm32l0xx_hal_uart.c **** 
 141:Drivers/STM32L0xx_HAL_Driver/Src/stm32l0xx_hal_uart.c **** 
 142:Drivers/STM32L0xx_HAL_Driver/Src/stm32l0xx_hal_uart.c ****   @endverbatim
 143:Drivers/STM32L0xx_HAL_Driver/Src/stm32l0xx_hal_uart.c ****   ******************************************************************************
 144:Drivers/STM32L0xx_HAL_Driver/Src/stm32l0xx_hal_uart.c ****   * @attention
 145:Drivers/STM32L0xx_HAL_Driver/Src/stm32l0xx_hal_uart.c ****   *
 146:Drivers/STM32L0xx_HAL_Driver/Src/stm32l0xx_hal_uart.c ****   * <h2><center>&copy; Copyright (c) 2016 STMicroelectronics.
ARM GAS  C:\Users\lidka\AppData\Local\Temp\ccqOATUZ.s 			page 4


 147:Drivers/STM32L0xx_HAL_Driver/Src/stm32l0xx_hal_uart.c ****   * All rights reserved.</center></h2>
 148:Drivers/STM32L0xx_HAL_Driver/Src/stm32l0xx_hal_uart.c ****   *
 149:Drivers/STM32L0xx_HAL_Driver/Src/stm32l0xx_hal_uart.c ****   * This software component is licensed by ST under BSD 3-Clause license,
 150:Drivers/STM32L0xx_HAL_Driver/Src/stm32l0xx_hal_uart.c ****   * the "License"; You may not use this file except in compliance with the
 151:Drivers/STM32L0xx_HAL_Driver/Src/stm32l0xx_hal_uart.c ****   * License. You may obtain a copy of the License at:
 152:Drivers/STM32L0xx_HAL_Driver/Src/stm32l0xx_hal_uart.c ****   *                        opensource.org/licenses/BSD-3-Clause
 153:Drivers/STM32L0xx_HAL_Driver/Src/stm32l0xx_hal_uart.c ****   *
 154:Drivers/STM32L0xx_HAL_Driver/Src/stm32l0xx_hal_uart.c ****   ******************************************************************************
 155:Drivers/STM32L0xx_HAL_Driver/Src/stm32l0xx_hal_uart.c ****   */
 156:Drivers/STM32L0xx_HAL_Driver/Src/stm32l0xx_hal_uart.c **** 
 157:Drivers/STM32L0xx_HAL_Driver/Src/stm32l0xx_hal_uart.c **** /* Includes ------------------------------------------------------------------*/
 158:Drivers/STM32L0xx_HAL_Driver/Src/stm32l0xx_hal_uart.c **** #include "stm32l0xx_hal.h"
 159:Drivers/STM32L0xx_HAL_Driver/Src/stm32l0xx_hal_uart.c **** 
 160:Drivers/STM32L0xx_HAL_Driver/Src/stm32l0xx_hal_uart.c **** /** @addtogroup STM32L0xx_HAL_Driver
 161:Drivers/STM32L0xx_HAL_Driver/Src/stm32l0xx_hal_uart.c ****   * @{
 162:Drivers/STM32L0xx_HAL_Driver/Src/stm32l0xx_hal_uart.c ****   */
 163:Drivers/STM32L0xx_HAL_Driver/Src/stm32l0xx_hal_uart.c **** 
 164:Drivers/STM32L0xx_HAL_Driver/Src/stm32l0xx_hal_uart.c **** /** @defgroup UART UART
 165:Drivers/STM32L0xx_HAL_Driver/Src/stm32l0xx_hal_uart.c ****   * @brief HAL UART module driver
 166:Drivers/STM32L0xx_HAL_Driver/Src/stm32l0xx_hal_uart.c ****   * @{
 167:Drivers/STM32L0xx_HAL_Driver/Src/stm32l0xx_hal_uart.c ****   */
 168:Drivers/STM32L0xx_HAL_Driver/Src/stm32l0xx_hal_uart.c **** 
 169:Drivers/STM32L0xx_HAL_Driver/Src/stm32l0xx_hal_uart.c **** #ifdef HAL_UART_MODULE_ENABLED
 170:Drivers/STM32L0xx_HAL_Driver/Src/stm32l0xx_hal_uart.c **** 
 171:Drivers/STM32L0xx_HAL_Driver/Src/stm32l0xx_hal_uart.c **** /* Private typedef -----------------------------------------------------------*/
 172:Drivers/STM32L0xx_HAL_Driver/Src/stm32l0xx_hal_uart.c **** /* Private define ------------------------------------------------------------*/
 173:Drivers/STM32L0xx_HAL_Driver/Src/stm32l0xx_hal_uart.c **** /** @defgroup UART_Private_Constants UART Private Constants
 174:Drivers/STM32L0xx_HAL_Driver/Src/stm32l0xx_hal_uart.c ****   * @{
 175:Drivers/STM32L0xx_HAL_Driver/Src/stm32l0xx_hal_uart.c ****   */
 176:Drivers/STM32L0xx_HAL_Driver/Src/stm32l0xx_hal_uart.c **** #define USART_CR1_FIELDS  ((uint32_t)(USART_CR1_M | USART_CR1_PCE | USART_CR1_PS | USART_CR1_TE | U
 177:Drivers/STM32L0xx_HAL_Driver/Src/stm32l0xx_hal_uart.c ****                                       USART_CR1_OVER8)) /*!< UART or USART CR1 fields of parameters
 178:Drivers/STM32L0xx_HAL_Driver/Src/stm32l0xx_hal_uart.c **** 
 179:Drivers/STM32L0xx_HAL_Driver/Src/stm32l0xx_hal_uart.c **** #define USART_CR3_FIELDS  ((uint32_t)(USART_CR3_RTSE | USART_CR3_CTSE |\
 180:Drivers/STM32L0xx_HAL_Driver/Src/stm32l0xx_hal_uart.c ****                             USART_CR3_ONEBIT)) /*!< UART or USART CR3 fields of parameters set by U
 181:Drivers/STM32L0xx_HAL_Driver/Src/stm32l0xx_hal_uart.c **** 
 182:Drivers/STM32L0xx_HAL_Driver/Src/stm32l0xx_hal_uart.c **** #define LPUART_BRR_MIN  0x00000300U  /* LPUART BRR minimum authorized value */
 183:Drivers/STM32L0xx_HAL_Driver/Src/stm32l0xx_hal_uart.c **** #define LPUART_BRR_MAX  0x000FFFFFU  /* LPUART BRR maximum authorized value */
 184:Drivers/STM32L0xx_HAL_Driver/Src/stm32l0xx_hal_uart.c **** 
 185:Drivers/STM32L0xx_HAL_Driver/Src/stm32l0xx_hal_uart.c **** #define UART_BRR_MIN    0x10U        /* UART BRR minimum authorized value */
 186:Drivers/STM32L0xx_HAL_Driver/Src/stm32l0xx_hal_uart.c **** #define UART_BRR_MAX    0x0000FFFFU  /* UART BRR maximum authorized value */
 187:Drivers/STM32L0xx_HAL_Driver/Src/stm32l0xx_hal_uart.c **** /**
 188:Drivers/STM32L0xx_HAL_Driver/Src/stm32l0xx_hal_uart.c ****   * @}
 189:Drivers/STM32L0xx_HAL_Driver/Src/stm32l0xx_hal_uart.c ****   */
 190:Drivers/STM32L0xx_HAL_Driver/Src/stm32l0xx_hal_uart.c **** 
 191:Drivers/STM32L0xx_HAL_Driver/Src/stm32l0xx_hal_uart.c **** /* Private macros ------------------------------------------------------------*/
 192:Drivers/STM32L0xx_HAL_Driver/Src/stm32l0xx_hal_uart.c **** /* Private function prototypes -----------------------------------------------*/
 193:Drivers/STM32L0xx_HAL_Driver/Src/stm32l0xx_hal_uart.c **** /** @addtogroup UART_Private_Functions
 194:Drivers/STM32L0xx_HAL_Driver/Src/stm32l0xx_hal_uart.c ****   * @{
 195:Drivers/STM32L0xx_HAL_Driver/Src/stm32l0xx_hal_uart.c ****   */
 196:Drivers/STM32L0xx_HAL_Driver/Src/stm32l0xx_hal_uart.c **** static void UART_EndTxTransfer(UART_HandleTypeDef *huart);
 197:Drivers/STM32L0xx_HAL_Driver/Src/stm32l0xx_hal_uart.c **** static void UART_EndRxTransfer(UART_HandleTypeDef *huart);
 198:Drivers/STM32L0xx_HAL_Driver/Src/stm32l0xx_hal_uart.c **** static void UART_DMATransmitCplt(DMA_HandleTypeDef *hdma);
 199:Drivers/STM32L0xx_HAL_Driver/Src/stm32l0xx_hal_uart.c **** static void UART_DMAReceiveCplt(DMA_HandleTypeDef *hdma);
 200:Drivers/STM32L0xx_HAL_Driver/Src/stm32l0xx_hal_uart.c **** static void UART_DMARxHalfCplt(DMA_HandleTypeDef *hdma);
 201:Drivers/STM32L0xx_HAL_Driver/Src/stm32l0xx_hal_uart.c **** static void UART_DMATxHalfCplt(DMA_HandleTypeDef *hdma);
 202:Drivers/STM32L0xx_HAL_Driver/Src/stm32l0xx_hal_uart.c **** static void UART_DMAError(DMA_HandleTypeDef *hdma);
 203:Drivers/STM32L0xx_HAL_Driver/Src/stm32l0xx_hal_uart.c **** static void UART_DMAAbortOnError(DMA_HandleTypeDef *hdma);
ARM GAS  C:\Users\lidka\AppData\Local\Temp\ccqOATUZ.s 			page 5


 204:Drivers/STM32L0xx_HAL_Driver/Src/stm32l0xx_hal_uart.c **** static void UART_DMATxAbortCallback(DMA_HandleTypeDef *hdma);
 205:Drivers/STM32L0xx_HAL_Driver/Src/stm32l0xx_hal_uart.c **** static void UART_DMARxAbortCallback(DMA_HandleTypeDef *hdma);
 206:Drivers/STM32L0xx_HAL_Driver/Src/stm32l0xx_hal_uart.c **** static void UART_DMATxOnlyAbortCallback(DMA_HandleTypeDef *hdma);
 207:Drivers/STM32L0xx_HAL_Driver/Src/stm32l0xx_hal_uart.c **** static void UART_DMARxOnlyAbortCallback(DMA_HandleTypeDef *hdma);
 208:Drivers/STM32L0xx_HAL_Driver/Src/stm32l0xx_hal_uart.c **** static void UART_TxISR_8BIT(UART_HandleTypeDef *huart);
 209:Drivers/STM32L0xx_HAL_Driver/Src/stm32l0xx_hal_uart.c **** static void UART_TxISR_16BIT(UART_HandleTypeDef *huart);
 210:Drivers/STM32L0xx_HAL_Driver/Src/stm32l0xx_hal_uart.c **** static void UART_EndTransmit_IT(UART_HandleTypeDef *huart);
 211:Drivers/STM32L0xx_HAL_Driver/Src/stm32l0xx_hal_uart.c **** static void UART_RxISR_8BIT(UART_HandleTypeDef *huart);
 212:Drivers/STM32L0xx_HAL_Driver/Src/stm32l0xx_hal_uart.c **** static void UART_RxISR_16BIT(UART_HandleTypeDef *huart);
 213:Drivers/STM32L0xx_HAL_Driver/Src/stm32l0xx_hal_uart.c **** /**
 214:Drivers/STM32L0xx_HAL_Driver/Src/stm32l0xx_hal_uart.c ****   * @}
 215:Drivers/STM32L0xx_HAL_Driver/Src/stm32l0xx_hal_uart.c ****   */
 216:Drivers/STM32L0xx_HAL_Driver/Src/stm32l0xx_hal_uart.c **** 
 217:Drivers/STM32L0xx_HAL_Driver/Src/stm32l0xx_hal_uart.c **** /* Private variables ---------------------------------------------------------*/
 218:Drivers/STM32L0xx_HAL_Driver/Src/stm32l0xx_hal_uart.c **** /* Exported Constants --------------------------------------------------------*/
 219:Drivers/STM32L0xx_HAL_Driver/Src/stm32l0xx_hal_uart.c **** /* Exported functions --------------------------------------------------------*/
 220:Drivers/STM32L0xx_HAL_Driver/Src/stm32l0xx_hal_uart.c **** 
 221:Drivers/STM32L0xx_HAL_Driver/Src/stm32l0xx_hal_uart.c **** /** @defgroup UART_Exported_Functions UART Exported Functions
 222:Drivers/STM32L0xx_HAL_Driver/Src/stm32l0xx_hal_uart.c ****   * @{
 223:Drivers/STM32L0xx_HAL_Driver/Src/stm32l0xx_hal_uart.c ****   */
 224:Drivers/STM32L0xx_HAL_Driver/Src/stm32l0xx_hal_uart.c **** 
 225:Drivers/STM32L0xx_HAL_Driver/Src/stm32l0xx_hal_uart.c **** /** @defgroup UART_Exported_Functions_Group1 Initialization and de-initialization functions
 226:Drivers/STM32L0xx_HAL_Driver/Src/stm32l0xx_hal_uart.c ****   *  @brief    Initialization and Configuration functions
 227:Drivers/STM32L0xx_HAL_Driver/Src/stm32l0xx_hal_uart.c ****   *
 228:Drivers/STM32L0xx_HAL_Driver/Src/stm32l0xx_hal_uart.c **** @verbatim
 229:Drivers/STM32L0xx_HAL_Driver/Src/stm32l0xx_hal_uart.c **** ===============================================================================
 230:Drivers/STM32L0xx_HAL_Driver/Src/stm32l0xx_hal_uart.c ****             ##### Initialization and Configuration functions #####
 231:Drivers/STM32L0xx_HAL_Driver/Src/stm32l0xx_hal_uart.c ****  ===============================================================================
 232:Drivers/STM32L0xx_HAL_Driver/Src/stm32l0xx_hal_uart.c ****     [..]
 233:Drivers/STM32L0xx_HAL_Driver/Src/stm32l0xx_hal_uart.c ****     This subsection provides a set of functions allowing to initialize the USARTx or the UARTy
 234:Drivers/STM32L0xx_HAL_Driver/Src/stm32l0xx_hal_uart.c ****     in asynchronous mode.
 235:Drivers/STM32L0xx_HAL_Driver/Src/stm32l0xx_hal_uart.c ****       (+) For the asynchronous mode the parameters below can be configured:
 236:Drivers/STM32L0xx_HAL_Driver/Src/stm32l0xx_hal_uart.c ****         (++) Baud Rate
 237:Drivers/STM32L0xx_HAL_Driver/Src/stm32l0xx_hal_uart.c ****         (++) Word Length
 238:Drivers/STM32L0xx_HAL_Driver/Src/stm32l0xx_hal_uart.c ****         (++) Stop Bit
 239:Drivers/STM32L0xx_HAL_Driver/Src/stm32l0xx_hal_uart.c ****         (++) Parity: If the parity is enabled, then the MSB bit of the data written
 240:Drivers/STM32L0xx_HAL_Driver/Src/stm32l0xx_hal_uart.c ****              in the data register is transmitted but is changed by the parity bit.
 241:Drivers/STM32L0xx_HAL_Driver/Src/stm32l0xx_hal_uart.c ****         (++) Hardware flow control
 242:Drivers/STM32L0xx_HAL_Driver/Src/stm32l0xx_hal_uart.c ****         (++) Receiver/transmitter modes
 243:Drivers/STM32L0xx_HAL_Driver/Src/stm32l0xx_hal_uart.c ****         (++) Over Sampling Method
 244:Drivers/STM32L0xx_HAL_Driver/Src/stm32l0xx_hal_uart.c ****         (++) One-Bit Sampling Method
 245:Drivers/STM32L0xx_HAL_Driver/Src/stm32l0xx_hal_uart.c ****       (+) For the asynchronous mode, the following advanced features can be configured as well:
 246:Drivers/STM32L0xx_HAL_Driver/Src/stm32l0xx_hal_uart.c ****         (++) TX and/or RX pin level inversion
 247:Drivers/STM32L0xx_HAL_Driver/Src/stm32l0xx_hal_uart.c ****         (++) data logical level inversion
 248:Drivers/STM32L0xx_HAL_Driver/Src/stm32l0xx_hal_uart.c ****         (++) RX and TX pins swap
 249:Drivers/STM32L0xx_HAL_Driver/Src/stm32l0xx_hal_uart.c ****         (++) RX overrun detection disabling
 250:Drivers/STM32L0xx_HAL_Driver/Src/stm32l0xx_hal_uart.c ****         (++) DMA disabling on RX error
 251:Drivers/STM32L0xx_HAL_Driver/Src/stm32l0xx_hal_uart.c ****         (++) MSB first on communication line
 252:Drivers/STM32L0xx_HAL_Driver/Src/stm32l0xx_hal_uart.c ****         (++) auto Baud rate detection
 253:Drivers/STM32L0xx_HAL_Driver/Src/stm32l0xx_hal_uart.c ****     [..]
 254:Drivers/STM32L0xx_HAL_Driver/Src/stm32l0xx_hal_uart.c ****     The HAL_UART_Init(), HAL_HalfDuplex_Init(), HAL_LIN_Init()and HAL_MultiProcessor_Init()API
 255:Drivers/STM32L0xx_HAL_Driver/Src/stm32l0xx_hal_uart.c ****     follow respectively the UART asynchronous, UART Half duplex, UART LIN mode
 256:Drivers/STM32L0xx_HAL_Driver/Src/stm32l0xx_hal_uart.c ****     and UART multiprocessor mode configuration procedures (details for the procedures
 257:Drivers/STM32L0xx_HAL_Driver/Src/stm32l0xx_hal_uart.c ****     are available in reference manual).
 258:Drivers/STM32L0xx_HAL_Driver/Src/stm32l0xx_hal_uart.c **** 
 259:Drivers/STM32L0xx_HAL_Driver/Src/stm32l0xx_hal_uart.c **** @endverbatim
 260:Drivers/STM32L0xx_HAL_Driver/Src/stm32l0xx_hal_uart.c **** 
ARM GAS  C:\Users\lidka\AppData\Local\Temp\ccqOATUZ.s 			page 6


 261:Drivers/STM32L0xx_HAL_Driver/Src/stm32l0xx_hal_uart.c ****   Depending on the frame length defined by the M1 and M0 bits (7-bit,
 262:Drivers/STM32L0xx_HAL_Driver/Src/stm32l0xx_hal_uart.c ****   8-bit or 9-bit), the possible UART formats are listed in the
 263:Drivers/STM32L0xx_HAL_Driver/Src/stm32l0xx_hal_uart.c ****   following table.
 264:Drivers/STM32L0xx_HAL_Driver/Src/stm32l0xx_hal_uart.c **** 
 265:Drivers/STM32L0xx_HAL_Driver/Src/stm32l0xx_hal_uart.c ****   Table 1. UART frame format.
 266:Drivers/STM32L0xx_HAL_Driver/Src/stm32l0xx_hal_uart.c ****     +-----------------------------------------------------------------------+
 267:Drivers/STM32L0xx_HAL_Driver/Src/stm32l0xx_hal_uart.c ****     |  M1 bit |  M0 bit |  PCE bit  |             UART frame                |
 268:Drivers/STM32L0xx_HAL_Driver/Src/stm32l0xx_hal_uart.c ****     |---------|---------|-----------|---------------------------------------|
 269:Drivers/STM32L0xx_HAL_Driver/Src/stm32l0xx_hal_uart.c ****     |    0    |    0    |    0      |    | SB |    8 bit data   | STB |     |
 270:Drivers/STM32L0xx_HAL_Driver/Src/stm32l0xx_hal_uart.c ****     |---------|---------|-----------|---------------------------------------|
 271:Drivers/STM32L0xx_HAL_Driver/Src/stm32l0xx_hal_uart.c ****     |    0    |    0    |    1      |    | SB | 7 bit data | PB | STB |     |
 272:Drivers/STM32L0xx_HAL_Driver/Src/stm32l0xx_hal_uart.c ****     |---------|---------|-----------|---------------------------------------|
 273:Drivers/STM32L0xx_HAL_Driver/Src/stm32l0xx_hal_uart.c ****     |    0    |    1    |    0      |    | SB |    9 bit data   | STB |     |
 274:Drivers/STM32L0xx_HAL_Driver/Src/stm32l0xx_hal_uart.c ****     |---------|---------|-----------|---------------------------------------|
 275:Drivers/STM32L0xx_HAL_Driver/Src/stm32l0xx_hal_uart.c ****     |    0    |    1    |    1      |    | SB | 8 bit data | PB | STB |     |
 276:Drivers/STM32L0xx_HAL_Driver/Src/stm32l0xx_hal_uart.c ****     |---------|---------|-----------|---------------------------------------|
 277:Drivers/STM32L0xx_HAL_Driver/Src/stm32l0xx_hal_uart.c ****     |    1    |    0    |    0      |    | SB |    7 bit data   | STB |     |
 278:Drivers/STM32L0xx_HAL_Driver/Src/stm32l0xx_hal_uart.c ****     |---------|---------|-----------|---------------------------------------|
 279:Drivers/STM32L0xx_HAL_Driver/Src/stm32l0xx_hal_uart.c ****     |    1    |    0    |    1      |    | SB | 6 bit data | PB | STB |     |
 280:Drivers/STM32L0xx_HAL_Driver/Src/stm32l0xx_hal_uart.c ****     +-----------------------------------------------------------------------+
 281:Drivers/STM32L0xx_HAL_Driver/Src/stm32l0xx_hal_uart.c **** 
 282:Drivers/STM32L0xx_HAL_Driver/Src/stm32l0xx_hal_uart.c ****   * @{
 283:Drivers/STM32L0xx_HAL_Driver/Src/stm32l0xx_hal_uart.c ****   */
 284:Drivers/STM32L0xx_HAL_Driver/Src/stm32l0xx_hal_uart.c **** 
 285:Drivers/STM32L0xx_HAL_Driver/Src/stm32l0xx_hal_uart.c **** /**
 286:Drivers/STM32L0xx_HAL_Driver/Src/stm32l0xx_hal_uart.c ****   * @brief Initialize the UART mode according to the specified
 287:Drivers/STM32L0xx_HAL_Driver/Src/stm32l0xx_hal_uart.c ****   *        parameters in the UART_InitTypeDef and initialize the associated handle.
 288:Drivers/STM32L0xx_HAL_Driver/Src/stm32l0xx_hal_uart.c ****   * @param huart UART handle.
 289:Drivers/STM32L0xx_HAL_Driver/Src/stm32l0xx_hal_uart.c ****   * @retval HAL status
 290:Drivers/STM32L0xx_HAL_Driver/Src/stm32l0xx_hal_uart.c ****   */
 291:Drivers/STM32L0xx_HAL_Driver/Src/stm32l0xx_hal_uart.c **** HAL_StatusTypeDef HAL_UART_Init(UART_HandleTypeDef *huart)
 292:Drivers/STM32L0xx_HAL_Driver/Src/stm32l0xx_hal_uart.c **** {
  27              		.loc 1 292 1
  28              		.cfi_startproc
  29              		@ args = 0, pretend = 0, frame = 8
  30              		@ frame_needed = 1, uses_anonymous_args = 0
  31 0000 80B5     		push	{r7, lr}
  32              	.LCFI0:
  33              		.cfi_def_cfa_offset 8
  34              		.cfi_offset 7, -8
  35              		.cfi_offset 14, -4
  36 0002 82B0     		sub	sp, sp, #8
  37              	.LCFI1:
  38              		.cfi_def_cfa_offset 16
  39 0004 00AF     		add	r7, sp, #0
  40              	.LCFI2:
  41              		.cfi_def_cfa_register 7
  42 0006 7860     		str	r0, [r7, #4]
 293:Drivers/STM32L0xx_HAL_Driver/Src/stm32l0xx_hal_uart.c ****   /* Check the UART handle allocation */
 294:Drivers/STM32L0xx_HAL_Driver/Src/stm32l0xx_hal_uart.c ****   if (huart == NULL)
  43              		.loc 1 294 6
  44 0008 7B68     		ldr	r3, [r7, #4]
  45 000a 002B     		cmp	r3, #0
  46 000c 01D1     		bne	.L2
 295:Drivers/STM32L0xx_HAL_Driver/Src/stm32l0xx_hal_uart.c ****   {
 296:Drivers/STM32L0xx_HAL_Driver/Src/stm32l0xx_hal_uart.c ****     return HAL_ERROR;
  47              		.loc 1 296 12
ARM GAS  C:\Users\lidka\AppData\Local\Temp\ccqOATUZ.s 			page 7


  48 000e 0123     		movs	r3, #1
  49 0010 44E0     		b	.L3
  50              	.L2:
 297:Drivers/STM32L0xx_HAL_Driver/Src/stm32l0xx_hal_uart.c ****   }
 298:Drivers/STM32L0xx_HAL_Driver/Src/stm32l0xx_hal_uart.c **** 
 299:Drivers/STM32L0xx_HAL_Driver/Src/stm32l0xx_hal_uart.c ****   if (huart->Init.HwFlowCtl != UART_HWCONTROL_NONE)
 300:Drivers/STM32L0xx_HAL_Driver/Src/stm32l0xx_hal_uart.c ****   {
 301:Drivers/STM32L0xx_HAL_Driver/Src/stm32l0xx_hal_uart.c ****     /* Check the parameters */
 302:Drivers/STM32L0xx_HAL_Driver/Src/stm32l0xx_hal_uart.c ****     assert_param(IS_UART_HWFLOW_INSTANCE(huart->Instance));
 303:Drivers/STM32L0xx_HAL_Driver/Src/stm32l0xx_hal_uart.c ****   }
 304:Drivers/STM32L0xx_HAL_Driver/Src/stm32l0xx_hal_uart.c ****   else
 305:Drivers/STM32L0xx_HAL_Driver/Src/stm32l0xx_hal_uart.c ****   {
 306:Drivers/STM32L0xx_HAL_Driver/Src/stm32l0xx_hal_uart.c ****     /* Check the parameters */
 307:Drivers/STM32L0xx_HAL_Driver/Src/stm32l0xx_hal_uart.c ****     assert_param((IS_UART_INSTANCE(huart->Instance)) || (IS_LPUART_INSTANCE(huart->Instance)));
 308:Drivers/STM32L0xx_HAL_Driver/Src/stm32l0xx_hal_uart.c ****   }
 309:Drivers/STM32L0xx_HAL_Driver/Src/stm32l0xx_hal_uart.c **** 
 310:Drivers/STM32L0xx_HAL_Driver/Src/stm32l0xx_hal_uart.c ****   if (huart->gState == HAL_UART_STATE_RESET)
  51              		.loc 1 310 12
  52 0012 7B68     		ldr	r3, [r7, #4]
  53 0014 9B6F     		ldr	r3, [r3, #120]
  54              		.loc 1 310 6
  55 0016 002B     		cmp	r3, #0
  56 0018 07D1     		bne	.L4
 311:Drivers/STM32L0xx_HAL_Driver/Src/stm32l0xx_hal_uart.c ****   {
 312:Drivers/STM32L0xx_HAL_Driver/Src/stm32l0xx_hal_uart.c ****     /* Allocate lock resource and initialize it */
 313:Drivers/STM32L0xx_HAL_Driver/Src/stm32l0xx_hal_uart.c ****     huart->Lock = HAL_UNLOCKED;
  57              		.loc 1 313 17
  58 001a 7B68     		ldr	r3, [r7, #4]
  59 001c 7422     		movs	r2, #116
  60 001e 0021     		movs	r1, #0
  61 0020 9954     		strb	r1, [r3, r2]
 314:Drivers/STM32L0xx_HAL_Driver/Src/stm32l0xx_hal_uart.c **** 
 315:Drivers/STM32L0xx_HAL_Driver/Src/stm32l0xx_hal_uart.c **** #if (USE_HAL_UART_REGISTER_CALLBACKS == 1)
 316:Drivers/STM32L0xx_HAL_Driver/Src/stm32l0xx_hal_uart.c ****     UART_InitCallbacksToDefault(huart);
 317:Drivers/STM32L0xx_HAL_Driver/Src/stm32l0xx_hal_uart.c **** 
 318:Drivers/STM32L0xx_HAL_Driver/Src/stm32l0xx_hal_uart.c ****     if (huart->MspInitCallback == NULL)
 319:Drivers/STM32L0xx_HAL_Driver/Src/stm32l0xx_hal_uart.c ****     {
 320:Drivers/STM32L0xx_HAL_Driver/Src/stm32l0xx_hal_uart.c ****       huart->MspInitCallback = HAL_UART_MspInit;
 321:Drivers/STM32L0xx_HAL_Driver/Src/stm32l0xx_hal_uart.c ****     }
 322:Drivers/STM32L0xx_HAL_Driver/Src/stm32l0xx_hal_uart.c **** 
 323:Drivers/STM32L0xx_HAL_Driver/Src/stm32l0xx_hal_uart.c ****     /* Init the low level hardware */
 324:Drivers/STM32L0xx_HAL_Driver/Src/stm32l0xx_hal_uart.c ****     huart->MspInitCallback(huart);
 325:Drivers/STM32L0xx_HAL_Driver/Src/stm32l0xx_hal_uart.c **** #else
 326:Drivers/STM32L0xx_HAL_Driver/Src/stm32l0xx_hal_uart.c ****     /* Init the low level hardware : GPIO, CLOCK */
 327:Drivers/STM32L0xx_HAL_Driver/Src/stm32l0xx_hal_uart.c ****     HAL_UART_MspInit(huart);
  62              		.loc 1 327 5
  63 0022 7B68     		ldr	r3, [r7, #4]
  64 0024 1800     		movs	r0, r3
  65 0026 FFF7FEFF 		bl	HAL_UART_MspInit
  66              	.L4:
 328:Drivers/STM32L0xx_HAL_Driver/Src/stm32l0xx_hal_uart.c **** #endif /* (USE_HAL_UART_REGISTER_CALLBACKS) */
 329:Drivers/STM32L0xx_HAL_Driver/Src/stm32l0xx_hal_uart.c ****   }
 330:Drivers/STM32L0xx_HAL_Driver/Src/stm32l0xx_hal_uart.c **** 
 331:Drivers/STM32L0xx_HAL_Driver/Src/stm32l0xx_hal_uart.c ****   huart->gState = HAL_UART_STATE_BUSY;
  67              		.loc 1 331 17
  68 002a 7B68     		ldr	r3, [r7, #4]
  69 002c 2422     		movs	r2, #36
ARM GAS  C:\Users\lidka\AppData\Local\Temp\ccqOATUZ.s 			page 8


  70 002e 9A67     		str	r2, [r3, #120]
 332:Drivers/STM32L0xx_HAL_Driver/Src/stm32l0xx_hal_uart.c **** 
 333:Drivers/STM32L0xx_HAL_Driver/Src/stm32l0xx_hal_uart.c ****   __HAL_UART_DISABLE(huart);
  71              		.loc 1 333 3
  72 0030 7B68     		ldr	r3, [r7, #4]
  73 0032 1B68     		ldr	r3, [r3]
  74 0034 1A68     		ldr	r2, [r3]
  75 0036 7B68     		ldr	r3, [r7, #4]
  76 0038 1B68     		ldr	r3, [r3]
  77 003a 0121     		movs	r1, #1
  78 003c 8A43     		bics	r2, r1
  79 003e 1A60     		str	r2, [r3]
 334:Drivers/STM32L0xx_HAL_Driver/Src/stm32l0xx_hal_uart.c **** 
 335:Drivers/STM32L0xx_HAL_Driver/Src/stm32l0xx_hal_uart.c ****   /* Set the UART Communication parameters */
 336:Drivers/STM32L0xx_HAL_Driver/Src/stm32l0xx_hal_uart.c ****   if (UART_SetConfig(huart) == HAL_ERROR)
  80              		.loc 1 336 7
  81 0040 7B68     		ldr	r3, [r7, #4]
  82 0042 1800     		movs	r0, r3
  83 0044 FFF7FEFF 		bl	UART_SetConfig
  84 0048 0300     		movs	r3, r0
  85              		.loc 1 336 6
  86 004a 012B     		cmp	r3, #1
  87 004c 01D1     		bne	.L5
 337:Drivers/STM32L0xx_HAL_Driver/Src/stm32l0xx_hal_uart.c ****   {
 338:Drivers/STM32L0xx_HAL_Driver/Src/stm32l0xx_hal_uart.c ****     return HAL_ERROR;
  88              		.loc 1 338 12
  89 004e 0123     		movs	r3, #1
  90 0050 24E0     		b	.L3
  91              	.L5:
 339:Drivers/STM32L0xx_HAL_Driver/Src/stm32l0xx_hal_uart.c ****   }
 340:Drivers/STM32L0xx_HAL_Driver/Src/stm32l0xx_hal_uart.c **** 
 341:Drivers/STM32L0xx_HAL_Driver/Src/stm32l0xx_hal_uart.c ****   if (huart->AdvancedInit.AdvFeatureInit != UART_ADVFEATURE_NO_INIT)
  92              		.loc 1 341 26
  93 0052 7B68     		ldr	r3, [r7, #4]
  94 0054 5B6A     		ldr	r3, [r3, #36]
  95              		.loc 1 341 6
  96 0056 002B     		cmp	r3, #0
  97 0058 03D0     		beq	.L6
 342:Drivers/STM32L0xx_HAL_Driver/Src/stm32l0xx_hal_uart.c ****   {
 343:Drivers/STM32L0xx_HAL_Driver/Src/stm32l0xx_hal_uart.c ****     UART_AdvFeatureConfig(huart);
  98              		.loc 1 343 5
  99 005a 7B68     		ldr	r3, [r7, #4]
 100 005c 1800     		movs	r0, r3
 101 005e FFF7FEFF 		bl	UART_AdvFeatureConfig
 102              	.L6:
 344:Drivers/STM32L0xx_HAL_Driver/Src/stm32l0xx_hal_uart.c ****   }
 345:Drivers/STM32L0xx_HAL_Driver/Src/stm32l0xx_hal_uart.c **** 
 346:Drivers/STM32L0xx_HAL_Driver/Src/stm32l0xx_hal_uart.c ****   /* In asynchronous mode, the following bits must be kept cleared:
 347:Drivers/STM32L0xx_HAL_Driver/Src/stm32l0xx_hal_uart.c ****   - LINEN and CLKEN bits in the USART_CR2 register,
 348:Drivers/STM32L0xx_HAL_Driver/Src/stm32l0xx_hal_uart.c ****   - SCEN, HDSEL and IREN  bits in the USART_CR3 register.*/
 349:Drivers/STM32L0xx_HAL_Driver/Src/stm32l0xx_hal_uart.c ****   CLEAR_BIT(huart->Instance->CR2, (USART_CR2_LINEN | USART_CR2_CLKEN));
 103              		.loc 1 349 3
 104 0062 7B68     		ldr	r3, [r7, #4]
 105 0064 1B68     		ldr	r3, [r3]
 106 0066 5A68     		ldr	r2, [r3, #4]
 107 0068 7B68     		ldr	r3, [r7, #4]
 108 006a 1B68     		ldr	r3, [r3]
ARM GAS  C:\Users\lidka\AppData\Local\Temp\ccqOATUZ.s 			page 9


 109 006c 0D49     		ldr	r1, .L7
 110 006e 0A40     		ands	r2, r1
 111 0070 5A60     		str	r2, [r3, #4]
 350:Drivers/STM32L0xx_HAL_Driver/Src/stm32l0xx_hal_uart.c ****   CLEAR_BIT(huart->Instance->CR3, (USART_CR3_SCEN | USART_CR3_HDSEL | USART_CR3_IREN));
 112              		.loc 1 350 3
 113 0072 7B68     		ldr	r3, [r7, #4]
 114 0074 1B68     		ldr	r3, [r3]
 115 0076 9A68     		ldr	r2, [r3, #8]
 116 0078 7B68     		ldr	r3, [r7, #4]
 117 007a 1B68     		ldr	r3, [r3]
 118 007c 2A21     		movs	r1, #42
 119 007e 8A43     		bics	r2, r1
 120 0080 9A60     		str	r2, [r3, #8]
 351:Drivers/STM32L0xx_HAL_Driver/Src/stm32l0xx_hal_uart.c **** 
 352:Drivers/STM32L0xx_HAL_Driver/Src/stm32l0xx_hal_uart.c ****   __HAL_UART_ENABLE(huart);
 121              		.loc 1 352 3
 122 0082 7B68     		ldr	r3, [r7, #4]
 123 0084 1B68     		ldr	r3, [r3]
 124 0086 1A68     		ldr	r2, [r3]
 125 0088 7B68     		ldr	r3, [r7, #4]
 126 008a 1B68     		ldr	r3, [r3]
 127 008c 0121     		movs	r1, #1
 128 008e 0A43     		orrs	r2, r1
 129 0090 1A60     		str	r2, [r3]
 353:Drivers/STM32L0xx_HAL_Driver/Src/stm32l0xx_hal_uart.c **** 
 354:Drivers/STM32L0xx_HAL_Driver/Src/stm32l0xx_hal_uart.c ****   /* TEACK and/or REACK to check before moving huart->gState and huart->RxState to Ready */
 355:Drivers/STM32L0xx_HAL_Driver/Src/stm32l0xx_hal_uart.c ****   return (UART_CheckIdleState(huart));
 130              		.loc 1 355 11
 131 0092 7B68     		ldr	r3, [r7, #4]
 132 0094 1800     		movs	r0, r3
 133 0096 FFF7FEFF 		bl	UART_CheckIdleState
 134 009a 0300     		movs	r3, r0
 135              	.L3:
 356:Drivers/STM32L0xx_HAL_Driver/Src/stm32l0xx_hal_uart.c **** }
 136              		.loc 1 356 1
 137 009c 1800     		movs	r0, r3
 138 009e BD46     		mov	sp, r7
 139 00a0 02B0     		add	sp, sp, #8
 140              		@ sp needed
 141 00a2 80BD     		pop	{r7, pc}
 142              	.L8:
 143              		.align	2
 144              	.L7:
 145 00a4 FFB7FFFF 		.word	-18433
 146              		.cfi_endproc
 147              	.LFE47:
 149              		.section	.text.HAL_HalfDuplex_Init,"ax",%progbits
 150              		.align	1
 151              		.global	HAL_HalfDuplex_Init
 152              		.syntax unified
 153              		.code	16
 154              		.thumb_func
 156              	HAL_HalfDuplex_Init:
 157              	.LFB48:
 357:Drivers/STM32L0xx_HAL_Driver/Src/stm32l0xx_hal_uart.c **** 
 358:Drivers/STM32L0xx_HAL_Driver/Src/stm32l0xx_hal_uart.c **** /**
 359:Drivers/STM32L0xx_HAL_Driver/Src/stm32l0xx_hal_uart.c ****   * @brief Initialize the half-duplex mode according to the specified
ARM GAS  C:\Users\lidka\AppData\Local\Temp\ccqOATUZ.s 			page 10


 360:Drivers/STM32L0xx_HAL_Driver/Src/stm32l0xx_hal_uart.c ****   *        parameters in the UART_InitTypeDef and creates the associated handle.
 361:Drivers/STM32L0xx_HAL_Driver/Src/stm32l0xx_hal_uart.c ****   * @param huart UART handle.
 362:Drivers/STM32L0xx_HAL_Driver/Src/stm32l0xx_hal_uart.c ****   * @retval HAL status
 363:Drivers/STM32L0xx_HAL_Driver/Src/stm32l0xx_hal_uart.c ****   */
 364:Drivers/STM32L0xx_HAL_Driver/Src/stm32l0xx_hal_uart.c **** HAL_StatusTypeDef HAL_HalfDuplex_Init(UART_HandleTypeDef *huart)
 365:Drivers/STM32L0xx_HAL_Driver/Src/stm32l0xx_hal_uart.c **** {
 158              		.loc 1 365 1
 159              		.cfi_startproc
 160              		@ args = 0, pretend = 0, frame = 8
 161              		@ frame_needed = 1, uses_anonymous_args = 0
 162 0000 80B5     		push	{r7, lr}
 163              	.LCFI3:
 164              		.cfi_def_cfa_offset 8
 165              		.cfi_offset 7, -8
 166              		.cfi_offset 14, -4
 167 0002 82B0     		sub	sp, sp, #8
 168              	.LCFI4:
 169              		.cfi_def_cfa_offset 16
 170 0004 00AF     		add	r7, sp, #0
 171              	.LCFI5:
 172              		.cfi_def_cfa_register 7
 173 0006 7860     		str	r0, [r7, #4]
 366:Drivers/STM32L0xx_HAL_Driver/Src/stm32l0xx_hal_uart.c ****   /* Check the UART handle allocation */
 367:Drivers/STM32L0xx_HAL_Driver/Src/stm32l0xx_hal_uart.c ****   if (huart == NULL)
 174              		.loc 1 367 6
 175 0008 7B68     		ldr	r3, [r7, #4]
 176 000a 002B     		cmp	r3, #0
 177 000c 01D1     		bne	.L10
 368:Drivers/STM32L0xx_HAL_Driver/Src/stm32l0xx_hal_uart.c ****   {
 369:Drivers/STM32L0xx_HAL_Driver/Src/stm32l0xx_hal_uart.c ****     return HAL_ERROR;
 178              		.loc 1 369 12
 179 000e 0123     		movs	r3, #1
 180 0010 4CE0     		b	.L11
 181              	.L10:
 370:Drivers/STM32L0xx_HAL_Driver/Src/stm32l0xx_hal_uart.c ****   }
 371:Drivers/STM32L0xx_HAL_Driver/Src/stm32l0xx_hal_uart.c **** 
 372:Drivers/STM32L0xx_HAL_Driver/Src/stm32l0xx_hal_uart.c ****   /* Check UART instance */
 373:Drivers/STM32L0xx_HAL_Driver/Src/stm32l0xx_hal_uart.c ****   assert_param(IS_UART_HALFDUPLEX_INSTANCE(huart->Instance));
 374:Drivers/STM32L0xx_HAL_Driver/Src/stm32l0xx_hal_uart.c **** 
 375:Drivers/STM32L0xx_HAL_Driver/Src/stm32l0xx_hal_uart.c ****   if (huart->gState == HAL_UART_STATE_RESET)
 182              		.loc 1 375 12
 183 0012 7B68     		ldr	r3, [r7, #4]
 184 0014 9B6F     		ldr	r3, [r3, #120]
 185              		.loc 1 375 6
 186 0016 002B     		cmp	r3, #0
 187 0018 07D1     		bne	.L12
 376:Drivers/STM32L0xx_HAL_Driver/Src/stm32l0xx_hal_uart.c ****   {
 377:Drivers/STM32L0xx_HAL_Driver/Src/stm32l0xx_hal_uart.c ****     /* Allocate lock resource and initialize it */
 378:Drivers/STM32L0xx_HAL_Driver/Src/stm32l0xx_hal_uart.c ****     huart->Lock = HAL_UNLOCKED;
 188              		.loc 1 378 17
 189 001a 7B68     		ldr	r3, [r7, #4]
 190 001c 7422     		movs	r2, #116
 191 001e 0021     		movs	r1, #0
 192 0020 9954     		strb	r1, [r3, r2]
 379:Drivers/STM32L0xx_HAL_Driver/Src/stm32l0xx_hal_uart.c **** 
 380:Drivers/STM32L0xx_HAL_Driver/Src/stm32l0xx_hal_uart.c **** #if (USE_HAL_UART_REGISTER_CALLBACKS == 1)
 381:Drivers/STM32L0xx_HAL_Driver/Src/stm32l0xx_hal_uart.c ****     UART_InitCallbacksToDefault(huart);
ARM GAS  C:\Users\lidka\AppData\Local\Temp\ccqOATUZ.s 			page 11


 382:Drivers/STM32L0xx_HAL_Driver/Src/stm32l0xx_hal_uart.c **** 
 383:Drivers/STM32L0xx_HAL_Driver/Src/stm32l0xx_hal_uart.c ****     if (huart->MspInitCallback == NULL)
 384:Drivers/STM32L0xx_HAL_Driver/Src/stm32l0xx_hal_uart.c ****     {
 385:Drivers/STM32L0xx_HAL_Driver/Src/stm32l0xx_hal_uart.c ****       huart->MspInitCallback = HAL_UART_MspInit;
 386:Drivers/STM32L0xx_HAL_Driver/Src/stm32l0xx_hal_uart.c ****     }
 387:Drivers/STM32L0xx_HAL_Driver/Src/stm32l0xx_hal_uart.c **** 
 388:Drivers/STM32L0xx_HAL_Driver/Src/stm32l0xx_hal_uart.c ****     /* Init the low level hardware */
 389:Drivers/STM32L0xx_HAL_Driver/Src/stm32l0xx_hal_uart.c ****     huart->MspInitCallback(huart);
 390:Drivers/STM32L0xx_HAL_Driver/Src/stm32l0xx_hal_uart.c **** #else
 391:Drivers/STM32L0xx_HAL_Driver/Src/stm32l0xx_hal_uart.c ****     /* Init the low level hardware : GPIO, CLOCK */
 392:Drivers/STM32L0xx_HAL_Driver/Src/stm32l0xx_hal_uart.c ****     HAL_UART_MspInit(huart);
 193              		.loc 1 392 5
 194 0022 7B68     		ldr	r3, [r7, #4]
 195 0024 1800     		movs	r0, r3
 196 0026 FFF7FEFF 		bl	HAL_UART_MspInit
 197              	.L12:
 393:Drivers/STM32L0xx_HAL_Driver/Src/stm32l0xx_hal_uart.c **** #endif /* (USE_HAL_UART_REGISTER_CALLBACKS) */
 394:Drivers/STM32L0xx_HAL_Driver/Src/stm32l0xx_hal_uart.c ****   }
 395:Drivers/STM32L0xx_HAL_Driver/Src/stm32l0xx_hal_uart.c **** 
 396:Drivers/STM32L0xx_HAL_Driver/Src/stm32l0xx_hal_uart.c ****   huart->gState = HAL_UART_STATE_BUSY;
 198              		.loc 1 396 17
 199 002a 7B68     		ldr	r3, [r7, #4]
 200 002c 2422     		movs	r2, #36
 201 002e 9A67     		str	r2, [r3, #120]
 397:Drivers/STM32L0xx_HAL_Driver/Src/stm32l0xx_hal_uart.c **** 
 398:Drivers/STM32L0xx_HAL_Driver/Src/stm32l0xx_hal_uart.c ****   __HAL_UART_DISABLE(huart);
 202              		.loc 1 398 3
 203 0030 7B68     		ldr	r3, [r7, #4]
 204 0032 1B68     		ldr	r3, [r3]
 205 0034 1A68     		ldr	r2, [r3]
 206 0036 7B68     		ldr	r3, [r7, #4]
 207 0038 1B68     		ldr	r3, [r3]
 208 003a 0121     		movs	r1, #1
 209 003c 8A43     		bics	r2, r1
 210 003e 1A60     		str	r2, [r3]
 399:Drivers/STM32L0xx_HAL_Driver/Src/stm32l0xx_hal_uart.c **** 
 400:Drivers/STM32L0xx_HAL_Driver/Src/stm32l0xx_hal_uart.c ****   /* Set the UART Communication parameters */
 401:Drivers/STM32L0xx_HAL_Driver/Src/stm32l0xx_hal_uart.c ****   if (UART_SetConfig(huart) == HAL_ERROR)
 211              		.loc 1 401 7
 212 0040 7B68     		ldr	r3, [r7, #4]
 213 0042 1800     		movs	r0, r3
 214 0044 FFF7FEFF 		bl	UART_SetConfig
 215 0048 0300     		movs	r3, r0
 216              		.loc 1 401 6
 217 004a 012B     		cmp	r3, #1
 218 004c 01D1     		bne	.L13
 402:Drivers/STM32L0xx_HAL_Driver/Src/stm32l0xx_hal_uart.c ****   {
 403:Drivers/STM32L0xx_HAL_Driver/Src/stm32l0xx_hal_uart.c ****     return HAL_ERROR;
 219              		.loc 1 403 12
 220 004e 0123     		movs	r3, #1
 221 0050 2CE0     		b	.L11
 222              	.L13:
 404:Drivers/STM32L0xx_HAL_Driver/Src/stm32l0xx_hal_uart.c ****   }
 405:Drivers/STM32L0xx_HAL_Driver/Src/stm32l0xx_hal_uart.c **** 
 406:Drivers/STM32L0xx_HAL_Driver/Src/stm32l0xx_hal_uart.c ****   if (huart->AdvancedInit.AdvFeatureInit != UART_ADVFEATURE_NO_INIT)
 223              		.loc 1 406 26
 224 0052 7B68     		ldr	r3, [r7, #4]
ARM GAS  C:\Users\lidka\AppData\Local\Temp\ccqOATUZ.s 			page 12


 225 0054 5B6A     		ldr	r3, [r3, #36]
 226              		.loc 1 406 6
 227 0056 002B     		cmp	r3, #0
 228 0058 03D0     		beq	.L14
 407:Drivers/STM32L0xx_HAL_Driver/Src/stm32l0xx_hal_uart.c ****   {
 408:Drivers/STM32L0xx_HAL_Driver/Src/stm32l0xx_hal_uart.c ****     UART_AdvFeatureConfig(huart);
 229              		.loc 1 408 5
 230 005a 7B68     		ldr	r3, [r7, #4]
 231 005c 1800     		movs	r0, r3
 232 005e FFF7FEFF 		bl	UART_AdvFeatureConfig
 233              	.L14:
 409:Drivers/STM32L0xx_HAL_Driver/Src/stm32l0xx_hal_uart.c ****   }
 410:Drivers/STM32L0xx_HAL_Driver/Src/stm32l0xx_hal_uart.c **** 
 411:Drivers/STM32L0xx_HAL_Driver/Src/stm32l0xx_hal_uart.c ****   /* In half-duplex mode, the following bits must be kept cleared:
 412:Drivers/STM32L0xx_HAL_Driver/Src/stm32l0xx_hal_uart.c ****   - LINEN and CLKEN bits in the USART_CR2 register,
 413:Drivers/STM32L0xx_HAL_Driver/Src/stm32l0xx_hal_uart.c ****   - SCEN and IREN bits in the USART_CR3 register.*/
 414:Drivers/STM32L0xx_HAL_Driver/Src/stm32l0xx_hal_uart.c ****   CLEAR_BIT(huart->Instance->CR2, (USART_CR2_LINEN | USART_CR2_CLKEN));
 234              		.loc 1 414 3
 235 0062 7B68     		ldr	r3, [r7, #4]
 236 0064 1B68     		ldr	r3, [r3]
 237 0066 5A68     		ldr	r2, [r3, #4]
 238 0068 7B68     		ldr	r3, [r7, #4]
 239 006a 1B68     		ldr	r3, [r3]
 240 006c 1149     		ldr	r1, .L15
 241 006e 0A40     		ands	r2, r1
 242 0070 5A60     		str	r2, [r3, #4]
 415:Drivers/STM32L0xx_HAL_Driver/Src/stm32l0xx_hal_uart.c ****   CLEAR_BIT(huart->Instance->CR3, (USART_CR3_IREN | USART_CR3_SCEN));
 243              		.loc 1 415 3
 244 0072 7B68     		ldr	r3, [r7, #4]
 245 0074 1B68     		ldr	r3, [r3]
 246 0076 9A68     		ldr	r2, [r3, #8]
 247 0078 7B68     		ldr	r3, [r7, #4]
 248 007a 1B68     		ldr	r3, [r3]
 249 007c 2221     		movs	r1, #34
 250 007e 8A43     		bics	r2, r1
 251 0080 9A60     		str	r2, [r3, #8]
 416:Drivers/STM32L0xx_HAL_Driver/Src/stm32l0xx_hal_uart.c **** 
 417:Drivers/STM32L0xx_HAL_Driver/Src/stm32l0xx_hal_uart.c ****   /* Enable the Half-Duplex mode by setting the HDSEL bit in the CR3 register */
 418:Drivers/STM32L0xx_HAL_Driver/Src/stm32l0xx_hal_uart.c ****   SET_BIT(huart->Instance->CR3, USART_CR3_HDSEL);
 252              		.loc 1 418 3
 253 0082 7B68     		ldr	r3, [r7, #4]
 254 0084 1B68     		ldr	r3, [r3]
 255 0086 9A68     		ldr	r2, [r3, #8]
 256 0088 7B68     		ldr	r3, [r7, #4]
 257 008a 1B68     		ldr	r3, [r3]
 258 008c 0821     		movs	r1, #8
 259 008e 0A43     		orrs	r2, r1
 260 0090 9A60     		str	r2, [r3, #8]
 419:Drivers/STM32L0xx_HAL_Driver/Src/stm32l0xx_hal_uart.c **** 
 420:Drivers/STM32L0xx_HAL_Driver/Src/stm32l0xx_hal_uart.c ****   __HAL_UART_ENABLE(huart);
 261              		.loc 1 420 3
 262 0092 7B68     		ldr	r3, [r7, #4]
 263 0094 1B68     		ldr	r3, [r3]
 264 0096 1A68     		ldr	r2, [r3]
 265 0098 7B68     		ldr	r3, [r7, #4]
 266 009a 1B68     		ldr	r3, [r3]
 267 009c 0121     		movs	r1, #1
ARM GAS  C:\Users\lidka\AppData\Local\Temp\ccqOATUZ.s 			page 13


 268 009e 0A43     		orrs	r2, r1
 269 00a0 1A60     		str	r2, [r3]
 421:Drivers/STM32L0xx_HAL_Driver/Src/stm32l0xx_hal_uart.c **** 
 422:Drivers/STM32L0xx_HAL_Driver/Src/stm32l0xx_hal_uart.c ****   /* TEACK and/or REACK to check before moving huart->gState and huart->RxState to Ready */
 423:Drivers/STM32L0xx_HAL_Driver/Src/stm32l0xx_hal_uart.c ****   return (UART_CheckIdleState(huart));
 270              		.loc 1 423 11
 271 00a2 7B68     		ldr	r3, [r7, #4]
 272 00a4 1800     		movs	r0, r3
 273 00a6 FFF7FEFF 		bl	UART_CheckIdleState
 274 00aa 0300     		movs	r3, r0
 275              	.L11:
 424:Drivers/STM32L0xx_HAL_Driver/Src/stm32l0xx_hal_uart.c **** }
 276              		.loc 1 424 1
 277 00ac 1800     		movs	r0, r3
 278 00ae BD46     		mov	sp, r7
 279 00b0 02B0     		add	sp, sp, #8
 280              		@ sp needed
 281 00b2 80BD     		pop	{r7, pc}
 282              	.L16:
 283              		.align	2
 284              	.L15:
 285 00b4 FFB7FFFF 		.word	-18433
 286              		.cfi_endproc
 287              	.LFE48:
 289              		.section	.text.HAL_LIN_Init,"ax",%progbits
 290              		.align	1
 291              		.global	HAL_LIN_Init
 292              		.syntax unified
 293              		.code	16
 294              		.thumb_func
 296              	HAL_LIN_Init:
 297              	.LFB49:
 425:Drivers/STM32L0xx_HAL_Driver/Src/stm32l0xx_hal_uart.c **** 
 426:Drivers/STM32L0xx_HAL_Driver/Src/stm32l0xx_hal_uart.c **** 
 427:Drivers/STM32L0xx_HAL_Driver/Src/stm32l0xx_hal_uart.c **** /**
 428:Drivers/STM32L0xx_HAL_Driver/Src/stm32l0xx_hal_uart.c ****   * @brief Initialize the LIN mode according to the specified
 429:Drivers/STM32L0xx_HAL_Driver/Src/stm32l0xx_hal_uart.c ****   *        parameters in the UART_InitTypeDef and creates the associated handle.
 430:Drivers/STM32L0xx_HAL_Driver/Src/stm32l0xx_hal_uart.c ****   * @param huart             UART handle.
 431:Drivers/STM32L0xx_HAL_Driver/Src/stm32l0xx_hal_uart.c ****   * @param BreakDetectLength Specifies the LIN break detection length.
 432:Drivers/STM32L0xx_HAL_Driver/Src/stm32l0xx_hal_uart.c ****   *        This parameter can be one of the following values:
 433:Drivers/STM32L0xx_HAL_Driver/Src/stm32l0xx_hal_uart.c ****   *          @arg @ref UART_LINBREAKDETECTLENGTH_10B 10-bit break detection
 434:Drivers/STM32L0xx_HAL_Driver/Src/stm32l0xx_hal_uart.c ****   *          @arg @ref UART_LINBREAKDETECTLENGTH_11B 11-bit break detection
 435:Drivers/STM32L0xx_HAL_Driver/Src/stm32l0xx_hal_uart.c ****   * @retval HAL status
 436:Drivers/STM32L0xx_HAL_Driver/Src/stm32l0xx_hal_uart.c ****   */
 437:Drivers/STM32L0xx_HAL_Driver/Src/stm32l0xx_hal_uart.c **** HAL_StatusTypeDef HAL_LIN_Init(UART_HandleTypeDef *huart, uint32_t BreakDetectLength)
 438:Drivers/STM32L0xx_HAL_Driver/Src/stm32l0xx_hal_uart.c **** {
 298              		.loc 1 438 1
 299              		.cfi_startproc
 300              		@ args = 0, pretend = 0, frame = 8
 301              		@ frame_needed = 1, uses_anonymous_args = 0
 302 0000 80B5     		push	{r7, lr}
 303              	.LCFI6:
 304              		.cfi_def_cfa_offset 8
 305              		.cfi_offset 7, -8
 306              		.cfi_offset 14, -4
 307 0002 82B0     		sub	sp, sp, #8
 308              	.LCFI7:
ARM GAS  C:\Users\lidka\AppData\Local\Temp\ccqOATUZ.s 			page 14


 309              		.cfi_def_cfa_offset 16
 310 0004 00AF     		add	r7, sp, #0
 311              	.LCFI8:
 312              		.cfi_def_cfa_register 7
 313 0006 7860     		str	r0, [r7, #4]
 314 0008 3960     		str	r1, [r7]
 439:Drivers/STM32L0xx_HAL_Driver/Src/stm32l0xx_hal_uart.c ****   /* Check the UART handle allocation */
 440:Drivers/STM32L0xx_HAL_Driver/Src/stm32l0xx_hal_uart.c ****   if (huart == NULL)
 315              		.loc 1 440 6
 316 000a 7B68     		ldr	r3, [r7, #4]
 317 000c 002B     		cmp	r3, #0
 318 000e 01D1     		bne	.L18
 441:Drivers/STM32L0xx_HAL_Driver/Src/stm32l0xx_hal_uart.c ****   {
 442:Drivers/STM32L0xx_HAL_Driver/Src/stm32l0xx_hal_uart.c ****     return HAL_ERROR;
 319              		.loc 1 442 12
 320 0010 0123     		movs	r3, #1
 321 0012 66E0     		b	.L19
 322              	.L18:
 443:Drivers/STM32L0xx_HAL_Driver/Src/stm32l0xx_hal_uart.c ****   }
 444:Drivers/STM32L0xx_HAL_Driver/Src/stm32l0xx_hal_uart.c **** 
 445:Drivers/STM32L0xx_HAL_Driver/Src/stm32l0xx_hal_uart.c ****   /* Check the LIN UART instance */
 446:Drivers/STM32L0xx_HAL_Driver/Src/stm32l0xx_hal_uart.c ****   assert_param(IS_UART_LIN_INSTANCE(huart->Instance));
 447:Drivers/STM32L0xx_HAL_Driver/Src/stm32l0xx_hal_uart.c ****   /* Check the Break detection length parameter */
 448:Drivers/STM32L0xx_HAL_Driver/Src/stm32l0xx_hal_uart.c ****   assert_param(IS_UART_LIN_BREAK_DETECT_LENGTH(BreakDetectLength));
 449:Drivers/STM32L0xx_HAL_Driver/Src/stm32l0xx_hal_uart.c **** 
 450:Drivers/STM32L0xx_HAL_Driver/Src/stm32l0xx_hal_uart.c ****   /* LIN mode limited to 16-bit oversampling only */
 451:Drivers/STM32L0xx_HAL_Driver/Src/stm32l0xx_hal_uart.c ****   if (huart->Init.OverSampling == UART_OVERSAMPLING_8)
 323              		.loc 1 451 18
 324 0014 7B68     		ldr	r3, [r7, #4]
 325 0016 DA69     		ldr	r2, [r3, #28]
 326              		.loc 1 451 6
 327 0018 8023     		movs	r3, #128
 328 001a 1B02     		lsls	r3, r3, #8
 329 001c 9A42     		cmp	r2, r3
 330 001e 01D1     		bne	.L20
 452:Drivers/STM32L0xx_HAL_Driver/Src/stm32l0xx_hal_uart.c ****   {
 453:Drivers/STM32L0xx_HAL_Driver/Src/stm32l0xx_hal_uart.c ****     return HAL_ERROR;
 331              		.loc 1 453 12
 332 0020 0123     		movs	r3, #1
 333 0022 5EE0     		b	.L19
 334              	.L20:
 454:Drivers/STM32L0xx_HAL_Driver/Src/stm32l0xx_hal_uart.c ****   }
 455:Drivers/STM32L0xx_HAL_Driver/Src/stm32l0xx_hal_uart.c ****   /* LIN mode limited to 8-bit data length */
 456:Drivers/STM32L0xx_HAL_Driver/Src/stm32l0xx_hal_uart.c ****   if (huart->Init.WordLength != UART_WORDLENGTH_8B)
 335              		.loc 1 456 18
 336 0024 7B68     		ldr	r3, [r7, #4]
 337 0026 9B68     		ldr	r3, [r3, #8]
 338              		.loc 1 456 6
 339 0028 002B     		cmp	r3, #0
 340 002a 01D0     		beq	.L21
 457:Drivers/STM32L0xx_HAL_Driver/Src/stm32l0xx_hal_uart.c ****   {
 458:Drivers/STM32L0xx_HAL_Driver/Src/stm32l0xx_hal_uart.c ****     return HAL_ERROR;
 341              		.loc 1 458 12
 342 002c 0123     		movs	r3, #1
 343 002e 58E0     		b	.L19
 344              	.L21:
 459:Drivers/STM32L0xx_HAL_Driver/Src/stm32l0xx_hal_uart.c ****   }
ARM GAS  C:\Users\lidka\AppData\Local\Temp\ccqOATUZ.s 			page 15


 460:Drivers/STM32L0xx_HAL_Driver/Src/stm32l0xx_hal_uart.c **** 
 461:Drivers/STM32L0xx_HAL_Driver/Src/stm32l0xx_hal_uart.c ****   if (huart->gState == HAL_UART_STATE_RESET)
 345              		.loc 1 461 12
 346 0030 7B68     		ldr	r3, [r7, #4]
 347 0032 9B6F     		ldr	r3, [r3, #120]
 348              		.loc 1 461 6
 349 0034 002B     		cmp	r3, #0
 350 0036 07D1     		bne	.L22
 462:Drivers/STM32L0xx_HAL_Driver/Src/stm32l0xx_hal_uart.c ****   {
 463:Drivers/STM32L0xx_HAL_Driver/Src/stm32l0xx_hal_uart.c ****     /* Allocate lock resource and initialize it */
 464:Drivers/STM32L0xx_HAL_Driver/Src/stm32l0xx_hal_uart.c ****     huart->Lock = HAL_UNLOCKED;
 351              		.loc 1 464 17
 352 0038 7B68     		ldr	r3, [r7, #4]
 353 003a 7422     		movs	r2, #116
 354 003c 0021     		movs	r1, #0
 355 003e 9954     		strb	r1, [r3, r2]
 465:Drivers/STM32L0xx_HAL_Driver/Src/stm32l0xx_hal_uart.c **** 
 466:Drivers/STM32L0xx_HAL_Driver/Src/stm32l0xx_hal_uart.c **** #if (USE_HAL_UART_REGISTER_CALLBACKS == 1)
 467:Drivers/STM32L0xx_HAL_Driver/Src/stm32l0xx_hal_uart.c ****     UART_InitCallbacksToDefault(huart);
 468:Drivers/STM32L0xx_HAL_Driver/Src/stm32l0xx_hal_uart.c **** 
 469:Drivers/STM32L0xx_HAL_Driver/Src/stm32l0xx_hal_uart.c ****     if (huart->MspInitCallback == NULL)
 470:Drivers/STM32L0xx_HAL_Driver/Src/stm32l0xx_hal_uart.c ****     {
 471:Drivers/STM32L0xx_HAL_Driver/Src/stm32l0xx_hal_uart.c ****       huart->MspInitCallback = HAL_UART_MspInit;
 472:Drivers/STM32L0xx_HAL_Driver/Src/stm32l0xx_hal_uart.c ****     }
 473:Drivers/STM32L0xx_HAL_Driver/Src/stm32l0xx_hal_uart.c **** 
 474:Drivers/STM32L0xx_HAL_Driver/Src/stm32l0xx_hal_uart.c ****     /* Init the low level hardware */
 475:Drivers/STM32L0xx_HAL_Driver/Src/stm32l0xx_hal_uart.c ****     huart->MspInitCallback(huart);
 476:Drivers/STM32L0xx_HAL_Driver/Src/stm32l0xx_hal_uart.c **** #else
 477:Drivers/STM32L0xx_HAL_Driver/Src/stm32l0xx_hal_uart.c ****     /* Init the low level hardware : GPIO, CLOCK */
 478:Drivers/STM32L0xx_HAL_Driver/Src/stm32l0xx_hal_uart.c ****     HAL_UART_MspInit(huart);
 356              		.loc 1 478 5
 357 0040 7B68     		ldr	r3, [r7, #4]
 358 0042 1800     		movs	r0, r3
 359 0044 FFF7FEFF 		bl	HAL_UART_MspInit
 360              	.L22:
 479:Drivers/STM32L0xx_HAL_Driver/Src/stm32l0xx_hal_uart.c **** #endif /* (USE_HAL_UART_REGISTER_CALLBACKS) */
 480:Drivers/STM32L0xx_HAL_Driver/Src/stm32l0xx_hal_uart.c ****   }
 481:Drivers/STM32L0xx_HAL_Driver/Src/stm32l0xx_hal_uart.c **** 
 482:Drivers/STM32L0xx_HAL_Driver/Src/stm32l0xx_hal_uart.c ****   huart->gState = HAL_UART_STATE_BUSY;
 361              		.loc 1 482 17
 362 0048 7B68     		ldr	r3, [r7, #4]
 363 004a 2422     		movs	r2, #36
 364 004c 9A67     		str	r2, [r3, #120]
 483:Drivers/STM32L0xx_HAL_Driver/Src/stm32l0xx_hal_uart.c **** 
 484:Drivers/STM32L0xx_HAL_Driver/Src/stm32l0xx_hal_uart.c ****   __HAL_UART_DISABLE(huart);
 365              		.loc 1 484 3
 366 004e 7B68     		ldr	r3, [r7, #4]
 367 0050 1B68     		ldr	r3, [r3]
 368 0052 1A68     		ldr	r2, [r3]
 369 0054 7B68     		ldr	r3, [r7, #4]
 370 0056 1B68     		ldr	r3, [r3]
 371 0058 0121     		movs	r1, #1
 372 005a 8A43     		bics	r2, r1
 373 005c 1A60     		str	r2, [r3]
 485:Drivers/STM32L0xx_HAL_Driver/Src/stm32l0xx_hal_uart.c **** 
 486:Drivers/STM32L0xx_HAL_Driver/Src/stm32l0xx_hal_uart.c ****   /* Set the UART Communication parameters */
 487:Drivers/STM32L0xx_HAL_Driver/Src/stm32l0xx_hal_uart.c ****   if (UART_SetConfig(huart) == HAL_ERROR)
ARM GAS  C:\Users\lidka\AppData\Local\Temp\ccqOATUZ.s 			page 16


 374              		.loc 1 487 7
 375 005e 7B68     		ldr	r3, [r7, #4]
 376 0060 1800     		movs	r0, r3
 377 0062 FFF7FEFF 		bl	UART_SetConfig
 378 0066 0300     		movs	r3, r0
 379              		.loc 1 487 6
 380 0068 012B     		cmp	r3, #1
 381 006a 01D1     		bne	.L23
 488:Drivers/STM32L0xx_HAL_Driver/Src/stm32l0xx_hal_uart.c ****   {
 489:Drivers/STM32L0xx_HAL_Driver/Src/stm32l0xx_hal_uart.c ****     return HAL_ERROR;
 382              		.loc 1 489 12
 383 006c 0123     		movs	r3, #1
 384 006e 38E0     		b	.L19
 385              	.L23:
 490:Drivers/STM32L0xx_HAL_Driver/Src/stm32l0xx_hal_uart.c ****   }
 491:Drivers/STM32L0xx_HAL_Driver/Src/stm32l0xx_hal_uart.c **** 
 492:Drivers/STM32L0xx_HAL_Driver/Src/stm32l0xx_hal_uart.c ****   if (huart->AdvancedInit.AdvFeatureInit != UART_ADVFEATURE_NO_INIT)
 386              		.loc 1 492 26
 387 0070 7B68     		ldr	r3, [r7, #4]
 388 0072 5B6A     		ldr	r3, [r3, #36]
 389              		.loc 1 492 6
 390 0074 002B     		cmp	r3, #0
 391 0076 03D0     		beq	.L24
 493:Drivers/STM32L0xx_HAL_Driver/Src/stm32l0xx_hal_uart.c ****   {
 494:Drivers/STM32L0xx_HAL_Driver/Src/stm32l0xx_hal_uart.c ****     UART_AdvFeatureConfig(huart);
 392              		.loc 1 494 5
 393 0078 7B68     		ldr	r3, [r7, #4]
 394 007a 1800     		movs	r0, r3
 395 007c FFF7FEFF 		bl	UART_AdvFeatureConfig
 396              	.L24:
 495:Drivers/STM32L0xx_HAL_Driver/Src/stm32l0xx_hal_uart.c ****   }
 496:Drivers/STM32L0xx_HAL_Driver/Src/stm32l0xx_hal_uart.c **** 
 497:Drivers/STM32L0xx_HAL_Driver/Src/stm32l0xx_hal_uart.c ****   /* In LIN mode, the following bits must be kept cleared:
 498:Drivers/STM32L0xx_HAL_Driver/Src/stm32l0xx_hal_uart.c ****   - LINEN and CLKEN bits in the USART_CR2 register,
 499:Drivers/STM32L0xx_HAL_Driver/Src/stm32l0xx_hal_uart.c ****   - SCEN and IREN bits in the USART_CR3 register.*/
 500:Drivers/STM32L0xx_HAL_Driver/Src/stm32l0xx_hal_uart.c ****   CLEAR_BIT(huart->Instance->CR2, USART_CR2_CLKEN);
 397              		.loc 1 500 3
 398 0080 7B68     		ldr	r3, [r7, #4]
 399 0082 1B68     		ldr	r3, [r3]
 400 0084 5A68     		ldr	r2, [r3, #4]
 401 0086 7B68     		ldr	r3, [r7, #4]
 402 0088 1B68     		ldr	r3, [r3]
 403 008a 1849     		ldr	r1, .L25
 404 008c 0A40     		ands	r2, r1
 405 008e 5A60     		str	r2, [r3, #4]
 501:Drivers/STM32L0xx_HAL_Driver/Src/stm32l0xx_hal_uart.c ****   CLEAR_BIT(huart->Instance->CR3, (USART_CR3_HDSEL | USART_CR3_IREN | USART_CR3_SCEN));
 406              		.loc 1 501 3
 407 0090 7B68     		ldr	r3, [r7, #4]
 408 0092 1B68     		ldr	r3, [r3]
 409 0094 9A68     		ldr	r2, [r3, #8]
 410 0096 7B68     		ldr	r3, [r7, #4]
 411 0098 1B68     		ldr	r3, [r3]
 412 009a 2A21     		movs	r1, #42
 413 009c 8A43     		bics	r2, r1
 414 009e 9A60     		str	r2, [r3, #8]
 502:Drivers/STM32L0xx_HAL_Driver/Src/stm32l0xx_hal_uart.c **** 
 503:Drivers/STM32L0xx_HAL_Driver/Src/stm32l0xx_hal_uart.c ****   /* Enable the LIN mode by setting the LINEN bit in the CR2 register */
ARM GAS  C:\Users\lidka\AppData\Local\Temp\ccqOATUZ.s 			page 17


 504:Drivers/STM32L0xx_HAL_Driver/Src/stm32l0xx_hal_uart.c ****   SET_BIT(huart->Instance->CR2, USART_CR2_LINEN);
 415              		.loc 1 504 3
 416 00a0 7B68     		ldr	r3, [r7, #4]
 417 00a2 1B68     		ldr	r3, [r3]
 418 00a4 5A68     		ldr	r2, [r3, #4]
 419 00a6 7B68     		ldr	r3, [r7, #4]
 420 00a8 1B68     		ldr	r3, [r3]
 421 00aa 8021     		movs	r1, #128
 422 00ac C901     		lsls	r1, r1, #7
 423 00ae 0A43     		orrs	r2, r1
 424 00b0 5A60     		str	r2, [r3, #4]
 505:Drivers/STM32L0xx_HAL_Driver/Src/stm32l0xx_hal_uart.c **** 
 506:Drivers/STM32L0xx_HAL_Driver/Src/stm32l0xx_hal_uart.c ****   /* Set the USART LIN Break detection length. */
 507:Drivers/STM32L0xx_HAL_Driver/Src/stm32l0xx_hal_uart.c ****   MODIFY_REG(huart->Instance->CR2, USART_CR2_LBDL, BreakDetectLength);
 425              		.loc 1 507 3
 426 00b2 7B68     		ldr	r3, [r7, #4]
 427 00b4 1B68     		ldr	r3, [r3]
 428 00b6 5B68     		ldr	r3, [r3, #4]
 429 00b8 2022     		movs	r2, #32
 430 00ba 9343     		bics	r3, r2
 431 00bc 1900     		movs	r1, r3
 432 00be 7B68     		ldr	r3, [r7, #4]
 433 00c0 1B68     		ldr	r3, [r3]
 434 00c2 3A68     		ldr	r2, [r7]
 435 00c4 0A43     		orrs	r2, r1
 436 00c6 5A60     		str	r2, [r3, #4]
 508:Drivers/STM32L0xx_HAL_Driver/Src/stm32l0xx_hal_uart.c **** 
 509:Drivers/STM32L0xx_HAL_Driver/Src/stm32l0xx_hal_uart.c ****   __HAL_UART_ENABLE(huart);
 437              		.loc 1 509 3
 438 00c8 7B68     		ldr	r3, [r7, #4]
 439 00ca 1B68     		ldr	r3, [r3]
 440 00cc 1A68     		ldr	r2, [r3]
 441 00ce 7B68     		ldr	r3, [r7, #4]
 442 00d0 1B68     		ldr	r3, [r3]
 443 00d2 0121     		movs	r1, #1
 444 00d4 0A43     		orrs	r2, r1
 445 00d6 1A60     		str	r2, [r3]
 510:Drivers/STM32L0xx_HAL_Driver/Src/stm32l0xx_hal_uart.c **** 
 511:Drivers/STM32L0xx_HAL_Driver/Src/stm32l0xx_hal_uart.c ****   /* TEACK and/or REACK to check before moving huart->gState and huart->RxState to Ready */
 512:Drivers/STM32L0xx_HAL_Driver/Src/stm32l0xx_hal_uart.c ****   return (UART_CheckIdleState(huart));
 446              		.loc 1 512 11
 447 00d8 7B68     		ldr	r3, [r7, #4]
 448 00da 1800     		movs	r0, r3
 449 00dc FFF7FEFF 		bl	UART_CheckIdleState
 450 00e0 0300     		movs	r3, r0
 451              	.L19:
 513:Drivers/STM32L0xx_HAL_Driver/Src/stm32l0xx_hal_uart.c **** }
 452              		.loc 1 513 1
 453 00e2 1800     		movs	r0, r3
 454 00e4 BD46     		mov	sp, r7
 455 00e6 02B0     		add	sp, sp, #8
 456              		@ sp needed
 457 00e8 80BD     		pop	{r7, pc}
 458              	.L26:
 459 00ea C046     		.align	2
 460              	.L25:
 461 00ec FFF7FFFF 		.word	-2049
ARM GAS  C:\Users\lidka\AppData\Local\Temp\ccqOATUZ.s 			page 18


 462              		.cfi_endproc
 463              	.LFE49:
 465              		.section	.text.HAL_MultiProcessor_Init,"ax",%progbits
 466              		.align	1
 467              		.global	HAL_MultiProcessor_Init
 468              		.syntax unified
 469              		.code	16
 470              		.thumb_func
 472              	HAL_MultiProcessor_Init:
 473              	.LFB50:
 514:Drivers/STM32L0xx_HAL_Driver/Src/stm32l0xx_hal_uart.c **** 
 515:Drivers/STM32L0xx_HAL_Driver/Src/stm32l0xx_hal_uart.c **** 
 516:Drivers/STM32L0xx_HAL_Driver/Src/stm32l0xx_hal_uart.c **** /**
 517:Drivers/STM32L0xx_HAL_Driver/Src/stm32l0xx_hal_uart.c ****   * @brief Initialize the multiprocessor mode according to the specified
 518:Drivers/STM32L0xx_HAL_Driver/Src/stm32l0xx_hal_uart.c ****   *        parameters in the UART_InitTypeDef and initialize the associated handle.
 519:Drivers/STM32L0xx_HAL_Driver/Src/stm32l0xx_hal_uart.c ****   * @param huart        UART handle.
 520:Drivers/STM32L0xx_HAL_Driver/Src/stm32l0xx_hal_uart.c ****   * @param Address      UART node address (4-, 6-, 7- or 8-bit long).
 521:Drivers/STM32L0xx_HAL_Driver/Src/stm32l0xx_hal_uart.c ****   * @param WakeUpMethod Specifies the UART wakeup method.
 522:Drivers/STM32L0xx_HAL_Driver/Src/stm32l0xx_hal_uart.c ****   *        This parameter can be one of the following values:
 523:Drivers/STM32L0xx_HAL_Driver/Src/stm32l0xx_hal_uart.c ****   *          @arg @ref UART_WAKEUPMETHOD_IDLELINE WakeUp by an idle line detection
 524:Drivers/STM32L0xx_HAL_Driver/Src/stm32l0xx_hal_uart.c ****   *          @arg @ref UART_WAKEUPMETHOD_ADDRESSMARK WakeUp by an address mark
 525:Drivers/STM32L0xx_HAL_Driver/Src/stm32l0xx_hal_uart.c ****   * @note  If the user resorts to idle line detection wake up, the Address parameter
 526:Drivers/STM32L0xx_HAL_Driver/Src/stm32l0xx_hal_uart.c ****   *        is useless and ignored by the initialization function.
 527:Drivers/STM32L0xx_HAL_Driver/Src/stm32l0xx_hal_uart.c ****   * @note  If the user resorts to address mark wake up, the address length detection
 528:Drivers/STM32L0xx_HAL_Driver/Src/stm32l0xx_hal_uart.c ****   *        is configured by default to 4 bits only. For the UART to be able to
 529:Drivers/STM32L0xx_HAL_Driver/Src/stm32l0xx_hal_uart.c ****   *        manage 6-, 7- or 8-bit long addresses detection, the API
 530:Drivers/STM32L0xx_HAL_Driver/Src/stm32l0xx_hal_uart.c ****   *        HAL_MultiProcessorEx_AddressLength_Set() must be called after
 531:Drivers/STM32L0xx_HAL_Driver/Src/stm32l0xx_hal_uart.c ****   *        HAL_MultiProcessor_Init().
 532:Drivers/STM32L0xx_HAL_Driver/Src/stm32l0xx_hal_uart.c ****   * @retval HAL status
 533:Drivers/STM32L0xx_HAL_Driver/Src/stm32l0xx_hal_uart.c ****   */
 534:Drivers/STM32L0xx_HAL_Driver/Src/stm32l0xx_hal_uart.c **** HAL_StatusTypeDef HAL_MultiProcessor_Init(UART_HandleTypeDef *huart, uint8_t Address, uint32_t Wake
 535:Drivers/STM32L0xx_HAL_Driver/Src/stm32l0xx_hal_uart.c **** {
 474              		.loc 1 535 1
 475              		.cfi_startproc
 476              		@ args = 0, pretend = 0, frame = 16
 477              		@ frame_needed = 1, uses_anonymous_args = 0
 478 0000 80B5     		push	{r7, lr}
 479              	.LCFI9:
 480              		.cfi_def_cfa_offset 8
 481              		.cfi_offset 7, -8
 482              		.cfi_offset 14, -4
 483 0002 84B0     		sub	sp, sp, #16
 484              	.LCFI10:
 485              		.cfi_def_cfa_offset 24
 486 0004 00AF     		add	r7, sp, #0
 487              	.LCFI11:
 488              		.cfi_def_cfa_register 7
 489 0006 F860     		str	r0, [r7, #12]
 490 0008 7A60     		str	r2, [r7, #4]
 491 000a 0B23     		movs	r3, #11
 492 000c FB18     		adds	r3, r7, r3
 493 000e 0A1C     		adds	r2, r1, #0
 494 0010 1A70     		strb	r2, [r3]
 536:Drivers/STM32L0xx_HAL_Driver/Src/stm32l0xx_hal_uart.c ****   /* Check the UART handle allocation */
 537:Drivers/STM32L0xx_HAL_Driver/Src/stm32l0xx_hal_uart.c ****   if (huart == NULL)
 495              		.loc 1 537 6
 496 0012 FB68     		ldr	r3, [r7, #12]
ARM GAS  C:\Users\lidka\AppData\Local\Temp\ccqOATUZ.s 			page 19


 497 0014 002B     		cmp	r3, #0
 498 0016 01D1     		bne	.L28
 538:Drivers/STM32L0xx_HAL_Driver/Src/stm32l0xx_hal_uart.c ****   {
 539:Drivers/STM32L0xx_HAL_Driver/Src/stm32l0xx_hal_uart.c ****     return HAL_ERROR;
 499              		.loc 1 539 12
 500 0018 0123     		movs	r3, #1
 501 001a 61E0     		b	.L29
 502              	.L28:
 540:Drivers/STM32L0xx_HAL_Driver/Src/stm32l0xx_hal_uart.c ****   }
 541:Drivers/STM32L0xx_HAL_Driver/Src/stm32l0xx_hal_uart.c **** 
 542:Drivers/STM32L0xx_HAL_Driver/Src/stm32l0xx_hal_uart.c ****   /* Check the wake up method parameter */
 543:Drivers/STM32L0xx_HAL_Driver/Src/stm32l0xx_hal_uart.c ****   assert_param(IS_UART_WAKEUPMETHOD(WakeUpMethod));
 544:Drivers/STM32L0xx_HAL_Driver/Src/stm32l0xx_hal_uart.c **** 
 545:Drivers/STM32L0xx_HAL_Driver/Src/stm32l0xx_hal_uart.c ****   if (huart->gState == HAL_UART_STATE_RESET)
 503              		.loc 1 545 12
 504 001c FB68     		ldr	r3, [r7, #12]
 505 001e 9B6F     		ldr	r3, [r3, #120]
 506              		.loc 1 545 6
 507 0020 002B     		cmp	r3, #0
 508 0022 07D1     		bne	.L30
 546:Drivers/STM32L0xx_HAL_Driver/Src/stm32l0xx_hal_uart.c ****   {
 547:Drivers/STM32L0xx_HAL_Driver/Src/stm32l0xx_hal_uart.c ****     /* Allocate lock resource and initialize it */
 548:Drivers/STM32L0xx_HAL_Driver/Src/stm32l0xx_hal_uart.c ****     huart->Lock = HAL_UNLOCKED;
 509              		.loc 1 548 17
 510 0024 FB68     		ldr	r3, [r7, #12]
 511 0026 7422     		movs	r2, #116
 512 0028 0021     		movs	r1, #0
 513 002a 9954     		strb	r1, [r3, r2]
 549:Drivers/STM32L0xx_HAL_Driver/Src/stm32l0xx_hal_uart.c **** 
 550:Drivers/STM32L0xx_HAL_Driver/Src/stm32l0xx_hal_uart.c **** #if (USE_HAL_UART_REGISTER_CALLBACKS == 1)
 551:Drivers/STM32L0xx_HAL_Driver/Src/stm32l0xx_hal_uart.c ****     UART_InitCallbacksToDefault(huart);
 552:Drivers/STM32L0xx_HAL_Driver/Src/stm32l0xx_hal_uart.c **** 
 553:Drivers/STM32L0xx_HAL_Driver/Src/stm32l0xx_hal_uart.c ****     if (huart->MspInitCallback == NULL)
 554:Drivers/STM32L0xx_HAL_Driver/Src/stm32l0xx_hal_uart.c ****     {
 555:Drivers/STM32L0xx_HAL_Driver/Src/stm32l0xx_hal_uart.c ****       huart->MspInitCallback = HAL_UART_MspInit;
 556:Drivers/STM32L0xx_HAL_Driver/Src/stm32l0xx_hal_uart.c ****     }
 557:Drivers/STM32L0xx_HAL_Driver/Src/stm32l0xx_hal_uart.c **** 
 558:Drivers/STM32L0xx_HAL_Driver/Src/stm32l0xx_hal_uart.c ****     /* Init the low level hardware */
 559:Drivers/STM32L0xx_HAL_Driver/Src/stm32l0xx_hal_uart.c ****     huart->MspInitCallback(huart);
 560:Drivers/STM32L0xx_HAL_Driver/Src/stm32l0xx_hal_uart.c **** #else
 561:Drivers/STM32L0xx_HAL_Driver/Src/stm32l0xx_hal_uart.c ****     /* Init the low level hardware : GPIO, CLOCK */
 562:Drivers/STM32L0xx_HAL_Driver/Src/stm32l0xx_hal_uart.c ****     HAL_UART_MspInit(huart);
 514              		.loc 1 562 5
 515 002c FB68     		ldr	r3, [r7, #12]
 516 002e 1800     		movs	r0, r3
 517 0030 FFF7FEFF 		bl	HAL_UART_MspInit
 518              	.L30:
 563:Drivers/STM32L0xx_HAL_Driver/Src/stm32l0xx_hal_uart.c **** #endif /* (USE_HAL_UART_REGISTER_CALLBACKS) */
 564:Drivers/STM32L0xx_HAL_Driver/Src/stm32l0xx_hal_uart.c ****   }
 565:Drivers/STM32L0xx_HAL_Driver/Src/stm32l0xx_hal_uart.c **** 
 566:Drivers/STM32L0xx_HAL_Driver/Src/stm32l0xx_hal_uart.c ****   huart->gState = HAL_UART_STATE_BUSY;
 519              		.loc 1 566 17
 520 0034 FB68     		ldr	r3, [r7, #12]
 521 0036 2422     		movs	r2, #36
 522 0038 9A67     		str	r2, [r3, #120]
 567:Drivers/STM32L0xx_HAL_Driver/Src/stm32l0xx_hal_uart.c **** 
 568:Drivers/STM32L0xx_HAL_Driver/Src/stm32l0xx_hal_uart.c ****   __HAL_UART_DISABLE(huart);
ARM GAS  C:\Users\lidka\AppData\Local\Temp\ccqOATUZ.s 			page 20


 523              		.loc 1 568 3
 524 003a FB68     		ldr	r3, [r7, #12]
 525 003c 1B68     		ldr	r3, [r3]
 526 003e 1A68     		ldr	r2, [r3]
 527 0040 FB68     		ldr	r3, [r7, #12]
 528 0042 1B68     		ldr	r3, [r3]
 529 0044 0121     		movs	r1, #1
 530 0046 8A43     		bics	r2, r1
 531 0048 1A60     		str	r2, [r3]
 569:Drivers/STM32L0xx_HAL_Driver/Src/stm32l0xx_hal_uart.c **** 
 570:Drivers/STM32L0xx_HAL_Driver/Src/stm32l0xx_hal_uart.c ****   /* Set the UART Communication parameters */
 571:Drivers/STM32L0xx_HAL_Driver/Src/stm32l0xx_hal_uart.c ****   if (UART_SetConfig(huart) == HAL_ERROR)
 532              		.loc 1 571 7
 533 004a FB68     		ldr	r3, [r7, #12]
 534 004c 1800     		movs	r0, r3
 535 004e FFF7FEFF 		bl	UART_SetConfig
 536 0052 0300     		movs	r3, r0
 537              		.loc 1 571 6
 538 0054 012B     		cmp	r3, #1
 539 0056 01D1     		bne	.L31
 572:Drivers/STM32L0xx_HAL_Driver/Src/stm32l0xx_hal_uart.c ****   {
 573:Drivers/STM32L0xx_HAL_Driver/Src/stm32l0xx_hal_uart.c ****     return HAL_ERROR;
 540              		.loc 1 573 12
 541 0058 0123     		movs	r3, #1
 542 005a 41E0     		b	.L29
 543              	.L31:
 574:Drivers/STM32L0xx_HAL_Driver/Src/stm32l0xx_hal_uart.c ****   }
 575:Drivers/STM32L0xx_HAL_Driver/Src/stm32l0xx_hal_uart.c **** 
 576:Drivers/STM32L0xx_HAL_Driver/Src/stm32l0xx_hal_uart.c ****   if (huart->AdvancedInit.AdvFeatureInit != UART_ADVFEATURE_NO_INIT)
 544              		.loc 1 576 26
 545 005c FB68     		ldr	r3, [r7, #12]
 546 005e 5B6A     		ldr	r3, [r3, #36]
 547              		.loc 1 576 6
 548 0060 002B     		cmp	r3, #0
 549 0062 03D0     		beq	.L32
 577:Drivers/STM32L0xx_HAL_Driver/Src/stm32l0xx_hal_uart.c ****   {
 578:Drivers/STM32L0xx_HAL_Driver/Src/stm32l0xx_hal_uart.c ****     UART_AdvFeatureConfig(huart);
 550              		.loc 1 578 5
 551 0064 FB68     		ldr	r3, [r7, #12]
 552 0066 1800     		movs	r0, r3
 553 0068 FFF7FEFF 		bl	UART_AdvFeatureConfig
 554              	.L32:
 579:Drivers/STM32L0xx_HAL_Driver/Src/stm32l0xx_hal_uart.c ****   }
 580:Drivers/STM32L0xx_HAL_Driver/Src/stm32l0xx_hal_uart.c **** 
 581:Drivers/STM32L0xx_HAL_Driver/Src/stm32l0xx_hal_uart.c ****   /* In multiprocessor mode, the following bits must be kept cleared:
 582:Drivers/STM32L0xx_HAL_Driver/Src/stm32l0xx_hal_uart.c ****   - LINEN and CLKEN bits in the USART_CR2 register,
 583:Drivers/STM32L0xx_HAL_Driver/Src/stm32l0xx_hal_uart.c ****   - SCEN, HDSEL and IREN  bits in the USART_CR3 register. */
 584:Drivers/STM32L0xx_HAL_Driver/Src/stm32l0xx_hal_uart.c ****   CLEAR_BIT(huart->Instance->CR2, (USART_CR2_LINEN | USART_CR2_CLKEN));
 555              		.loc 1 584 3
 556 006c FB68     		ldr	r3, [r7, #12]
 557 006e 1B68     		ldr	r3, [r3]
 558 0070 5A68     		ldr	r2, [r3, #4]
 559 0072 FB68     		ldr	r3, [r7, #12]
 560 0074 1B68     		ldr	r3, [r3]
 561 0076 1C49     		ldr	r1, .L34
 562 0078 0A40     		ands	r2, r1
 563 007a 5A60     		str	r2, [r3, #4]
ARM GAS  C:\Users\lidka\AppData\Local\Temp\ccqOATUZ.s 			page 21


 585:Drivers/STM32L0xx_HAL_Driver/Src/stm32l0xx_hal_uart.c ****   CLEAR_BIT(huart->Instance->CR3, (USART_CR3_SCEN | USART_CR3_HDSEL | USART_CR3_IREN));
 564              		.loc 1 585 3
 565 007c FB68     		ldr	r3, [r7, #12]
 566 007e 1B68     		ldr	r3, [r3]
 567 0080 9A68     		ldr	r2, [r3, #8]
 568 0082 FB68     		ldr	r3, [r7, #12]
 569 0084 1B68     		ldr	r3, [r3]
 570 0086 2A21     		movs	r1, #42
 571 0088 8A43     		bics	r2, r1
 572 008a 9A60     		str	r2, [r3, #8]
 586:Drivers/STM32L0xx_HAL_Driver/Src/stm32l0xx_hal_uart.c **** 
 587:Drivers/STM32L0xx_HAL_Driver/Src/stm32l0xx_hal_uart.c ****   if (WakeUpMethod == UART_WAKEUPMETHOD_ADDRESSMARK)
 573              		.loc 1 587 6
 574 008c 7A68     		ldr	r2, [r7, #4]
 575 008e 8023     		movs	r3, #128
 576 0090 1B01     		lsls	r3, r3, #4
 577 0092 9A42     		cmp	r2, r3
 578 0094 0CD1     		bne	.L33
 588:Drivers/STM32L0xx_HAL_Driver/Src/stm32l0xx_hal_uart.c ****   {
 589:Drivers/STM32L0xx_HAL_Driver/Src/stm32l0xx_hal_uart.c ****     /* If address mark wake up method is chosen, set the USART address node */
 590:Drivers/STM32L0xx_HAL_Driver/Src/stm32l0xx_hal_uart.c ****     MODIFY_REG(huart->Instance->CR2, USART_CR2_ADD, ((uint32_t)Address << UART_CR2_ADDRESS_LSB_POS)
 579              		.loc 1 590 5
 580 0096 FB68     		ldr	r3, [r7, #12]
 581 0098 1B68     		ldr	r3, [r3]
 582 009a 5B68     		ldr	r3, [r3, #4]
 583 009c 1B02     		lsls	r3, r3, #8
 584 009e 190A     		lsrs	r1, r3, #8
 585 00a0 0B23     		movs	r3, #11
 586 00a2 FB18     		adds	r3, r7, r3
 587 00a4 1B78     		ldrb	r3, [r3]
 588 00a6 1A06     		lsls	r2, r3, #24
 589 00a8 FB68     		ldr	r3, [r7, #12]
 590 00aa 1B68     		ldr	r3, [r3]
 591 00ac 0A43     		orrs	r2, r1
 592 00ae 5A60     		str	r2, [r3, #4]
 593              	.L33:
 591:Drivers/STM32L0xx_HAL_Driver/Src/stm32l0xx_hal_uart.c ****   }
 592:Drivers/STM32L0xx_HAL_Driver/Src/stm32l0xx_hal_uart.c **** 
 593:Drivers/STM32L0xx_HAL_Driver/Src/stm32l0xx_hal_uart.c ****   /* Set the wake up method by setting the WAKE bit in the CR1 register */
 594:Drivers/STM32L0xx_HAL_Driver/Src/stm32l0xx_hal_uart.c ****   MODIFY_REG(huart->Instance->CR1, USART_CR1_WAKE, WakeUpMethod);
 594              		.loc 1 594 3
 595 00b0 FB68     		ldr	r3, [r7, #12]
 596 00b2 1B68     		ldr	r3, [r3]
 597 00b4 1B68     		ldr	r3, [r3]
 598 00b6 0D4A     		ldr	r2, .L34+4
 599 00b8 1340     		ands	r3, r2
 600 00ba 1900     		movs	r1, r3
 601 00bc FB68     		ldr	r3, [r7, #12]
 602 00be 1B68     		ldr	r3, [r3]
 603 00c0 7A68     		ldr	r2, [r7, #4]
 604 00c2 0A43     		orrs	r2, r1
 605 00c4 1A60     		str	r2, [r3]
 595:Drivers/STM32L0xx_HAL_Driver/Src/stm32l0xx_hal_uart.c **** 
 596:Drivers/STM32L0xx_HAL_Driver/Src/stm32l0xx_hal_uart.c ****   __HAL_UART_ENABLE(huart);
 606              		.loc 1 596 3
 607 00c6 FB68     		ldr	r3, [r7, #12]
 608 00c8 1B68     		ldr	r3, [r3]
ARM GAS  C:\Users\lidka\AppData\Local\Temp\ccqOATUZ.s 			page 22


 609 00ca 1A68     		ldr	r2, [r3]
 610 00cc FB68     		ldr	r3, [r7, #12]
 611 00ce 1B68     		ldr	r3, [r3]
 612 00d0 0121     		movs	r1, #1
 613 00d2 0A43     		orrs	r2, r1
 614 00d4 1A60     		str	r2, [r3]
 597:Drivers/STM32L0xx_HAL_Driver/Src/stm32l0xx_hal_uart.c **** 
 598:Drivers/STM32L0xx_HAL_Driver/Src/stm32l0xx_hal_uart.c ****   /* TEACK and/or REACK to check before moving huart->gState and huart->RxState to Ready */
 599:Drivers/STM32L0xx_HAL_Driver/Src/stm32l0xx_hal_uart.c ****   return (UART_CheckIdleState(huart));
 615              		.loc 1 599 11
 616 00d6 FB68     		ldr	r3, [r7, #12]
 617 00d8 1800     		movs	r0, r3
 618 00da FFF7FEFF 		bl	UART_CheckIdleState
 619 00de 0300     		movs	r3, r0
 620              	.L29:
 600:Drivers/STM32L0xx_HAL_Driver/Src/stm32l0xx_hal_uart.c **** }
 621              		.loc 1 600 1
 622 00e0 1800     		movs	r0, r3
 623 00e2 BD46     		mov	sp, r7
 624 00e4 04B0     		add	sp, sp, #16
 625              		@ sp needed
 626 00e6 80BD     		pop	{r7, pc}
 627              	.L35:
 628              		.align	2
 629              	.L34:
 630 00e8 FFB7FFFF 		.word	-18433
 631 00ec FFF7FFFF 		.word	-2049
 632              		.cfi_endproc
 633              	.LFE50:
 635              		.section	.text.HAL_UART_DeInit,"ax",%progbits
 636              		.align	1
 637              		.global	HAL_UART_DeInit
 638              		.syntax unified
 639              		.code	16
 640              		.thumb_func
 642              	HAL_UART_DeInit:
 643              	.LFB51:
 601:Drivers/STM32L0xx_HAL_Driver/Src/stm32l0xx_hal_uart.c **** 
 602:Drivers/STM32L0xx_HAL_Driver/Src/stm32l0xx_hal_uart.c **** 
 603:Drivers/STM32L0xx_HAL_Driver/Src/stm32l0xx_hal_uart.c **** /**
 604:Drivers/STM32L0xx_HAL_Driver/Src/stm32l0xx_hal_uart.c ****   * @brief DeInitialize the UART peripheral.
 605:Drivers/STM32L0xx_HAL_Driver/Src/stm32l0xx_hal_uart.c ****   * @param huart UART handle.
 606:Drivers/STM32L0xx_HAL_Driver/Src/stm32l0xx_hal_uart.c ****   * @retval HAL status
 607:Drivers/STM32L0xx_HAL_Driver/Src/stm32l0xx_hal_uart.c ****   */
 608:Drivers/STM32L0xx_HAL_Driver/Src/stm32l0xx_hal_uart.c **** HAL_StatusTypeDef HAL_UART_DeInit(UART_HandleTypeDef *huart)
 609:Drivers/STM32L0xx_HAL_Driver/Src/stm32l0xx_hal_uart.c **** {
 644              		.loc 1 609 1
 645              		.cfi_startproc
 646              		@ args = 0, pretend = 0, frame = 8
 647              		@ frame_needed = 1, uses_anonymous_args = 0
 648 0000 80B5     		push	{r7, lr}
 649              	.LCFI12:
 650              		.cfi_def_cfa_offset 8
 651              		.cfi_offset 7, -8
 652              		.cfi_offset 14, -4
 653 0002 82B0     		sub	sp, sp, #8
 654              	.LCFI13:
ARM GAS  C:\Users\lidka\AppData\Local\Temp\ccqOATUZ.s 			page 23


 655              		.cfi_def_cfa_offset 16
 656 0004 00AF     		add	r7, sp, #0
 657              	.LCFI14:
 658              		.cfi_def_cfa_register 7
 659 0006 7860     		str	r0, [r7, #4]
 610:Drivers/STM32L0xx_HAL_Driver/Src/stm32l0xx_hal_uart.c ****   /* Check the UART handle allocation */
 611:Drivers/STM32L0xx_HAL_Driver/Src/stm32l0xx_hal_uart.c ****   if (huart == NULL)
 660              		.loc 1 611 6
 661 0008 7B68     		ldr	r3, [r7, #4]
 662 000a 002B     		cmp	r3, #0
 663 000c 01D1     		bne	.L37
 612:Drivers/STM32L0xx_HAL_Driver/Src/stm32l0xx_hal_uart.c ****   {
 613:Drivers/STM32L0xx_HAL_Driver/Src/stm32l0xx_hal_uart.c ****     return HAL_ERROR;
 664              		.loc 1 613 12
 665 000e 0123     		movs	r3, #1
 666 0010 2CE0     		b	.L38
 667              	.L37:
 614:Drivers/STM32L0xx_HAL_Driver/Src/stm32l0xx_hal_uart.c ****   }
 615:Drivers/STM32L0xx_HAL_Driver/Src/stm32l0xx_hal_uart.c **** 
 616:Drivers/STM32L0xx_HAL_Driver/Src/stm32l0xx_hal_uart.c ****   /* Check the parameters */
 617:Drivers/STM32L0xx_HAL_Driver/Src/stm32l0xx_hal_uart.c ****   assert_param((IS_UART_INSTANCE(huart->Instance)) || (IS_LPUART_INSTANCE(huart->Instance)));
 618:Drivers/STM32L0xx_HAL_Driver/Src/stm32l0xx_hal_uart.c **** 
 619:Drivers/STM32L0xx_HAL_Driver/Src/stm32l0xx_hal_uart.c ****   huart->gState = HAL_UART_STATE_BUSY;
 668              		.loc 1 619 17
 669 0012 7B68     		ldr	r3, [r7, #4]
 670 0014 2422     		movs	r2, #36
 671 0016 9A67     		str	r2, [r3, #120]
 620:Drivers/STM32L0xx_HAL_Driver/Src/stm32l0xx_hal_uart.c **** 
 621:Drivers/STM32L0xx_HAL_Driver/Src/stm32l0xx_hal_uart.c ****   __HAL_UART_DISABLE(huart);
 672              		.loc 1 621 3
 673 0018 7B68     		ldr	r3, [r7, #4]
 674 001a 1B68     		ldr	r3, [r3]
 675 001c 1A68     		ldr	r2, [r3]
 676 001e 7B68     		ldr	r3, [r7, #4]
 677 0020 1B68     		ldr	r3, [r3]
 678 0022 0121     		movs	r1, #1
 679 0024 8A43     		bics	r2, r1
 680 0026 1A60     		str	r2, [r3]
 622:Drivers/STM32L0xx_HAL_Driver/Src/stm32l0xx_hal_uart.c **** 
 623:Drivers/STM32L0xx_HAL_Driver/Src/stm32l0xx_hal_uart.c ****   huart->Instance->CR1 = 0x0U;
 681              		.loc 1 623 8
 682 0028 7B68     		ldr	r3, [r7, #4]
 683 002a 1B68     		ldr	r3, [r3]
 684              		.loc 1 623 24
 685 002c 0022     		movs	r2, #0
 686 002e 1A60     		str	r2, [r3]
 624:Drivers/STM32L0xx_HAL_Driver/Src/stm32l0xx_hal_uart.c ****   huart->Instance->CR2 = 0x0U;
 687              		.loc 1 624 8
 688 0030 7B68     		ldr	r3, [r7, #4]
 689 0032 1B68     		ldr	r3, [r3]
 690              		.loc 1 624 24
 691 0034 0022     		movs	r2, #0
 692 0036 5A60     		str	r2, [r3, #4]
 625:Drivers/STM32L0xx_HAL_Driver/Src/stm32l0xx_hal_uart.c ****   huart->Instance->CR3 = 0x0U;
 693              		.loc 1 625 8
 694 0038 7B68     		ldr	r3, [r7, #4]
 695 003a 1B68     		ldr	r3, [r3]
ARM GAS  C:\Users\lidka\AppData\Local\Temp\ccqOATUZ.s 			page 24


 696              		.loc 1 625 24
 697 003c 0022     		movs	r2, #0
 698 003e 9A60     		str	r2, [r3, #8]
 626:Drivers/STM32L0xx_HAL_Driver/Src/stm32l0xx_hal_uart.c **** 
 627:Drivers/STM32L0xx_HAL_Driver/Src/stm32l0xx_hal_uart.c **** #if (USE_HAL_UART_REGISTER_CALLBACKS == 1)
 628:Drivers/STM32L0xx_HAL_Driver/Src/stm32l0xx_hal_uart.c ****   if (huart->MspDeInitCallback == NULL)
 629:Drivers/STM32L0xx_HAL_Driver/Src/stm32l0xx_hal_uart.c ****   {
 630:Drivers/STM32L0xx_HAL_Driver/Src/stm32l0xx_hal_uart.c ****     huart->MspDeInitCallback = HAL_UART_MspDeInit;
 631:Drivers/STM32L0xx_HAL_Driver/Src/stm32l0xx_hal_uart.c ****   }
 632:Drivers/STM32L0xx_HAL_Driver/Src/stm32l0xx_hal_uart.c ****   /* DeInit the low level hardware */
 633:Drivers/STM32L0xx_HAL_Driver/Src/stm32l0xx_hal_uart.c ****   huart->MspDeInitCallback(huart);
 634:Drivers/STM32L0xx_HAL_Driver/Src/stm32l0xx_hal_uart.c **** #else
 635:Drivers/STM32L0xx_HAL_Driver/Src/stm32l0xx_hal_uart.c ****   /* DeInit the low level hardware */
 636:Drivers/STM32L0xx_HAL_Driver/Src/stm32l0xx_hal_uart.c ****   HAL_UART_MspDeInit(huart);
 699              		.loc 1 636 3
 700 0040 7B68     		ldr	r3, [r7, #4]
 701 0042 1800     		movs	r0, r3
 702 0044 FFF7FEFF 		bl	HAL_UART_MspDeInit
 637:Drivers/STM32L0xx_HAL_Driver/Src/stm32l0xx_hal_uart.c **** #endif /* (USE_HAL_UART_REGISTER_CALLBACKS) */
 638:Drivers/STM32L0xx_HAL_Driver/Src/stm32l0xx_hal_uart.c **** 
 639:Drivers/STM32L0xx_HAL_Driver/Src/stm32l0xx_hal_uart.c ****   huart->ErrorCode = HAL_UART_ERROR_NONE;
 703              		.loc 1 639 20
 704 0048 7B68     		ldr	r3, [r7, #4]
 705 004a 8022     		movs	r2, #128
 706 004c 0021     		movs	r1, #0
 707 004e 9950     		str	r1, [r3, r2]
 640:Drivers/STM32L0xx_HAL_Driver/Src/stm32l0xx_hal_uart.c ****   huart->gState = HAL_UART_STATE_RESET;
 708              		.loc 1 640 17
 709 0050 7B68     		ldr	r3, [r7, #4]
 710 0052 0022     		movs	r2, #0
 711 0054 9A67     		str	r2, [r3, #120]
 641:Drivers/STM32L0xx_HAL_Driver/Src/stm32l0xx_hal_uart.c ****   huart->RxState = HAL_UART_STATE_RESET;
 712              		.loc 1 641 18
 713 0056 7B68     		ldr	r3, [r7, #4]
 714 0058 0022     		movs	r2, #0
 715 005a DA67     		str	r2, [r3, #124]
 642:Drivers/STM32L0xx_HAL_Driver/Src/stm32l0xx_hal_uart.c ****   huart->ReceptionType = HAL_UART_RECEPTION_STANDARD;
 716              		.loc 1 642 24
 717 005c 7B68     		ldr	r3, [r7, #4]
 718 005e 0022     		movs	r2, #0
 719 0060 1A66     		str	r2, [r3, #96]
 643:Drivers/STM32L0xx_HAL_Driver/Src/stm32l0xx_hal_uart.c **** 
 644:Drivers/STM32L0xx_HAL_Driver/Src/stm32l0xx_hal_uart.c ****   __HAL_UNLOCK(huart);
 720              		.loc 1 644 3
 721 0062 7B68     		ldr	r3, [r7, #4]
 722 0064 7422     		movs	r2, #116
 723 0066 0021     		movs	r1, #0
 724 0068 9954     		strb	r1, [r3, r2]
 645:Drivers/STM32L0xx_HAL_Driver/Src/stm32l0xx_hal_uart.c **** 
 646:Drivers/STM32L0xx_HAL_Driver/Src/stm32l0xx_hal_uart.c ****   return HAL_OK;
 725              		.loc 1 646 10
 726 006a 0023     		movs	r3, #0
 727              	.L38:
 647:Drivers/STM32L0xx_HAL_Driver/Src/stm32l0xx_hal_uart.c **** }
 728              		.loc 1 647 1
 729 006c 1800     		movs	r0, r3
 730 006e BD46     		mov	sp, r7
ARM GAS  C:\Users\lidka\AppData\Local\Temp\ccqOATUZ.s 			page 25


 731 0070 02B0     		add	sp, sp, #8
 732              		@ sp needed
 733 0072 80BD     		pop	{r7, pc}
 734              		.cfi_endproc
 735              	.LFE51:
 737              		.section	.text.HAL_UART_MspInit,"ax",%progbits
 738              		.align	1
 739              		.weak	HAL_UART_MspInit
 740              		.syntax unified
 741              		.code	16
 742              		.thumb_func
 744              	HAL_UART_MspInit:
 745              	.LFB52:
 648:Drivers/STM32L0xx_HAL_Driver/Src/stm32l0xx_hal_uart.c **** 
 649:Drivers/STM32L0xx_HAL_Driver/Src/stm32l0xx_hal_uart.c **** /**
 650:Drivers/STM32L0xx_HAL_Driver/Src/stm32l0xx_hal_uart.c ****   * @brief Initialize the UART MSP.
 651:Drivers/STM32L0xx_HAL_Driver/Src/stm32l0xx_hal_uart.c ****   * @param huart UART handle.
 652:Drivers/STM32L0xx_HAL_Driver/Src/stm32l0xx_hal_uart.c ****   * @retval None
 653:Drivers/STM32L0xx_HAL_Driver/Src/stm32l0xx_hal_uart.c ****   */
 654:Drivers/STM32L0xx_HAL_Driver/Src/stm32l0xx_hal_uart.c **** __weak void HAL_UART_MspInit(UART_HandleTypeDef *huart)
 655:Drivers/STM32L0xx_HAL_Driver/Src/stm32l0xx_hal_uart.c **** {
 746              		.loc 1 655 1
 747              		.cfi_startproc
 748              		@ args = 0, pretend = 0, frame = 8
 749              		@ frame_needed = 1, uses_anonymous_args = 0
 750 0000 80B5     		push	{r7, lr}
 751              	.LCFI15:
 752              		.cfi_def_cfa_offset 8
 753              		.cfi_offset 7, -8
 754              		.cfi_offset 14, -4
 755 0002 82B0     		sub	sp, sp, #8
 756              	.LCFI16:
 757              		.cfi_def_cfa_offset 16
 758 0004 00AF     		add	r7, sp, #0
 759              	.LCFI17:
 760              		.cfi_def_cfa_register 7
 761 0006 7860     		str	r0, [r7, #4]
 656:Drivers/STM32L0xx_HAL_Driver/Src/stm32l0xx_hal_uart.c ****   /* Prevent unused argument(s) compilation warning */
 657:Drivers/STM32L0xx_HAL_Driver/Src/stm32l0xx_hal_uart.c ****   UNUSED(huart);
 658:Drivers/STM32L0xx_HAL_Driver/Src/stm32l0xx_hal_uart.c **** 
 659:Drivers/STM32L0xx_HAL_Driver/Src/stm32l0xx_hal_uart.c ****   /* NOTE : This function should not be modified, when the callback is needed,
 660:Drivers/STM32L0xx_HAL_Driver/Src/stm32l0xx_hal_uart.c ****             the HAL_UART_MspInit can be implemented in the user file
 661:Drivers/STM32L0xx_HAL_Driver/Src/stm32l0xx_hal_uart.c ****    */
 662:Drivers/STM32L0xx_HAL_Driver/Src/stm32l0xx_hal_uart.c **** }
 762              		.loc 1 662 1
 763 0008 C046     		nop
 764 000a BD46     		mov	sp, r7
 765 000c 02B0     		add	sp, sp, #8
 766              		@ sp needed
 767 000e 80BD     		pop	{r7, pc}
 768              		.cfi_endproc
 769              	.LFE52:
 771              		.section	.text.HAL_UART_MspDeInit,"ax",%progbits
 772              		.align	1
 773              		.weak	HAL_UART_MspDeInit
 774              		.syntax unified
 775              		.code	16
ARM GAS  C:\Users\lidka\AppData\Local\Temp\ccqOATUZ.s 			page 26


 776              		.thumb_func
 778              	HAL_UART_MspDeInit:
 779              	.LFB53:
 663:Drivers/STM32L0xx_HAL_Driver/Src/stm32l0xx_hal_uart.c **** 
 664:Drivers/STM32L0xx_HAL_Driver/Src/stm32l0xx_hal_uart.c **** /**
 665:Drivers/STM32L0xx_HAL_Driver/Src/stm32l0xx_hal_uart.c ****   * @brief DeInitialize the UART MSP.
 666:Drivers/STM32L0xx_HAL_Driver/Src/stm32l0xx_hal_uart.c ****   * @param huart UART handle.
 667:Drivers/STM32L0xx_HAL_Driver/Src/stm32l0xx_hal_uart.c ****   * @retval None
 668:Drivers/STM32L0xx_HAL_Driver/Src/stm32l0xx_hal_uart.c ****   */
 669:Drivers/STM32L0xx_HAL_Driver/Src/stm32l0xx_hal_uart.c **** __weak void HAL_UART_MspDeInit(UART_HandleTypeDef *huart)
 670:Drivers/STM32L0xx_HAL_Driver/Src/stm32l0xx_hal_uart.c **** {
 780              		.loc 1 670 1
 781              		.cfi_startproc
 782              		@ args = 0, pretend = 0, frame = 8
 783              		@ frame_needed = 1, uses_anonymous_args = 0
 784 0000 80B5     		push	{r7, lr}
 785              	.LCFI18:
 786              		.cfi_def_cfa_offset 8
 787              		.cfi_offset 7, -8
 788              		.cfi_offset 14, -4
 789 0002 82B0     		sub	sp, sp, #8
 790              	.LCFI19:
 791              		.cfi_def_cfa_offset 16
 792 0004 00AF     		add	r7, sp, #0
 793              	.LCFI20:
 794              		.cfi_def_cfa_register 7
 795 0006 7860     		str	r0, [r7, #4]
 671:Drivers/STM32L0xx_HAL_Driver/Src/stm32l0xx_hal_uart.c ****   /* Prevent unused argument(s) compilation warning */
 672:Drivers/STM32L0xx_HAL_Driver/Src/stm32l0xx_hal_uart.c ****   UNUSED(huart);
 673:Drivers/STM32L0xx_HAL_Driver/Src/stm32l0xx_hal_uart.c **** 
 674:Drivers/STM32L0xx_HAL_Driver/Src/stm32l0xx_hal_uart.c ****   /* NOTE : This function should not be modified, when the callback is needed,
 675:Drivers/STM32L0xx_HAL_Driver/Src/stm32l0xx_hal_uart.c ****             the HAL_UART_MspDeInit can be implemented in the user file
 676:Drivers/STM32L0xx_HAL_Driver/Src/stm32l0xx_hal_uart.c ****    */
 677:Drivers/STM32L0xx_HAL_Driver/Src/stm32l0xx_hal_uart.c **** }
 796              		.loc 1 677 1
 797 0008 C046     		nop
 798 000a BD46     		mov	sp, r7
 799 000c 02B0     		add	sp, sp, #8
 800              		@ sp needed
 801 000e 80BD     		pop	{r7, pc}
 802              		.cfi_endproc
 803              	.LFE53:
 805              		.section	.text.HAL_UART_Transmit,"ax",%progbits
 806              		.align	1
 807              		.global	HAL_UART_Transmit
 808              		.syntax unified
 809              		.code	16
 810              		.thumb_func
 812              	HAL_UART_Transmit:
 813              	.LFB54:
 678:Drivers/STM32L0xx_HAL_Driver/Src/stm32l0xx_hal_uart.c **** 
 679:Drivers/STM32L0xx_HAL_Driver/Src/stm32l0xx_hal_uart.c **** #if (USE_HAL_UART_REGISTER_CALLBACKS == 1)
 680:Drivers/STM32L0xx_HAL_Driver/Src/stm32l0xx_hal_uart.c **** /**
 681:Drivers/STM32L0xx_HAL_Driver/Src/stm32l0xx_hal_uart.c ****   * @brief  Register a User UART Callback
 682:Drivers/STM32L0xx_HAL_Driver/Src/stm32l0xx_hal_uart.c ****   *         To be used instead of the weak predefined callback
 683:Drivers/STM32L0xx_HAL_Driver/Src/stm32l0xx_hal_uart.c ****   * @param  huart uart handle
 684:Drivers/STM32L0xx_HAL_Driver/Src/stm32l0xx_hal_uart.c ****   * @param  CallbackID ID of the callback to be registered
ARM GAS  C:\Users\lidka\AppData\Local\Temp\ccqOATUZ.s 			page 27


 685:Drivers/STM32L0xx_HAL_Driver/Src/stm32l0xx_hal_uart.c ****   *         This parameter can be one of the following values:
 686:Drivers/STM32L0xx_HAL_Driver/Src/stm32l0xx_hal_uart.c ****   *           @arg @ref HAL_UART_TX_HALFCOMPLETE_CB_ID Tx Half Complete Callback ID
 687:Drivers/STM32L0xx_HAL_Driver/Src/stm32l0xx_hal_uart.c ****   *           @arg @ref HAL_UART_TX_COMPLETE_CB_ID Tx Complete Callback ID
 688:Drivers/STM32L0xx_HAL_Driver/Src/stm32l0xx_hal_uart.c ****   *           @arg @ref HAL_UART_RX_HALFCOMPLETE_CB_ID Rx Half Complete Callback ID
 689:Drivers/STM32L0xx_HAL_Driver/Src/stm32l0xx_hal_uart.c ****   *           @arg @ref HAL_UART_RX_COMPLETE_CB_ID Rx Complete Callback ID
 690:Drivers/STM32L0xx_HAL_Driver/Src/stm32l0xx_hal_uart.c ****   *           @arg @ref HAL_UART_ERROR_CB_ID Error Callback ID
 691:Drivers/STM32L0xx_HAL_Driver/Src/stm32l0xx_hal_uart.c ****   *           @arg @ref HAL_UART_ABORT_COMPLETE_CB_ID Abort Complete Callback ID
 692:Drivers/STM32L0xx_HAL_Driver/Src/stm32l0xx_hal_uart.c ****   *           @arg @ref HAL_UART_ABORT_TRANSMIT_COMPLETE_CB_ID Abort Transmit Complete Callback ID
 693:Drivers/STM32L0xx_HAL_Driver/Src/stm32l0xx_hal_uart.c ****   *           @arg @ref HAL_UART_ABORT_RECEIVE_COMPLETE_CB_ID Abort Receive Complete Callback ID
 694:Drivers/STM32L0xx_HAL_Driver/Src/stm32l0xx_hal_uart.c ****   *           @arg @ref HAL_UART_WAKEUP_CB_ID Wakeup Callback ID
 695:Drivers/STM32L0xx_HAL_Driver/Src/stm32l0xx_hal_uart.c ****   *           @arg @ref HAL_UART_MSPINIT_CB_ID MspInit Callback ID
 696:Drivers/STM32L0xx_HAL_Driver/Src/stm32l0xx_hal_uart.c ****   *           @arg @ref HAL_UART_MSPDEINIT_CB_ID MspDeInit Callback ID
 697:Drivers/STM32L0xx_HAL_Driver/Src/stm32l0xx_hal_uart.c ****   * @param  pCallback pointer to the Callback function
 698:Drivers/STM32L0xx_HAL_Driver/Src/stm32l0xx_hal_uart.c ****   * @retval HAL status
 699:Drivers/STM32L0xx_HAL_Driver/Src/stm32l0xx_hal_uart.c ****   */
 700:Drivers/STM32L0xx_HAL_Driver/Src/stm32l0xx_hal_uart.c **** HAL_StatusTypeDef HAL_UART_RegisterCallback(UART_HandleTypeDef *huart, HAL_UART_CallbackIDTypeDef C
 701:Drivers/STM32L0xx_HAL_Driver/Src/stm32l0xx_hal_uart.c ****                                             pUART_CallbackTypeDef pCallback)
 702:Drivers/STM32L0xx_HAL_Driver/Src/stm32l0xx_hal_uart.c **** {
 703:Drivers/STM32L0xx_HAL_Driver/Src/stm32l0xx_hal_uart.c ****   HAL_StatusTypeDef status = HAL_OK;
 704:Drivers/STM32L0xx_HAL_Driver/Src/stm32l0xx_hal_uart.c **** 
 705:Drivers/STM32L0xx_HAL_Driver/Src/stm32l0xx_hal_uart.c ****   if (pCallback == NULL)
 706:Drivers/STM32L0xx_HAL_Driver/Src/stm32l0xx_hal_uart.c ****   {
 707:Drivers/STM32L0xx_HAL_Driver/Src/stm32l0xx_hal_uart.c ****     huart->ErrorCode |= HAL_UART_ERROR_INVALID_CALLBACK;
 708:Drivers/STM32L0xx_HAL_Driver/Src/stm32l0xx_hal_uart.c **** 
 709:Drivers/STM32L0xx_HAL_Driver/Src/stm32l0xx_hal_uart.c ****     return HAL_ERROR;
 710:Drivers/STM32L0xx_HAL_Driver/Src/stm32l0xx_hal_uart.c ****   }
 711:Drivers/STM32L0xx_HAL_Driver/Src/stm32l0xx_hal_uart.c **** 
 712:Drivers/STM32L0xx_HAL_Driver/Src/stm32l0xx_hal_uart.c ****   __HAL_LOCK(huart);
 713:Drivers/STM32L0xx_HAL_Driver/Src/stm32l0xx_hal_uart.c **** 
 714:Drivers/STM32L0xx_HAL_Driver/Src/stm32l0xx_hal_uart.c ****   if (huart->gState == HAL_UART_STATE_READY)
 715:Drivers/STM32L0xx_HAL_Driver/Src/stm32l0xx_hal_uart.c ****   {
 716:Drivers/STM32L0xx_HAL_Driver/Src/stm32l0xx_hal_uart.c ****     switch (CallbackID)
 717:Drivers/STM32L0xx_HAL_Driver/Src/stm32l0xx_hal_uart.c ****     {
 718:Drivers/STM32L0xx_HAL_Driver/Src/stm32l0xx_hal_uart.c ****       case HAL_UART_TX_HALFCOMPLETE_CB_ID :
 719:Drivers/STM32L0xx_HAL_Driver/Src/stm32l0xx_hal_uart.c ****         huart->TxHalfCpltCallback = pCallback;
 720:Drivers/STM32L0xx_HAL_Driver/Src/stm32l0xx_hal_uart.c ****         break;
 721:Drivers/STM32L0xx_HAL_Driver/Src/stm32l0xx_hal_uart.c **** 
 722:Drivers/STM32L0xx_HAL_Driver/Src/stm32l0xx_hal_uart.c ****       case HAL_UART_TX_COMPLETE_CB_ID :
 723:Drivers/STM32L0xx_HAL_Driver/Src/stm32l0xx_hal_uart.c ****         huart->TxCpltCallback = pCallback;
 724:Drivers/STM32L0xx_HAL_Driver/Src/stm32l0xx_hal_uart.c ****         break;
 725:Drivers/STM32L0xx_HAL_Driver/Src/stm32l0xx_hal_uart.c **** 
 726:Drivers/STM32L0xx_HAL_Driver/Src/stm32l0xx_hal_uart.c ****       case HAL_UART_RX_HALFCOMPLETE_CB_ID :
 727:Drivers/STM32L0xx_HAL_Driver/Src/stm32l0xx_hal_uart.c ****         huart->RxHalfCpltCallback = pCallback;
 728:Drivers/STM32L0xx_HAL_Driver/Src/stm32l0xx_hal_uart.c ****         break;
 729:Drivers/STM32L0xx_HAL_Driver/Src/stm32l0xx_hal_uart.c **** 
 730:Drivers/STM32L0xx_HAL_Driver/Src/stm32l0xx_hal_uart.c ****       case HAL_UART_RX_COMPLETE_CB_ID :
 731:Drivers/STM32L0xx_HAL_Driver/Src/stm32l0xx_hal_uart.c ****         huart->RxCpltCallback = pCallback;
 732:Drivers/STM32L0xx_HAL_Driver/Src/stm32l0xx_hal_uart.c ****         break;
 733:Drivers/STM32L0xx_HAL_Driver/Src/stm32l0xx_hal_uart.c **** 
 734:Drivers/STM32L0xx_HAL_Driver/Src/stm32l0xx_hal_uart.c ****       case HAL_UART_ERROR_CB_ID :
 735:Drivers/STM32L0xx_HAL_Driver/Src/stm32l0xx_hal_uart.c ****         huart->ErrorCallback = pCallback;
 736:Drivers/STM32L0xx_HAL_Driver/Src/stm32l0xx_hal_uart.c ****         break;
 737:Drivers/STM32L0xx_HAL_Driver/Src/stm32l0xx_hal_uart.c **** 
 738:Drivers/STM32L0xx_HAL_Driver/Src/stm32l0xx_hal_uart.c ****       case HAL_UART_ABORT_COMPLETE_CB_ID :
 739:Drivers/STM32L0xx_HAL_Driver/Src/stm32l0xx_hal_uart.c ****         huart->AbortCpltCallback = pCallback;
 740:Drivers/STM32L0xx_HAL_Driver/Src/stm32l0xx_hal_uart.c ****         break;
 741:Drivers/STM32L0xx_HAL_Driver/Src/stm32l0xx_hal_uart.c **** 
ARM GAS  C:\Users\lidka\AppData\Local\Temp\ccqOATUZ.s 			page 28


 742:Drivers/STM32L0xx_HAL_Driver/Src/stm32l0xx_hal_uart.c ****       case HAL_UART_ABORT_TRANSMIT_COMPLETE_CB_ID :
 743:Drivers/STM32L0xx_HAL_Driver/Src/stm32l0xx_hal_uart.c ****         huart->AbortTransmitCpltCallback = pCallback;
 744:Drivers/STM32L0xx_HAL_Driver/Src/stm32l0xx_hal_uart.c ****         break;
 745:Drivers/STM32L0xx_HAL_Driver/Src/stm32l0xx_hal_uart.c **** 
 746:Drivers/STM32L0xx_HAL_Driver/Src/stm32l0xx_hal_uart.c ****       case HAL_UART_ABORT_RECEIVE_COMPLETE_CB_ID :
 747:Drivers/STM32L0xx_HAL_Driver/Src/stm32l0xx_hal_uart.c ****         huart->AbortReceiveCpltCallback = pCallback;
 748:Drivers/STM32L0xx_HAL_Driver/Src/stm32l0xx_hal_uart.c ****         break;
 749:Drivers/STM32L0xx_HAL_Driver/Src/stm32l0xx_hal_uart.c **** 
 750:Drivers/STM32L0xx_HAL_Driver/Src/stm32l0xx_hal_uart.c ****       case HAL_UART_WAKEUP_CB_ID :
 751:Drivers/STM32L0xx_HAL_Driver/Src/stm32l0xx_hal_uart.c ****         huart->WakeupCallback = pCallback;
 752:Drivers/STM32L0xx_HAL_Driver/Src/stm32l0xx_hal_uart.c ****         break;
 753:Drivers/STM32L0xx_HAL_Driver/Src/stm32l0xx_hal_uart.c **** 
 754:Drivers/STM32L0xx_HAL_Driver/Src/stm32l0xx_hal_uart.c **** 
 755:Drivers/STM32L0xx_HAL_Driver/Src/stm32l0xx_hal_uart.c ****       case HAL_UART_MSPINIT_CB_ID :
 756:Drivers/STM32L0xx_HAL_Driver/Src/stm32l0xx_hal_uart.c ****         huart->MspInitCallback = pCallback;
 757:Drivers/STM32L0xx_HAL_Driver/Src/stm32l0xx_hal_uart.c ****         break;
 758:Drivers/STM32L0xx_HAL_Driver/Src/stm32l0xx_hal_uart.c **** 
 759:Drivers/STM32L0xx_HAL_Driver/Src/stm32l0xx_hal_uart.c ****       case HAL_UART_MSPDEINIT_CB_ID :
 760:Drivers/STM32L0xx_HAL_Driver/Src/stm32l0xx_hal_uart.c ****         huart->MspDeInitCallback = pCallback;
 761:Drivers/STM32L0xx_HAL_Driver/Src/stm32l0xx_hal_uart.c ****         break;
 762:Drivers/STM32L0xx_HAL_Driver/Src/stm32l0xx_hal_uart.c **** 
 763:Drivers/STM32L0xx_HAL_Driver/Src/stm32l0xx_hal_uart.c ****       default :
 764:Drivers/STM32L0xx_HAL_Driver/Src/stm32l0xx_hal_uart.c ****         huart->ErrorCode |= HAL_UART_ERROR_INVALID_CALLBACK;
 765:Drivers/STM32L0xx_HAL_Driver/Src/stm32l0xx_hal_uart.c **** 
 766:Drivers/STM32L0xx_HAL_Driver/Src/stm32l0xx_hal_uart.c ****         status =  HAL_ERROR;
 767:Drivers/STM32L0xx_HAL_Driver/Src/stm32l0xx_hal_uart.c ****         break;
 768:Drivers/STM32L0xx_HAL_Driver/Src/stm32l0xx_hal_uart.c ****     }
 769:Drivers/STM32L0xx_HAL_Driver/Src/stm32l0xx_hal_uart.c ****   }
 770:Drivers/STM32L0xx_HAL_Driver/Src/stm32l0xx_hal_uart.c ****   else if (huart->gState == HAL_UART_STATE_RESET)
 771:Drivers/STM32L0xx_HAL_Driver/Src/stm32l0xx_hal_uart.c ****   {
 772:Drivers/STM32L0xx_HAL_Driver/Src/stm32l0xx_hal_uart.c ****     switch (CallbackID)
 773:Drivers/STM32L0xx_HAL_Driver/Src/stm32l0xx_hal_uart.c ****     {
 774:Drivers/STM32L0xx_HAL_Driver/Src/stm32l0xx_hal_uart.c ****       case HAL_UART_MSPINIT_CB_ID :
 775:Drivers/STM32L0xx_HAL_Driver/Src/stm32l0xx_hal_uart.c ****         huart->MspInitCallback = pCallback;
 776:Drivers/STM32L0xx_HAL_Driver/Src/stm32l0xx_hal_uart.c ****         break;
 777:Drivers/STM32L0xx_HAL_Driver/Src/stm32l0xx_hal_uart.c **** 
 778:Drivers/STM32L0xx_HAL_Driver/Src/stm32l0xx_hal_uart.c ****       case HAL_UART_MSPDEINIT_CB_ID :
 779:Drivers/STM32L0xx_HAL_Driver/Src/stm32l0xx_hal_uart.c ****         huart->MspDeInitCallback = pCallback;
 780:Drivers/STM32L0xx_HAL_Driver/Src/stm32l0xx_hal_uart.c ****         break;
 781:Drivers/STM32L0xx_HAL_Driver/Src/stm32l0xx_hal_uart.c **** 
 782:Drivers/STM32L0xx_HAL_Driver/Src/stm32l0xx_hal_uart.c ****       default :
 783:Drivers/STM32L0xx_HAL_Driver/Src/stm32l0xx_hal_uart.c ****         huart->ErrorCode |= HAL_UART_ERROR_INVALID_CALLBACK;
 784:Drivers/STM32L0xx_HAL_Driver/Src/stm32l0xx_hal_uart.c **** 
 785:Drivers/STM32L0xx_HAL_Driver/Src/stm32l0xx_hal_uart.c ****         status =  HAL_ERROR;
 786:Drivers/STM32L0xx_HAL_Driver/Src/stm32l0xx_hal_uart.c ****         break;
 787:Drivers/STM32L0xx_HAL_Driver/Src/stm32l0xx_hal_uart.c ****     }
 788:Drivers/STM32L0xx_HAL_Driver/Src/stm32l0xx_hal_uart.c ****   }
 789:Drivers/STM32L0xx_HAL_Driver/Src/stm32l0xx_hal_uart.c ****   else
 790:Drivers/STM32L0xx_HAL_Driver/Src/stm32l0xx_hal_uart.c ****   {
 791:Drivers/STM32L0xx_HAL_Driver/Src/stm32l0xx_hal_uart.c ****     huart->ErrorCode |= HAL_UART_ERROR_INVALID_CALLBACK;
 792:Drivers/STM32L0xx_HAL_Driver/Src/stm32l0xx_hal_uart.c **** 
 793:Drivers/STM32L0xx_HAL_Driver/Src/stm32l0xx_hal_uart.c ****     status =  HAL_ERROR;
 794:Drivers/STM32L0xx_HAL_Driver/Src/stm32l0xx_hal_uart.c ****   }
 795:Drivers/STM32L0xx_HAL_Driver/Src/stm32l0xx_hal_uart.c **** 
 796:Drivers/STM32L0xx_HAL_Driver/Src/stm32l0xx_hal_uart.c ****   __HAL_UNLOCK(huart);
 797:Drivers/STM32L0xx_HAL_Driver/Src/stm32l0xx_hal_uart.c **** 
 798:Drivers/STM32L0xx_HAL_Driver/Src/stm32l0xx_hal_uart.c ****   return status;
ARM GAS  C:\Users\lidka\AppData\Local\Temp\ccqOATUZ.s 			page 29


 799:Drivers/STM32L0xx_HAL_Driver/Src/stm32l0xx_hal_uart.c **** }
 800:Drivers/STM32L0xx_HAL_Driver/Src/stm32l0xx_hal_uart.c **** 
 801:Drivers/STM32L0xx_HAL_Driver/Src/stm32l0xx_hal_uart.c **** /**
 802:Drivers/STM32L0xx_HAL_Driver/Src/stm32l0xx_hal_uart.c ****   * @brief  Unregister an UART Callback
 803:Drivers/STM32L0xx_HAL_Driver/Src/stm32l0xx_hal_uart.c ****   *         UART callaback is redirected to the weak predefined callback
 804:Drivers/STM32L0xx_HAL_Driver/Src/stm32l0xx_hal_uart.c ****   * @param  huart uart handle
 805:Drivers/STM32L0xx_HAL_Driver/Src/stm32l0xx_hal_uart.c ****   * @param  CallbackID ID of the callback to be unregistered
 806:Drivers/STM32L0xx_HAL_Driver/Src/stm32l0xx_hal_uart.c ****   *         This parameter can be one of the following values:
 807:Drivers/STM32L0xx_HAL_Driver/Src/stm32l0xx_hal_uart.c ****   *           @arg @ref HAL_UART_TX_HALFCOMPLETE_CB_ID Tx Half Complete Callback ID
 808:Drivers/STM32L0xx_HAL_Driver/Src/stm32l0xx_hal_uart.c ****   *           @arg @ref HAL_UART_TX_COMPLETE_CB_ID Tx Complete Callback ID
 809:Drivers/STM32L0xx_HAL_Driver/Src/stm32l0xx_hal_uart.c ****   *           @arg @ref HAL_UART_RX_HALFCOMPLETE_CB_ID Rx Half Complete Callback ID
 810:Drivers/STM32L0xx_HAL_Driver/Src/stm32l0xx_hal_uart.c ****   *           @arg @ref HAL_UART_RX_COMPLETE_CB_ID Rx Complete Callback ID
 811:Drivers/STM32L0xx_HAL_Driver/Src/stm32l0xx_hal_uart.c ****   *           @arg @ref HAL_UART_ERROR_CB_ID Error Callback ID
 812:Drivers/STM32L0xx_HAL_Driver/Src/stm32l0xx_hal_uart.c ****   *           @arg @ref HAL_UART_ABORT_COMPLETE_CB_ID Abort Complete Callback ID
 813:Drivers/STM32L0xx_HAL_Driver/Src/stm32l0xx_hal_uart.c ****   *           @arg @ref HAL_UART_ABORT_TRANSMIT_COMPLETE_CB_ID Abort Transmit Complete Callback ID
 814:Drivers/STM32L0xx_HAL_Driver/Src/stm32l0xx_hal_uart.c ****   *           @arg @ref HAL_UART_ABORT_RECEIVE_COMPLETE_CB_ID Abort Receive Complete Callback ID
 815:Drivers/STM32L0xx_HAL_Driver/Src/stm32l0xx_hal_uart.c ****   *           @arg @ref HAL_UART_WAKEUP_CB_ID Wakeup Callback ID
 816:Drivers/STM32L0xx_HAL_Driver/Src/stm32l0xx_hal_uart.c ****   *           @arg @ref HAL_UART_MSPINIT_CB_ID MspInit Callback ID
 817:Drivers/STM32L0xx_HAL_Driver/Src/stm32l0xx_hal_uart.c ****   *           @arg @ref HAL_UART_MSPDEINIT_CB_ID MspDeInit Callback ID
 818:Drivers/STM32L0xx_HAL_Driver/Src/stm32l0xx_hal_uart.c ****   * @retval HAL status
 819:Drivers/STM32L0xx_HAL_Driver/Src/stm32l0xx_hal_uart.c ****   */
 820:Drivers/STM32L0xx_HAL_Driver/Src/stm32l0xx_hal_uart.c **** HAL_StatusTypeDef HAL_UART_UnRegisterCallback(UART_HandleTypeDef *huart, HAL_UART_CallbackIDTypeDef
 821:Drivers/STM32L0xx_HAL_Driver/Src/stm32l0xx_hal_uart.c **** {
 822:Drivers/STM32L0xx_HAL_Driver/Src/stm32l0xx_hal_uart.c ****   HAL_StatusTypeDef status = HAL_OK;
 823:Drivers/STM32L0xx_HAL_Driver/Src/stm32l0xx_hal_uart.c **** 
 824:Drivers/STM32L0xx_HAL_Driver/Src/stm32l0xx_hal_uart.c ****   __HAL_LOCK(huart);
 825:Drivers/STM32L0xx_HAL_Driver/Src/stm32l0xx_hal_uart.c **** 
 826:Drivers/STM32L0xx_HAL_Driver/Src/stm32l0xx_hal_uart.c ****   if (HAL_UART_STATE_READY == huart->gState)
 827:Drivers/STM32L0xx_HAL_Driver/Src/stm32l0xx_hal_uart.c ****   {
 828:Drivers/STM32L0xx_HAL_Driver/Src/stm32l0xx_hal_uart.c ****     switch (CallbackID)
 829:Drivers/STM32L0xx_HAL_Driver/Src/stm32l0xx_hal_uart.c ****     {
 830:Drivers/STM32L0xx_HAL_Driver/Src/stm32l0xx_hal_uart.c ****       case HAL_UART_TX_HALFCOMPLETE_CB_ID :
 831:Drivers/STM32L0xx_HAL_Driver/Src/stm32l0xx_hal_uart.c ****         huart->TxHalfCpltCallback = HAL_UART_TxHalfCpltCallback;               /* Legacy weak  TxHa
 832:Drivers/STM32L0xx_HAL_Driver/Src/stm32l0xx_hal_uart.c ****         break;
 833:Drivers/STM32L0xx_HAL_Driver/Src/stm32l0xx_hal_uart.c **** 
 834:Drivers/STM32L0xx_HAL_Driver/Src/stm32l0xx_hal_uart.c ****       case HAL_UART_TX_COMPLETE_CB_ID :
 835:Drivers/STM32L0xx_HAL_Driver/Src/stm32l0xx_hal_uart.c ****         huart->TxCpltCallback = HAL_UART_TxCpltCallback;                       /* Legacy weak TxCpl
 836:Drivers/STM32L0xx_HAL_Driver/Src/stm32l0xx_hal_uart.c ****         break;
 837:Drivers/STM32L0xx_HAL_Driver/Src/stm32l0xx_hal_uart.c **** 
 838:Drivers/STM32L0xx_HAL_Driver/Src/stm32l0xx_hal_uart.c ****       case HAL_UART_RX_HALFCOMPLETE_CB_ID :
 839:Drivers/STM32L0xx_HAL_Driver/Src/stm32l0xx_hal_uart.c ****         huart->RxHalfCpltCallback = HAL_UART_RxHalfCpltCallback;               /* Legacy weak RxHal
 840:Drivers/STM32L0xx_HAL_Driver/Src/stm32l0xx_hal_uart.c ****         break;
 841:Drivers/STM32L0xx_HAL_Driver/Src/stm32l0xx_hal_uart.c **** 
 842:Drivers/STM32L0xx_HAL_Driver/Src/stm32l0xx_hal_uart.c ****       case HAL_UART_RX_COMPLETE_CB_ID :
 843:Drivers/STM32L0xx_HAL_Driver/Src/stm32l0xx_hal_uart.c ****         huart->RxCpltCallback = HAL_UART_RxCpltCallback;                       /* Legacy weak RxCpl
 844:Drivers/STM32L0xx_HAL_Driver/Src/stm32l0xx_hal_uart.c ****         break;
 845:Drivers/STM32L0xx_HAL_Driver/Src/stm32l0xx_hal_uart.c **** 
 846:Drivers/STM32L0xx_HAL_Driver/Src/stm32l0xx_hal_uart.c ****       case HAL_UART_ERROR_CB_ID :
 847:Drivers/STM32L0xx_HAL_Driver/Src/stm32l0xx_hal_uart.c ****         huart->ErrorCallback = HAL_UART_ErrorCallback;                         /* Legacy weak Error
 848:Drivers/STM32L0xx_HAL_Driver/Src/stm32l0xx_hal_uart.c ****         break;
 849:Drivers/STM32L0xx_HAL_Driver/Src/stm32l0xx_hal_uart.c **** 
 850:Drivers/STM32L0xx_HAL_Driver/Src/stm32l0xx_hal_uart.c ****       case HAL_UART_ABORT_COMPLETE_CB_ID :
 851:Drivers/STM32L0xx_HAL_Driver/Src/stm32l0xx_hal_uart.c ****         huart->AbortCpltCallback = HAL_UART_AbortCpltCallback;                 /* Legacy weak Abort
 852:Drivers/STM32L0xx_HAL_Driver/Src/stm32l0xx_hal_uart.c ****         break;
 853:Drivers/STM32L0xx_HAL_Driver/Src/stm32l0xx_hal_uart.c **** 
 854:Drivers/STM32L0xx_HAL_Driver/Src/stm32l0xx_hal_uart.c ****       case HAL_UART_ABORT_TRANSMIT_COMPLETE_CB_ID :
 855:Drivers/STM32L0xx_HAL_Driver/Src/stm32l0xx_hal_uart.c ****         huart->AbortTransmitCpltCallback = HAL_UART_AbortTransmitCpltCallback; /* Legacy weak
ARM GAS  C:\Users\lidka\AppData\Local\Temp\ccqOATUZ.s 			page 30


 856:Drivers/STM32L0xx_HAL_Driver/Src/stm32l0xx_hal_uart.c ****                                                                                   AbortTransmitCplt
 857:Drivers/STM32L0xx_HAL_Driver/Src/stm32l0xx_hal_uart.c ****         break;
 858:Drivers/STM32L0xx_HAL_Driver/Src/stm32l0xx_hal_uart.c **** 
 859:Drivers/STM32L0xx_HAL_Driver/Src/stm32l0xx_hal_uart.c ****       case HAL_UART_ABORT_RECEIVE_COMPLETE_CB_ID :
 860:Drivers/STM32L0xx_HAL_Driver/Src/stm32l0xx_hal_uart.c ****         huart->AbortReceiveCpltCallback = HAL_UART_AbortReceiveCpltCallback;   /* Legacy weak
 861:Drivers/STM32L0xx_HAL_Driver/Src/stm32l0xx_hal_uart.c ****                                                                                   AbortReceiveCpltC
 862:Drivers/STM32L0xx_HAL_Driver/Src/stm32l0xx_hal_uart.c ****         break;
 863:Drivers/STM32L0xx_HAL_Driver/Src/stm32l0xx_hal_uart.c **** 
 864:Drivers/STM32L0xx_HAL_Driver/Src/stm32l0xx_hal_uart.c ****       case HAL_UART_WAKEUP_CB_ID :
 865:Drivers/STM32L0xx_HAL_Driver/Src/stm32l0xx_hal_uart.c ****         huart->WakeupCallback = HAL_UARTEx_WakeupCallback;                     /* Legacy weak Wakeu
 866:Drivers/STM32L0xx_HAL_Driver/Src/stm32l0xx_hal_uart.c ****         break;
 867:Drivers/STM32L0xx_HAL_Driver/Src/stm32l0xx_hal_uart.c **** 
 868:Drivers/STM32L0xx_HAL_Driver/Src/stm32l0xx_hal_uart.c ****       case HAL_UART_MSPINIT_CB_ID :
 869:Drivers/STM32L0xx_HAL_Driver/Src/stm32l0xx_hal_uart.c ****         huart->MspInitCallback = HAL_UART_MspInit;                             /* Legacy weak MspIn
 870:Drivers/STM32L0xx_HAL_Driver/Src/stm32l0xx_hal_uart.c ****         break;
 871:Drivers/STM32L0xx_HAL_Driver/Src/stm32l0xx_hal_uart.c **** 
 872:Drivers/STM32L0xx_HAL_Driver/Src/stm32l0xx_hal_uart.c ****       case HAL_UART_MSPDEINIT_CB_ID :
 873:Drivers/STM32L0xx_HAL_Driver/Src/stm32l0xx_hal_uart.c ****         huart->MspDeInitCallback = HAL_UART_MspDeInit;                         /* Legacy weak MspDe
 874:Drivers/STM32L0xx_HAL_Driver/Src/stm32l0xx_hal_uart.c ****         break;
 875:Drivers/STM32L0xx_HAL_Driver/Src/stm32l0xx_hal_uart.c **** 
 876:Drivers/STM32L0xx_HAL_Driver/Src/stm32l0xx_hal_uart.c ****       default :
 877:Drivers/STM32L0xx_HAL_Driver/Src/stm32l0xx_hal_uart.c ****         huart->ErrorCode |= HAL_UART_ERROR_INVALID_CALLBACK;
 878:Drivers/STM32L0xx_HAL_Driver/Src/stm32l0xx_hal_uart.c **** 
 879:Drivers/STM32L0xx_HAL_Driver/Src/stm32l0xx_hal_uart.c ****         status =  HAL_ERROR;
 880:Drivers/STM32L0xx_HAL_Driver/Src/stm32l0xx_hal_uart.c ****         break;
 881:Drivers/STM32L0xx_HAL_Driver/Src/stm32l0xx_hal_uart.c ****     }
 882:Drivers/STM32L0xx_HAL_Driver/Src/stm32l0xx_hal_uart.c ****   }
 883:Drivers/STM32L0xx_HAL_Driver/Src/stm32l0xx_hal_uart.c ****   else if (HAL_UART_STATE_RESET == huart->gState)
 884:Drivers/STM32L0xx_HAL_Driver/Src/stm32l0xx_hal_uart.c ****   {
 885:Drivers/STM32L0xx_HAL_Driver/Src/stm32l0xx_hal_uart.c ****     switch (CallbackID)
 886:Drivers/STM32L0xx_HAL_Driver/Src/stm32l0xx_hal_uart.c ****     {
 887:Drivers/STM32L0xx_HAL_Driver/Src/stm32l0xx_hal_uart.c ****       case HAL_UART_MSPINIT_CB_ID :
 888:Drivers/STM32L0xx_HAL_Driver/Src/stm32l0xx_hal_uart.c ****         huart->MspInitCallback = HAL_UART_MspInit;
 889:Drivers/STM32L0xx_HAL_Driver/Src/stm32l0xx_hal_uart.c ****         break;
 890:Drivers/STM32L0xx_HAL_Driver/Src/stm32l0xx_hal_uart.c **** 
 891:Drivers/STM32L0xx_HAL_Driver/Src/stm32l0xx_hal_uart.c ****       case HAL_UART_MSPDEINIT_CB_ID :
 892:Drivers/STM32L0xx_HAL_Driver/Src/stm32l0xx_hal_uart.c ****         huart->MspDeInitCallback = HAL_UART_MspDeInit;
 893:Drivers/STM32L0xx_HAL_Driver/Src/stm32l0xx_hal_uart.c ****         break;
 894:Drivers/STM32L0xx_HAL_Driver/Src/stm32l0xx_hal_uart.c **** 
 895:Drivers/STM32L0xx_HAL_Driver/Src/stm32l0xx_hal_uart.c ****       default :
 896:Drivers/STM32L0xx_HAL_Driver/Src/stm32l0xx_hal_uart.c ****         huart->ErrorCode |= HAL_UART_ERROR_INVALID_CALLBACK;
 897:Drivers/STM32L0xx_HAL_Driver/Src/stm32l0xx_hal_uart.c **** 
 898:Drivers/STM32L0xx_HAL_Driver/Src/stm32l0xx_hal_uart.c ****         status =  HAL_ERROR;
 899:Drivers/STM32L0xx_HAL_Driver/Src/stm32l0xx_hal_uart.c ****         break;
 900:Drivers/STM32L0xx_HAL_Driver/Src/stm32l0xx_hal_uart.c ****     }
 901:Drivers/STM32L0xx_HAL_Driver/Src/stm32l0xx_hal_uart.c ****   }
 902:Drivers/STM32L0xx_HAL_Driver/Src/stm32l0xx_hal_uart.c ****   else
 903:Drivers/STM32L0xx_HAL_Driver/Src/stm32l0xx_hal_uart.c ****   {
 904:Drivers/STM32L0xx_HAL_Driver/Src/stm32l0xx_hal_uart.c ****     huart->ErrorCode |= HAL_UART_ERROR_INVALID_CALLBACK;
 905:Drivers/STM32L0xx_HAL_Driver/Src/stm32l0xx_hal_uart.c **** 
 906:Drivers/STM32L0xx_HAL_Driver/Src/stm32l0xx_hal_uart.c ****     status =  HAL_ERROR;
 907:Drivers/STM32L0xx_HAL_Driver/Src/stm32l0xx_hal_uart.c ****   }
 908:Drivers/STM32L0xx_HAL_Driver/Src/stm32l0xx_hal_uart.c **** 
 909:Drivers/STM32L0xx_HAL_Driver/Src/stm32l0xx_hal_uart.c ****   __HAL_UNLOCK(huart);
 910:Drivers/STM32L0xx_HAL_Driver/Src/stm32l0xx_hal_uart.c **** 
 911:Drivers/STM32L0xx_HAL_Driver/Src/stm32l0xx_hal_uart.c ****   return status;
 912:Drivers/STM32L0xx_HAL_Driver/Src/stm32l0xx_hal_uart.c **** }
ARM GAS  C:\Users\lidka\AppData\Local\Temp\ccqOATUZ.s 			page 31


 913:Drivers/STM32L0xx_HAL_Driver/Src/stm32l0xx_hal_uart.c **** 
 914:Drivers/STM32L0xx_HAL_Driver/Src/stm32l0xx_hal_uart.c **** /**
 915:Drivers/STM32L0xx_HAL_Driver/Src/stm32l0xx_hal_uart.c ****   * @brief  Register a User UART Rx Event Callback
 916:Drivers/STM32L0xx_HAL_Driver/Src/stm32l0xx_hal_uart.c ****   *         To be used instead of the weak predefined callback
 917:Drivers/STM32L0xx_HAL_Driver/Src/stm32l0xx_hal_uart.c ****   * @param  huart     Uart handle
 918:Drivers/STM32L0xx_HAL_Driver/Src/stm32l0xx_hal_uart.c ****   * @param  pCallback Pointer to the Rx Event Callback function
 919:Drivers/STM32L0xx_HAL_Driver/Src/stm32l0xx_hal_uart.c ****   * @retval HAL status
 920:Drivers/STM32L0xx_HAL_Driver/Src/stm32l0xx_hal_uart.c ****   */
 921:Drivers/STM32L0xx_HAL_Driver/Src/stm32l0xx_hal_uart.c **** HAL_StatusTypeDef HAL_UART_RegisterRxEventCallback(UART_HandleTypeDef *huart, pUART_RxEventCallback
 922:Drivers/STM32L0xx_HAL_Driver/Src/stm32l0xx_hal_uart.c **** {
 923:Drivers/STM32L0xx_HAL_Driver/Src/stm32l0xx_hal_uart.c ****   HAL_StatusTypeDef status = HAL_OK;
 924:Drivers/STM32L0xx_HAL_Driver/Src/stm32l0xx_hal_uart.c **** 
 925:Drivers/STM32L0xx_HAL_Driver/Src/stm32l0xx_hal_uart.c ****   if (pCallback == NULL)
 926:Drivers/STM32L0xx_HAL_Driver/Src/stm32l0xx_hal_uart.c ****   {
 927:Drivers/STM32L0xx_HAL_Driver/Src/stm32l0xx_hal_uart.c ****     huart->ErrorCode |= HAL_UART_ERROR_INVALID_CALLBACK;
 928:Drivers/STM32L0xx_HAL_Driver/Src/stm32l0xx_hal_uart.c **** 
 929:Drivers/STM32L0xx_HAL_Driver/Src/stm32l0xx_hal_uart.c ****     return HAL_ERROR;
 930:Drivers/STM32L0xx_HAL_Driver/Src/stm32l0xx_hal_uart.c ****   }
 931:Drivers/STM32L0xx_HAL_Driver/Src/stm32l0xx_hal_uart.c **** 
 932:Drivers/STM32L0xx_HAL_Driver/Src/stm32l0xx_hal_uart.c ****   /* Process locked */
 933:Drivers/STM32L0xx_HAL_Driver/Src/stm32l0xx_hal_uart.c ****   __HAL_LOCK(huart);
 934:Drivers/STM32L0xx_HAL_Driver/Src/stm32l0xx_hal_uart.c **** 
 935:Drivers/STM32L0xx_HAL_Driver/Src/stm32l0xx_hal_uart.c ****   if (huart->gState == HAL_UART_STATE_READY)
 936:Drivers/STM32L0xx_HAL_Driver/Src/stm32l0xx_hal_uart.c ****   {
 937:Drivers/STM32L0xx_HAL_Driver/Src/stm32l0xx_hal_uart.c ****     huart->RxEventCallback = pCallback;
 938:Drivers/STM32L0xx_HAL_Driver/Src/stm32l0xx_hal_uart.c ****   }
 939:Drivers/STM32L0xx_HAL_Driver/Src/stm32l0xx_hal_uart.c ****   else
 940:Drivers/STM32L0xx_HAL_Driver/Src/stm32l0xx_hal_uart.c ****   {
 941:Drivers/STM32L0xx_HAL_Driver/Src/stm32l0xx_hal_uart.c ****     huart->ErrorCode |= HAL_UART_ERROR_INVALID_CALLBACK;
 942:Drivers/STM32L0xx_HAL_Driver/Src/stm32l0xx_hal_uart.c **** 
 943:Drivers/STM32L0xx_HAL_Driver/Src/stm32l0xx_hal_uart.c ****     status =  HAL_ERROR;
 944:Drivers/STM32L0xx_HAL_Driver/Src/stm32l0xx_hal_uart.c ****   }
 945:Drivers/STM32L0xx_HAL_Driver/Src/stm32l0xx_hal_uart.c **** 
 946:Drivers/STM32L0xx_HAL_Driver/Src/stm32l0xx_hal_uart.c ****   /* Release Lock */
 947:Drivers/STM32L0xx_HAL_Driver/Src/stm32l0xx_hal_uart.c ****   __HAL_UNLOCK(huart);
 948:Drivers/STM32L0xx_HAL_Driver/Src/stm32l0xx_hal_uart.c **** 
 949:Drivers/STM32L0xx_HAL_Driver/Src/stm32l0xx_hal_uart.c ****   return status;
 950:Drivers/STM32L0xx_HAL_Driver/Src/stm32l0xx_hal_uart.c **** }
 951:Drivers/STM32L0xx_HAL_Driver/Src/stm32l0xx_hal_uart.c **** 
 952:Drivers/STM32L0xx_HAL_Driver/Src/stm32l0xx_hal_uart.c **** /**
 953:Drivers/STM32L0xx_HAL_Driver/Src/stm32l0xx_hal_uart.c ****   * @brief  UnRegister the UART Rx Event Callback
 954:Drivers/STM32L0xx_HAL_Driver/Src/stm32l0xx_hal_uart.c ****   *         UART Rx Event Callback is redirected to the weak HAL_UARTEx_RxEventCallback() predefine
 955:Drivers/STM32L0xx_HAL_Driver/Src/stm32l0xx_hal_uart.c ****   * @param  huart     Uart handle
 956:Drivers/STM32L0xx_HAL_Driver/Src/stm32l0xx_hal_uart.c ****   * @retval HAL status
 957:Drivers/STM32L0xx_HAL_Driver/Src/stm32l0xx_hal_uart.c ****   */
 958:Drivers/STM32L0xx_HAL_Driver/Src/stm32l0xx_hal_uart.c **** HAL_StatusTypeDef HAL_UART_UnRegisterRxEventCallback(UART_HandleTypeDef *huart)
 959:Drivers/STM32L0xx_HAL_Driver/Src/stm32l0xx_hal_uart.c **** {
 960:Drivers/STM32L0xx_HAL_Driver/Src/stm32l0xx_hal_uart.c ****   HAL_StatusTypeDef status = HAL_OK;
 961:Drivers/STM32L0xx_HAL_Driver/Src/stm32l0xx_hal_uart.c **** 
 962:Drivers/STM32L0xx_HAL_Driver/Src/stm32l0xx_hal_uart.c ****   /* Process locked */
 963:Drivers/STM32L0xx_HAL_Driver/Src/stm32l0xx_hal_uart.c ****   __HAL_LOCK(huart);
 964:Drivers/STM32L0xx_HAL_Driver/Src/stm32l0xx_hal_uart.c **** 
 965:Drivers/STM32L0xx_HAL_Driver/Src/stm32l0xx_hal_uart.c ****   if (huart->gState == HAL_UART_STATE_READY)
 966:Drivers/STM32L0xx_HAL_Driver/Src/stm32l0xx_hal_uart.c ****   {
 967:Drivers/STM32L0xx_HAL_Driver/Src/stm32l0xx_hal_uart.c ****     huart->RxEventCallback = HAL_UARTEx_RxEventCallback; /* Legacy weak UART Rx Event Callback  */
 968:Drivers/STM32L0xx_HAL_Driver/Src/stm32l0xx_hal_uart.c ****   }
 969:Drivers/STM32L0xx_HAL_Driver/Src/stm32l0xx_hal_uart.c ****   else
ARM GAS  C:\Users\lidka\AppData\Local\Temp\ccqOATUZ.s 			page 32


 970:Drivers/STM32L0xx_HAL_Driver/Src/stm32l0xx_hal_uart.c ****   {
 971:Drivers/STM32L0xx_HAL_Driver/Src/stm32l0xx_hal_uart.c ****     huart->ErrorCode |= HAL_UART_ERROR_INVALID_CALLBACK;
 972:Drivers/STM32L0xx_HAL_Driver/Src/stm32l0xx_hal_uart.c **** 
 973:Drivers/STM32L0xx_HAL_Driver/Src/stm32l0xx_hal_uart.c ****     status =  HAL_ERROR;
 974:Drivers/STM32L0xx_HAL_Driver/Src/stm32l0xx_hal_uart.c ****   }
 975:Drivers/STM32L0xx_HAL_Driver/Src/stm32l0xx_hal_uart.c **** 
 976:Drivers/STM32L0xx_HAL_Driver/Src/stm32l0xx_hal_uart.c ****   /* Release Lock */
 977:Drivers/STM32L0xx_HAL_Driver/Src/stm32l0xx_hal_uart.c ****   __HAL_UNLOCK(huart);
 978:Drivers/STM32L0xx_HAL_Driver/Src/stm32l0xx_hal_uart.c ****   return status;
 979:Drivers/STM32L0xx_HAL_Driver/Src/stm32l0xx_hal_uart.c **** }
 980:Drivers/STM32L0xx_HAL_Driver/Src/stm32l0xx_hal_uart.c **** 
 981:Drivers/STM32L0xx_HAL_Driver/Src/stm32l0xx_hal_uart.c **** #endif /* USE_HAL_UART_REGISTER_CALLBACKS */
 982:Drivers/STM32L0xx_HAL_Driver/Src/stm32l0xx_hal_uart.c **** 
 983:Drivers/STM32L0xx_HAL_Driver/Src/stm32l0xx_hal_uart.c **** /**
 984:Drivers/STM32L0xx_HAL_Driver/Src/stm32l0xx_hal_uart.c ****   * @}
 985:Drivers/STM32L0xx_HAL_Driver/Src/stm32l0xx_hal_uart.c ****   */
 986:Drivers/STM32L0xx_HAL_Driver/Src/stm32l0xx_hal_uart.c **** 
 987:Drivers/STM32L0xx_HAL_Driver/Src/stm32l0xx_hal_uart.c **** /** @defgroup UART_Exported_Functions_Group2 IO operation functions
 988:Drivers/STM32L0xx_HAL_Driver/Src/stm32l0xx_hal_uart.c ****   * @brief UART Transmit/Receive functions
 989:Drivers/STM32L0xx_HAL_Driver/Src/stm32l0xx_hal_uart.c ****   *
 990:Drivers/STM32L0xx_HAL_Driver/Src/stm32l0xx_hal_uart.c **** @verbatim
 991:Drivers/STM32L0xx_HAL_Driver/Src/stm32l0xx_hal_uart.c ****  ===============================================================================
 992:Drivers/STM32L0xx_HAL_Driver/Src/stm32l0xx_hal_uart.c ****                       ##### IO operation functions #####
 993:Drivers/STM32L0xx_HAL_Driver/Src/stm32l0xx_hal_uart.c ****  ===============================================================================
 994:Drivers/STM32L0xx_HAL_Driver/Src/stm32l0xx_hal_uart.c ****     This subsection provides a set of functions allowing to manage the UART asynchronous
 995:Drivers/STM32L0xx_HAL_Driver/Src/stm32l0xx_hal_uart.c ****     and Half duplex data transfers.
 996:Drivers/STM32L0xx_HAL_Driver/Src/stm32l0xx_hal_uart.c **** 
 997:Drivers/STM32L0xx_HAL_Driver/Src/stm32l0xx_hal_uart.c ****     (#) There are two mode of transfer:
 998:Drivers/STM32L0xx_HAL_Driver/Src/stm32l0xx_hal_uart.c ****        (+) Blocking mode: The communication is performed in polling mode.
 999:Drivers/STM32L0xx_HAL_Driver/Src/stm32l0xx_hal_uart.c ****            The HAL status of all data processing is returned by the same function
1000:Drivers/STM32L0xx_HAL_Driver/Src/stm32l0xx_hal_uart.c ****            after finishing transfer.
1001:Drivers/STM32L0xx_HAL_Driver/Src/stm32l0xx_hal_uart.c ****        (+) Non-Blocking mode: The communication is performed using Interrupts
1002:Drivers/STM32L0xx_HAL_Driver/Src/stm32l0xx_hal_uart.c ****            or DMA, These API's return the HAL status.
1003:Drivers/STM32L0xx_HAL_Driver/Src/stm32l0xx_hal_uart.c ****            The end of the data processing will be indicated through the
1004:Drivers/STM32L0xx_HAL_Driver/Src/stm32l0xx_hal_uart.c ****            dedicated UART IRQ when using Interrupt mode or the DMA IRQ when
1005:Drivers/STM32L0xx_HAL_Driver/Src/stm32l0xx_hal_uart.c ****            using DMA mode.
1006:Drivers/STM32L0xx_HAL_Driver/Src/stm32l0xx_hal_uart.c ****            The HAL_UART_TxCpltCallback(), HAL_UART_RxCpltCallback() user callbacks
1007:Drivers/STM32L0xx_HAL_Driver/Src/stm32l0xx_hal_uart.c ****            will be executed respectively at the end of the transmit or Receive process
1008:Drivers/STM32L0xx_HAL_Driver/Src/stm32l0xx_hal_uart.c ****            The HAL_UART_ErrorCallback()user callback will be executed when a communication error is
1009:Drivers/STM32L0xx_HAL_Driver/Src/stm32l0xx_hal_uart.c **** 
1010:Drivers/STM32L0xx_HAL_Driver/Src/stm32l0xx_hal_uart.c ****     (#) Blocking mode API's are :
1011:Drivers/STM32L0xx_HAL_Driver/Src/stm32l0xx_hal_uart.c ****         (+) HAL_UART_Transmit()
1012:Drivers/STM32L0xx_HAL_Driver/Src/stm32l0xx_hal_uart.c ****         (+) HAL_UART_Receive()
1013:Drivers/STM32L0xx_HAL_Driver/Src/stm32l0xx_hal_uart.c **** 
1014:Drivers/STM32L0xx_HAL_Driver/Src/stm32l0xx_hal_uart.c ****     (#) Non-Blocking mode API's with Interrupt are :
1015:Drivers/STM32L0xx_HAL_Driver/Src/stm32l0xx_hal_uart.c ****         (+) HAL_UART_Transmit_IT()
1016:Drivers/STM32L0xx_HAL_Driver/Src/stm32l0xx_hal_uart.c ****         (+) HAL_UART_Receive_IT()
1017:Drivers/STM32L0xx_HAL_Driver/Src/stm32l0xx_hal_uart.c ****         (+) HAL_UART_IRQHandler()
1018:Drivers/STM32L0xx_HAL_Driver/Src/stm32l0xx_hal_uart.c **** 
1019:Drivers/STM32L0xx_HAL_Driver/Src/stm32l0xx_hal_uart.c ****     (#) Non-Blocking mode API's with DMA are :
1020:Drivers/STM32L0xx_HAL_Driver/Src/stm32l0xx_hal_uart.c ****         (+) HAL_UART_Transmit_DMA()
1021:Drivers/STM32L0xx_HAL_Driver/Src/stm32l0xx_hal_uart.c ****         (+) HAL_UART_Receive_DMA()
1022:Drivers/STM32L0xx_HAL_Driver/Src/stm32l0xx_hal_uart.c ****         (+) HAL_UART_DMAPause()
1023:Drivers/STM32L0xx_HAL_Driver/Src/stm32l0xx_hal_uart.c ****         (+) HAL_UART_DMAResume()
1024:Drivers/STM32L0xx_HAL_Driver/Src/stm32l0xx_hal_uart.c ****         (+) HAL_UART_DMAStop()
1025:Drivers/STM32L0xx_HAL_Driver/Src/stm32l0xx_hal_uart.c **** 
1026:Drivers/STM32L0xx_HAL_Driver/Src/stm32l0xx_hal_uart.c ****     (#) A set of Transfer Complete Callbacks are provided in Non_Blocking mode:
ARM GAS  C:\Users\lidka\AppData\Local\Temp\ccqOATUZ.s 			page 33


1027:Drivers/STM32L0xx_HAL_Driver/Src/stm32l0xx_hal_uart.c ****         (+) HAL_UART_TxHalfCpltCallback()
1028:Drivers/STM32L0xx_HAL_Driver/Src/stm32l0xx_hal_uart.c ****         (+) HAL_UART_TxCpltCallback()
1029:Drivers/STM32L0xx_HAL_Driver/Src/stm32l0xx_hal_uart.c ****         (+) HAL_UART_RxHalfCpltCallback()
1030:Drivers/STM32L0xx_HAL_Driver/Src/stm32l0xx_hal_uart.c ****         (+) HAL_UART_RxCpltCallback()
1031:Drivers/STM32L0xx_HAL_Driver/Src/stm32l0xx_hal_uart.c ****         (+) HAL_UART_ErrorCallback()
1032:Drivers/STM32L0xx_HAL_Driver/Src/stm32l0xx_hal_uart.c **** 
1033:Drivers/STM32L0xx_HAL_Driver/Src/stm32l0xx_hal_uart.c ****     (#) Non-Blocking mode transfers could be aborted using Abort API's :
1034:Drivers/STM32L0xx_HAL_Driver/Src/stm32l0xx_hal_uart.c ****         (+) HAL_UART_Abort()
1035:Drivers/STM32L0xx_HAL_Driver/Src/stm32l0xx_hal_uart.c ****         (+) HAL_UART_AbortTransmit()
1036:Drivers/STM32L0xx_HAL_Driver/Src/stm32l0xx_hal_uart.c ****         (+) HAL_UART_AbortReceive()
1037:Drivers/STM32L0xx_HAL_Driver/Src/stm32l0xx_hal_uart.c ****         (+) HAL_UART_Abort_IT()
1038:Drivers/STM32L0xx_HAL_Driver/Src/stm32l0xx_hal_uart.c ****         (+) HAL_UART_AbortTransmit_IT()
1039:Drivers/STM32L0xx_HAL_Driver/Src/stm32l0xx_hal_uart.c ****         (+) HAL_UART_AbortReceive_IT()
1040:Drivers/STM32L0xx_HAL_Driver/Src/stm32l0xx_hal_uart.c **** 
1041:Drivers/STM32L0xx_HAL_Driver/Src/stm32l0xx_hal_uart.c ****     (#) For Abort services based on interrupts (HAL_UART_Abortxxx_IT), a set of Abort Complete Call
1042:Drivers/STM32L0xx_HAL_Driver/Src/stm32l0xx_hal_uart.c ****         (+) HAL_UART_AbortCpltCallback()
1043:Drivers/STM32L0xx_HAL_Driver/Src/stm32l0xx_hal_uart.c ****         (+) HAL_UART_AbortTransmitCpltCallback()
1044:Drivers/STM32L0xx_HAL_Driver/Src/stm32l0xx_hal_uart.c ****         (+) HAL_UART_AbortReceiveCpltCallback()
1045:Drivers/STM32L0xx_HAL_Driver/Src/stm32l0xx_hal_uart.c **** 
1046:Drivers/STM32L0xx_HAL_Driver/Src/stm32l0xx_hal_uart.c ****     (#) A Rx Event Reception Callback (Rx event notification) is available for Non_Blocking modes o
1047:Drivers/STM32L0xx_HAL_Driver/Src/stm32l0xx_hal_uart.c ****         reception services:
1048:Drivers/STM32L0xx_HAL_Driver/Src/stm32l0xx_hal_uart.c ****         (+) HAL_UARTEx_RxEventCallback()
1049:Drivers/STM32L0xx_HAL_Driver/Src/stm32l0xx_hal_uart.c **** 
1050:Drivers/STM32L0xx_HAL_Driver/Src/stm32l0xx_hal_uart.c ****     (#) In Non-Blocking mode transfers, possible errors are split into 2 categories.
1051:Drivers/STM32L0xx_HAL_Driver/Src/stm32l0xx_hal_uart.c ****         Errors are handled as follows :
1052:Drivers/STM32L0xx_HAL_Driver/Src/stm32l0xx_hal_uart.c ****        (+) Error is considered as Recoverable and non blocking : Transfer could go till end, but er
1053:Drivers/STM32L0xx_HAL_Driver/Src/stm32l0xx_hal_uart.c ****            to be evaluated by user : this concerns Frame Error, Parity Error or Noise Error
1054:Drivers/STM32L0xx_HAL_Driver/Src/stm32l0xx_hal_uart.c ****            in Interrupt mode reception .
1055:Drivers/STM32L0xx_HAL_Driver/Src/stm32l0xx_hal_uart.c ****            Received character is then retrieved and stored in Rx buffer, Error code is set to allow
1056:Drivers/STM32L0xx_HAL_Driver/Src/stm32l0xx_hal_uart.c ****            to identify error type, and HAL_UART_ErrorCallback() user callback is executed.
1057:Drivers/STM32L0xx_HAL_Driver/Src/stm32l0xx_hal_uart.c ****            Transfer is kept ongoing on UART side.
1058:Drivers/STM32L0xx_HAL_Driver/Src/stm32l0xx_hal_uart.c ****            If user wants to abort it, Abort services should be called by user.
1059:Drivers/STM32L0xx_HAL_Driver/Src/stm32l0xx_hal_uart.c ****        (+) Error is considered as Blocking : Transfer could not be completed properly and is aborte
1060:Drivers/STM32L0xx_HAL_Driver/Src/stm32l0xx_hal_uart.c ****            This concerns Overrun Error In Interrupt mode reception and all errors in DMA mode.
1061:Drivers/STM32L0xx_HAL_Driver/Src/stm32l0xx_hal_uart.c ****            Error code is set to allow user to identify error type, and HAL_UART_ErrorCallback()
1062:Drivers/STM32L0xx_HAL_Driver/Src/stm32l0xx_hal_uart.c ****            user callback is executed.
1063:Drivers/STM32L0xx_HAL_Driver/Src/stm32l0xx_hal_uart.c **** 
1064:Drivers/STM32L0xx_HAL_Driver/Src/stm32l0xx_hal_uart.c ****     -@- In the Half duplex communication, it is forbidden to run the transmit
1065:Drivers/STM32L0xx_HAL_Driver/Src/stm32l0xx_hal_uart.c ****         and receive process in parallel, the UART state HAL_UART_STATE_BUSY_TX_RX can't be useful.
1066:Drivers/STM32L0xx_HAL_Driver/Src/stm32l0xx_hal_uart.c **** 
1067:Drivers/STM32L0xx_HAL_Driver/Src/stm32l0xx_hal_uart.c **** @endverbatim
1068:Drivers/STM32L0xx_HAL_Driver/Src/stm32l0xx_hal_uart.c ****   * @{
1069:Drivers/STM32L0xx_HAL_Driver/Src/stm32l0xx_hal_uart.c ****   */
1070:Drivers/STM32L0xx_HAL_Driver/Src/stm32l0xx_hal_uart.c **** 
1071:Drivers/STM32L0xx_HAL_Driver/Src/stm32l0xx_hal_uart.c **** /**
1072:Drivers/STM32L0xx_HAL_Driver/Src/stm32l0xx_hal_uart.c ****   * @brief Send an amount of data in blocking mode.
1073:Drivers/STM32L0xx_HAL_Driver/Src/stm32l0xx_hal_uart.c ****   * @note   When UART parity is not enabled (PCE = 0), and Word Length is configured to 9 bits (M1-
1074:Drivers/STM32L0xx_HAL_Driver/Src/stm32l0xx_hal_uart.c ****   *         the sent data is handled as a set of u16. In this case, Size must indicate the number
1075:Drivers/STM32L0xx_HAL_Driver/Src/stm32l0xx_hal_uart.c ****   *         of u16 provided through pData.
1076:Drivers/STM32L0xx_HAL_Driver/Src/stm32l0xx_hal_uart.c ****   * @note   When UART parity is not enabled (PCE = 0), and Word Length is configured to 9 bits (M1-
1077:Drivers/STM32L0xx_HAL_Driver/Src/stm32l0xx_hal_uart.c ****   *         address of user data buffer containing data to be sent, should be aligned on a half wor
1078:Drivers/STM32L0xx_HAL_Driver/Src/stm32l0xx_hal_uart.c ****   *         (as sent data will be handled using u16 pointer cast). Depending on compilation chain,
1079:Drivers/STM32L0xx_HAL_Driver/Src/stm32l0xx_hal_uart.c ****   *         use of specific alignment compilation directives or pragmas might be required
1080:Drivers/STM32L0xx_HAL_Driver/Src/stm32l0xx_hal_uart.c ****   *         to ensure proper alignment for pData.
1081:Drivers/STM32L0xx_HAL_Driver/Src/stm32l0xx_hal_uart.c ****   * @param huart   UART handle.
1082:Drivers/STM32L0xx_HAL_Driver/Src/stm32l0xx_hal_uart.c ****   * @param pData   Pointer to data buffer (u8 or u16 data elements).
1083:Drivers/STM32L0xx_HAL_Driver/Src/stm32l0xx_hal_uart.c ****   * @param Size    Amount of data elements (u8 or u16) to be sent.
ARM GAS  C:\Users\lidka\AppData\Local\Temp\ccqOATUZ.s 			page 34


1084:Drivers/STM32L0xx_HAL_Driver/Src/stm32l0xx_hal_uart.c ****   * @param Timeout Timeout duration.
1085:Drivers/STM32L0xx_HAL_Driver/Src/stm32l0xx_hal_uart.c ****   * @retval HAL status
1086:Drivers/STM32L0xx_HAL_Driver/Src/stm32l0xx_hal_uart.c ****   */
1087:Drivers/STM32L0xx_HAL_Driver/Src/stm32l0xx_hal_uart.c **** HAL_StatusTypeDef HAL_UART_Transmit(UART_HandleTypeDef *huart, uint8_t *pData, uint16_t Size, uint3
1088:Drivers/STM32L0xx_HAL_Driver/Src/stm32l0xx_hal_uart.c **** {
 814              		.loc 1 1088 1
 815              		.cfi_startproc
 816              		@ args = 0, pretend = 0, frame = 32
 817              		@ frame_needed = 1, uses_anonymous_args = 0
 818 0000 80B5     		push	{r7, lr}
 819              	.LCFI21:
 820              		.cfi_def_cfa_offset 8
 821              		.cfi_offset 7, -8
 822              		.cfi_offset 14, -4
 823 0002 8AB0     		sub	sp, sp, #40
 824              	.LCFI22:
 825              		.cfi_def_cfa_offset 48
 826 0004 02AF     		add	r7, sp, #8
 827              	.LCFI23:
 828              		.cfi_def_cfa 7, 40
 829 0006 F860     		str	r0, [r7, #12]
 830 0008 B960     		str	r1, [r7, #8]
 831 000a 3B60     		str	r3, [r7]
 832 000c BB1D     		adds	r3, r7, #6
 833 000e 1A80     		strh	r2, [r3]
1089:Drivers/STM32L0xx_HAL_Driver/Src/stm32l0xx_hal_uart.c ****   uint8_t  *pdata8bits;
1090:Drivers/STM32L0xx_HAL_Driver/Src/stm32l0xx_hal_uart.c ****   uint16_t *pdata16bits;
1091:Drivers/STM32L0xx_HAL_Driver/Src/stm32l0xx_hal_uart.c ****   uint32_t tickstart;
1092:Drivers/STM32L0xx_HAL_Driver/Src/stm32l0xx_hal_uart.c **** 
1093:Drivers/STM32L0xx_HAL_Driver/Src/stm32l0xx_hal_uart.c ****   /* Check that a Tx process is not already ongoing */
1094:Drivers/STM32L0xx_HAL_Driver/Src/stm32l0xx_hal_uart.c ****   if (huart->gState == HAL_UART_STATE_READY)
 834              		.loc 1 1094 12
 835 0010 FB68     		ldr	r3, [r7, #12]
 836 0012 9B6F     		ldr	r3, [r3, #120]
 837              		.loc 1 1094 6
 838 0014 202B     		cmp	r3, #32
 839 0016 00D0     		beq	.LCB704
 840 0018 95E0     		b	.L42	@long jump
 841              	.LCB704:
1095:Drivers/STM32L0xx_HAL_Driver/Src/stm32l0xx_hal_uart.c ****   {
1096:Drivers/STM32L0xx_HAL_Driver/Src/stm32l0xx_hal_uart.c ****     if ((pData == NULL) || (Size == 0U))
 842              		.loc 1 1096 8
 843 001a BB68     		ldr	r3, [r7, #8]
 844 001c 002B     		cmp	r3, #0
 845 001e 03D0     		beq	.L43
 846              		.loc 1 1096 25 discriminator 1
 847 0020 BB1D     		adds	r3, r7, #6
 848 0022 1B88     		ldrh	r3, [r3]
 849 0024 002B     		cmp	r3, #0
 850 0026 01D1     		bne	.L44
 851              	.L43:
1097:Drivers/STM32L0xx_HAL_Driver/Src/stm32l0xx_hal_uart.c ****     {
1098:Drivers/STM32L0xx_HAL_Driver/Src/stm32l0xx_hal_uart.c ****       return  HAL_ERROR;
 852              		.loc 1 1098 15
 853 0028 0123     		movs	r3, #1
 854 002a 8DE0     		b	.L45
 855              	.L44:
ARM GAS  C:\Users\lidka\AppData\Local\Temp\ccqOATUZ.s 			page 35


1099:Drivers/STM32L0xx_HAL_Driver/Src/stm32l0xx_hal_uart.c ****     }
1100:Drivers/STM32L0xx_HAL_Driver/Src/stm32l0xx_hal_uart.c **** 
1101:Drivers/STM32L0xx_HAL_Driver/Src/stm32l0xx_hal_uart.c ****     /* In case of 9bits/No Parity transfer, pData buffer provided as input parameter
1102:Drivers/STM32L0xx_HAL_Driver/Src/stm32l0xx_hal_uart.c ****        should be aligned on a u16 frontier, as data to be filled into TDR will be
1103:Drivers/STM32L0xx_HAL_Driver/Src/stm32l0xx_hal_uart.c ****        handled through a u16 cast. */
1104:Drivers/STM32L0xx_HAL_Driver/Src/stm32l0xx_hal_uart.c ****     if ((huart->Init.WordLength == UART_WORDLENGTH_9B) && (huart->Init.Parity == UART_PARITY_NONE))
 856              		.loc 1 1104 21
 857 002c FB68     		ldr	r3, [r7, #12]
 858 002e 9A68     		ldr	r2, [r3, #8]
 859              		.loc 1 1104 8
 860 0030 8023     		movs	r3, #128
 861 0032 5B01     		lsls	r3, r3, #5
 862 0034 9A42     		cmp	r2, r3
 863 0036 09D1     		bne	.L46
 864              		.loc 1 1104 71 discriminator 1
 865 0038 FB68     		ldr	r3, [r7, #12]
 866 003a 1B69     		ldr	r3, [r3, #16]
 867              		.loc 1 1104 56 discriminator 1
 868 003c 002B     		cmp	r3, #0
 869 003e 05D1     		bne	.L46
1105:Drivers/STM32L0xx_HAL_Driver/Src/stm32l0xx_hal_uart.c ****     {
1106:Drivers/STM32L0xx_HAL_Driver/Src/stm32l0xx_hal_uart.c ****       if ((((uint32_t)pData) & 1U) != 0U)
 870              		.loc 1 1106 13
 871 0040 BB68     		ldr	r3, [r7, #8]
 872              		.loc 1 1106 30
 873 0042 0122     		movs	r2, #1
 874 0044 1340     		ands	r3, r2
 875              		.loc 1 1106 10
 876 0046 01D0     		beq	.L46
1107:Drivers/STM32L0xx_HAL_Driver/Src/stm32l0xx_hal_uart.c ****       {
1108:Drivers/STM32L0xx_HAL_Driver/Src/stm32l0xx_hal_uart.c ****         return  HAL_ERROR;
 877              		.loc 1 1108 17
 878 0048 0123     		movs	r3, #1
 879 004a 7DE0     		b	.L45
 880              	.L46:
1109:Drivers/STM32L0xx_HAL_Driver/Src/stm32l0xx_hal_uart.c ****       }
1110:Drivers/STM32L0xx_HAL_Driver/Src/stm32l0xx_hal_uart.c ****     }
1111:Drivers/STM32L0xx_HAL_Driver/Src/stm32l0xx_hal_uart.c **** 
1112:Drivers/STM32L0xx_HAL_Driver/Src/stm32l0xx_hal_uart.c ****     __HAL_LOCK(huart);
 881              		.loc 1 1112 5
 882 004c FB68     		ldr	r3, [r7, #12]
 883 004e 7422     		movs	r2, #116
 884 0050 9B5C     		ldrb	r3, [r3, r2]
 885 0052 012B     		cmp	r3, #1
 886 0054 01D1     		bne	.L47
 887              		.loc 1 1112 5 is_stmt 0 discriminator 1
 888 0056 0223     		movs	r3, #2
 889 0058 76E0     		b	.L45
 890              	.L47:
 891              		.loc 1 1112 5 discriminator 2
 892 005a FB68     		ldr	r3, [r7, #12]
 893 005c 7422     		movs	r2, #116
 894 005e 0121     		movs	r1, #1
 895 0060 9954     		strb	r1, [r3, r2]
1113:Drivers/STM32L0xx_HAL_Driver/Src/stm32l0xx_hal_uart.c **** 
1114:Drivers/STM32L0xx_HAL_Driver/Src/stm32l0xx_hal_uart.c ****     huart->ErrorCode = HAL_UART_ERROR_NONE;
 896              		.loc 1 1114 22 is_stmt 1 discriminator 2
ARM GAS  C:\Users\lidka\AppData\Local\Temp\ccqOATUZ.s 			page 36


 897 0062 FB68     		ldr	r3, [r7, #12]
 898 0064 8022     		movs	r2, #128
 899 0066 0021     		movs	r1, #0
 900 0068 9950     		str	r1, [r3, r2]
1115:Drivers/STM32L0xx_HAL_Driver/Src/stm32l0xx_hal_uart.c ****     huart->gState = HAL_UART_STATE_BUSY_TX;
 901              		.loc 1 1115 19 discriminator 2
 902 006a FB68     		ldr	r3, [r7, #12]
 903 006c 2122     		movs	r2, #33
 904 006e 9A67     		str	r2, [r3, #120]
1116:Drivers/STM32L0xx_HAL_Driver/Src/stm32l0xx_hal_uart.c **** 
1117:Drivers/STM32L0xx_HAL_Driver/Src/stm32l0xx_hal_uart.c ****     /* Init tickstart for timeout management */
1118:Drivers/STM32L0xx_HAL_Driver/Src/stm32l0xx_hal_uart.c ****     tickstart = HAL_GetTick();
 905              		.loc 1 1118 17 discriminator 2
 906 0070 FFF7FEFF 		bl	HAL_GetTick
 907 0074 0300     		movs	r3, r0
 908 0076 7B61     		str	r3, [r7, #20]
1119:Drivers/STM32L0xx_HAL_Driver/Src/stm32l0xx_hal_uart.c **** 
1120:Drivers/STM32L0xx_HAL_Driver/Src/stm32l0xx_hal_uart.c ****     huart->TxXferSize  = Size;
 909              		.loc 1 1120 24 discriminator 2
 910 0078 FB68     		ldr	r3, [r7, #12]
 911 007a BA1D     		adds	r2, r7, #6
 912 007c 5021     		movs	r1, #80
 913 007e 1288     		ldrh	r2, [r2]
 914 0080 5A52     		strh	r2, [r3, r1]
1121:Drivers/STM32L0xx_HAL_Driver/Src/stm32l0xx_hal_uart.c ****     huart->TxXferCount = Size;
 915              		.loc 1 1121 24 discriminator 2
 916 0082 FB68     		ldr	r3, [r7, #12]
 917 0084 BA1D     		adds	r2, r7, #6
 918 0086 5221     		movs	r1, #82
 919 0088 1288     		ldrh	r2, [r2]
 920 008a 5A52     		strh	r2, [r3, r1]
1122:Drivers/STM32L0xx_HAL_Driver/Src/stm32l0xx_hal_uart.c **** 
1123:Drivers/STM32L0xx_HAL_Driver/Src/stm32l0xx_hal_uart.c ****     /* In case of 9bits/No Parity transfer, pData needs to be handled as a uint16_t pointer */
1124:Drivers/STM32L0xx_HAL_Driver/Src/stm32l0xx_hal_uart.c ****     if ((huart->Init.WordLength == UART_WORDLENGTH_9B) && (huart->Init.Parity == UART_PARITY_NONE))
 921              		.loc 1 1124 21 discriminator 2
 922 008c FB68     		ldr	r3, [r7, #12]
 923 008e 9A68     		ldr	r2, [r3, #8]
 924              		.loc 1 1124 8 discriminator 2
 925 0090 8023     		movs	r3, #128
 926 0092 5B01     		lsls	r3, r3, #5
 927 0094 9A42     		cmp	r2, r3
 928 0096 08D1     		bne	.L48
 929              		.loc 1 1124 71 discriminator 1
 930 0098 FB68     		ldr	r3, [r7, #12]
 931 009a 1B69     		ldr	r3, [r3, #16]
 932              		.loc 1 1124 56 discriminator 1
 933 009c 002B     		cmp	r3, #0
 934 009e 04D1     		bne	.L48
1125:Drivers/STM32L0xx_HAL_Driver/Src/stm32l0xx_hal_uart.c ****     {
1126:Drivers/STM32L0xx_HAL_Driver/Src/stm32l0xx_hal_uart.c ****       pdata8bits  = NULL;
 935              		.loc 1 1126 19
 936 00a0 0023     		movs	r3, #0
 937 00a2 FB61     		str	r3, [r7, #28]
1127:Drivers/STM32L0xx_HAL_Driver/Src/stm32l0xx_hal_uart.c ****       pdata16bits = (uint16_t *) pData;
 938              		.loc 1 1127 19
 939 00a4 BB68     		ldr	r3, [r7, #8]
 940 00a6 BB61     		str	r3, [r7, #24]
ARM GAS  C:\Users\lidka\AppData\Local\Temp\ccqOATUZ.s 			page 37


 941 00a8 03E0     		b	.L49
 942              	.L48:
1128:Drivers/STM32L0xx_HAL_Driver/Src/stm32l0xx_hal_uart.c ****     }
1129:Drivers/STM32L0xx_HAL_Driver/Src/stm32l0xx_hal_uart.c ****     else
1130:Drivers/STM32L0xx_HAL_Driver/Src/stm32l0xx_hal_uart.c ****     {
1131:Drivers/STM32L0xx_HAL_Driver/Src/stm32l0xx_hal_uart.c ****       pdata8bits  = pData;
 943              		.loc 1 1131 19
 944 00aa BB68     		ldr	r3, [r7, #8]
 945 00ac FB61     		str	r3, [r7, #28]
1132:Drivers/STM32L0xx_HAL_Driver/Src/stm32l0xx_hal_uart.c ****       pdata16bits = NULL;
 946              		.loc 1 1132 19
 947 00ae 0023     		movs	r3, #0
 948 00b0 BB61     		str	r3, [r7, #24]
 949              	.L49:
1133:Drivers/STM32L0xx_HAL_Driver/Src/stm32l0xx_hal_uart.c ****     }
1134:Drivers/STM32L0xx_HAL_Driver/Src/stm32l0xx_hal_uart.c **** 
1135:Drivers/STM32L0xx_HAL_Driver/Src/stm32l0xx_hal_uart.c ****     __HAL_UNLOCK(huart);
 950              		.loc 1 1135 5
 951 00b2 FB68     		ldr	r3, [r7, #12]
 952 00b4 7422     		movs	r2, #116
 953 00b6 0021     		movs	r1, #0
 954 00b8 9954     		strb	r1, [r3, r2]
1136:Drivers/STM32L0xx_HAL_Driver/Src/stm32l0xx_hal_uart.c **** 
1137:Drivers/STM32L0xx_HAL_Driver/Src/stm32l0xx_hal_uart.c ****     while (huart->TxXferCount > 0U)
 955              		.loc 1 1137 11
 956 00ba 2CE0     		b	.L50
 957              	.L54:
1138:Drivers/STM32L0xx_HAL_Driver/Src/stm32l0xx_hal_uart.c ****     {
1139:Drivers/STM32L0xx_HAL_Driver/Src/stm32l0xx_hal_uart.c ****       if (UART_WaitOnFlagUntilTimeout(huart, UART_FLAG_TXE, RESET, tickstart, Timeout) != HAL_OK)
 958              		.loc 1 1139 11
 959 00bc 7A69     		ldr	r2, [r7, #20]
 960 00be F868     		ldr	r0, [r7, #12]
 961 00c0 3B68     		ldr	r3, [r7]
 962 00c2 0093     		str	r3, [sp]
 963 00c4 1300     		movs	r3, r2
 964 00c6 0022     		movs	r2, #0
 965 00c8 8021     		movs	r1, #128
 966 00ca FFF7FEFF 		bl	UART_WaitOnFlagUntilTimeout
 967 00ce 031E     		subs	r3, r0, #0
 968              		.loc 1 1139 10
 969 00d0 01D0     		beq	.L51
1140:Drivers/STM32L0xx_HAL_Driver/Src/stm32l0xx_hal_uart.c ****       {
1141:Drivers/STM32L0xx_HAL_Driver/Src/stm32l0xx_hal_uart.c ****         return HAL_TIMEOUT;
 970              		.loc 1 1141 16
 971 00d2 0323     		movs	r3, #3
 972 00d4 38E0     		b	.L45
 973              	.L51:
1142:Drivers/STM32L0xx_HAL_Driver/Src/stm32l0xx_hal_uart.c ****       }
1143:Drivers/STM32L0xx_HAL_Driver/Src/stm32l0xx_hal_uart.c ****       if (pdata8bits == NULL)
 974              		.loc 1 1143 10
 975 00d6 FB69     		ldr	r3, [r7, #28]
 976 00d8 002B     		cmp	r3, #0
 977 00da 0BD1     		bne	.L52
1144:Drivers/STM32L0xx_HAL_Driver/Src/stm32l0xx_hal_uart.c ****       {
1145:Drivers/STM32L0xx_HAL_Driver/Src/stm32l0xx_hal_uart.c ****         huart->Instance->TDR = (uint16_t)(*pdata16bits & 0x01FFU);
 978              		.loc 1 1145 43
 979 00dc BB69     		ldr	r3, [r7, #24]
ARM GAS  C:\Users\lidka\AppData\Local\Temp\ccqOATUZ.s 			page 38


 980 00de 1B88     		ldrh	r3, [r3]
 981              		.loc 1 1145 32
 982 00e0 1A00     		movs	r2, r3
 983              		.loc 1 1145 14
 984 00e2 FB68     		ldr	r3, [r7, #12]
 985 00e4 1B68     		ldr	r3, [r3]
 986              		.loc 1 1145 32
 987 00e6 D205     		lsls	r2, r2, #23
 988 00e8 D20D     		lsrs	r2, r2, #23
 989              		.loc 1 1145 30
 990 00ea 9A62     		str	r2, [r3, #40]
1146:Drivers/STM32L0xx_HAL_Driver/Src/stm32l0xx_hal_uart.c ****         pdata16bits++;
 991              		.loc 1 1146 20
 992 00ec BB69     		ldr	r3, [r7, #24]
 993 00ee 0233     		adds	r3, r3, #2
 994 00f0 BB61     		str	r3, [r7, #24]
 995 00f2 07E0     		b	.L53
 996              	.L52:
1147:Drivers/STM32L0xx_HAL_Driver/Src/stm32l0xx_hal_uart.c ****       }
1148:Drivers/STM32L0xx_HAL_Driver/Src/stm32l0xx_hal_uart.c ****       else
1149:Drivers/STM32L0xx_HAL_Driver/Src/stm32l0xx_hal_uart.c ****       {
1150:Drivers/STM32L0xx_HAL_Driver/Src/stm32l0xx_hal_uart.c ****         huart->Instance->TDR = (uint8_t)(*pdata8bits & 0xFFU);
 997              		.loc 1 1150 42
 998 00f4 FB69     		ldr	r3, [r7, #28]
 999 00f6 1A78     		ldrb	r2, [r3]
 1000              		.loc 1 1150 14
 1001 00f8 FB68     		ldr	r3, [r7, #12]
 1002 00fa 1B68     		ldr	r3, [r3]
 1003              		.loc 1 1150 30
 1004 00fc 9A62     		str	r2, [r3, #40]
1151:Drivers/STM32L0xx_HAL_Driver/Src/stm32l0xx_hal_uart.c ****         pdata8bits++;
 1005              		.loc 1 1151 19
 1006 00fe FB69     		ldr	r3, [r7, #28]
 1007 0100 0133     		adds	r3, r3, #1
 1008 0102 FB61     		str	r3, [r7, #28]
 1009              	.L53:
1152:Drivers/STM32L0xx_HAL_Driver/Src/stm32l0xx_hal_uart.c ****       }
1153:Drivers/STM32L0xx_HAL_Driver/Src/stm32l0xx_hal_uart.c ****       huart->TxXferCount--;
 1010              		.loc 1 1153 12
 1011 0104 FB68     		ldr	r3, [r7, #12]
 1012 0106 5222     		movs	r2, #82
 1013 0108 9B5A     		ldrh	r3, [r3, r2]
 1014 010a 9BB2     		uxth	r3, r3
 1015              		.loc 1 1153 25
 1016 010c 013B     		subs	r3, r3, #1
 1017 010e 99B2     		uxth	r1, r3
 1018 0110 FB68     		ldr	r3, [r7, #12]
 1019 0112 5222     		movs	r2, #82
 1020 0114 9952     		strh	r1, [r3, r2]
 1021              	.L50:
1137:Drivers/STM32L0xx_HAL_Driver/Src/stm32l0xx_hal_uart.c ****     {
 1022              		.loc 1 1137 17
 1023 0116 FB68     		ldr	r3, [r7, #12]
 1024 0118 5222     		movs	r2, #82
 1025 011a 9B5A     		ldrh	r3, [r3, r2]
 1026 011c 9BB2     		uxth	r3, r3
1137:Drivers/STM32L0xx_HAL_Driver/Src/stm32l0xx_hal_uart.c ****     {
ARM GAS  C:\Users\lidka\AppData\Local\Temp\ccqOATUZ.s 			page 39


 1027              		.loc 1 1137 11
 1028 011e 002B     		cmp	r3, #0
 1029 0120 CCD1     		bne	.L54
1154:Drivers/STM32L0xx_HAL_Driver/Src/stm32l0xx_hal_uart.c ****     }
1155:Drivers/STM32L0xx_HAL_Driver/Src/stm32l0xx_hal_uart.c **** 
1156:Drivers/STM32L0xx_HAL_Driver/Src/stm32l0xx_hal_uart.c ****     if (UART_WaitOnFlagUntilTimeout(huart, UART_FLAG_TC, RESET, tickstart, Timeout) != HAL_OK)
 1030              		.loc 1 1156 9
 1031 0122 7A69     		ldr	r2, [r7, #20]
 1032 0124 F868     		ldr	r0, [r7, #12]
 1033 0126 3B68     		ldr	r3, [r7]
 1034 0128 0093     		str	r3, [sp]
 1035 012a 1300     		movs	r3, r2
 1036 012c 0022     		movs	r2, #0
 1037 012e 4021     		movs	r1, #64
 1038 0130 FFF7FEFF 		bl	UART_WaitOnFlagUntilTimeout
 1039 0134 031E     		subs	r3, r0, #0
 1040              		.loc 1 1156 8
 1041 0136 01D0     		beq	.L55
1157:Drivers/STM32L0xx_HAL_Driver/Src/stm32l0xx_hal_uart.c ****     {
1158:Drivers/STM32L0xx_HAL_Driver/Src/stm32l0xx_hal_uart.c ****       return HAL_TIMEOUT;
 1042              		.loc 1 1158 14
 1043 0138 0323     		movs	r3, #3
 1044 013a 05E0     		b	.L45
 1045              	.L55:
1159:Drivers/STM32L0xx_HAL_Driver/Src/stm32l0xx_hal_uart.c ****     }
1160:Drivers/STM32L0xx_HAL_Driver/Src/stm32l0xx_hal_uart.c **** 
1161:Drivers/STM32L0xx_HAL_Driver/Src/stm32l0xx_hal_uart.c ****     /* At end of Tx process, restore huart->gState to Ready */
1162:Drivers/STM32L0xx_HAL_Driver/Src/stm32l0xx_hal_uart.c ****     huart->gState = HAL_UART_STATE_READY;
 1046              		.loc 1 1162 19
 1047 013c FB68     		ldr	r3, [r7, #12]
 1048 013e 2022     		movs	r2, #32
 1049 0140 9A67     		str	r2, [r3, #120]
1163:Drivers/STM32L0xx_HAL_Driver/Src/stm32l0xx_hal_uart.c **** 
1164:Drivers/STM32L0xx_HAL_Driver/Src/stm32l0xx_hal_uart.c ****     return HAL_OK;
 1050              		.loc 1 1164 12
 1051 0142 0023     		movs	r3, #0
 1052 0144 00E0     		b	.L45
 1053              	.L42:
1165:Drivers/STM32L0xx_HAL_Driver/Src/stm32l0xx_hal_uart.c ****   }
1166:Drivers/STM32L0xx_HAL_Driver/Src/stm32l0xx_hal_uart.c ****   else
1167:Drivers/STM32L0xx_HAL_Driver/Src/stm32l0xx_hal_uart.c ****   {
1168:Drivers/STM32L0xx_HAL_Driver/Src/stm32l0xx_hal_uart.c ****     return HAL_BUSY;
 1054              		.loc 1 1168 12
 1055 0146 0223     		movs	r3, #2
 1056              	.L45:
1169:Drivers/STM32L0xx_HAL_Driver/Src/stm32l0xx_hal_uart.c ****   }
1170:Drivers/STM32L0xx_HAL_Driver/Src/stm32l0xx_hal_uart.c **** }
 1057              		.loc 1 1170 1
 1058 0148 1800     		movs	r0, r3
 1059 014a BD46     		mov	sp, r7
 1060 014c 08B0     		add	sp, sp, #32
 1061              		@ sp needed
 1062 014e 80BD     		pop	{r7, pc}
 1063              		.cfi_endproc
 1064              	.LFE54:
 1066              		.section	.text.HAL_UART_Receive,"ax",%progbits
 1067              		.align	1
ARM GAS  C:\Users\lidka\AppData\Local\Temp\ccqOATUZ.s 			page 40


 1068              		.global	HAL_UART_Receive
 1069              		.syntax unified
 1070              		.code	16
 1071              		.thumb_func
 1073              	HAL_UART_Receive:
 1074              	.LFB55:
1171:Drivers/STM32L0xx_HAL_Driver/Src/stm32l0xx_hal_uart.c **** 
1172:Drivers/STM32L0xx_HAL_Driver/Src/stm32l0xx_hal_uart.c **** /**
1173:Drivers/STM32L0xx_HAL_Driver/Src/stm32l0xx_hal_uart.c ****   * @brief Receive an amount of data in blocking mode.
1174:Drivers/STM32L0xx_HAL_Driver/Src/stm32l0xx_hal_uart.c ****   * @note   When UART parity is not enabled (PCE = 0), and Word Length is configured to 9 bits (M1-
1175:Drivers/STM32L0xx_HAL_Driver/Src/stm32l0xx_hal_uart.c ****   *         the received data is handled as a set of u16. In this case, Size must indicate the numb
1176:Drivers/STM32L0xx_HAL_Driver/Src/stm32l0xx_hal_uart.c ****   *         of u16 available through pData.
1177:Drivers/STM32L0xx_HAL_Driver/Src/stm32l0xx_hal_uart.c ****   * @note   When UART parity is not enabled (PCE = 0), and Word Length is configured to 9 bits (M1-
1178:Drivers/STM32L0xx_HAL_Driver/Src/stm32l0xx_hal_uart.c ****   *         address of user data buffer for storing data to be received, should be aligned on a hal
1179:Drivers/STM32L0xx_HAL_Driver/Src/stm32l0xx_hal_uart.c ****   *         (16 bits) (as received data will be handled using u16 pointer cast). Depending on compi
1180:Drivers/STM32L0xx_HAL_Driver/Src/stm32l0xx_hal_uart.c ****   *         use of specific alignment compilation directives or pragmas might be required
1181:Drivers/STM32L0xx_HAL_Driver/Src/stm32l0xx_hal_uart.c ****   *         to ensure proper alignment for pData.
1182:Drivers/STM32L0xx_HAL_Driver/Src/stm32l0xx_hal_uart.c ****   * @param huart   UART handle.
1183:Drivers/STM32L0xx_HAL_Driver/Src/stm32l0xx_hal_uart.c ****   * @param pData   Pointer to data buffer (u8 or u16 data elements).
1184:Drivers/STM32L0xx_HAL_Driver/Src/stm32l0xx_hal_uart.c ****   * @param Size    Amount of data elements (u8 or u16) to be received.
1185:Drivers/STM32L0xx_HAL_Driver/Src/stm32l0xx_hal_uart.c ****   * @param Timeout Timeout duration.
1186:Drivers/STM32L0xx_HAL_Driver/Src/stm32l0xx_hal_uart.c ****   * @retval HAL status
1187:Drivers/STM32L0xx_HAL_Driver/Src/stm32l0xx_hal_uart.c ****   */
1188:Drivers/STM32L0xx_HAL_Driver/Src/stm32l0xx_hal_uart.c **** HAL_StatusTypeDef HAL_UART_Receive(UART_HandleTypeDef *huart, uint8_t *pData, uint16_t Size, uint32
1189:Drivers/STM32L0xx_HAL_Driver/Src/stm32l0xx_hal_uart.c **** {
 1075              		.loc 1 1189 1
 1076              		.cfi_startproc
 1077              		@ args = 0, pretend = 0, frame = 32
 1078              		@ frame_needed = 1, uses_anonymous_args = 0
 1079 0000 80B5     		push	{r7, lr}
 1080              	.LCFI24:
 1081              		.cfi_def_cfa_offset 8
 1082              		.cfi_offset 7, -8
 1083              		.cfi_offset 14, -4
 1084 0002 8AB0     		sub	sp, sp, #40
 1085              	.LCFI25:
 1086              		.cfi_def_cfa_offset 48
 1087 0004 02AF     		add	r7, sp, #8
 1088              	.LCFI26:
 1089              		.cfi_def_cfa 7, 40
 1090 0006 F860     		str	r0, [r7, #12]
 1091 0008 B960     		str	r1, [r7, #8]
 1092 000a 3B60     		str	r3, [r7]
 1093 000c BB1D     		adds	r3, r7, #6
 1094 000e 1A80     		strh	r2, [r3]
1190:Drivers/STM32L0xx_HAL_Driver/Src/stm32l0xx_hal_uart.c ****   uint8_t  *pdata8bits;
1191:Drivers/STM32L0xx_HAL_Driver/Src/stm32l0xx_hal_uart.c ****   uint16_t *pdata16bits;
1192:Drivers/STM32L0xx_HAL_Driver/Src/stm32l0xx_hal_uart.c ****   uint16_t uhMask;
1193:Drivers/STM32L0xx_HAL_Driver/Src/stm32l0xx_hal_uart.c ****   uint32_t tickstart;
1194:Drivers/STM32L0xx_HAL_Driver/Src/stm32l0xx_hal_uart.c **** 
1195:Drivers/STM32L0xx_HAL_Driver/Src/stm32l0xx_hal_uart.c ****   /* Check that a Rx process is not already ongoing */
1196:Drivers/STM32L0xx_HAL_Driver/Src/stm32l0xx_hal_uart.c ****   if (huart->RxState == HAL_UART_STATE_READY)
 1095              		.loc 1 1196 12
 1096 0010 FB68     		ldr	r3, [r7, #12]
 1097 0012 DB6F     		ldr	r3, [r3, #124]
 1098              		.loc 1 1196 6
 1099 0014 202B     		cmp	r3, #32
ARM GAS  C:\Users\lidka\AppData\Local\Temp\ccqOATUZ.s 			page 41


 1100 0016 00D0     		beq	.LCB926
 1101 0018 D9E0     		b	.L57	@long jump
 1102              	.LCB926:
1197:Drivers/STM32L0xx_HAL_Driver/Src/stm32l0xx_hal_uart.c ****   {
1198:Drivers/STM32L0xx_HAL_Driver/Src/stm32l0xx_hal_uart.c ****     if ((pData == NULL) || (Size == 0U))
 1103              		.loc 1 1198 8
 1104 001a BB68     		ldr	r3, [r7, #8]
 1105 001c 002B     		cmp	r3, #0
 1106 001e 03D0     		beq	.L58
 1107              		.loc 1 1198 25 discriminator 1
 1108 0020 BB1D     		adds	r3, r7, #6
 1109 0022 1B88     		ldrh	r3, [r3]
 1110 0024 002B     		cmp	r3, #0
 1111 0026 01D1     		bne	.L59
 1112              	.L58:
1199:Drivers/STM32L0xx_HAL_Driver/Src/stm32l0xx_hal_uart.c ****     {
1200:Drivers/STM32L0xx_HAL_Driver/Src/stm32l0xx_hal_uart.c ****       return  HAL_ERROR;
 1113              		.loc 1 1200 15
 1114 0028 0123     		movs	r3, #1
 1115 002a D1E0     		b	.L60
 1116              	.L59:
1201:Drivers/STM32L0xx_HAL_Driver/Src/stm32l0xx_hal_uart.c ****     }
1202:Drivers/STM32L0xx_HAL_Driver/Src/stm32l0xx_hal_uart.c **** 
1203:Drivers/STM32L0xx_HAL_Driver/Src/stm32l0xx_hal_uart.c ****     /* In case of 9bits/No Parity transfer, pData buffer provided as input parameter
1204:Drivers/STM32L0xx_HAL_Driver/Src/stm32l0xx_hal_uart.c ****        should be aligned on a u16 frontier, as data to be received from RDR will be
1205:Drivers/STM32L0xx_HAL_Driver/Src/stm32l0xx_hal_uart.c ****        handled through a u16 cast. */
1206:Drivers/STM32L0xx_HAL_Driver/Src/stm32l0xx_hal_uart.c ****     if ((huart->Init.WordLength == UART_WORDLENGTH_9B) && (huart->Init.Parity == UART_PARITY_NONE))
 1117              		.loc 1 1206 21
 1118 002c FB68     		ldr	r3, [r7, #12]
 1119 002e 9A68     		ldr	r2, [r3, #8]
 1120              		.loc 1 1206 8
 1121 0030 8023     		movs	r3, #128
 1122 0032 5B01     		lsls	r3, r3, #5
 1123 0034 9A42     		cmp	r2, r3
 1124 0036 09D1     		bne	.L61
 1125              		.loc 1 1206 71 discriminator 1
 1126 0038 FB68     		ldr	r3, [r7, #12]
 1127 003a 1B69     		ldr	r3, [r3, #16]
 1128              		.loc 1 1206 56 discriminator 1
 1129 003c 002B     		cmp	r3, #0
 1130 003e 05D1     		bne	.L61
1207:Drivers/STM32L0xx_HAL_Driver/Src/stm32l0xx_hal_uart.c ****     {
1208:Drivers/STM32L0xx_HAL_Driver/Src/stm32l0xx_hal_uart.c ****       if ((((uint32_t)pData) & 1U) != 0U)
 1131              		.loc 1 1208 13
 1132 0040 BB68     		ldr	r3, [r7, #8]
 1133              		.loc 1 1208 30
 1134 0042 0122     		movs	r2, #1
 1135 0044 1340     		ands	r3, r2
 1136              		.loc 1 1208 10
 1137 0046 01D0     		beq	.L61
1209:Drivers/STM32L0xx_HAL_Driver/Src/stm32l0xx_hal_uart.c ****       {
1210:Drivers/STM32L0xx_HAL_Driver/Src/stm32l0xx_hal_uart.c ****         return  HAL_ERROR;
 1138              		.loc 1 1210 17
 1139 0048 0123     		movs	r3, #1
 1140 004a C1E0     		b	.L60
 1141              	.L61:
1211:Drivers/STM32L0xx_HAL_Driver/Src/stm32l0xx_hal_uart.c ****       }
ARM GAS  C:\Users\lidka\AppData\Local\Temp\ccqOATUZ.s 			page 42


1212:Drivers/STM32L0xx_HAL_Driver/Src/stm32l0xx_hal_uart.c ****     }
1213:Drivers/STM32L0xx_HAL_Driver/Src/stm32l0xx_hal_uart.c **** 
1214:Drivers/STM32L0xx_HAL_Driver/Src/stm32l0xx_hal_uart.c ****     __HAL_LOCK(huart);
 1142              		.loc 1 1214 5
 1143 004c FB68     		ldr	r3, [r7, #12]
 1144 004e 7422     		movs	r2, #116
 1145 0050 9B5C     		ldrb	r3, [r3, r2]
 1146 0052 012B     		cmp	r3, #1
 1147 0054 01D1     		bne	.L62
 1148              		.loc 1 1214 5 is_stmt 0 discriminator 1
 1149 0056 0223     		movs	r3, #2
 1150 0058 BAE0     		b	.L60
 1151              	.L62:
 1152              		.loc 1 1214 5 discriminator 2
 1153 005a FB68     		ldr	r3, [r7, #12]
 1154 005c 7422     		movs	r2, #116
 1155 005e 0121     		movs	r1, #1
 1156 0060 9954     		strb	r1, [r3, r2]
1215:Drivers/STM32L0xx_HAL_Driver/Src/stm32l0xx_hal_uart.c **** 
1216:Drivers/STM32L0xx_HAL_Driver/Src/stm32l0xx_hal_uart.c ****     huart->ErrorCode = HAL_UART_ERROR_NONE;
 1157              		.loc 1 1216 22 is_stmt 1 discriminator 2
 1158 0062 FB68     		ldr	r3, [r7, #12]
 1159 0064 8022     		movs	r2, #128
 1160 0066 0021     		movs	r1, #0
 1161 0068 9950     		str	r1, [r3, r2]
1217:Drivers/STM32L0xx_HAL_Driver/Src/stm32l0xx_hal_uart.c ****     huart->RxState = HAL_UART_STATE_BUSY_RX;
 1162              		.loc 1 1217 20 discriminator 2
 1163 006a FB68     		ldr	r3, [r7, #12]
 1164 006c 2222     		movs	r2, #34
 1165 006e DA67     		str	r2, [r3, #124]
1218:Drivers/STM32L0xx_HAL_Driver/Src/stm32l0xx_hal_uart.c ****     huart->ReceptionType = HAL_UART_RECEPTION_STANDARD;
 1166              		.loc 1 1218 26 discriminator 2
 1167 0070 FB68     		ldr	r3, [r7, #12]
 1168 0072 0022     		movs	r2, #0
 1169 0074 1A66     		str	r2, [r3, #96]
1219:Drivers/STM32L0xx_HAL_Driver/Src/stm32l0xx_hal_uart.c **** 
1220:Drivers/STM32L0xx_HAL_Driver/Src/stm32l0xx_hal_uart.c ****     /* Init tickstart for timeout management */
1221:Drivers/STM32L0xx_HAL_Driver/Src/stm32l0xx_hal_uart.c ****     tickstart = HAL_GetTick();
 1170              		.loc 1 1221 17 discriminator 2
 1171 0076 FFF7FEFF 		bl	HAL_GetTick
 1172 007a 0300     		movs	r3, r0
 1173 007c 7B61     		str	r3, [r7, #20]
1222:Drivers/STM32L0xx_HAL_Driver/Src/stm32l0xx_hal_uart.c **** 
1223:Drivers/STM32L0xx_HAL_Driver/Src/stm32l0xx_hal_uart.c ****     huart->RxXferSize  = Size;
 1174              		.loc 1 1223 24 discriminator 2
 1175 007e FB68     		ldr	r3, [r7, #12]
 1176 0080 BA1D     		adds	r2, r7, #6
 1177 0082 5821     		movs	r1, #88
 1178 0084 1288     		ldrh	r2, [r2]
 1179 0086 5A52     		strh	r2, [r3, r1]
1224:Drivers/STM32L0xx_HAL_Driver/Src/stm32l0xx_hal_uart.c ****     huart->RxXferCount = Size;
 1180              		.loc 1 1224 24 discriminator 2
 1181 0088 FB68     		ldr	r3, [r7, #12]
 1182 008a BA1D     		adds	r2, r7, #6
 1183 008c 5A21     		movs	r1, #90
 1184 008e 1288     		ldrh	r2, [r2]
 1185 0090 5A52     		strh	r2, [r3, r1]
ARM GAS  C:\Users\lidka\AppData\Local\Temp\ccqOATUZ.s 			page 43


1225:Drivers/STM32L0xx_HAL_Driver/Src/stm32l0xx_hal_uart.c **** 
1226:Drivers/STM32L0xx_HAL_Driver/Src/stm32l0xx_hal_uart.c ****     /* Computation of UART mask to apply to RDR register */
1227:Drivers/STM32L0xx_HAL_Driver/Src/stm32l0xx_hal_uart.c ****     UART_MASK_COMPUTATION(huart);
 1186              		.loc 1 1227 5 discriminator 2
 1187 0092 FB68     		ldr	r3, [r7, #12]
 1188 0094 9A68     		ldr	r2, [r3, #8]
 1189 0096 8023     		movs	r3, #128
 1190 0098 5B01     		lsls	r3, r3, #5
 1191 009a 9A42     		cmp	r2, r3
 1192 009c 0DD1     		bne	.L63
 1193              		.loc 1 1227 5 is_stmt 0 discriminator 1
 1194 009e FB68     		ldr	r3, [r7, #12]
 1195 00a0 1B69     		ldr	r3, [r3, #16]
 1196 00a2 002B     		cmp	r3, #0
 1197 00a4 04D1     		bne	.L64
 1198              		.loc 1 1227 5 discriminator 3
 1199 00a6 FB68     		ldr	r3, [r7, #12]
 1200 00a8 5C22     		movs	r2, #92
 1201 00aa 4B49     		ldr	r1, .L77
 1202 00ac 9952     		strh	r1, [r3, r2]
 1203 00ae 2EE0     		b	.L65
 1204              	.L64:
 1205              		.loc 1 1227 5 discriminator 4
 1206 00b0 FB68     		ldr	r3, [r7, #12]
 1207 00b2 5C22     		movs	r2, #92
 1208 00b4 FF21     		movs	r1, #255
 1209 00b6 9952     		strh	r1, [r3, r2]
 1210 00b8 29E0     		b	.L65
 1211              	.L63:
 1212              		.loc 1 1227 5 discriminator 2
 1213 00ba FB68     		ldr	r3, [r7, #12]
 1214 00bc 9B68     		ldr	r3, [r3, #8]
 1215 00be 002B     		cmp	r3, #0
 1216 00c0 0DD1     		bne	.L66
 1217              		.loc 1 1227 5 discriminator 5
 1218 00c2 FB68     		ldr	r3, [r7, #12]
 1219 00c4 1B69     		ldr	r3, [r3, #16]
 1220 00c6 002B     		cmp	r3, #0
 1221 00c8 04D1     		bne	.L67
 1222              		.loc 1 1227 5 discriminator 7
 1223 00ca FB68     		ldr	r3, [r7, #12]
 1224 00cc 5C22     		movs	r2, #92
 1225 00ce FF21     		movs	r1, #255
 1226 00d0 9952     		strh	r1, [r3, r2]
 1227 00d2 1CE0     		b	.L65
 1228              	.L67:
 1229              		.loc 1 1227 5 discriminator 8
 1230 00d4 FB68     		ldr	r3, [r7, #12]
 1231 00d6 5C22     		movs	r2, #92
 1232 00d8 7F21     		movs	r1, #127
 1233 00da 9952     		strh	r1, [r3, r2]
 1234 00dc 17E0     		b	.L65
 1235              	.L66:
 1236              		.loc 1 1227 5 discriminator 6
 1237 00de FB68     		ldr	r3, [r7, #12]
 1238 00e0 9A68     		ldr	r2, [r3, #8]
 1239 00e2 8023     		movs	r3, #128
ARM GAS  C:\Users\lidka\AppData\Local\Temp\ccqOATUZ.s 			page 44


 1240 00e4 5B05     		lsls	r3, r3, #21
 1241 00e6 9A42     		cmp	r2, r3
 1242 00e8 0DD1     		bne	.L68
 1243              		.loc 1 1227 5 discriminator 9
 1244 00ea FB68     		ldr	r3, [r7, #12]
 1245 00ec 1B69     		ldr	r3, [r3, #16]
 1246 00ee 002B     		cmp	r3, #0
 1247 00f0 04D1     		bne	.L69
 1248              		.loc 1 1227 5 discriminator 11
 1249 00f2 FB68     		ldr	r3, [r7, #12]
 1250 00f4 5C22     		movs	r2, #92
 1251 00f6 7F21     		movs	r1, #127
 1252 00f8 9952     		strh	r1, [r3, r2]
 1253 00fa 08E0     		b	.L65
 1254              	.L69:
 1255              		.loc 1 1227 5 discriminator 12
 1256 00fc FB68     		ldr	r3, [r7, #12]
 1257 00fe 5C22     		movs	r2, #92
 1258 0100 3F21     		movs	r1, #63
 1259 0102 9952     		strh	r1, [r3, r2]
 1260 0104 03E0     		b	.L65
 1261              	.L68:
 1262              		.loc 1 1227 5 discriminator 10
 1263 0106 FB68     		ldr	r3, [r7, #12]
 1264 0108 5C22     		movs	r2, #92
 1265 010a 0021     		movs	r1, #0
 1266 010c 9952     		strh	r1, [r3, r2]
 1267              	.L65:
1228:Drivers/STM32L0xx_HAL_Driver/Src/stm32l0xx_hal_uart.c ****     uhMask = huart->Mask;
 1268              		.loc 1 1228 12 is_stmt 1
 1269 010e 1223     		movs	r3, #18
 1270 0110 FB18     		adds	r3, r7, r3
 1271 0112 FA68     		ldr	r2, [r7, #12]
 1272 0114 5C21     		movs	r1, #92
 1273 0116 525A     		ldrh	r2, [r2, r1]
 1274 0118 1A80     		strh	r2, [r3]
1229:Drivers/STM32L0xx_HAL_Driver/Src/stm32l0xx_hal_uart.c **** 
1230:Drivers/STM32L0xx_HAL_Driver/Src/stm32l0xx_hal_uart.c ****     /* In case of 9bits/No Parity transfer, pRxData needs to be handled as a uint16_t pointer */
1231:Drivers/STM32L0xx_HAL_Driver/Src/stm32l0xx_hal_uart.c ****     if ((huart->Init.WordLength == UART_WORDLENGTH_9B) && (huart->Init.Parity == UART_PARITY_NONE))
 1275              		.loc 1 1231 21
 1276 011a FB68     		ldr	r3, [r7, #12]
 1277 011c 9A68     		ldr	r2, [r3, #8]
 1278              		.loc 1 1231 8
 1279 011e 8023     		movs	r3, #128
 1280 0120 5B01     		lsls	r3, r3, #5
 1281 0122 9A42     		cmp	r2, r3
 1282 0124 08D1     		bne	.L70
 1283              		.loc 1 1231 71 discriminator 1
 1284 0126 FB68     		ldr	r3, [r7, #12]
 1285 0128 1B69     		ldr	r3, [r3, #16]
 1286              		.loc 1 1231 56 discriminator 1
 1287 012a 002B     		cmp	r3, #0
 1288 012c 04D1     		bne	.L70
1232:Drivers/STM32L0xx_HAL_Driver/Src/stm32l0xx_hal_uart.c ****     {
1233:Drivers/STM32L0xx_HAL_Driver/Src/stm32l0xx_hal_uart.c ****       pdata8bits  = NULL;
 1289              		.loc 1 1233 19
 1290 012e 0023     		movs	r3, #0
ARM GAS  C:\Users\lidka\AppData\Local\Temp\ccqOATUZ.s 			page 45


 1291 0130 FB61     		str	r3, [r7, #28]
1234:Drivers/STM32L0xx_HAL_Driver/Src/stm32l0xx_hal_uart.c ****       pdata16bits = (uint16_t *) pData;
 1292              		.loc 1 1234 19
 1293 0132 BB68     		ldr	r3, [r7, #8]
 1294 0134 BB61     		str	r3, [r7, #24]
 1295 0136 03E0     		b	.L71
 1296              	.L70:
1235:Drivers/STM32L0xx_HAL_Driver/Src/stm32l0xx_hal_uart.c ****     }
1236:Drivers/STM32L0xx_HAL_Driver/Src/stm32l0xx_hal_uart.c ****     else
1237:Drivers/STM32L0xx_HAL_Driver/Src/stm32l0xx_hal_uart.c ****     {
1238:Drivers/STM32L0xx_HAL_Driver/Src/stm32l0xx_hal_uart.c ****       pdata8bits  = pData;
 1297              		.loc 1 1238 19
 1298 0138 BB68     		ldr	r3, [r7, #8]
 1299 013a FB61     		str	r3, [r7, #28]
1239:Drivers/STM32L0xx_HAL_Driver/Src/stm32l0xx_hal_uart.c ****       pdata16bits = NULL;
 1300              		.loc 1 1239 19
 1301 013c 0023     		movs	r3, #0
 1302 013e BB61     		str	r3, [r7, #24]
 1303              	.L71:
1240:Drivers/STM32L0xx_HAL_Driver/Src/stm32l0xx_hal_uart.c ****     }
1241:Drivers/STM32L0xx_HAL_Driver/Src/stm32l0xx_hal_uart.c **** 
1242:Drivers/STM32L0xx_HAL_Driver/Src/stm32l0xx_hal_uart.c ****     __HAL_UNLOCK(huart);
 1304              		.loc 1 1242 5
 1305 0140 FB68     		ldr	r3, [r7, #12]
 1306 0142 7422     		movs	r2, #116
 1307 0144 0021     		movs	r1, #0
 1308 0146 9954     		strb	r1, [r3, r2]
1243:Drivers/STM32L0xx_HAL_Driver/Src/stm32l0xx_hal_uart.c **** 
1244:Drivers/STM32L0xx_HAL_Driver/Src/stm32l0xx_hal_uart.c ****     /* as long as data have to be received */
1245:Drivers/STM32L0xx_HAL_Driver/Src/stm32l0xx_hal_uart.c ****     while (huart->RxXferCount > 0U)
 1309              		.loc 1 1245 11
 1310 0148 36E0     		b	.L72
 1311              	.L76:
1246:Drivers/STM32L0xx_HAL_Driver/Src/stm32l0xx_hal_uart.c ****     {
1247:Drivers/STM32L0xx_HAL_Driver/Src/stm32l0xx_hal_uart.c ****       if (UART_WaitOnFlagUntilTimeout(huart, UART_FLAG_RXNE, RESET, tickstart, Timeout) != HAL_OK)
 1312              		.loc 1 1247 11
 1313 014a 7A69     		ldr	r2, [r7, #20]
 1314 014c F868     		ldr	r0, [r7, #12]
 1315 014e 3B68     		ldr	r3, [r7]
 1316 0150 0093     		str	r3, [sp]
 1317 0152 1300     		movs	r3, r2
 1318 0154 0022     		movs	r2, #0
 1319 0156 2021     		movs	r1, #32
 1320 0158 FFF7FEFF 		bl	UART_WaitOnFlagUntilTimeout
 1321 015c 031E     		subs	r3, r0, #0
 1322              		.loc 1 1247 10
 1323 015e 01D0     		beq	.L73
1248:Drivers/STM32L0xx_HAL_Driver/Src/stm32l0xx_hal_uart.c ****       {
1249:Drivers/STM32L0xx_HAL_Driver/Src/stm32l0xx_hal_uart.c ****         return HAL_TIMEOUT;
 1324              		.loc 1 1249 16
 1325 0160 0323     		movs	r3, #3
 1326 0162 35E0     		b	.L60
 1327              	.L73:
1250:Drivers/STM32L0xx_HAL_Driver/Src/stm32l0xx_hal_uart.c ****       }
1251:Drivers/STM32L0xx_HAL_Driver/Src/stm32l0xx_hal_uart.c ****       if (pdata8bits == NULL)
 1328              		.loc 1 1251 10
 1329 0164 FB69     		ldr	r3, [r7, #28]
ARM GAS  C:\Users\lidka\AppData\Local\Temp\ccqOATUZ.s 			page 46


 1330 0166 002B     		cmp	r3, #0
 1331 0168 0ED1     		bne	.L74
1252:Drivers/STM32L0xx_HAL_Driver/Src/stm32l0xx_hal_uart.c ****       {
1253:Drivers/STM32L0xx_HAL_Driver/Src/stm32l0xx_hal_uart.c ****         *pdata16bits = (uint16_t)(huart->Instance->RDR & uhMask);
 1332              		.loc 1 1253 40
 1333 016a FB68     		ldr	r3, [r7, #12]
 1334 016c 1B68     		ldr	r3, [r3]
 1335              		.loc 1 1253 50
 1336 016e 5B6A     		ldr	r3, [r3, #36]
 1337              		.loc 1 1253 24
 1338 0170 9BB2     		uxth	r3, r3
 1339 0172 1222     		movs	r2, #18
 1340 0174 BA18     		adds	r2, r7, r2
 1341 0176 1288     		ldrh	r2, [r2]
 1342 0178 1340     		ands	r3, r2
 1343 017a 9AB2     		uxth	r2, r3
 1344              		.loc 1 1253 22
 1345 017c BB69     		ldr	r3, [r7, #24]
 1346 017e 1A80     		strh	r2, [r3]
1254:Drivers/STM32L0xx_HAL_Driver/Src/stm32l0xx_hal_uart.c ****         pdata16bits++;
 1347              		.loc 1 1254 20
 1348 0180 BB69     		ldr	r3, [r7, #24]
 1349 0182 0233     		adds	r3, r3, #2
 1350 0184 BB61     		str	r3, [r7, #24]
 1351 0186 0EE0     		b	.L75
 1352              	.L74:
1255:Drivers/STM32L0xx_HAL_Driver/Src/stm32l0xx_hal_uart.c ****       }
1256:Drivers/STM32L0xx_HAL_Driver/Src/stm32l0xx_hal_uart.c ****       else
1257:Drivers/STM32L0xx_HAL_Driver/Src/stm32l0xx_hal_uart.c ****       {
1258:Drivers/STM32L0xx_HAL_Driver/Src/stm32l0xx_hal_uart.c ****         *pdata8bits = (uint8_t)(huart->Instance->RDR & (uint8_t)uhMask);
 1353              		.loc 1 1258 38
 1354 0188 FB68     		ldr	r3, [r7, #12]
 1355 018a 1B68     		ldr	r3, [r3]
 1356              		.loc 1 1258 48
 1357 018c 5B6A     		ldr	r3, [r3, #36]
 1358              		.loc 1 1258 23
 1359 018e DBB2     		uxtb	r3, r3
 1360              		.loc 1 1258 56
 1361 0190 1222     		movs	r2, #18
 1362 0192 BA18     		adds	r2, r7, r2
 1363 0194 1288     		ldrh	r2, [r2]
 1364 0196 D2B2     		uxtb	r2, r2
 1365              		.loc 1 1258 23
 1366 0198 1340     		ands	r3, r2
 1367 019a DAB2     		uxtb	r2, r3
 1368              		.loc 1 1258 21
 1369 019c FB69     		ldr	r3, [r7, #28]
 1370 019e 1A70     		strb	r2, [r3]
1259:Drivers/STM32L0xx_HAL_Driver/Src/stm32l0xx_hal_uart.c ****         pdata8bits++;
 1371              		.loc 1 1259 19
 1372 01a0 FB69     		ldr	r3, [r7, #28]
 1373 01a2 0133     		adds	r3, r3, #1
 1374 01a4 FB61     		str	r3, [r7, #28]
 1375              	.L75:
1260:Drivers/STM32L0xx_HAL_Driver/Src/stm32l0xx_hal_uart.c ****       }
1261:Drivers/STM32L0xx_HAL_Driver/Src/stm32l0xx_hal_uart.c ****       huart->RxXferCount--;
 1376              		.loc 1 1261 12
ARM GAS  C:\Users\lidka\AppData\Local\Temp\ccqOATUZ.s 			page 47


 1377 01a6 FB68     		ldr	r3, [r7, #12]
 1378 01a8 5A22     		movs	r2, #90
 1379 01aa 9B5A     		ldrh	r3, [r3, r2]
 1380 01ac 9BB2     		uxth	r3, r3
 1381              		.loc 1 1261 25
 1382 01ae 013B     		subs	r3, r3, #1
 1383 01b0 99B2     		uxth	r1, r3
 1384 01b2 FB68     		ldr	r3, [r7, #12]
 1385 01b4 5A22     		movs	r2, #90
 1386 01b6 9952     		strh	r1, [r3, r2]
 1387              	.L72:
1245:Drivers/STM32L0xx_HAL_Driver/Src/stm32l0xx_hal_uart.c ****     {
 1388              		.loc 1 1245 17
 1389 01b8 FB68     		ldr	r3, [r7, #12]
 1390 01ba 5A22     		movs	r2, #90
 1391 01bc 9B5A     		ldrh	r3, [r3, r2]
 1392 01be 9BB2     		uxth	r3, r3
1245:Drivers/STM32L0xx_HAL_Driver/Src/stm32l0xx_hal_uart.c ****     {
 1393              		.loc 1 1245 11
 1394 01c0 002B     		cmp	r3, #0
 1395 01c2 C2D1     		bne	.L76
1262:Drivers/STM32L0xx_HAL_Driver/Src/stm32l0xx_hal_uart.c ****     }
1263:Drivers/STM32L0xx_HAL_Driver/Src/stm32l0xx_hal_uart.c **** 
1264:Drivers/STM32L0xx_HAL_Driver/Src/stm32l0xx_hal_uart.c ****     /* At end of Rx process, restore huart->RxState to Ready */
1265:Drivers/STM32L0xx_HAL_Driver/Src/stm32l0xx_hal_uart.c ****     huart->RxState = HAL_UART_STATE_READY;
 1396              		.loc 1 1265 20
 1397 01c4 FB68     		ldr	r3, [r7, #12]
 1398 01c6 2022     		movs	r2, #32
 1399 01c8 DA67     		str	r2, [r3, #124]
1266:Drivers/STM32L0xx_HAL_Driver/Src/stm32l0xx_hal_uart.c **** 
1267:Drivers/STM32L0xx_HAL_Driver/Src/stm32l0xx_hal_uart.c ****     return HAL_OK;
 1400              		.loc 1 1267 12
 1401 01ca 0023     		movs	r3, #0
 1402 01cc 00E0     		b	.L60
 1403              	.L57:
1268:Drivers/STM32L0xx_HAL_Driver/Src/stm32l0xx_hal_uart.c ****   }
1269:Drivers/STM32L0xx_HAL_Driver/Src/stm32l0xx_hal_uart.c ****   else
1270:Drivers/STM32L0xx_HAL_Driver/Src/stm32l0xx_hal_uart.c ****   {
1271:Drivers/STM32L0xx_HAL_Driver/Src/stm32l0xx_hal_uart.c ****     return HAL_BUSY;
 1404              		.loc 1 1271 12
 1405 01ce 0223     		movs	r3, #2
 1406              	.L60:
1272:Drivers/STM32L0xx_HAL_Driver/Src/stm32l0xx_hal_uart.c ****   }
1273:Drivers/STM32L0xx_HAL_Driver/Src/stm32l0xx_hal_uart.c **** }
 1407              		.loc 1 1273 1
 1408 01d0 1800     		movs	r0, r3
 1409 01d2 BD46     		mov	sp, r7
 1410 01d4 08B0     		add	sp, sp, #32
 1411              		@ sp needed
 1412 01d6 80BD     		pop	{r7, pc}
 1413              	.L78:
 1414              		.align	2
 1415              	.L77:
 1416 01d8 FF010000 		.word	511
 1417              		.cfi_endproc
 1418              	.LFE55:
 1420              		.section	.text.HAL_UART_Transmit_IT,"ax",%progbits
ARM GAS  C:\Users\lidka\AppData\Local\Temp\ccqOATUZ.s 			page 48


 1421              		.align	1
 1422              		.global	HAL_UART_Transmit_IT
 1423              		.syntax unified
 1424              		.code	16
 1425              		.thumb_func
 1427              	HAL_UART_Transmit_IT:
 1428              	.LFB56:
1274:Drivers/STM32L0xx_HAL_Driver/Src/stm32l0xx_hal_uart.c **** 
1275:Drivers/STM32L0xx_HAL_Driver/Src/stm32l0xx_hal_uart.c **** /**
1276:Drivers/STM32L0xx_HAL_Driver/Src/stm32l0xx_hal_uart.c ****   * @brief Send an amount of data in interrupt mode.
1277:Drivers/STM32L0xx_HAL_Driver/Src/stm32l0xx_hal_uart.c ****   * @note   When UART parity is not enabled (PCE = 0), and Word Length is configured to 9 bits (M1-
1278:Drivers/STM32L0xx_HAL_Driver/Src/stm32l0xx_hal_uart.c ****   *         the sent data is handled as a set of u16. In this case, Size must indicate the number
1279:Drivers/STM32L0xx_HAL_Driver/Src/stm32l0xx_hal_uart.c ****   *         of u16 provided through pData.
1280:Drivers/STM32L0xx_HAL_Driver/Src/stm32l0xx_hal_uart.c ****   * @note   When UART parity is not enabled (PCE = 0), and Word Length is configured to 9 bits (M1-
1281:Drivers/STM32L0xx_HAL_Driver/Src/stm32l0xx_hal_uart.c ****   *         address of user data buffer containing data to be sent, should be aligned on a half wor
1282:Drivers/STM32L0xx_HAL_Driver/Src/stm32l0xx_hal_uart.c ****   *         (as sent data will be handled using u16 pointer cast). Depending on compilation chain,
1283:Drivers/STM32L0xx_HAL_Driver/Src/stm32l0xx_hal_uart.c ****   *         use of specific alignment compilation directives or pragmas might be required
1284:Drivers/STM32L0xx_HAL_Driver/Src/stm32l0xx_hal_uart.c ****   *         to ensure proper alignment for pData.
1285:Drivers/STM32L0xx_HAL_Driver/Src/stm32l0xx_hal_uart.c ****   * @param huart UART handle.
1286:Drivers/STM32L0xx_HAL_Driver/Src/stm32l0xx_hal_uart.c ****   * @param pData Pointer to data buffer (u8 or u16 data elements).
1287:Drivers/STM32L0xx_HAL_Driver/Src/stm32l0xx_hal_uart.c ****   * @param Size  Amount of data elements (u8 or u16) to be sent.
1288:Drivers/STM32L0xx_HAL_Driver/Src/stm32l0xx_hal_uart.c ****   * @retval HAL status
1289:Drivers/STM32L0xx_HAL_Driver/Src/stm32l0xx_hal_uart.c ****   */
1290:Drivers/STM32L0xx_HAL_Driver/Src/stm32l0xx_hal_uart.c **** HAL_StatusTypeDef HAL_UART_Transmit_IT(UART_HandleTypeDef *huart, uint8_t *pData, uint16_t Size)
1291:Drivers/STM32L0xx_HAL_Driver/Src/stm32l0xx_hal_uart.c **** {
 1429              		.loc 1 1291 1
 1430              		.cfi_startproc
 1431              		@ args = 0, pretend = 0, frame = 32
 1432              		@ frame_needed = 1, uses_anonymous_args = 0
 1433 0000 80B5     		push	{r7, lr}
 1434              	.LCFI27:
 1435              		.cfi_def_cfa_offset 8
 1436              		.cfi_offset 7, -8
 1437              		.cfi_offset 14, -4
 1438 0002 88B0     		sub	sp, sp, #32
 1439              	.LCFI28:
 1440              		.cfi_def_cfa_offset 40
 1441 0004 00AF     		add	r7, sp, #0
 1442              	.LCFI29:
 1443              		.cfi_def_cfa_register 7
 1444 0006 F860     		str	r0, [r7, #12]
 1445 0008 B960     		str	r1, [r7, #8]
 1446 000a BB1D     		adds	r3, r7, #6
 1447 000c 1A80     		strh	r2, [r3]
1292:Drivers/STM32L0xx_HAL_Driver/Src/stm32l0xx_hal_uart.c ****   /* Check that a Tx process is not already ongoing */
1293:Drivers/STM32L0xx_HAL_Driver/Src/stm32l0xx_hal_uart.c ****   if (huart->gState == HAL_UART_STATE_READY)
 1448              		.loc 1 1293 12
 1449 000e FB68     		ldr	r3, [r7, #12]
 1450 0010 9B6F     		ldr	r3, [r3, #120]
 1451              		.loc 1 1293 6
 1452 0012 202B     		cmp	r3, #32
 1453 0014 00D0     		beq	.LCB1238
 1454 0016 6AE0     		b	.L80	@long jump
 1455              	.LCB1238:
1294:Drivers/STM32L0xx_HAL_Driver/Src/stm32l0xx_hal_uart.c ****   {
1295:Drivers/STM32L0xx_HAL_Driver/Src/stm32l0xx_hal_uart.c ****     if ((pData == NULL) || (Size == 0U))
 1456              		.loc 1 1295 8
ARM GAS  C:\Users\lidka\AppData\Local\Temp\ccqOATUZ.s 			page 49


 1457 0018 BB68     		ldr	r3, [r7, #8]
 1458 001a 002B     		cmp	r3, #0
 1459 001c 03D0     		beq	.L81
 1460              		.loc 1 1295 25 discriminator 1
 1461 001e BB1D     		adds	r3, r7, #6
 1462 0020 1B88     		ldrh	r3, [r3]
 1463 0022 002B     		cmp	r3, #0
 1464 0024 01D1     		bne	.L82
 1465              	.L81:
1296:Drivers/STM32L0xx_HAL_Driver/Src/stm32l0xx_hal_uart.c ****     {
1297:Drivers/STM32L0xx_HAL_Driver/Src/stm32l0xx_hal_uart.c ****       return HAL_ERROR;
 1466              		.loc 1 1297 14
 1467 0026 0123     		movs	r3, #1
 1468 0028 62E0     		b	.L83
 1469              	.L82:
1298:Drivers/STM32L0xx_HAL_Driver/Src/stm32l0xx_hal_uart.c ****     }
1299:Drivers/STM32L0xx_HAL_Driver/Src/stm32l0xx_hal_uart.c **** 
1300:Drivers/STM32L0xx_HAL_Driver/Src/stm32l0xx_hal_uart.c ****     /* In case of 9bits/No Parity transfer, pData buffer provided as input parameter
1301:Drivers/STM32L0xx_HAL_Driver/Src/stm32l0xx_hal_uart.c ****        should be aligned on a u16 frontier, as data to be filled into TDR will be
1302:Drivers/STM32L0xx_HAL_Driver/Src/stm32l0xx_hal_uart.c ****        handled through a u16 cast. */
1303:Drivers/STM32L0xx_HAL_Driver/Src/stm32l0xx_hal_uart.c ****     if ((huart->Init.WordLength == UART_WORDLENGTH_9B) && (huart->Init.Parity == UART_PARITY_NONE))
 1470              		.loc 1 1303 21
 1471 002a FB68     		ldr	r3, [r7, #12]
 1472 002c 9A68     		ldr	r2, [r3, #8]
 1473              		.loc 1 1303 8
 1474 002e 8023     		movs	r3, #128
 1475 0030 5B01     		lsls	r3, r3, #5
 1476 0032 9A42     		cmp	r2, r3
 1477 0034 09D1     		bne	.L84
 1478              		.loc 1 1303 71 discriminator 1
 1479 0036 FB68     		ldr	r3, [r7, #12]
 1480 0038 1B69     		ldr	r3, [r3, #16]
 1481              		.loc 1 1303 56 discriminator 1
 1482 003a 002B     		cmp	r3, #0
 1483 003c 05D1     		bne	.L84
1304:Drivers/STM32L0xx_HAL_Driver/Src/stm32l0xx_hal_uart.c ****     {
1305:Drivers/STM32L0xx_HAL_Driver/Src/stm32l0xx_hal_uart.c ****       if ((((uint32_t)pData) & 1U) != 0U)
 1484              		.loc 1 1305 13
 1485 003e BB68     		ldr	r3, [r7, #8]
 1486              		.loc 1 1305 30
 1487 0040 0122     		movs	r2, #1
 1488 0042 1340     		ands	r3, r2
 1489              		.loc 1 1305 10
 1490 0044 01D0     		beq	.L84
1306:Drivers/STM32L0xx_HAL_Driver/Src/stm32l0xx_hal_uart.c ****       {
1307:Drivers/STM32L0xx_HAL_Driver/Src/stm32l0xx_hal_uart.c ****         return  HAL_ERROR;
 1491              		.loc 1 1307 17
 1492 0046 0123     		movs	r3, #1
 1493 0048 52E0     		b	.L83
 1494              	.L84:
1308:Drivers/STM32L0xx_HAL_Driver/Src/stm32l0xx_hal_uart.c ****       }
1309:Drivers/STM32L0xx_HAL_Driver/Src/stm32l0xx_hal_uart.c ****     }
1310:Drivers/STM32L0xx_HAL_Driver/Src/stm32l0xx_hal_uart.c **** 
1311:Drivers/STM32L0xx_HAL_Driver/Src/stm32l0xx_hal_uart.c ****     __HAL_LOCK(huart);
 1495              		.loc 1 1311 5
 1496 004a FB68     		ldr	r3, [r7, #12]
 1497 004c 7422     		movs	r2, #116
ARM GAS  C:\Users\lidka\AppData\Local\Temp\ccqOATUZ.s 			page 50


 1498 004e 9B5C     		ldrb	r3, [r3, r2]
 1499 0050 012B     		cmp	r3, #1
 1500 0052 01D1     		bne	.L85
 1501              		.loc 1 1311 5 is_stmt 0 discriminator 1
 1502 0054 0223     		movs	r3, #2
 1503 0056 4BE0     		b	.L83
 1504              	.L85:
 1505              		.loc 1 1311 5 discriminator 2
 1506 0058 FB68     		ldr	r3, [r7, #12]
 1507 005a 7422     		movs	r2, #116
 1508 005c 0121     		movs	r1, #1
 1509 005e 9954     		strb	r1, [r3, r2]
1312:Drivers/STM32L0xx_HAL_Driver/Src/stm32l0xx_hal_uart.c **** 
1313:Drivers/STM32L0xx_HAL_Driver/Src/stm32l0xx_hal_uart.c ****     huart->pTxBuffPtr  = pData;
 1510              		.loc 1 1313 24 is_stmt 1 discriminator 2
 1511 0060 FB68     		ldr	r3, [r7, #12]
 1512 0062 BA68     		ldr	r2, [r7, #8]
 1513 0064 DA64     		str	r2, [r3, #76]
1314:Drivers/STM32L0xx_HAL_Driver/Src/stm32l0xx_hal_uart.c ****     huart->TxXferSize  = Size;
 1514              		.loc 1 1314 24 discriminator 2
 1515 0066 FB68     		ldr	r3, [r7, #12]
 1516 0068 BA1D     		adds	r2, r7, #6
 1517 006a 5021     		movs	r1, #80
 1518 006c 1288     		ldrh	r2, [r2]
 1519 006e 5A52     		strh	r2, [r3, r1]
1315:Drivers/STM32L0xx_HAL_Driver/Src/stm32l0xx_hal_uart.c ****     huart->TxXferCount = Size;
 1520              		.loc 1 1315 24 discriminator 2
 1521 0070 FB68     		ldr	r3, [r7, #12]
 1522 0072 BA1D     		adds	r2, r7, #6
 1523 0074 5221     		movs	r1, #82
 1524 0076 1288     		ldrh	r2, [r2]
 1525 0078 5A52     		strh	r2, [r3, r1]
1316:Drivers/STM32L0xx_HAL_Driver/Src/stm32l0xx_hal_uart.c ****     huart->TxISR       = NULL;
 1526              		.loc 1 1316 24 discriminator 2
 1527 007a FB68     		ldr	r3, [r7, #12]
 1528 007c 0022     		movs	r2, #0
 1529 007e 9A66     		str	r2, [r3, #104]
1317:Drivers/STM32L0xx_HAL_Driver/Src/stm32l0xx_hal_uart.c **** 
1318:Drivers/STM32L0xx_HAL_Driver/Src/stm32l0xx_hal_uart.c ****     huart->ErrorCode = HAL_UART_ERROR_NONE;
 1530              		.loc 1 1318 22 discriminator 2
 1531 0080 FB68     		ldr	r3, [r7, #12]
 1532 0082 8022     		movs	r2, #128
 1533 0084 0021     		movs	r1, #0
 1534 0086 9950     		str	r1, [r3, r2]
1319:Drivers/STM32L0xx_HAL_Driver/Src/stm32l0xx_hal_uart.c ****     huart->gState = HAL_UART_STATE_BUSY_TX;
 1535              		.loc 1 1319 19 discriminator 2
 1536 0088 FB68     		ldr	r3, [r7, #12]
 1537 008a 2122     		movs	r2, #33
 1538 008c 9A67     		str	r2, [r3, #120]
1320:Drivers/STM32L0xx_HAL_Driver/Src/stm32l0xx_hal_uart.c **** 
1321:Drivers/STM32L0xx_HAL_Driver/Src/stm32l0xx_hal_uart.c ****     /* Set the Tx ISR function pointer according to the data word length */
1322:Drivers/STM32L0xx_HAL_Driver/Src/stm32l0xx_hal_uart.c ****     if ((huart->Init.WordLength == UART_WORDLENGTH_9B) && (huart->Init.Parity == UART_PARITY_NONE))
 1539              		.loc 1 1322 21 discriminator 2
 1540 008e FB68     		ldr	r3, [r7, #12]
 1541 0090 9A68     		ldr	r2, [r3, #8]
 1542              		.loc 1 1322 8 discriminator 2
 1543 0092 8023     		movs	r3, #128
ARM GAS  C:\Users\lidka\AppData\Local\Temp\ccqOATUZ.s 			page 51


 1544 0094 5B01     		lsls	r3, r3, #5
 1545 0096 9A42     		cmp	r2, r3
 1546 0098 07D1     		bne	.L86
 1547              		.loc 1 1322 71 discriminator 1
 1548 009a FB68     		ldr	r3, [r7, #12]
 1549 009c 1B69     		ldr	r3, [r3, #16]
 1550              		.loc 1 1322 56 discriminator 1
 1551 009e 002B     		cmp	r3, #0
 1552 00a0 03D1     		bne	.L86
1323:Drivers/STM32L0xx_HAL_Driver/Src/stm32l0xx_hal_uart.c ****     {
1324:Drivers/STM32L0xx_HAL_Driver/Src/stm32l0xx_hal_uart.c ****       huart->TxISR = UART_TxISR_16BIT;
 1553              		.loc 1 1324 20
 1554 00a2 FB68     		ldr	r3, [r7, #12]
 1555 00a4 144A     		ldr	r2, .L89
 1556 00a6 9A66     		str	r2, [r3, #104]
 1557 00a8 02E0     		b	.L87
 1558              	.L86:
1325:Drivers/STM32L0xx_HAL_Driver/Src/stm32l0xx_hal_uart.c ****     }
1326:Drivers/STM32L0xx_HAL_Driver/Src/stm32l0xx_hal_uart.c ****     else
1327:Drivers/STM32L0xx_HAL_Driver/Src/stm32l0xx_hal_uart.c ****     {
1328:Drivers/STM32L0xx_HAL_Driver/Src/stm32l0xx_hal_uart.c ****       huart->TxISR = UART_TxISR_8BIT;
 1559              		.loc 1 1328 20
 1560 00aa FB68     		ldr	r3, [r7, #12]
 1561 00ac 134A     		ldr	r2, .L89+4
 1562 00ae 9A66     		str	r2, [r3, #104]
 1563              	.L87:
1329:Drivers/STM32L0xx_HAL_Driver/Src/stm32l0xx_hal_uart.c ****     }
1330:Drivers/STM32L0xx_HAL_Driver/Src/stm32l0xx_hal_uart.c **** 
1331:Drivers/STM32L0xx_HAL_Driver/Src/stm32l0xx_hal_uart.c ****     __HAL_UNLOCK(huart);
 1564              		.loc 1 1331 5
 1565 00b0 FB68     		ldr	r3, [r7, #12]
 1566 00b2 7422     		movs	r2, #116
 1567 00b4 0021     		movs	r1, #0
 1568 00b6 9954     		strb	r1, [r3, r2]
 1569              	.LBB564:
 1570              	.LBB565:
 1571              	.LBB566:
 1572              		.file 2 "Drivers/CMSIS/Include/cmsis_gcc.h"
   1:Drivers/CMSIS/Include/cmsis_gcc.h **** /**************************************************************************//**
   2:Drivers/CMSIS/Include/cmsis_gcc.h ****  * @file     cmsis_gcc.h
   3:Drivers/CMSIS/Include/cmsis_gcc.h ****  * @brief    CMSIS compiler GCC header file
   4:Drivers/CMSIS/Include/cmsis_gcc.h ****  * @version  V5.0.4
   5:Drivers/CMSIS/Include/cmsis_gcc.h ****  * @date     09. April 2018
   6:Drivers/CMSIS/Include/cmsis_gcc.h ****  ******************************************************************************/
   7:Drivers/CMSIS/Include/cmsis_gcc.h **** /*
   8:Drivers/CMSIS/Include/cmsis_gcc.h ****  * Copyright (c) 2009-2018 Arm Limited. All rights reserved.
   9:Drivers/CMSIS/Include/cmsis_gcc.h ****  *
  10:Drivers/CMSIS/Include/cmsis_gcc.h ****  * SPDX-License-Identifier: Apache-2.0
  11:Drivers/CMSIS/Include/cmsis_gcc.h ****  *
  12:Drivers/CMSIS/Include/cmsis_gcc.h ****  * Licensed under the Apache License, Version 2.0 (the License); you may
  13:Drivers/CMSIS/Include/cmsis_gcc.h ****  * not use this file except in compliance with the License.
  14:Drivers/CMSIS/Include/cmsis_gcc.h ****  * You may obtain a copy of the License at
  15:Drivers/CMSIS/Include/cmsis_gcc.h ****  *
  16:Drivers/CMSIS/Include/cmsis_gcc.h ****  * www.apache.org/licenses/LICENSE-2.0
  17:Drivers/CMSIS/Include/cmsis_gcc.h ****  *
  18:Drivers/CMSIS/Include/cmsis_gcc.h ****  * Unless required by applicable law or agreed to in writing, software
  19:Drivers/CMSIS/Include/cmsis_gcc.h ****  * distributed under the License is distributed on an AS IS BASIS, WITHOUT
ARM GAS  C:\Users\lidka\AppData\Local\Temp\ccqOATUZ.s 			page 52


  20:Drivers/CMSIS/Include/cmsis_gcc.h ****  * WARRANTIES OR CONDITIONS OF ANY KIND, either express or implied.
  21:Drivers/CMSIS/Include/cmsis_gcc.h ****  * See the License for the specific language governing permissions and
  22:Drivers/CMSIS/Include/cmsis_gcc.h ****  * limitations under the License.
  23:Drivers/CMSIS/Include/cmsis_gcc.h ****  */
  24:Drivers/CMSIS/Include/cmsis_gcc.h **** 
  25:Drivers/CMSIS/Include/cmsis_gcc.h **** #ifndef __CMSIS_GCC_H
  26:Drivers/CMSIS/Include/cmsis_gcc.h **** #define __CMSIS_GCC_H
  27:Drivers/CMSIS/Include/cmsis_gcc.h **** 
  28:Drivers/CMSIS/Include/cmsis_gcc.h **** /* ignore some GCC warnings */
  29:Drivers/CMSIS/Include/cmsis_gcc.h **** #pragma GCC diagnostic push
  30:Drivers/CMSIS/Include/cmsis_gcc.h **** #pragma GCC diagnostic ignored "-Wsign-conversion"
  31:Drivers/CMSIS/Include/cmsis_gcc.h **** #pragma GCC diagnostic ignored "-Wconversion"
  32:Drivers/CMSIS/Include/cmsis_gcc.h **** #pragma GCC diagnostic ignored "-Wunused-parameter"
  33:Drivers/CMSIS/Include/cmsis_gcc.h **** 
  34:Drivers/CMSIS/Include/cmsis_gcc.h **** /* Fallback for __has_builtin */
  35:Drivers/CMSIS/Include/cmsis_gcc.h **** #ifndef __has_builtin
  36:Drivers/CMSIS/Include/cmsis_gcc.h ****   #define __has_builtin(x) (0)
  37:Drivers/CMSIS/Include/cmsis_gcc.h **** #endif
  38:Drivers/CMSIS/Include/cmsis_gcc.h **** 
  39:Drivers/CMSIS/Include/cmsis_gcc.h **** /* CMSIS compiler specific defines */
  40:Drivers/CMSIS/Include/cmsis_gcc.h **** #ifndef   __ASM
  41:Drivers/CMSIS/Include/cmsis_gcc.h ****   #define __ASM                                  __asm
  42:Drivers/CMSIS/Include/cmsis_gcc.h **** #endif
  43:Drivers/CMSIS/Include/cmsis_gcc.h **** #ifndef   __INLINE
  44:Drivers/CMSIS/Include/cmsis_gcc.h ****   #define __INLINE                               inline
  45:Drivers/CMSIS/Include/cmsis_gcc.h **** #endif
  46:Drivers/CMSIS/Include/cmsis_gcc.h **** #ifndef   __STATIC_INLINE
  47:Drivers/CMSIS/Include/cmsis_gcc.h ****   #define __STATIC_INLINE                        static inline
  48:Drivers/CMSIS/Include/cmsis_gcc.h **** #endif
  49:Drivers/CMSIS/Include/cmsis_gcc.h **** #ifndef   __STATIC_FORCEINLINE                 
  50:Drivers/CMSIS/Include/cmsis_gcc.h ****   #define __STATIC_FORCEINLINE                   __attribute__((always_inline)) static inline
  51:Drivers/CMSIS/Include/cmsis_gcc.h **** #endif                                           
  52:Drivers/CMSIS/Include/cmsis_gcc.h **** #ifndef   __NO_RETURN
  53:Drivers/CMSIS/Include/cmsis_gcc.h ****   #define __NO_RETURN                            __attribute__((__noreturn__))
  54:Drivers/CMSIS/Include/cmsis_gcc.h **** #endif
  55:Drivers/CMSIS/Include/cmsis_gcc.h **** #ifndef   __USED
  56:Drivers/CMSIS/Include/cmsis_gcc.h ****   #define __USED                                 __attribute__((used))
  57:Drivers/CMSIS/Include/cmsis_gcc.h **** #endif
  58:Drivers/CMSIS/Include/cmsis_gcc.h **** #ifndef   __WEAK
  59:Drivers/CMSIS/Include/cmsis_gcc.h ****   #define __WEAK                                 __attribute__((weak))
  60:Drivers/CMSIS/Include/cmsis_gcc.h **** #endif
  61:Drivers/CMSIS/Include/cmsis_gcc.h **** #ifndef   __PACKED
  62:Drivers/CMSIS/Include/cmsis_gcc.h ****   #define __PACKED                               __attribute__((packed, aligned(1)))
  63:Drivers/CMSIS/Include/cmsis_gcc.h **** #endif
  64:Drivers/CMSIS/Include/cmsis_gcc.h **** #ifndef   __PACKED_STRUCT
  65:Drivers/CMSIS/Include/cmsis_gcc.h ****   #define __PACKED_STRUCT                        struct __attribute__((packed, aligned(1)))
  66:Drivers/CMSIS/Include/cmsis_gcc.h **** #endif
  67:Drivers/CMSIS/Include/cmsis_gcc.h **** #ifndef   __PACKED_UNION
  68:Drivers/CMSIS/Include/cmsis_gcc.h ****   #define __PACKED_UNION                         union __attribute__((packed, aligned(1)))
  69:Drivers/CMSIS/Include/cmsis_gcc.h **** #endif
  70:Drivers/CMSIS/Include/cmsis_gcc.h **** #ifndef   __UNALIGNED_UINT32        /* deprecated */
  71:Drivers/CMSIS/Include/cmsis_gcc.h ****   #pragma GCC diagnostic push
  72:Drivers/CMSIS/Include/cmsis_gcc.h ****   #pragma GCC diagnostic ignored "-Wpacked"
  73:Drivers/CMSIS/Include/cmsis_gcc.h ****   #pragma GCC diagnostic ignored "-Wattributes"
  74:Drivers/CMSIS/Include/cmsis_gcc.h ****   struct __attribute__((packed)) T_UINT32 { uint32_t v; };
  75:Drivers/CMSIS/Include/cmsis_gcc.h ****   #pragma GCC diagnostic pop
  76:Drivers/CMSIS/Include/cmsis_gcc.h ****   #define __UNALIGNED_UINT32(x)                  (((struct T_UINT32 *)(x))->v)
ARM GAS  C:\Users\lidka\AppData\Local\Temp\ccqOATUZ.s 			page 53


  77:Drivers/CMSIS/Include/cmsis_gcc.h **** #endif
  78:Drivers/CMSIS/Include/cmsis_gcc.h **** #ifndef   __UNALIGNED_UINT16_WRITE
  79:Drivers/CMSIS/Include/cmsis_gcc.h ****   #pragma GCC diagnostic push
  80:Drivers/CMSIS/Include/cmsis_gcc.h ****   #pragma GCC diagnostic ignored "-Wpacked"
  81:Drivers/CMSIS/Include/cmsis_gcc.h ****   #pragma GCC diagnostic ignored "-Wattributes"
  82:Drivers/CMSIS/Include/cmsis_gcc.h ****   __PACKED_STRUCT T_UINT16_WRITE { uint16_t v; };
  83:Drivers/CMSIS/Include/cmsis_gcc.h ****   #pragma GCC diagnostic pop
  84:Drivers/CMSIS/Include/cmsis_gcc.h ****   #define __UNALIGNED_UINT16_WRITE(addr, val)    (void)((((struct T_UINT16_WRITE *)(void *)(addr))-
  85:Drivers/CMSIS/Include/cmsis_gcc.h **** #endif
  86:Drivers/CMSIS/Include/cmsis_gcc.h **** #ifndef   __UNALIGNED_UINT16_READ
  87:Drivers/CMSIS/Include/cmsis_gcc.h ****   #pragma GCC diagnostic push
  88:Drivers/CMSIS/Include/cmsis_gcc.h ****   #pragma GCC diagnostic ignored "-Wpacked"
  89:Drivers/CMSIS/Include/cmsis_gcc.h ****   #pragma GCC diagnostic ignored "-Wattributes"
  90:Drivers/CMSIS/Include/cmsis_gcc.h ****   __PACKED_STRUCT T_UINT16_READ { uint16_t v; };
  91:Drivers/CMSIS/Include/cmsis_gcc.h ****   #pragma GCC diagnostic pop
  92:Drivers/CMSIS/Include/cmsis_gcc.h ****   #define __UNALIGNED_UINT16_READ(addr)          (((const struct T_UINT16_READ *)(const void *)(add
  93:Drivers/CMSIS/Include/cmsis_gcc.h **** #endif
  94:Drivers/CMSIS/Include/cmsis_gcc.h **** #ifndef   __UNALIGNED_UINT32_WRITE
  95:Drivers/CMSIS/Include/cmsis_gcc.h ****   #pragma GCC diagnostic push
  96:Drivers/CMSIS/Include/cmsis_gcc.h ****   #pragma GCC diagnostic ignored "-Wpacked"
  97:Drivers/CMSIS/Include/cmsis_gcc.h ****   #pragma GCC diagnostic ignored "-Wattributes"
  98:Drivers/CMSIS/Include/cmsis_gcc.h ****   __PACKED_STRUCT T_UINT32_WRITE { uint32_t v; };
  99:Drivers/CMSIS/Include/cmsis_gcc.h ****   #pragma GCC diagnostic pop
 100:Drivers/CMSIS/Include/cmsis_gcc.h ****   #define __UNALIGNED_UINT32_WRITE(addr, val)    (void)((((struct T_UINT32_WRITE *)(void *)(addr))-
 101:Drivers/CMSIS/Include/cmsis_gcc.h **** #endif
 102:Drivers/CMSIS/Include/cmsis_gcc.h **** #ifndef   __UNALIGNED_UINT32_READ
 103:Drivers/CMSIS/Include/cmsis_gcc.h ****   #pragma GCC diagnostic push
 104:Drivers/CMSIS/Include/cmsis_gcc.h ****   #pragma GCC diagnostic ignored "-Wpacked"
 105:Drivers/CMSIS/Include/cmsis_gcc.h ****   #pragma GCC diagnostic ignored "-Wattributes"
 106:Drivers/CMSIS/Include/cmsis_gcc.h ****   __PACKED_STRUCT T_UINT32_READ { uint32_t v; };
 107:Drivers/CMSIS/Include/cmsis_gcc.h ****   #pragma GCC diagnostic pop
 108:Drivers/CMSIS/Include/cmsis_gcc.h ****   #define __UNALIGNED_UINT32_READ(addr)          (((const struct T_UINT32_READ *)(const void *)(add
 109:Drivers/CMSIS/Include/cmsis_gcc.h **** #endif
 110:Drivers/CMSIS/Include/cmsis_gcc.h **** #ifndef   __ALIGNED
 111:Drivers/CMSIS/Include/cmsis_gcc.h ****   #define __ALIGNED(x)                           __attribute__((aligned(x)))
 112:Drivers/CMSIS/Include/cmsis_gcc.h **** #endif
 113:Drivers/CMSIS/Include/cmsis_gcc.h **** #ifndef   __RESTRICT
 114:Drivers/CMSIS/Include/cmsis_gcc.h ****   #define __RESTRICT                             __restrict
 115:Drivers/CMSIS/Include/cmsis_gcc.h **** #endif
 116:Drivers/CMSIS/Include/cmsis_gcc.h **** 
 117:Drivers/CMSIS/Include/cmsis_gcc.h **** 
 118:Drivers/CMSIS/Include/cmsis_gcc.h **** /* ###########################  Core Function Access  ########################### */
 119:Drivers/CMSIS/Include/cmsis_gcc.h **** /** \ingroup  CMSIS_Core_FunctionInterface
 120:Drivers/CMSIS/Include/cmsis_gcc.h ****     \defgroup CMSIS_Core_RegAccFunctions CMSIS Core Register Access Functions
 121:Drivers/CMSIS/Include/cmsis_gcc.h ****   @{
 122:Drivers/CMSIS/Include/cmsis_gcc.h ****  */
 123:Drivers/CMSIS/Include/cmsis_gcc.h **** 
 124:Drivers/CMSIS/Include/cmsis_gcc.h **** /**
 125:Drivers/CMSIS/Include/cmsis_gcc.h ****   \brief   Enable IRQ Interrupts
 126:Drivers/CMSIS/Include/cmsis_gcc.h ****   \details Enables IRQ interrupts by clearing the I-bit in the CPSR.
 127:Drivers/CMSIS/Include/cmsis_gcc.h ****            Can only be executed in Privileged modes.
 128:Drivers/CMSIS/Include/cmsis_gcc.h ****  */
 129:Drivers/CMSIS/Include/cmsis_gcc.h **** __STATIC_FORCEINLINE void __enable_irq(void)
 130:Drivers/CMSIS/Include/cmsis_gcc.h **** {
 131:Drivers/CMSIS/Include/cmsis_gcc.h ****   __ASM volatile ("cpsie i" : : : "memory");
 132:Drivers/CMSIS/Include/cmsis_gcc.h **** }
 133:Drivers/CMSIS/Include/cmsis_gcc.h **** 
ARM GAS  C:\Users\lidka\AppData\Local\Temp\ccqOATUZ.s 			page 54


 134:Drivers/CMSIS/Include/cmsis_gcc.h **** 
 135:Drivers/CMSIS/Include/cmsis_gcc.h **** /**
 136:Drivers/CMSIS/Include/cmsis_gcc.h ****   \brief   Disable IRQ Interrupts
 137:Drivers/CMSIS/Include/cmsis_gcc.h ****   \details Disables IRQ interrupts by setting the I-bit in the CPSR.
 138:Drivers/CMSIS/Include/cmsis_gcc.h ****            Can only be executed in Privileged modes.
 139:Drivers/CMSIS/Include/cmsis_gcc.h ****  */
 140:Drivers/CMSIS/Include/cmsis_gcc.h **** __STATIC_FORCEINLINE void __disable_irq(void)
 141:Drivers/CMSIS/Include/cmsis_gcc.h **** {
 142:Drivers/CMSIS/Include/cmsis_gcc.h ****   __ASM volatile ("cpsid i" : : : "memory");
 143:Drivers/CMSIS/Include/cmsis_gcc.h **** }
 144:Drivers/CMSIS/Include/cmsis_gcc.h **** 
 145:Drivers/CMSIS/Include/cmsis_gcc.h **** 
 146:Drivers/CMSIS/Include/cmsis_gcc.h **** /**
 147:Drivers/CMSIS/Include/cmsis_gcc.h ****   \brief   Get Control Register
 148:Drivers/CMSIS/Include/cmsis_gcc.h ****   \details Returns the content of the Control Register.
 149:Drivers/CMSIS/Include/cmsis_gcc.h ****   \return               Control Register value
 150:Drivers/CMSIS/Include/cmsis_gcc.h ****  */
 151:Drivers/CMSIS/Include/cmsis_gcc.h **** __STATIC_FORCEINLINE uint32_t __get_CONTROL(void)
 152:Drivers/CMSIS/Include/cmsis_gcc.h **** {
 153:Drivers/CMSIS/Include/cmsis_gcc.h ****   uint32_t result;
 154:Drivers/CMSIS/Include/cmsis_gcc.h **** 
 155:Drivers/CMSIS/Include/cmsis_gcc.h ****   __ASM volatile ("MRS %0, control" : "=r" (result) );
 156:Drivers/CMSIS/Include/cmsis_gcc.h ****   return(result);
 157:Drivers/CMSIS/Include/cmsis_gcc.h **** }
 158:Drivers/CMSIS/Include/cmsis_gcc.h **** 
 159:Drivers/CMSIS/Include/cmsis_gcc.h **** 
 160:Drivers/CMSIS/Include/cmsis_gcc.h **** #if (defined (__ARM_FEATURE_CMSE ) && (__ARM_FEATURE_CMSE == 3))
 161:Drivers/CMSIS/Include/cmsis_gcc.h **** /**
 162:Drivers/CMSIS/Include/cmsis_gcc.h ****   \brief   Get Control Register (non-secure)
 163:Drivers/CMSIS/Include/cmsis_gcc.h ****   \details Returns the content of the non-secure Control Register when in secure mode.
 164:Drivers/CMSIS/Include/cmsis_gcc.h ****   \return               non-secure Control Register value
 165:Drivers/CMSIS/Include/cmsis_gcc.h ****  */
 166:Drivers/CMSIS/Include/cmsis_gcc.h **** __STATIC_FORCEINLINE uint32_t __TZ_get_CONTROL_NS(void)
 167:Drivers/CMSIS/Include/cmsis_gcc.h **** {
 168:Drivers/CMSIS/Include/cmsis_gcc.h ****   uint32_t result;
 169:Drivers/CMSIS/Include/cmsis_gcc.h **** 
 170:Drivers/CMSIS/Include/cmsis_gcc.h ****   __ASM volatile ("MRS %0, control_ns" : "=r" (result) );
 171:Drivers/CMSIS/Include/cmsis_gcc.h ****   return(result);
 172:Drivers/CMSIS/Include/cmsis_gcc.h **** }
 173:Drivers/CMSIS/Include/cmsis_gcc.h **** #endif
 174:Drivers/CMSIS/Include/cmsis_gcc.h **** 
 175:Drivers/CMSIS/Include/cmsis_gcc.h **** 
 176:Drivers/CMSIS/Include/cmsis_gcc.h **** /**
 177:Drivers/CMSIS/Include/cmsis_gcc.h ****   \brief   Set Control Register
 178:Drivers/CMSIS/Include/cmsis_gcc.h ****   \details Writes the given value to the Control Register.
 179:Drivers/CMSIS/Include/cmsis_gcc.h ****   \param [in]    control  Control Register value to set
 180:Drivers/CMSIS/Include/cmsis_gcc.h ****  */
 181:Drivers/CMSIS/Include/cmsis_gcc.h **** __STATIC_FORCEINLINE void __set_CONTROL(uint32_t control)
 182:Drivers/CMSIS/Include/cmsis_gcc.h **** {
 183:Drivers/CMSIS/Include/cmsis_gcc.h ****   __ASM volatile ("MSR control, %0" : : "r" (control) : "memory");
 184:Drivers/CMSIS/Include/cmsis_gcc.h **** }
 185:Drivers/CMSIS/Include/cmsis_gcc.h **** 
 186:Drivers/CMSIS/Include/cmsis_gcc.h **** 
 187:Drivers/CMSIS/Include/cmsis_gcc.h **** #if (defined (__ARM_FEATURE_CMSE ) && (__ARM_FEATURE_CMSE == 3))
 188:Drivers/CMSIS/Include/cmsis_gcc.h **** /**
 189:Drivers/CMSIS/Include/cmsis_gcc.h ****   \brief   Set Control Register (non-secure)
 190:Drivers/CMSIS/Include/cmsis_gcc.h ****   \details Writes the given value to the non-secure Control Register when in secure state.
ARM GAS  C:\Users\lidka\AppData\Local\Temp\ccqOATUZ.s 			page 55


 191:Drivers/CMSIS/Include/cmsis_gcc.h ****   \param [in]    control  Control Register value to set
 192:Drivers/CMSIS/Include/cmsis_gcc.h ****  */
 193:Drivers/CMSIS/Include/cmsis_gcc.h **** __STATIC_FORCEINLINE void __TZ_set_CONTROL_NS(uint32_t control)
 194:Drivers/CMSIS/Include/cmsis_gcc.h **** {
 195:Drivers/CMSIS/Include/cmsis_gcc.h ****   __ASM volatile ("MSR control_ns, %0" : : "r" (control) : "memory");
 196:Drivers/CMSIS/Include/cmsis_gcc.h **** }
 197:Drivers/CMSIS/Include/cmsis_gcc.h **** #endif
 198:Drivers/CMSIS/Include/cmsis_gcc.h **** 
 199:Drivers/CMSIS/Include/cmsis_gcc.h **** 
 200:Drivers/CMSIS/Include/cmsis_gcc.h **** /**
 201:Drivers/CMSIS/Include/cmsis_gcc.h ****   \brief   Get IPSR Register
 202:Drivers/CMSIS/Include/cmsis_gcc.h ****   \details Returns the content of the IPSR Register.
 203:Drivers/CMSIS/Include/cmsis_gcc.h ****   \return               IPSR Register value
 204:Drivers/CMSIS/Include/cmsis_gcc.h ****  */
 205:Drivers/CMSIS/Include/cmsis_gcc.h **** __STATIC_FORCEINLINE uint32_t __get_IPSR(void)
 206:Drivers/CMSIS/Include/cmsis_gcc.h **** {
 207:Drivers/CMSIS/Include/cmsis_gcc.h ****   uint32_t result;
 208:Drivers/CMSIS/Include/cmsis_gcc.h **** 
 209:Drivers/CMSIS/Include/cmsis_gcc.h ****   __ASM volatile ("MRS %0, ipsr" : "=r" (result) );
 210:Drivers/CMSIS/Include/cmsis_gcc.h ****   return(result);
 211:Drivers/CMSIS/Include/cmsis_gcc.h **** }
 212:Drivers/CMSIS/Include/cmsis_gcc.h **** 
 213:Drivers/CMSIS/Include/cmsis_gcc.h **** 
 214:Drivers/CMSIS/Include/cmsis_gcc.h **** /**
 215:Drivers/CMSIS/Include/cmsis_gcc.h ****   \brief   Get APSR Register
 216:Drivers/CMSIS/Include/cmsis_gcc.h ****   \details Returns the content of the APSR Register.
 217:Drivers/CMSIS/Include/cmsis_gcc.h ****   \return               APSR Register value
 218:Drivers/CMSIS/Include/cmsis_gcc.h ****  */
 219:Drivers/CMSIS/Include/cmsis_gcc.h **** __STATIC_FORCEINLINE uint32_t __get_APSR(void)
 220:Drivers/CMSIS/Include/cmsis_gcc.h **** {
 221:Drivers/CMSIS/Include/cmsis_gcc.h ****   uint32_t result;
 222:Drivers/CMSIS/Include/cmsis_gcc.h **** 
 223:Drivers/CMSIS/Include/cmsis_gcc.h ****   __ASM volatile ("MRS %0, apsr" : "=r" (result) );
 224:Drivers/CMSIS/Include/cmsis_gcc.h ****   return(result);
 225:Drivers/CMSIS/Include/cmsis_gcc.h **** }
 226:Drivers/CMSIS/Include/cmsis_gcc.h **** 
 227:Drivers/CMSIS/Include/cmsis_gcc.h **** 
 228:Drivers/CMSIS/Include/cmsis_gcc.h **** /**
 229:Drivers/CMSIS/Include/cmsis_gcc.h ****   \brief   Get xPSR Register
 230:Drivers/CMSIS/Include/cmsis_gcc.h ****   \details Returns the content of the xPSR Register.
 231:Drivers/CMSIS/Include/cmsis_gcc.h ****   \return               xPSR Register value
 232:Drivers/CMSIS/Include/cmsis_gcc.h ****  */
 233:Drivers/CMSIS/Include/cmsis_gcc.h **** __STATIC_FORCEINLINE uint32_t __get_xPSR(void)
 234:Drivers/CMSIS/Include/cmsis_gcc.h **** {
 235:Drivers/CMSIS/Include/cmsis_gcc.h ****   uint32_t result;
 236:Drivers/CMSIS/Include/cmsis_gcc.h **** 
 237:Drivers/CMSIS/Include/cmsis_gcc.h ****   __ASM volatile ("MRS %0, xpsr" : "=r" (result) );
 238:Drivers/CMSIS/Include/cmsis_gcc.h ****   return(result);
 239:Drivers/CMSIS/Include/cmsis_gcc.h **** }
 240:Drivers/CMSIS/Include/cmsis_gcc.h **** 
 241:Drivers/CMSIS/Include/cmsis_gcc.h **** 
 242:Drivers/CMSIS/Include/cmsis_gcc.h **** /**
 243:Drivers/CMSIS/Include/cmsis_gcc.h ****   \brief   Get Process Stack Pointer
 244:Drivers/CMSIS/Include/cmsis_gcc.h ****   \details Returns the current value of the Process Stack Pointer (PSP).
 245:Drivers/CMSIS/Include/cmsis_gcc.h ****   \return               PSP Register value
 246:Drivers/CMSIS/Include/cmsis_gcc.h ****  */
 247:Drivers/CMSIS/Include/cmsis_gcc.h **** __STATIC_FORCEINLINE uint32_t __get_PSP(void)
ARM GAS  C:\Users\lidka\AppData\Local\Temp\ccqOATUZ.s 			page 56


 248:Drivers/CMSIS/Include/cmsis_gcc.h **** {
 249:Drivers/CMSIS/Include/cmsis_gcc.h ****   uint32_t result;
 250:Drivers/CMSIS/Include/cmsis_gcc.h **** 
 251:Drivers/CMSIS/Include/cmsis_gcc.h ****   __ASM volatile ("MRS %0, psp"  : "=r" (result) );
 252:Drivers/CMSIS/Include/cmsis_gcc.h ****   return(result);
 253:Drivers/CMSIS/Include/cmsis_gcc.h **** }
 254:Drivers/CMSIS/Include/cmsis_gcc.h **** 
 255:Drivers/CMSIS/Include/cmsis_gcc.h **** 
 256:Drivers/CMSIS/Include/cmsis_gcc.h **** #if (defined (__ARM_FEATURE_CMSE ) && (__ARM_FEATURE_CMSE == 3))
 257:Drivers/CMSIS/Include/cmsis_gcc.h **** /**
 258:Drivers/CMSIS/Include/cmsis_gcc.h ****   \brief   Get Process Stack Pointer (non-secure)
 259:Drivers/CMSIS/Include/cmsis_gcc.h ****   \details Returns the current value of the non-secure Process Stack Pointer (PSP) when in secure s
 260:Drivers/CMSIS/Include/cmsis_gcc.h ****   \return               PSP Register value
 261:Drivers/CMSIS/Include/cmsis_gcc.h ****  */
 262:Drivers/CMSIS/Include/cmsis_gcc.h **** __STATIC_FORCEINLINE uint32_t __TZ_get_PSP_NS(void)
 263:Drivers/CMSIS/Include/cmsis_gcc.h **** {
 264:Drivers/CMSIS/Include/cmsis_gcc.h ****   uint32_t result;
 265:Drivers/CMSIS/Include/cmsis_gcc.h **** 
 266:Drivers/CMSIS/Include/cmsis_gcc.h ****   __ASM volatile ("MRS %0, psp_ns"  : "=r" (result) );
 267:Drivers/CMSIS/Include/cmsis_gcc.h ****   return(result);
 268:Drivers/CMSIS/Include/cmsis_gcc.h **** }
 269:Drivers/CMSIS/Include/cmsis_gcc.h **** #endif
 270:Drivers/CMSIS/Include/cmsis_gcc.h **** 
 271:Drivers/CMSIS/Include/cmsis_gcc.h **** 
 272:Drivers/CMSIS/Include/cmsis_gcc.h **** /**
 273:Drivers/CMSIS/Include/cmsis_gcc.h ****   \brief   Set Process Stack Pointer
 274:Drivers/CMSIS/Include/cmsis_gcc.h ****   \details Assigns the given value to the Process Stack Pointer (PSP).
 275:Drivers/CMSIS/Include/cmsis_gcc.h ****   \param [in]    topOfProcStack  Process Stack Pointer value to set
 276:Drivers/CMSIS/Include/cmsis_gcc.h ****  */
 277:Drivers/CMSIS/Include/cmsis_gcc.h **** __STATIC_FORCEINLINE void __set_PSP(uint32_t topOfProcStack)
 278:Drivers/CMSIS/Include/cmsis_gcc.h **** {
 279:Drivers/CMSIS/Include/cmsis_gcc.h ****   __ASM volatile ("MSR psp, %0" : : "r" (topOfProcStack) : );
 280:Drivers/CMSIS/Include/cmsis_gcc.h **** }
 281:Drivers/CMSIS/Include/cmsis_gcc.h **** 
 282:Drivers/CMSIS/Include/cmsis_gcc.h **** 
 283:Drivers/CMSIS/Include/cmsis_gcc.h **** #if (defined (__ARM_FEATURE_CMSE ) && (__ARM_FEATURE_CMSE == 3))
 284:Drivers/CMSIS/Include/cmsis_gcc.h **** /**
 285:Drivers/CMSIS/Include/cmsis_gcc.h ****   \brief   Set Process Stack Pointer (non-secure)
 286:Drivers/CMSIS/Include/cmsis_gcc.h ****   \details Assigns the given value to the non-secure Process Stack Pointer (PSP) when in secure sta
 287:Drivers/CMSIS/Include/cmsis_gcc.h ****   \param [in]    topOfProcStack  Process Stack Pointer value to set
 288:Drivers/CMSIS/Include/cmsis_gcc.h ****  */
 289:Drivers/CMSIS/Include/cmsis_gcc.h **** __STATIC_FORCEINLINE void __TZ_set_PSP_NS(uint32_t topOfProcStack)
 290:Drivers/CMSIS/Include/cmsis_gcc.h **** {
 291:Drivers/CMSIS/Include/cmsis_gcc.h ****   __ASM volatile ("MSR psp_ns, %0" : : "r" (topOfProcStack) : );
 292:Drivers/CMSIS/Include/cmsis_gcc.h **** }
 293:Drivers/CMSIS/Include/cmsis_gcc.h **** #endif
 294:Drivers/CMSIS/Include/cmsis_gcc.h **** 
 295:Drivers/CMSIS/Include/cmsis_gcc.h **** 
 296:Drivers/CMSIS/Include/cmsis_gcc.h **** /**
 297:Drivers/CMSIS/Include/cmsis_gcc.h ****   \brief   Get Main Stack Pointer
 298:Drivers/CMSIS/Include/cmsis_gcc.h ****   \details Returns the current value of the Main Stack Pointer (MSP).
 299:Drivers/CMSIS/Include/cmsis_gcc.h ****   \return               MSP Register value
 300:Drivers/CMSIS/Include/cmsis_gcc.h ****  */
 301:Drivers/CMSIS/Include/cmsis_gcc.h **** __STATIC_FORCEINLINE uint32_t __get_MSP(void)
 302:Drivers/CMSIS/Include/cmsis_gcc.h **** {
 303:Drivers/CMSIS/Include/cmsis_gcc.h ****   uint32_t result;
 304:Drivers/CMSIS/Include/cmsis_gcc.h **** 
ARM GAS  C:\Users\lidka\AppData\Local\Temp\ccqOATUZ.s 			page 57


 305:Drivers/CMSIS/Include/cmsis_gcc.h ****   __ASM volatile ("MRS %0, msp" : "=r" (result) );
 306:Drivers/CMSIS/Include/cmsis_gcc.h ****   return(result);
 307:Drivers/CMSIS/Include/cmsis_gcc.h **** }
 308:Drivers/CMSIS/Include/cmsis_gcc.h **** 
 309:Drivers/CMSIS/Include/cmsis_gcc.h **** 
 310:Drivers/CMSIS/Include/cmsis_gcc.h **** #if (defined (__ARM_FEATURE_CMSE ) && (__ARM_FEATURE_CMSE == 3))
 311:Drivers/CMSIS/Include/cmsis_gcc.h **** /**
 312:Drivers/CMSIS/Include/cmsis_gcc.h ****   \brief   Get Main Stack Pointer (non-secure)
 313:Drivers/CMSIS/Include/cmsis_gcc.h ****   \details Returns the current value of the non-secure Main Stack Pointer (MSP) when in secure stat
 314:Drivers/CMSIS/Include/cmsis_gcc.h ****   \return               MSP Register value
 315:Drivers/CMSIS/Include/cmsis_gcc.h ****  */
 316:Drivers/CMSIS/Include/cmsis_gcc.h **** __STATIC_FORCEINLINE uint32_t __TZ_get_MSP_NS(void)
 317:Drivers/CMSIS/Include/cmsis_gcc.h **** {
 318:Drivers/CMSIS/Include/cmsis_gcc.h ****   uint32_t result;
 319:Drivers/CMSIS/Include/cmsis_gcc.h **** 
 320:Drivers/CMSIS/Include/cmsis_gcc.h ****   __ASM volatile ("MRS %0, msp_ns" : "=r" (result) );
 321:Drivers/CMSIS/Include/cmsis_gcc.h ****   return(result);
 322:Drivers/CMSIS/Include/cmsis_gcc.h **** }
 323:Drivers/CMSIS/Include/cmsis_gcc.h **** #endif
 324:Drivers/CMSIS/Include/cmsis_gcc.h **** 
 325:Drivers/CMSIS/Include/cmsis_gcc.h **** 
 326:Drivers/CMSIS/Include/cmsis_gcc.h **** /**
 327:Drivers/CMSIS/Include/cmsis_gcc.h ****   \brief   Set Main Stack Pointer
 328:Drivers/CMSIS/Include/cmsis_gcc.h ****   \details Assigns the given value to the Main Stack Pointer (MSP).
 329:Drivers/CMSIS/Include/cmsis_gcc.h ****   \param [in]    topOfMainStack  Main Stack Pointer value to set
 330:Drivers/CMSIS/Include/cmsis_gcc.h ****  */
 331:Drivers/CMSIS/Include/cmsis_gcc.h **** __STATIC_FORCEINLINE void __set_MSP(uint32_t topOfMainStack)
 332:Drivers/CMSIS/Include/cmsis_gcc.h **** {
 333:Drivers/CMSIS/Include/cmsis_gcc.h ****   __ASM volatile ("MSR msp, %0" : : "r" (topOfMainStack) : );
 334:Drivers/CMSIS/Include/cmsis_gcc.h **** }
 335:Drivers/CMSIS/Include/cmsis_gcc.h **** 
 336:Drivers/CMSIS/Include/cmsis_gcc.h **** 
 337:Drivers/CMSIS/Include/cmsis_gcc.h **** #if (defined (__ARM_FEATURE_CMSE ) && (__ARM_FEATURE_CMSE == 3))
 338:Drivers/CMSIS/Include/cmsis_gcc.h **** /**
 339:Drivers/CMSIS/Include/cmsis_gcc.h ****   \brief   Set Main Stack Pointer (non-secure)
 340:Drivers/CMSIS/Include/cmsis_gcc.h ****   \details Assigns the given value to the non-secure Main Stack Pointer (MSP) when in secure state.
 341:Drivers/CMSIS/Include/cmsis_gcc.h ****   \param [in]    topOfMainStack  Main Stack Pointer value to set
 342:Drivers/CMSIS/Include/cmsis_gcc.h ****  */
 343:Drivers/CMSIS/Include/cmsis_gcc.h **** __STATIC_FORCEINLINE void __TZ_set_MSP_NS(uint32_t topOfMainStack)
 344:Drivers/CMSIS/Include/cmsis_gcc.h **** {
 345:Drivers/CMSIS/Include/cmsis_gcc.h ****   __ASM volatile ("MSR msp_ns, %0" : : "r" (topOfMainStack) : );
 346:Drivers/CMSIS/Include/cmsis_gcc.h **** }
 347:Drivers/CMSIS/Include/cmsis_gcc.h **** #endif
 348:Drivers/CMSIS/Include/cmsis_gcc.h **** 
 349:Drivers/CMSIS/Include/cmsis_gcc.h **** 
 350:Drivers/CMSIS/Include/cmsis_gcc.h **** #if (defined (__ARM_FEATURE_CMSE ) && (__ARM_FEATURE_CMSE == 3))
 351:Drivers/CMSIS/Include/cmsis_gcc.h **** /**
 352:Drivers/CMSIS/Include/cmsis_gcc.h ****   \brief   Get Stack Pointer (non-secure)
 353:Drivers/CMSIS/Include/cmsis_gcc.h ****   \details Returns the current value of the non-secure Stack Pointer (SP) when in secure state.
 354:Drivers/CMSIS/Include/cmsis_gcc.h ****   \return               SP Register value
 355:Drivers/CMSIS/Include/cmsis_gcc.h ****  */
 356:Drivers/CMSIS/Include/cmsis_gcc.h **** __STATIC_FORCEINLINE uint32_t __TZ_get_SP_NS(void)
 357:Drivers/CMSIS/Include/cmsis_gcc.h **** {
 358:Drivers/CMSIS/Include/cmsis_gcc.h ****   uint32_t result;
 359:Drivers/CMSIS/Include/cmsis_gcc.h **** 
 360:Drivers/CMSIS/Include/cmsis_gcc.h ****   __ASM volatile ("MRS %0, sp_ns" : "=r" (result) );
 361:Drivers/CMSIS/Include/cmsis_gcc.h ****   return(result);
ARM GAS  C:\Users\lidka\AppData\Local\Temp\ccqOATUZ.s 			page 58


 362:Drivers/CMSIS/Include/cmsis_gcc.h **** }
 363:Drivers/CMSIS/Include/cmsis_gcc.h **** 
 364:Drivers/CMSIS/Include/cmsis_gcc.h **** 
 365:Drivers/CMSIS/Include/cmsis_gcc.h **** /**
 366:Drivers/CMSIS/Include/cmsis_gcc.h ****   \brief   Set Stack Pointer (non-secure)
 367:Drivers/CMSIS/Include/cmsis_gcc.h ****   \details Assigns the given value to the non-secure Stack Pointer (SP) when in secure state.
 368:Drivers/CMSIS/Include/cmsis_gcc.h ****   \param [in]    topOfStack  Stack Pointer value to set
 369:Drivers/CMSIS/Include/cmsis_gcc.h ****  */
 370:Drivers/CMSIS/Include/cmsis_gcc.h **** __STATIC_FORCEINLINE void __TZ_set_SP_NS(uint32_t topOfStack)
 371:Drivers/CMSIS/Include/cmsis_gcc.h **** {
 372:Drivers/CMSIS/Include/cmsis_gcc.h ****   __ASM volatile ("MSR sp_ns, %0" : : "r" (topOfStack) : );
 373:Drivers/CMSIS/Include/cmsis_gcc.h **** }
 374:Drivers/CMSIS/Include/cmsis_gcc.h **** #endif
 375:Drivers/CMSIS/Include/cmsis_gcc.h **** 
 376:Drivers/CMSIS/Include/cmsis_gcc.h **** 
 377:Drivers/CMSIS/Include/cmsis_gcc.h **** /**
 378:Drivers/CMSIS/Include/cmsis_gcc.h ****   \brief   Get Priority Mask
 379:Drivers/CMSIS/Include/cmsis_gcc.h ****   \details Returns the current state of the priority mask bit from the Priority Mask Register.
 380:Drivers/CMSIS/Include/cmsis_gcc.h ****   \return               Priority Mask value
 381:Drivers/CMSIS/Include/cmsis_gcc.h ****  */
 382:Drivers/CMSIS/Include/cmsis_gcc.h **** __STATIC_FORCEINLINE uint32_t __get_PRIMASK(void)
 383:Drivers/CMSIS/Include/cmsis_gcc.h **** {
 384:Drivers/CMSIS/Include/cmsis_gcc.h ****   uint32_t result;
 385:Drivers/CMSIS/Include/cmsis_gcc.h **** 
 386:Drivers/CMSIS/Include/cmsis_gcc.h ****   __ASM volatile ("MRS %0, primask" : "=r" (result) :: "memory");
 1573              		.loc 2 386 3
 1574              		.syntax divided
 1575              	@ 386 "Drivers/CMSIS/Include/cmsis_gcc.h" 1
 1576 00b8 EFF31083 		MRS r3, primask
 1577              	@ 0 "" 2
 1578              		.thumb
 1579              		.syntax unified
 1580 00bc 3B61     		str	r3, [r7, #16]
 387:Drivers/CMSIS/Include/cmsis_gcc.h ****   return(result);
 1581              		.loc 2 387 9
 1582 00be 3B69     		ldr	r3, [r7, #16]
 1583              	.LBE566:
 1584              	.LBE565:
1332:Drivers/STM32L0xx_HAL_Driver/Src/stm32l0xx_hal_uart.c **** 
1333:Drivers/STM32L0xx_HAL_Driver/Src/stm32l0xx_hal_uart.c ****     /* Enable the Transmit Data Register Empty interrupt */
1334:Drivers/STM32L0xx_HAL_Driver/Src/stm32l0xx_hal_uart.c ****     ATOMIC_SET_BIT(huart->Instance->CR1, USART_CR1_TXEIE);
 1585              		.loc 1 1334 5
 1586 00c0 FB61     		str	r3, [r7, #28]
 1587 00c2 0123     		movs	r3, #1
 1588 00c4 7B61     		str	r3, [r7, #20]
 1589              	.LBB567:
 1590              	.LBB568:
 388:Drivers/CMSIS/Include/cmsis_gcc.h **** }
 389:Drivers/CMSIS/Include/cmsis_gcc.h **** 
 390:Drivers/CMSIS/Include/cmsis_gcc.h **** 
 391:Drivers/CMSIS/Include/cmsis_gcc.h **** #if (defined (__ARM_FEATURE_CMSE ) && (__ARM_FEATURE_CMSE == 3))
 392:Drivers/CMSIS/Include/cmsis_gcc.h **** /**
 393:Drivers/CMSIS/Include/cmsis_gcc.h ****   \brief   Get Priority Mask (non-secure)
 394:Drivers/CMSIS/Include/cmsis_gcc.h ****   \details Returns the current state of the non-secure priority mask bit from the Priority Mask Reg
 395:Drivers/CMSIS/Include/cmsis_gcc.h ****   \return               Priority Mask value
 396:Drivers/CMSIS/Include/cmsis_gcc.h ****  */
 397:Drivers/CMSIS/Include/cmsis_gcc.h **** __STATIC_FORCEINLINE uint32_t __TZ_get_PRIMASK_NS(void)
ARM GAS  C:\Users\lidka\AppData\Local\Temp\ccqOATUZ.s 			page 59


 398:Drivers/CMSIS/Include/cmsis_gcc.h **** {
 399:Drivers/CMSIS/Include/cmsis_gcc.h ****   uint32_t result;
 400:Drivers/CMSIS/Include/cmsis_gcc.h **** 
 401:Drivers/CMSIS/Include/cmsis_gcc.h ****   __ASM volatile ("MRS %0, primask_ns" : "=r" (result) :: "memory");
 402:Drivers/CMSIS/Include/cmsis_gcc.h ****   return(result);
 403:Drivers/CMSIS/Include/cmsis_gcc.h **** }
 404:Drivers/CMSIS/Include/cmsis_gcc.h **** #endif
 405:Drivers/CMSIS/Include/cmsis_gcc.h **** 
 406:Drivers/CMSIS/Include/cmsis_gcc.h **** 
 407:Drivers/CMSIS/Include/cmsis_gcc.h **** /**
 408:Drivers/CMSIS/Include/cmsis_gcc.h ****   \brief   Set Priority Mask
 409:Drivers/CMSIS/Include/cmsis_gcc.h ****   \details Assigns the given value to the Priority Mask Register.
 410:Drivers/CMSIS/Include/cmsis_gcc.h ****   \param [in]    priMask  Priority Mask
 411:Drivers/CMSIS/Include/cmsis_gcc.h ****  */
 412:Drivers/CMSIS/Include/cmsis_gcc.h **** __STATIC_FORCEINLINE void __set_PRIMASK(uint32_t priMask)
 413:Drivers/CMSIS/Include/cmsis_gcc.h **** {
 414:Drivers/CMSIS/Include/cmsis_gcc.h ****   __ASM volatile ("MSR primask, %0" : : "r" (priMask) : "memory");
 1591              		.loc 2 414 3
 1592 00c6 7B69     		ldr	r3, [r7, #20]
 1593              		.syntax divided
 1594              	@ 414 "Drivers/CMSIS/Include/cmsis_gcc.h" 1
 1595 00c8 83F31088 		MSR primask, r3
 1596              	@ 0 "" 2
 415:Drivers/CMSIS/Include/cmsis_gcc.h **** }
 1597              		.loc 2 415 1
 1598              		.thumb
 1599              		.syntax unified
 1600 00cc C046     		nop
 1601              	.LBE568:
 1602              	.LBE567:
 1603              		.loc 1 1334 5
 1604 00ce FB68     		ldr	r3, [r7, #12]
 1605 00d0 1B68     		ldr	r3, [r3]
 1606 00d2 1A68     		ldr	r2, [r3]
 1607 00d4 FB68     		ldr	r3, [r7, #12]
 1608 00d6 1B68     		ldr	r3, [r3]
 1609 00d8 8021     		movs	r1, #128
 1610 00da 0A43     		orrs	r2, r1
 1611 00dc 1A60     		str	r2, [r3]
 1612 00de FB69     		ldr	r3, [r7, #28]
 1613 00e0 BB61     		str	r3, [r7, #24]
 1614              	.LBB569:
 1615              	.LBB570:
 414:Drivers/CMSIS/Include/cmsis_gcc.h **** }
 1616              		.loc 2 414 3
 1617 00e2 BB69     		ldr	r3, [r7, #24]
 1618              		.syntax divided
 1619              	@ 414 "Drivers/CMSIS/Include/cmsis_gcc.h" 1
 1620 00e4 83F31088 		MSR primask, r3
 1621              	@ 0 "" 2
 1622              		.loc 2 415 1
 1623              		.thumb
 1624              		.syntax unified
 1625 00e8 C046     		nop
 1626              	.LBE570:
 1627              	.LBE569:
 1628              	.LBE564:
ARM GAS  C:\Users\lidka\AppData\Local\Temp\ccqOATUZ.s 			page 60


1335:Drivers/STM32L0xx_HAL_Driver/Src/stm32l0xx_hal_uart.c **** 
1336:Drivers/STM32L0xx_HAL_Driver/Src/stm32l0xx_hal_uart.c ****     return HAL_OK;
 1629              		.loc 1 1336 12
 1630 00ea 0023     		movs	r3, #0
 1631 00ec 00E0     		b	.L83
 1632              	.L80:
1337:Drivers/STM32L0xx_HAL_Driver/Src/stm32l0xx_hal_uart.c ****   }
1338:Drivers/STM32L0xx_HAL_Driver/Src/stm32l0xx_hal_uart.c ****   else
1339:Drivers/STM32L0xx_HAL_Driver/Src/stm32l0xx_hal_uart.c ****   {
1340:Drivers/STM32L0xx_HAL_Driver/Src/stm32l0xx_hal_uart.c ****     return HAL_BUSY;
 1633              		.loc 1 1340 12
 1634 00ee 0223     		movs	r3, #2
 1635              	.L83:
1341:Drivers/STM32L0xx_HAL_Driver/Src/stm32l0xx_hal_uart.c ****   }
1342:Drivers/STM32L0xx_HAL_Driver/Src/stm32l0xx_hal_uart.c **** }
 1636              		.loc 1 1342 1
 1637 00f0 1800     		movs	r0, r3
 1638 00f2 BD46     		mov	sp, r7
 1639 00f4 08B0     		add	sp, sp, #32
 1640              		@ sp needed
 1641 00f6 80BD     		pop	{r7, pc}
 1642              	.L90:
 1643              		.align	2
 1644              	.L89:
 1645 00f8 00000000 		.word	UART_TxISR_16BIT
 1646 00fc 00000000 		.word	UART_TxISR_8BIT
 1647              		.cfi_endproc
 1648              	.LFE56:
 1650              		.section	.text.HAL_UART_Receive_IT,"ax",%progbits
 1651              		.align	1
 1652              		.global	HAL_UART_Receive_IT
 1653              		.syntax unified
 1654              		.code	16
 1655              		.thumb_func
 1657              	HAL_UART_Receive_IT:
 1658              	.LFB57:
1343:Drivers/STM32L0xx_HAL_Driver/Src/stm32l0xx_hal_uart.c **** 
1344:Drivers/STM32L0xx_HAL_Driver/Src/stm32l0xx_hal_uart.c **** /**
1345:Drivers/STM32L0xx_HAL_Driver/Src/stm32l0xx_hal_uart.c ****   * @brief Receive an amount of data in interrupt mode.
1346:Drivers/STM32L0xx_HAL_Driver/Src/stm32l0xx_hal_uart.c ****   * @note   When UART parity is not enabled (PCE = 0), and Word Length is configured to 9 bits (M1-
1347:Drivers/STM32L0xx_HAL_Driver/Src/stm32l0xx_hal_uart.c ****   *         the received data is handled as a set of u16. In this case, Size must indicate the numb
1348:Drivers/STM32L0xx_HAL_Driver/Src/stm32l0xx_hal_uart.c ****   *         of u16 available through pData.
1349:Drivers/STM32L0xx_HAL_Driver/Src/stm32l0xx_hal_uart.c ****   * @note   When UART parity is not enabled (PCE = 0), and Word Length is configured to 9 bits (M1-
1350:Drivers/STM32L0xx_HAL_Driver/Src/stm32l0xx_hal_uart.c ****   *         address of user data buffer for storing data to be received, should be aligned on a hal
1351:Drivers/STM32L0xx_HAL_Driver/Src/stm32l0xx_hal_uart.c ****   *         (16 bits) (as received data will be handled using u16 pointer cast). Depending on compi
1352:Drivers/STM32L0xx_HAL_Driver/Src/stm32l0xx_hal_uart.c ****   *         use of specific alignment compilation directives or pragmas might be required
1353:Drivers/STM32L0xx_HAL_Driver/Src/stm32l0xx_hal_uart.c ****   *         to ensure proper alignment for pData.
1354:Drivers/STM32L0xx_HAL_Driver/Src/stm32l0xx_hal_uart.c ****   * @param huart UART handle.
1355:Drivers/STM32L0xx_HAL_Driver/Src/stm32l0xx_hal_uart.c ****   * @param pData Pointer to data buffer (u8 or u16 data elements).
1356:Drivers/STM32L0xx_HAL_Driver/Src/stm32l0xx_hal_uart.c ****   * @param Size  Amount of data elements (u8 or u16) to be received.
1357:Drivers/STM32L0xx_HAL_Driver/Src/stm32l0xx_hal_uart.c ****   * @retval HAL status
1358:Drivers/STM32L0xx_HAL_Driver/Src/stm32l0xx_hal_uart.c ****   */
1359:Drivers/STM32L0xx_HAL_Driver/Src/stm32l0xx_hal_uart.c **** HAL_StatusTypeDef HAL_UART_Receive_IT(UART_HandleTypeDef *huart, uint8_t *pData, uint16_t Size)
1360:Drivers/STM32L0xx_HAL_Driver/Src/stm32l0xx_hal_uart.c **** {
 1659              		.loc 1 1360 1
 1660              		.cfi_startproc
 1661              		@ args = 0, pretend = 0, frame = 32
ARM GAS  C:\Users\lidka\AppData\Local\Temp\ccqOATUZ.s 			page 61


 1662              		@ frame_needed = 1, uses_anonymous_args = 0
 1663 0000 80B5     		push	{r7, lr}
 1664              	.LCFI30:
 1665              		.cfi_def_cfa_offset 8
 1666              		.cfi_offset 7, -8
 1667              		.cfi_offset 14, -4
 1668 0002 88B0     		sub	sp, sp, #32
 1669              	.LCFI31:
 1670              		.cfi_def_cfa_offset 40
 1671 0004 00AF     		add	r7, sp, #0
 1672              	.LCFI32:
 1673              		.cfi_def_cfa_register 7
 1674 0006 F860     		str	r0, [r7, #12]
 1675 0008 B960     		str	r1, [r7, #8]
 1676 000a BB1D     		adds	r3, r7, #6
 1677 000c 1A80     		strh	r2, [r3]
1361:Drivers/STM32L0xx_HAL_Driver/Src/stm32l0xx_hal_uart.c ****   /* Check that a Rx process is not already ongoing */
1362:Drivers/STM32L0xx_HAL_Driver/Src/stm32l0xx_hal_uart.c ****   if (huart->RxState == HAL_UART_STATE_READY)
 1678              		.loc 1 1362 12
 1679 000e FB68     		ldr	r3, [r7, #12]
 1680 0010 DB6F     		ldr	r3, [r3, #124]
 1681              		.loc 1 1362 6
 1682 0012 202B     		cmp	r3, #32
 1683 0014 55D1     		bne	.L92
1363:Drivers/STM32L0xx_HAL_Driver/Src/stm32l0xx_hal_uart.c ****   {
1364:Drivers/STM32L0xx_HAL_Driver/Src/stm32l0xx_hal_uart.c ****     if ((pData == NULL) || (Size == 0U))
 1684              		.loc 1 1364 8
 1685 0016 BB68     		ldr	r3, [r7, #8]
 1686 0018 002B     		cmp	r3, #0
 1687 001a 03D0     		beq	.L93
 1688              		.loc 1 1364 25 discriminator 1
 1689 001c BB1D     		adds	r3, r7, #6
 1690 001e 1B88     		ldrh	r3, [r3]
 1691 0020 002B     		cmp	r3, #0
 1692 0022 01D1     		bne	.L94
 1693              	.L93:
1365:Drivers/STM32L0xx_HAL_Driver/Src/stm32l0xx_hal_uart.c ****     {
1366:Drivers/STM32L0xx_HAL_Driver/Src/stm32l0xx_hal_uart.c ****       return HAL_ERROR;
 1694              		.loc 1 1366 14
 1695 0024 0123     		movs	r3, #1
 1696 0026 4DE0     		b	.L95
 1697              	.L94:
1367:Drivers/STM32L0xx_HAL_Driver/Src/stm32l0xx_hal_uart.c ****     }
1368:Drivers/STM32L0xx_HAL_Driver/Src/stm32l0xx_hal_uart.c **** 
1369:Drivers/STM32L0xx_HAL_Driver/Src/stm32l0xx_hal_uart.c ****     /* In case of 9bits/No Parity transfer, pData buffer provided as input parameter
1370:Drivers/STM32L0xx_HAL_Driver/Src/stm32l0xx_hal_uart.c ****        should be aligned on a u16 frontier, as data to be received from RDR will be
1371:Drivers/STM32L0xx_HAL_Driver/Src/stm32l0xx_hal_uart.c ****        handled through a u16 cast. */
1372:Drivers/STM32L0xx_HAL_Driver/Src/stm32l0xx_hal_uart.c ****     if ((huart->Init.WordLength == UART_WORDLENGTH_9B) && (huart->Init.Parity == UART_PARITY_NONE))
 1698              		.loc 1 1372 21
 1699 0028 FB68     		ldr	r3, [r7, #12]
 1700 002a 9A68     		ldr	r2, [r3, #8]
 1701              		.loc 1 1372 8
 1702 002c 8023     		movs	r3, #128
 1703 002e 5B01     		lsls	r3, r3, #5
 1704 0030 9A42     		cmp	r2, r3
 1705 0032 09D1     		bne	.L96
 1706              		.loc 1 1372 71 discriminator 1
ARM GAS  C:\Users\lidka\AppData\Local\Temp\ccqOATUZ.s 			page 62


 1707 0034 FB68     		ldr	r3, [r7, #12]
 1708 0036 1B69     		ldr	r3, [r3, #16]
 1709              		.loc 1 1372 56 discriminator 1
 1710 0038 002B     		cmp	r3, #0
 1711 003a 05D1     		bne	.L96
1373:Drivers/STM32L0xx_HAL_Driver/Src/stm32l0xx_hal_uart.c ****     {
1374:Drivers/STM32L0xx_HAL_Driver/Src/stm32l0xx_hal_uart.c ****       if ((((uint32_t)pData) & 1U) != 0U)
 1712              		.loc 1 1374 13
 1713 003c BB68     		ldr	r3, [r7, #8]
 1714              		.loc 1 1374 30
 1715 003e 0122     		movs	r2, #1
 1716 0040 1340     		ands	r3, r2
 1717              		.loc 1 1374 10
 1718 0042 01D0     		beq	.L96
1375:Drivers/STM32L0xx_HAL_Driver/Src/stm32l0xx_hal_uart.c ****       {
1376:Drivers/STM32L0xx_HAL_Driver/Src/stm32l0xx_hal_uart.c ****         return  HAL_ERROR;
 1719              		.loc 1 1376 17
 1720 0044 0123     		movs	r3, #1
 1721 0046 3DE0     		b	.L95
 1722              	.L96:
1377:Drivers/STM32L0xx_HAL_Driver/Src/stm32l0xx_hal_uart.c ****       }
1378:Drivers/STM32L0xx_HAL_Driver/Src/stm32l0xx_hal_uart.c ****     }
1379:Drivers/STM32L0xx_HAL_Driver/Src/stm32l0xx_hal_uart.c **** 
1380:Drivers/STM32L0xx_HAL_Driver/Src/stm32l0xx_hal_uart.c ****     __HAL_LOCK(huart);
 1723              		.loc 1 1380 5
 1724 0048 FB68     		ldr	r3, [r7, #12]
 1725 004a 7422     		movs	r2, #116
 1726 004c 9B5C     		ldrb	r3, [r3, r2]
 1727 004e 012B     		cmp	r3, #1
 1728 0050 01D1     		bne	.L97
 1729              		.loc 1 1380 5 is_stmt 0 discriminator 1
 1730 0052 0223     		movs	r3, #2
 1731 0054 36E0     		b	.L95
 1732              	.L97:
 1733              		.loc 1 1380 5 discriminator 2
 1734 0056 FB68     		ldr	r3, [r7, #12]
 1735 0058 7422     		movs	r2, #116
 1736 005a 0121     		movs	r1, #1
 1737 005c 9954     		strb	r1, [r3, r2]
1381:Drivers/STM32L0xx_HAL_Driver/Src/stm32l0xx_hal_uart.c **** 
1382:Drivers/STM32L0xx_HAL_Driver/Src/stm32l0xx_hal_uart.c ****     /* Set Reception type to Standard reception */
1383:Drivers/STM32L0xx_HAL_Driver/Src/stm32l0xx_hal_uart.c ****     huart->ReceptionType = HAL_UART_RECEPTION_STANDARD;
 1738              		.loc 1 1383 26 is_stmt 1 discriminator 2
 1739 005e FB68     		ldr	r3, [r7, #12]
 1740 0060 0022     		movs	r2, #0
 1741 0062 1A66     		str	r2, [r3, #96]
1384:Drivers/STM32L0xx_HAL_Driver/Src/stm32l0xx_hal_uart.c **** 
1385:Drivers/STM32L0xx_HAL_Driver/Src/stm32l0xx_hal_uart.c ****     if (!(IS_LPUART_INSTANCE(huart->Instance)))
 1742              		.loc 1 1385 11 discriminator 2
 1743 0064 FB68     		ldr	r3, [r7, #12]
 1744 0066 1B68     		ldr	r3, [r3]
 1745              		.loc 1 1385 8 discriminator 2
 1746 0068 184A     		ldr	r2, .L100
 1747 006a 9342     		cmp	r3, r2
 1748 006c 20D0     		beq	.L98
1386:Drivers/STM32L0xx_HAL_Driver/Src/stm32l0xx_hal_uart.c ****     {
1387:Drivers/STM32L0xx_HAL_Driver/Src/stm32l0xx_hal_uart.c ****       /* Check that USART RTOEN bit is set */
ARM GAS  C:\Users\lidka\AppData\Local\Temp\ccqOATUZ.s 			page 63


1388:Drivers/STM32L0xx_HAL_Driver/Src/stm32l0xx_hal_uart.c ****       if (READ_BIT(huart->Instance->CR2, USART_CR2_RTOEN) != 0U)
 1749              		.loc 1 1388 11
 1750 006e FB68     		ldr	r3, [r7, #12]
 1751 0070 1B68     		ldr	r3, [r3]
 1752 0072 5A68     		ldr	r2, [r3, #4]
 1753 0074 8023     		movs	r3, #128
 1754 0076 1B04     		lsls	r3, r3, #16
 1755 0078 1340     		ands	r3, r2
 1756              		.loc 1 1388 10
 1757 007a 19D0     		beq	.L98
 1758              	.LBB571:
 1759              	.LBB572:
 1760              	.LBB573:
 386:Drivers/CMSIS/Include/cmsis_gcc.h ****   return(result);
 1761              		.loc 2 386 3
 1762              		.syntax divided
 1763              	@ 386 "Drivers/CMSIS/Include/cmsis_gcc.h" 1
 1764 007c EFF31083 		MRS r3, primask
 1765              	@ 0 "" 2
 1766              		.thumb
 1767              		.syntax unified
 1768 0080 3B61     		str	r3, [r7, #16]
 387:Drivers/CMSIS/Include/cmsis_gcc.h **** }
 1769              		.loc 2 387 9
 1770 0082 3B69     		ldr	r3, [r7, #16]
 1771              	.LBE573:
 1772              	.LBE572:
1389:Drivers/STM32L0xx_HAL_Driver/Src/stm32l0xx_hal_uart.c ****       {
1390:Drivers/STM32L0xx_HAL_Driver/Src/stm32l0xx_hal_uart.c ****         /* Enable the UART Receiver Timeout Interrupt */
1391:Drivers/STM32L0xx_HAL_Driver/Src/stm32l0xx_hal_uart.c ****         ATOMIC_SET_BIT(huart->Instance->CR1, USART_CR1_RTOIE);
 1773              		.loc 1 1391 9
 1774 0084 FB61     		str	r3, [r7, #28]
 1775 0086 0123     		movs	r3, #1
 1776 0088 7B61     		str	r3, [r7, #20]
 1777              	.LBB574:
 1778              	.LBB575:
 414:Drivers/CMSIS/Include/cmsis_gcc.h **** }
 1779              		.loc 2 414 3
 1780 008a 7B69     		ldr	r3, [r7, #20]
 1781              		.syntax divided
 1782              	@ 414 "Drivers/CMSIS/Include/cmsis_gcc.h" 1
 1783 008c 83F31088 		MSR primask, r3
 1784              	@ 0 "" 2
 1785              		.loc 2 415 1
 1786              		.thumb
 1787              		.syntax unified
 1788 0090 C046     		nop
 1789              	.LBE575:
 1790              	.LBE574:
 1791              		.loc 1 1391 9
 1792 0092 FB68     		ldr	r3, [r7, #12]
 1793 0094 1B68     		ldr	r3, [r3]
 1794 0096 1A68     		ldr	r2, [r3]
 1795 0098 FB68     		ldr	r3, [r7, #12]
 1796 009a 1B68     		ldr	r3, [r3]
 1797 009c 8021     		movs	r1, #128
 1798 009e C904     		lsls	r1, r1, #19
ARM GAS  C:\Users\lidka\AppData\Local\Temp\ccqOATUZ.s 			page 64


 1799 00a0 0A43     		orrs	r2, r1
 1800 00a2 1A60     		str	r2, [r3]
 1801 00a4 FB69     		ldr	r3, [r7, #28]
 1802 00a6 BB61     		str	r3, [r7, #24]
 1803              	.LBB576:
 1804              	.LBB577:
 414:Drivers/CMSIS/Include/cmsis_gcc.h **** }
 1805              		.loc 2 414 3
 1806 00a8 BB69     		ldr	r3, [r7, #24]
 1807              		.syntax divided
 1808              	@ 414 "Drivers/CMSIS/Include/cmsis_gcc.h" 1
 1809 00aa 83F31088 		MSR primask, r3
 1810              	@ 0 "" 2
 1811              		.loc 2 415 1
 1812              		.thumb
 1813              		.syntax unified
 1814 00ae C046     		nop
 1815              	.L98:
 1816              	.LBE577:
 1817              	.LBE576:
 1818              	.LBE571:
1392:Drivers/STM32L0xx_HAL_Driver/Src/stm32l0xx_hal_uart.c ****       }
1393:Drivers/STM32L0xx_HAL_Driver/Src/stm32l0xx_hal_uart.c ****     }
1394:Drivers/STM32L0xx_HAL_Driver/Src/stm32l0xx_hal_uart.c **** 
1395:Drivers/STM32L0xx_HAL_Driver/Src/stm32l0xx_hal_uart.c ****     return (UART_Start_Receive_IT(huart, pData, Size));
 1819              		.loc 1 1395 13
 1820 00b0 BB1D     		adds	r3, r7, #6
 1821 00b2 1A88     		ldrh	r2, [r3]
 1822 00b4 B968     		ldr	r1, [r7, #8]
 1823 00b6 FB68     		ldr	r3, [r7, #12]
 1824 00b8 1800     		movs	r0, r3
 1825 00ba FFF7FEFF 		bl	UART_Start_Receive_IT
 1826 00be 0300     		movs	r3, r0
 1827 00c0 00E0     		b	.L95
 1828              	.L92:
1396:Drivers/STM32L0xx_HAL_Driver/Src/stm32l0xx_hal_uart.c ****   }
1397:Drivers/STM32L0xx_HAL_Driver/Src/stm32l0xx_hal_uart.c ****   else
1398:Drivers/STM32L0xx_HAL_Driver/Src/stm32l0xx_hal_uart.c ****   {
1399:Drivers/STM32L0xx_HAL_Driver/Src/stm32l0xx_hal_uart.c ****     return HAL_BUSY;
 1829              		.loc 1 1399 12
 1830 00c2 0223     		movs	r3, #2
 1831              	.L95:
1400:Drivers/STM32L0xx_HAL_Driver/Src/stm32l0xx_hal_uart.c ****   }
1401:Drivers/STM32L0xx_HAL_Driver/Src/stm32l0xx_hal_uart.c **** }
 1832              		.loc 1 1401 1
 1833 00c4 1800     		movs	r0, r3
 1834 00c6 BD46     		mov	sp, r7
 1835 00c8 08B0     		add	sp, sp, #32
 1836              		@ sp needed
 1837 00ca 80BD     		pop	{r7, pc}
 1838              	.L101:
 1839              		.align	2
 1840              	.L100:
 1841 00cc 00480040 		.word	1073760256
 1842              		.cfi_endproc
 1843              	.LFE57:
 1845              		.section	.text.HAL_UART_Transmit_DMA,"ax",%progbits
ARM GAS  C:\Users\lidka\AppData\Local\Temp\ccqOATUZ.s 			page 65


 1846              		.align	1
 1847              		.global	HAL_UART_Transmit_DMA
 1848              		.syntax unified
 1849              		.code	16
 1850              		.thumb_func
 1852              	HAL_UART_Transmit_DMA:
 1853              	.LFB58:
1402:Drivers/STM32L0xx_HAL_Driver/Src/stm32l0xx_hal_uart.c **** 
1403:Drivers/STM32L0xx_HAL_Driver/Src/stm32l0xx_hal_uart.c **** /**
1404:Drivers/STM32L0xx_HAL_Driver/Src/stm32l0xx_hal_uart.c ****   * @brief Send an amount of data in DMA mode.
1405:Drivers/STM32L0xx_HAL_Driver/Src/stm32l0xx_hal_uart.c ****   * @note   When UART parity is not enabled (PCE = 0), and Word Length is configured to 9 bits (M1-
1406:Drivers/STM32L0xx_HAL_Driver/Src/stm32l0xx_hal_uart.c ****   *         the sent data is handled as a set of u16. In this case, Size must indicate the number
1407:Drivers/STM32L0xx_HAL_Driver/Src/stm32l0xx_hal_uart.c ****   *         of u16 provided through pData.
1408:Drivers/STM32L0xx_HAL_Driver/Src/stm32l0xx_hal_uart.c ****   * @note   When UART parity is not enabled (PCE = 0), and Word Length is configured to 9 bits (M1-
1409:Drivers/STM32L0xx_HAL_Driver/Src/stm32l0xx_hal_uart.c ****   *         address of user data buffer containing data to be sent, should be aligned on a half wor
1410:Drivers/STM32L0xx_HAL_Driver/Src/stm32l0xx_hal_uart.c ****   *         (as sent data will be handled by DMA from halfword frontier). Depending on compilation 
1411:Drivers/STM32L0xx_HAL_Driver/Src/stm32l0xx_hal_uart.c ****   *         use of specific alignment compilation directives or pragmas might be required
1412:Drivers/STM32L0xx_HAL_Driver/Src/stm32l0xx_hal_uart.c ****   *         to ensure proper alignment for pData.
1413:Drivers/STM32L0xx_HAL_Driver/Src/stm32l0xx_hal_uart.c ****   * @param huart UART handle.
1414:Drivers/STM32L0xx_HAL_Driver/Src/stm32l0xx_hal_uart.c ****   * @param pData Pointer to data buffer (u8 or u16 data elements).
1415:Drivers/STM32L0xx_HAL_Driver/Src/stm32l0xx_hal_uart.c ****   * @param Size  Amount of data elements (u8 or u16) to be sent.
1416:Drivers/STM32L0xx_HAL_Driver/Src/stm32l0xx_hal_uart.c ****   * @retval HAL status
1417:Drivers/STM32L0xx_HAL_Driver/Src/stm32l0xx_hal_uart.c ****   */
1418:Drivers/STM32L0xx_HAL_Driver/Src/stm32l0xx_hal_uart.c **** HAL_StatusTypeDef HAL_UART_Transmit_DMA(UART_HandleTypeDef *huart, uint8_t *pData, uint16_t Size)
1419:Drivers/STM32L0xx_HAL_Driver/Src/stm32l0xx_hal_uart.c **** {
 1854              		.loc 1 1419 1
 1855              		.cfi_startproc
 1856              		@ args = 0, pretend = 0, frame = 32
 1857              		@ frame_needed = 1, uses_anonymous_args = 0
 1858 0000 80B5     		push	{r7, lr}
 1859              	.LCFI33:
 1860              		.cfi_def_cfa_offset 8
 1861              		.cfi_offset 7, -8
 1862              		.cfi_offset 14, -4
 1863 0002 88B0     		sub	sp, sp, #32
 1864              	.LCFI34:
 1865              		.cfi_def_cfa_offset 40
 1866 0004 00AF     		add	r7, sp, #0
 1867              	.LCFI35:
 1868              		.cfi_def_cfa_register 7
 1869 0006 F860     		str	r0, [r7, #12]
 1870 0008 B960     		str	r1, [r7, #8]
 1871 000a BB1D     		adds	r3, r7, #6
 1872 000c 1A80     		strh	r2, [r3]
1420:Drivers/STM32L0xx_HAL_Driver/Src/stm32l0xx_hal_uart.c ****   /* Check that a Tx process is not already ongoing */
1421:Drivers/STM32L0xx_HAL_Driver/Src/stm32l0xx_hal_uart.c ****   if (huart->gState == HAL_UART_STATE_READY)
 1873              		.loc 1 1421 12
 1874 000e FB68     		ldr	r3, [r7, #12]
 1875 0010 9B6F     		ldr	r3, [r3, #120]
 1876              		.loc 1 1421 6
 1877 0012 202B     		cmp	r3, #32
 1878 0014 00D0     		beq	.LCB1576
 1879 0016 8AE0     		b	.L103	@long jump
 1880              	.LCB1576:
1422:Drivers/STM32L0xx_HAL_Driver/Src/stm32l0xx_hal_uart.c ****   {
1423:Drivers/STM32L0xx_HAL_Driver/Src/stm32l0xx_hal_uart.c ****     if ((pData == NULL) || (Size == 0U))
 1881              		.loc 1 1423 8
ARM GAS  C:\Users\lidka\AppData\Local\Temp\ccqOATUZ.s 			page 66


 1882 0018 BB68     		ldr	r3, [r7, #8]
 1883 001a 002B     		cmp	r3, #0
 1884 001c 03D0     		beq	.L104
 1885              		.loc 1 1423 25 discriminator 1
 1886 001e BB1D     		adds	r3, r7, #6
 1887 0020 1B88     		ldrh	r3, [r3]
 1888 0022 002B     		cmp	r3, #0
 1889 0024 01D1     		bne	.L105
 1890              	.L104:
1424:Drivers/STM32L0xx_HAL_Driver/Src/stm32l0xx_hal_uart.c ****     {
1425:Drivers/STM32L0xx_HAL_Driver/Src/stm32l0xx_hal_uart.c ****       return HAL_ERROR;
 1891              		.loc 1 1425 14
 1892 0026 0123     		movs	r3, #1
 1893 0028 82E0     		b	.L106
 1894              	.L105:
1426:Drivers/STM32L0xx_HAL_Driver/Src/stm32l0xx_hal_uart.c ****     }
1427:Drivers/STM32L0xx_HAL_Driver/Src/stm32l0xx_hal_uart.c **** 
1428:Drivers/STM32L0xx_HAL_Driver/Src/stm32l0xx_hal_uart.c ****     /* In case of 9bits/No Parity transfer, pData buffer provided as input parameter
1429:Drivers/STM32L0xx_HAL_Driver/Src/stm32l0xx_hal_uart.c ****        should be aligned on a u16 frontier, as data copy into TDR will be
1430:Drivers/STM32L0xx_HAL_Driver/Src/stm32l0xx_hal_uart.c ****        handled by DMA from a u16 frontier. */
1431:Drivers/STM32L0xx_HAL_Driver/Src/stm32l0xx_hal_uart.c ****     if ((huart->Init.WordLength == UART_WORDLENGTH_9B) && (huart->Init.Parity == UART_PARITY_NONE))
 1895              		.loc 1 1431 21
 1896 002a FB68     		ldr	r3, [r7, #12]
 1897 002c 9A68     		ldr	r2, [r3, #8]
 1898              		.loc 1 1431 8
 1899 002e 8023     		movs	r3, #128
 1900 0030 5B01     		lsls	r3, r3, #5
 1901 0032 9A42     		cmp	r2, r3
 1902 0034 09D1     		bne	.L107
 1903              		.loc 1 1431 71 discriminator 1
 1904 0036 FB68     		ldr	r3, [r7, #12]
 1905 0038 1B69     		ldr	r3, [r3, #16]
 1906              		.loc 1 1431 56 discriminator 1
 1907 003a 002B     		cmp	r3, #0
 1908 003c 05D1     		bne	.L107
1432:Drivers/STM32L0xx_HAL_Driver/Src/stm32l0xx_hal_uart.c ****     {
1433:Drivers/STM32L0xx_HAL_Driver/Src/stm32l0xx_hal_uart.c ****       if ((((uint32_t)pData) & 1U) != 0U)
 1909              		.loc 1 1433 13
 1910 003e BB68     		ldr	r3, [r7, #8]
 1911              		.loc 1 1433 30
 1912 0040 0122     		movs	r2, #1
 1913 0042 1340     		ands	r3, r2
 1914              		.loc 1 1433 10
 1915 0044 01D0     		beq	.L107
1434:Drivers/STM32L0xx_HAL_Driver/Src/stm32l0xx_hal_uart.c ****       {
1435:Drivers/STM32L0xx_HAL_Driver/Src/stm32l0xx_hal_uart.c ****         return  HAL_ERROR;
 1916              		.loc 1 1435 17
 1917 0046 0123     		movs	r3, #1
 1918 0048 72E0     		b	.L106
 1919              	.L107:
1436:Drivers/STM32L0xx_HAL_Driver/Src/stm32l0xx_hal_uart.c ****       }
1437:Drivers/STM32L0xx_HAL_Driver/Src/stm32l0xx_hal_uart.c ****     }
1438:Drivers/STM32L0xx_HAL_Driver/Src/stm32l0xx_hal_uart.c **** 
1439:Drivers/STM32L0xx_HAL_Driver/Src/stm32l0xx_hal_uart.c ****     __HAL_LOCK(huart);
 1920              		.loc 1 1439 5
 1921 004a FB68     		ldr	r3, [r7, #12]
 1922 004c 7422     		movs	r2, #116
ARM GAS  C:\Users\lidka\AppData\Local\Temp\ccqOATUZ.s 			page 67


 1923 004e 9B5C     		ldrb	r3, [r3, r2]
 1924 0050 012B     		cmp	r3, #1
 1925 0052 01D1     		bne	.L108
 1926              		.loc 1 1439 5 is_stmt 0 discriminator 1
 1927 0054 0223     		movs	r3, #2
 1928 0056 6BE0     		b	.L106
 1929              	.L108:
 1930              		.loc 1 1439 5 discriminator 2
 1931 0058 FB68     		ldr	r3, [r7, #12]
 1932 005a 7422     		movs	r2, #116
 1933 005c 0121     		movs	r1, #1
 1934 005e 9954     		strb	r1, [r3, r2]
1440:Drivers/STM32L0xx_HAL_Driver/Src/stm32l0xx_hal_uart.c **** 
1441:Drivers/STM32L0xx_HAL_Driver/Src/stm32l0xx_hal_uart.c ****     huart->pTxBuffPtr  = pData;
 1935              		.loc 1 1441 24 is_stmt 1 discriminator 2
 1936 0060 FB68     		ldr	r3, [r7, #12]
 1937 0062 BA68     		ldr	r2, [r7, #8]
 1938 0064 DA64     		str	r2, [r3, #76]
1442:Drivers/STM32L0xx_HAL_Driver/Src/stm32l0xx_hal_uart.c ****     huart->TxXferSize  = Size;
 1939              		.loc 1 1442 24 discriminator 2
 1940 0066 FB68     		ldr	r3, [r7, #12]
 1941 0068 BA1D     		adds	r2, r7, #6
 1942 006a 5021     		movs	r1, #80
 1943 006c 1288     		ldrh	r2, [r2]
 1944 006e 5A52     		strh	r2, [r3, r1]
1443:Drivers/STM32L0xx_HAL_Driver/Src/stm32l0xx_hal_uart.c ****     huart->TxXferCount = Size;
 1945              		.loc 1 1443 24 discriminator 2
 1946 0070 FB68     		ldr	r3, [r7, #12]
 1947 0072 BA1D     		adds	r2, r7, #6
 1948 0074 5221     		movs	r1, #82
 1949 0076 1288     		ldrh	r2, [r2]
 1950 0078 5A52     		strh	r2, [r3, r1]
1444:Drivers/STM32L0xx_HAL_Driver/Src/stm32l0xx_hal_uart.c **** 
1445:Drivers/STM32L0xx_HAL_Driver/Src/stm32l0xx_hal_uart.c ****     huart->ErrorCode = HAL_UART_ERROR_NONE;
 1951              		.loc 1 1445 22 discriminator 2
 1952 007a FB68     		ldr	r3, [r7, #12]
 1953 007c 8022     		movs	r2, #128
 1954 007e 0021     		movs	r1, #0
 1955 0080 9950     		str	r1, [r3, r2]
1446:Drivers/STM32L0xx_HAL_Driver/Src/stm32l0xx_hal_uart.c ****     huart->gState = HAL_UART_STATE_BUSY_TX;
 1956              		.loc 1 1446 19 discriminator 2
 1957 0082 FB68     		ldr	r3, [r7, #12]
 1958 0084 2122     		movs	r2, #33
 1959 0086 9A67     		str	r2, [r3, #120]
1447:Drivers/STM32L0xx_HAL_Driver/Src/stm32l0xx_hal_uart.c **** 
1448:Drivers/STM32L0xx_HAL_Driver/Src/stm32l0xx_hal_uart.c ****     if (huart->hdmatx != NULL)
 1960              		.loc 1 1448 14 discriminator 2
 1961 0088 FB68     		ldr	r3, [r7, #12]
 1962 008a DB6E     		ldr	r3, [r3, #108]
 1963              		.loc 1 1448 8 discriminator 2
 1964 008c 002B     		cmp	r3, #0
 1965 008e 2BD0     		beq	.L109
1449:Drivers/STM32L0xx_HAL_Driver/Src/stm32l0xx_hal_uart.c ****     {
1450:Drivers/STM32L0xx_HAL_Driver/Src/stm32l0xx_hal_uart.c ****       /* Set the UART DMA transfer complete callback */
1451:Drivers/STM32L0xx_HAL_Driver/Src/stm32l0xx_hal_uart.c ****       huart->hdmatx->XferCpltCallback = UART_DMATransmitCplt;
 1966              		.loc 1 1451 12
 1967 0090 FB68     		ldr	r3, [r7, #12]
ARM GAS  C:\Users\lidka\AppData\Local\Temp\ccqOATUZ.s 			page 68


 1968 0092 DB6E     		ldr	r3, [r3, #108]
 1969              		.loc 1 1451 39
 1970 0094 284A     		ldr	r2, .L111
 1971 0096 DA62     		str	r2, [r3, #44]
1452:Drivers/STM32L0xx_HAL_Driver/Src/stm32l0xx_hal_uart.c **** 
1453:Drivers/STM32L0xx_HAL_Driver/Src/stm32l0xx_hal_uart.c ****       /* Set the UART DMA Half transfer complete callback */
1454:Drivers/STM32L0xx_HAL_Driver/Src/stm32l0xx_hal_uart.c ****       huart->hdmatx->XferHalfCpltCallback = UART_DMATxHalfCplt;
 1972              		.loc 1 1454 12
 1973 0098 FB68     		ldr	r3, [r7, #12]
 1974 009a DB6E     		ldr	r3, [r3, #108]
 1975              		.loc 1 1454 43
 1976 009c 274A     		ldr	r2, .L111+4
 1977 009e 1A63     		str	r2, [r3, #48]
1455:Drivers/STM32L0xx_HAL_Driver/Src/stm32l0xx_hal_uart.c **** 
1456:Drivers/STM32L0xx_HAL_Driver/Src/stm32l0xx_hal_uart.c ****       /* Set the DMA error callback */
1457:Drivers/STM32L0xx_HAL_Driver/Src/stm32l0xx_hal_uart.c ****       huart->hdmatx->XferErrorCallback = UART_DMAError;
 1978              		.loc 1 1457 12
 1979 00a0 FB68     		ldr	r3, [r7, #12]
 1980 00a2 DB6E     		ldr	r3, [r3, #108]
 1981              		.loc 1 1457 40
 1982 00a4 264A     		ldr	r2, .L111+8
 1983 00a6 5A63     		str	r2, [r3, #52]
1458:Drivers/STM32L0xx_HAL_Driver/Src/stm32l0xx_hal_uart.c **** 
1459:Drivers/STM32L0xx_HAL_Driver/Src/stm32l0xx_hal_uart.c ****       /* Set the DMA abort callback */
1460:Drivers/STM32L0xx_HAL_Driver/Src/stm32l0xx_hal_uart.c ****       huart->hdmatx->XferAbortCallback = NULL;
 1984              		.loc 1 1460 12
 1985 00a8 FB68     		ldr	r3, [r7, #12]
 1986 00aa DB6E     		ldr	r3, [r3, #108]
 1987              		.loc 1 1460 40
 1988 00ac 0022     		movs	r2, #0
 1989 00ae 9A63     		str	r2, [r3, #56]
1461:Drivers/STM32L0xx_HAL_Driver/Src/stm32l0xx_hal_uart.c **** 
1462:Drivers/STM32L0xx_HAL_Driver/Src/stm32l0xx_hal_uart.c ****       /* Enable the UART transmit DMA channel */
1463:Drivers/STM32L0xx_HAL_Driver/Src/stm32l0xx_hal_uart.c ****       if (HAL_DMA_Start_IT(huart->hdmatx, (uint32_t)huart->pTxBuffPtr, (uint32_t)&huart->Instance->
 1990              		.loc 1 1463 11
 1991 00b0 FB68     		ldr	r3, [r7, #12]
 1992 00b2 D86E     		ldr	r0, [r3, #108]
 1993              		.loc 1 1463 58
 1994 00b4 FB68     		ldr	r3, [r7, #12]
 1995 00b6 DB6C     		ldr	r3, [r3, #76]
 1996              		.loc 1 1463 11
 1997 00b8 1900     		movs	r1, r3
 1998              		.loc 1 1463 88
 1999 00ba FB68     		ldr	r3, [r7, #12]
 2000 00bc 1B68     		ldr	r3, [r3]
 2001              		.loc 1 1463 82
 2002 00be 2833     		adds	r3, r3, #40
 2003              		.loc 1 1463 11
 2004 00c0 1A00     		movs	r2, r3
 2005 00c2 BB1D     		adds	r3, r7, #6
 2006 00c4 1B88     		ldrh	r3, [r3]
 2007 00c6 FFF7FEFF 		bl	HAL_DMA_Start_IT
 2008 00ca 031E     		subs	r3, r0, #0
 2009              		.loc 1 1463 10
 2010 00cc 0CD0     		beq	.L109
1464:Drivers/STM32L0xx_HAL_Driver/Src/stm32l0xx_hal_uart.c ****       {
1465:Drivers/STM32L0xx_HAL_Driver/Src/stm32l0xx_hal_uart.c ****         /* Set error code to DMA */
ARM GAS  C:\Users\lidka\AppData\Local\Temp\ccqOATUZ.s 			page 69


1466:Drivers/STM32L0xx_HAL_Driver/Src/stm32l0xx_hal_uart.c ****         huart->ErrorCode = HAL_UART_ERROR_DMA;
 2011              		.loc 1 1466 26
 2012 00ce FB68     		ldr	r3, [r7, #12]
 2013 00d0 8022     		movs	r2, #128
 2014 00d2 1021     		movs	r1, #16
 2015 00d4 9950     		str	r1, [r3, r2]
1467:Drivers/STM32L0xx_HAL_Driver/Src/stm32l0xx_hal_uart.c **** 
1468:Drivers/STM32L0xx_HAL_Driver/Src/stm32l0xx_hal_uart.c ****         __HAL_UNLOCK(huart);
 2016              		.loc 1 1468 9
 2017 00d6 FB68     		ldr	r3, [r7, #12]
 2018 00d8 7422     		movs	r2, #116
 2019 00da 0021     		movs	r1, #0
 2020 00dc 9954     		strb	r1, [r3, r2]
1469:Drivers/STM32L0xx_HAL_Driver/Src/stm32l0xx_hal_uart.c **** 
1470:Drivers/STM32L0xx_HAL_Driver/Src/stm32l0xx_hal_uart.c ****         /* Restore huart->gState to ready */
1471:Drivers/STM32L0xx_HAL_Driver/Src/stm32l0xx_hal_uart.c ****         huart->gState = HAL_UART_STATE_READY;
 2021              		.loc 1 1471 23
 2022 00de FB68     		ldr	r3, [r7, #12]
 2023 00e0 2022     		movs	r2, #32
 2024 00e2 9A67     		str	r2, [r3, #120]
1472:Drivers/STM32L0xx_HAL_Driver/Src/stm32l0xx_hal_uart.c **** 
1473:Drivers/STM32L0xx_HAL_Driver/Src/stm32l0xx_hal_uart.c ****         return HAL_ERROR;
 2025              		.loc 1 1473 16
 2026 00e4 0123     		movs	r3, #1
 2027 00e6 23E0     		b	.L106
 2028              	.L109:
1474:Drivers/STM32L0xx_HAL_Driver/Src/stm32l0xx_hal_uart.c ****       }
1475:Drivers/STM32L0xx_HAL_Driver/Src/stm32l0xx_hal_uart.c ****     }
1476:Drivers/STM32L0xx_HAL_Driver/Src/stm32l0xx_hal_uart.c ****     /* Clear the TC flag in the ICR register */
1477:Drivers/STM32L0xx_HAL_Driver/Src/stm32l0xx_hal_uart.c ****     __HAL_UART_CLEAR_FLAG(huart, UART_CLEAR_TCF);
 2029              		.loc 1 1477 5
 2030 00e8 FB68     		ldr	r3, [r7, #12]
 2031 00ea 1B68     		ldr	r3, [r3]
 2032 00ec 4022     		movs	r2, #64
 2033 00ee 1A62     		str	r2, [r3, #32]
1478:Drivers/STM32L0xx_HAL_Driver/Src/stm32l0xx_hal_uart.c **** 
1479:Drivers/STM32L0xx_HAL_Driver/Src/stm32l0xx_hal_uart.c ****     __HAL_UNLOCK(huart);
 2034              		.loc 1 1479 5
 2035 00f0 FB68     		ldr	r3, [r7, #12]
 2036 00f2 7422     		movs	r2, #116
 2037 00f4 0021     		movs	r1, #0
 2038 00f6 9954     		strb	r1, [r3, r2]
 2039              	.LBB578:
 2040              	.LBB579:
 2041              	.LBB580:
 386:Drivers/CMSIS/Include/cmsis_gcc.h ****   return(result);
 2042              		.loc 2 386 3
 2043              		.syntax divided
 2044              	@ 386 "Drivers/CMSIS/Include/cmsis_gcc.h" 1
 2045 00f8 EFF31083 		MRS r3, primask
 2046              	@ 0 "" 2
 2047              		.thumb
 2048              		.syntax unified
 2049 00fc 3B61     		str	r3, [r7, #16]
 387:Drivers/CMSIS/Include/cmsis_gcc.h **** }
 2050              		.loc 2 387 9
 2051 00fe 3B69     		ldr	r3, [r7, #16]
ARM GAS  C:\Users\lidka\AppData\Local\Temp\ccqOATUZ.s 			page 70


 2052              	.LBE580:
 2053              	.LBE579:
1480:Drivers/STM32L0xx_HAL_Driver/Src/stm32l0xx_hal_uart.c **** 
1481:Drivers/STM32L0xx_HAL_Driver/Src/stm32l0xx_hal_uart.c ****     /* Enable the DMA transfer for transmit request by setting the DMAT bit
1482:Drivers/STM32L0xx_HAL_Driver/Src/stm32l0xx_hal_uart.c ****     in the UART CR3 register */
1483:Drivers/STM32L0xx_HAL_Driver/Src/stm32l0xx_hal_uart.c ****     ATOMIC_SET_BIT(huart->Instance->CR3, USART_CR3_DMAT);
 2054              		.loc 1 1483 5
 2055 0100 FB61     		str	r3, [r7, #28]
 2056 0102 0123     		movs	r3, #1
 2057 0104 7B61     		str	r3, [r7, #20]
 2058              	.LBB581:
 2059              	.LBB582:
 414:Drivers/CMSIS/Include/cmsis_gcc.h **** }
 2060              		.loc 2 414 3
 2061 0106 7B69     		ldr	r3, [r7, #20]
 2062              		.syntax divided
 2063              	@ 414 "Drivers/CMSIS/Include/cmsis_gcc.h" 1
 2064 0108 83F31088 		MSR primask, r3
 2065              	@ 0 "" 2
 2066              		.loc 2 415 1
 2067              		.thumb
 2068              		.syntax unified
 2069 010c C046     		nop
 2070              	.LBE582:
 2071              	.LBE581:
 2072              		.loc 1 1483 5
 2073 010e FB68     		ldr	r3, [r7, #12]
 2074 0110 1B68     		ldr	r3, [r3]
 2075 0112 9A68     		ldr	r2, [r3, #8]
 2076 0114 FB68     		ldr	r3, [r7, #12]
 2077 0116 1B68     		ldr	r3, [r3]
 2078 0118 8021     		movs	r1, #128
 2079 011a 0A43     		orrs	r2, r1
 2080 011c 9A60     		str	r2, [r3, #8]
 2081 011e FB69     		ldr	r3, [r7, #28]
 2082 0120 BB61     		str	r3, [r7, #24]
 2083              	.LBB583:
 2084              	.LBB584:
 414:Drivers/CMSIS/Include/cmsis_gcc.h **** }
 2085              		.loc 2 414 3
 2086 0122 BB69     		ldr	r3, [r7, #24]
 2087              		.syntax divided
 2088              	@ 414 "Drivers/CMSIS/Include/cmsis_gcc.h" 1
 2089 0124 83F31088 		MSR primask, r3
 2090              	@ 0 "" 2
 2091              		.loc 2 415 1
 2092              		.thumb
 2093              		.syntax unified
 2094 0128 C046     		nop
 2095              	.LBE584:
 2096              	.LBE583:
 2097              	.LBE578:
1484:Drivers/STM32L0xx_HAL_Driver/Src/stm32l0xx_hal_uart.c **** 
1485:Drivers/STM32L0xx_HAL_Driver/Src/stm32l0xx_hal_uart.c ****     return HAL_OK;
 2098              		.loc 1 1485 12
 2099 012a 0023     		movs	r3, #0
 2100 012c 00E0     		b	.L106
ARM GAS  C:\Users\lidka\AppData\Local\Temp\ccqOATUZ.s 			page 71


 2101              	.L103:
1486:Drivers/STM32L0xx_HAL_Driver/Src/stm32l0xx_hal_uart.c ****   }
1487:Drivers/STM32L0xx_HAL_Driver/Src/stm32l0xx_hal_uart.c ****   else
1488:Drivers/STM32L0xx_HAL_Driver/Src/stm32l0xx_hal_uart.c ****   {
1489:Drivers/STM32L0xx_HAL_Driver/Src/stm32l0xx_hal_uart.c ****     return HAL_BUSY;
 2102              		.loc 1 1489 12
 2103 012e 0223     		movs	r3, #2
 2104              	.L106:
1490:Drivers/STM32L0xx_HAL_Driver/Src/stm32l0xx_hal_uart.c ****   }
1491:Drivers/STM32L0xx_HAL_Driver/Src/stm32l0xx_hal_uart.c **** }
 2105              		.loc 1 1491 1
 2106 0130 1800     		movs	r0, r3
 2107 0132 BD46     		mov	sp, r7
 2108 0134 08B0     		add	sp, sp, #32
 2109              		@ sp needed
 2110 0136 80BD     		pop	{r7, pc}
 2111              	.L112:
 2112              		.align	2
 2113              	.L111:
 2114 0138 00000000 		.word	UART_DMATransmitCplt
 2115 013c 00000000 		.word	UART_DMATxHalfCplt
 2116 0140 00000000 		.word	UART_DMAError
 2117              		.cfi_endproc
 2118              	.LFE58:
 2120              		.section	.text.HAL_UART_Receive_DMA,"ax",%progbits
 2121              		.align	1
 2122              		.global	HAL_UART_Receive_DMA
 2123              		.syntax unified
 2124              		.code	16
 2125              		.thumb_func
 2127              	HAL_UART_Receive_DMA:
 2128              	.LFB59:
1492:Drivers/STM32L0xx_HAL_Driver/Src/stm32l0xx_hal_uart.c **** 
1493:Drivers/STM32L0xx_HAL_Driver/Src/stm32l0xx_hal_uart.c **** /**
1494:Drivers/STM32L0xx_HAL_Driver/Src/stm32l0xx_hal_uart.c ****   * @brief Receive an amount of data in DMA mode.
1495:Drivers/STM32L0xx_HAL_Driver/Src/stm32l0xx_hal_uart.c ****   * @note   When the UART parity is enabled (PCE = 1), the received data contain
1496:Drivers/STM32L0xx_HAL_Driver/Src/stm32l0xx_hal_uart.c ****   *         the parity bit (MSB position).
1497:Drivers/STM32L0xx_HAL_Driver/Src/stm32l0xx_hal_uart.c ****   * @note   When UART parity is not enabled (PCE = 0), and Word Length is configured to 9 bits (M1-
1498:Drivers/STM32L0xx_HAL_Driver/Src/stm32l0xx_hal_uart.c ****   *         the received data is handled as a set of u16. In this case, Size must indicate the numb
1499:Drivers/STM32L0xx_HAL_Driver/Src/stm32l0xx_hal_uart.c ****   *         of u16 available through pData.
1500:Drivers/STM32L0xx_HAL_Driver/Src/stm32l0xx_hal_uart.c ****   * @note   When UART parity is not enabled (PCE = 0), and Word Length is configured to 9 bits (M1-
1501:Drivers/STM32L0xx_HAL_Driver/Src/stm32l0xx_hal_uart.c ****   *         address of user data buffer for storing data to be received, should be aligned on a hal
1502:Drivers/STM32L0xx_HAL_Driver/Src/stm32l0xx_hal_uart.c ****   *         (16 bits) (as received data will be handled by DMA from halfword frontier). Depending o
1503:Drivers/STM32L0xx_HAL_Driver/Src/stm32l0xx_hal_uart.c ****   *         use of specific alignment compilation directives or pragmas might be required
1504:Drivers/STM32L0xx_HAL_Driver/Src/stm32l0xx_hal_uart.c ****   *         to ensure proper alignment for pData.
1505:Drivers/STM32L0xx_HAL_Driver/Src/stm32l0xx_hal_uart.c ****   * @param huart UART handle.
1506:Drivers/STM32L0xx_HAL_Driver/Src/stm32l0xx_hal_uart.c ****   * @param pData Pointer to data buffer (u8 or u16 data elements).
1507:Drivers/STM32L0xx_HAL_Driver/Src/stm32l0xx_hal_uart.c ****   * @param Size  Amount of data elements (u8 or u16) to be received.
1508:Drivers/STM32L0xx_HAL_Driver/Src/stm32l0xx_hal_uart.c ****   * @retval HAL status
1509:Drivers/STM32L0xx_HAL_Driver/Src/stm32l0xx_hal_uart.c ****   */
1510:Drivers/STM32L0xx_HAL_Driver/Src/stm32l0xx_hal_uart.c **** HAL_StatusTypeDef HAL_UART_Receive_DMA(UART_HandleTypeDef *huart, uint8_t *pData, uint16_t Size)
1511:Drivers/STM32L0xx_HAL_Driver/Src/stm32l0xx_hal_uart.c **** {
 2129              		.loc 1 1511 1
 2130              		.cfi_startproc
 2131              		@ args = 0, pretend = 0, frame = 32
 2132              		@ frame_needed = 1, uses_anonymous_args = 0
 2133 0000 80B5     		push	{r7, lr}
ARM GAS  C:\Users\lidka\AppData\Local\Temp\ccqOATUZ.s 			page 72


 2134              	.LCFI36:
 2135              		.cfi_def_cfa_offset 8
 2136              		.cfi_offset 7, -8
 2137              		.cfi_offset 14, -4
 2138 0002 88B0     		sub	sp, sp, #32
 2139              	.LCFI37:
 2140              		.cfi_def_cfa_offset 40
 2141 0004 00AF     		add	r7, sp, #0
 2142              	.LCFI38:
 2143              		.cfi_def_cfa_register 7
 2144 0006 F860     		str	r0, [r7, #12]
 2145 0008 B960     		str	r1, [r7, #8]
 2146 000a BB1D     		adds	r3, r7, #6
 2147 000c 1A80     		strh	r2, [r3]
1512:Drivers/STM32L0xx_HAL_Driver/Src/stm32l0xx_hal_uart.c ****   /* Check that a Rx process is not already ongoing */
1513:Drivers/STM32L0xx_HAL_Driver/Src/stm32l0xx_hal_uart.c ****   if (huart->RxState == HAL_UART_STATE_READY)
 2148              		.loc 1 1513 12
 2149 000e FB68     		ldr	r3, [r7, #12]
 2150 0010 DB6F     		ldr	r3, [r3, #124]
 2151              		.loc 1 1513 6
 2152 0012 202B     		cmp	r3, #32
 2153 0014 55D1     		bne	.L114
1514:Drivers/STM32L0xx_HAL_Driver/Src/stm32l0xx_hal_uart.c ****   {
1515:Drivers/STM32L0xx_HAL_Driver/Src/stm32l0xx_hal_uart.c ****     if ((pData == NULL) || (Size == 0U))
 2154              		.loc 1 1515 8
 2155 0016 BB68     		ldr	r3, [r7, #8]
 2156 0018 002B     		cmp	r3, #0
 2157 001a 03D0     		beq	.L115
 2158              		.loc 1 1515 25 discriminator 1
 2159 001c BB1D     		adds	r3, r7, #6
 2160 001e 1B88     		ldrh	r3, [r3]
 2161 0020 002B     		cmp	r3, #0
 2162 0022 01D1     		bne	.L116
 2163              	.L115:
1516:Drivers/STM32L0xx_HAL_Driver/Src/stm32l0xx_hal_uart.c ****     {
1517:Drivers/STM32L0xx_HAL_Driver/Src/stm32l0xx_hal_uart.c ****       return HAL_ERROR;
 2164              		.loc 1 1517 14
 2165 0024 0123     		movs	r3, #1
 2166 0026 4DE0     		b	.L117
 2167              	.L116:
1518:Drivers/STM32L0xx_HAL_Driver/Src/stm32l0xx_hal_uart.c ****     }
1519:Drivers/STM32L0xx_HAL_Driver/Src/stm32l0xx_hal_uart.c **** 
1520:Drivers/STM32L0xx_HAL_Driver/Src/stm32l0xx_hal_uart.c ****     /* In case of 9bits/No Parity transfer, pData buffer provided as input parameter
1521:Drivers/STM32L0xx_HAL_Driver/Src/stm32l0xx_hal_uart.c ****        should be aligned on a u16 frontier, as data copy from RDR will be
1522:Drivers/STM32L0xx_HAL_Driver/Src/stm32l0xx_hal_uart.c ****        handled by DMA from a u16 frontier. */
1523:Drivers/STM32L0xx_HAL_Driver/Src/stm32l0xx_hal_uart.c ****     if ((huart->Init.WordLength == UART_WORDLENGTH_9B) && (huart->Init.Parity == UART_PARITY_NONE))
 2168              		.loc 1 1523 21
 2169 0028 FB68     		ldr	r3, [r7, #12]
 2170 002a 9A68     		ldr	r2, [r3, #8]
 2171              		.loc 1 1523 8
 2172 002c 8023     		movs	r3, #128
 2173 002e 5B01     		lsls	r3, r3, #5
 2174 0030 9A42     		cmp	r2, r3
 2175 0032 09D1     		bne	.L118
 2176              		.loc 1 1523 71 discriminator 1
 2177 0034 FB68     		ldr	r3, [r7, #12]
 2178 0036 1B69     		ldr	r3, [r3, #16]
ARM GAS  C:\Users\lidka\AppData\Local\Temp\ccqOATUZ.s 			page 73


 2179              		.loc 1 1523 56 discriminator 1
 2180 0038 002B     		cmp	r3, #0
 2181 003a 05D1     		bne	.L118
1524:Drivers/STM32L0xx_HAL_Driver/Src/stm32l0xx_hal_uart.c ****     {
1525:Drivers/STM32L0xx_HAL_Driver/Src/stm32l0xx_hal_uart.c ****       if ((((uint32_t)pData) & 1U) != 0U)
 2182              		.loc 1 1525 13
 2183 003c BB68     		ldr	r3, [r7, #8]
 2184              		.loc 1 1525 30
 2185 003e 0122     		movs	r2, #1
 2186 0040 1340     		ands	r3, r2
 2187              		.loc 1 1525 10
 2188 0042 01D0     		beq	.L118
1526:Drivers/STM32L0xx_HAL_Driver/Src/stm32l0xx_hal_uart.c ****       {
1527:Drivers/STM32L0xx_HAL_Driver/Src/stm32l0xx_hal_uart.c ****         return  HAL_ERROR;
 2189              		.loc 1 1527 17
 2190 0044 0123     		movs	r3, #1
 2191 0046 3DE0     		b	.L117
 2192              	.L118:
1528:Drivers/STM32L0xx_HAL_Driver/Src/stm32l0xx_hal_uart.c ****       }
1529:Drivers/STM32L0xx_HAL_Driver/Src/stm32l0xx_hal_uart.c ****     }
1530:Drivers/STM32L0xx_HAL_Driver/Src/stm32l0xx_hal_uart.c **** 
1531:Drivers/STM32L0xx_HAL_Driver/Src/stm32l0xx_hal_uart.c ****     __HAL_LOCK(huart);
 2193              		.loc 1 1531 5
 2194 0048 FB68     		ldr	r3, [r7, #12]
 2195 004a 7422     		movs	r2, #116
 2196 004c 9B5C     		ldrb	r3, [r3, r2]
 2197 004e 012B     		cmp	r3, #1
 2198 0050 01D1     		bne	.L119
 2199              		.loc 1 1531 5 is_stmt 0 discriminator 1
 2200 0052 0223     		movs	r3, #2
 2201 0054 36E0     		b	.L117
 2202              	.L119:
 2203              		.loc 1 1531 5 discriminator 2
 2204 0056 FB68     		ldr	r3, [r7, #12]
 2205 0058 7422     		movs	r2, #116
 2206 005a 0121     		movs	r1, #1
 2207 005c 9954     		strb	r1, [r3, r2]
1532:Drivers/STM32L0xx_HAL_Driver/Src/stm32l0xx_hal_uart.c **** 
1533:Drivers/STM32L0xx_HAL_Driver/Src/stm32l0xx_hal_uart.c ****     /* Set Reception type to Standard reception */
1534:Drivers/STM32L0xx_HAL_Driver/Src/stm32l0xx_hal_uart.c ****     huart->ReceptionType = HAL_UART_RECEPTION_STANDARD;
 2208              		.loc 1 1534 26 is_stmt 1 discriminator 2
 2209 005e FB68     		ldr	r3, [r7, #12]
 2210 0060 0022     		movs	r2, #0
 2211 0062 1A66     		str	r2, [r3, #96]
1535:Drivers/STM32L0xx_HAL_Driver/Src/stm32l0xx_hal_uart.c **** 
1536:Drivers/STM32L0xx_HAL_Driver/Src/stm32l0xx_hal_uart.c ****     if (!(IS_LPUART_INSTANCE(huart->Instance)))
 2212              		.loc 1 1536 11 discriminator 2
 2213 0064 FB68     		ldr	r3, [r7, #12]
 2214 0066 1B68     		ldr	r3, [r3]
 2215              		.loc 1 1536 8 discriminator 2
 2216 0068 184A     		ldr	r2, .L122
 2217 006a 9342     		cmp	r3, r2
 2218 006c 20D0     		beq	.L120
1537:Drivers/STM32L0xx_HAL_Driver/Src/stm32l0xx_hal_uart.c ****     {
1538:Drivers/STM32L0xx_HAL_Driver/Src/stm32l0xx_hal_uart.c ****       /* Check that USART RTOEN bit is set */
1539:Drivers/STM32L0xx_HAL_Driver/Src/stm32l0xx_hal_uart.c ****       if (READ_BIT(huart->Instance->CR2, USART_CR2_RTOEN) != 0U)
 2219              		.loc 1 1539 11
ARM GAS  C:\Users\lidka\AppData\Local\Temp\ccqOATUZ.s 			page 74


 2220 006e FB68     		ldr	r3, [r7, #12]
 2221 0070 1B68     		ldr	r3, [r3]
 2222 0072 5A68     		ldr	r2, [r3, #4]
 2223 0074 8023     		movs	r3, #128
 2224 0076 1B04     		lsls	r3, r3, #16
 2225 0078 1340     		ands	r3, r2
 2226              		.loc 1 1539 10
 2227 007a 19D0     		beq	.L120
 2228              	.LBB585:
 2229              	.LBB586:
 2230              	.LBB587:
 386:Drivers/CMSIS/Include/cmsis_gcc.h ****   return(result);
 2231              		.loc 2 386 3
 2232              		.syntax divided
 2233              	@ 386 "Drivers/CMSIS/Include/cmsis_gcc.h" 1
 2234 007c EFF31083 		MRS r3, primask
 2235              	@ 0 "" 2
 2236              		.thumb
 2237              		.syntax unified
 2238 0080 3B61     		str	r3, [r7, #16]
 387:Drivers/CMSIS/Include/cmsis_gcc.h **** }
 2239              		.loc 2 387 9
 2240 0082 3B69     		ldr	r3, [r7, #16]
 2241              	.LBE587:
 2242              	.LBE586:
1540:Drivers/STM32L0xx_HAL_Driver/Src/stm32l0xx_hal_uart.c ****       {
1541:Drivers/STM32L0xx_HAL_Driver/Src/stm32l0xx_hal_uart.c ****         /* Enable the UART Receiver Timeout Interrupt */
1542:Drivers/STM32L0xx_HAL_Driver/Src/stm32l0xx_hal_uart.c ****         ATOMIC_SET_BIT(huart->Instance->CR1, USART_CR1_RTOIE);
 2243              		.loc 1 1542 9
 2244 0084 FB61     		str	r3, [r7, #28]
 2245 0086 0123     		movs	r3, #1
 2246 0088 7B61     		str	r3, [r7, #20]
 2247              	.LBB588:
 2248              	.LBB589:
 414:Drivers/CMSIS/Include/cmsis_gcc.h **** }
 2249              		.loc 2 414 3
 2250 008a 7B69     		ldr	r3, [r7, #20]
 2251              		.syntax divided
 2252              	@ 414 "Drivers/CMSIS/Include/cmsis_gcc.h" 1
 2253 008c 83F31088 		MSR primask, r3
 2254              	@ 0 "" 2
 2255              		.loc 2 415 1
 2256              		.thumb
 2257              		.syntax unified
 2258 0090 C046     		nop
 2259              	.LBE589:
 2260              	.LBE588:
 2261              		.loc 1 1542 9
 2262 0092 FB68     		ldr	r3, [r7, #12]
 2263 0094 1B68     		ldr	r3, [r3]
 2264 0096 1A68     		ldr	r2, [r3]
 2265 0098 FB68     		ldr	r3, [r7, #12]
 2266 009a 1B68     		ldr	r3, [r3]
 2267 009c 8021     		movs	r1, #128
 2268 009e C904     		lsls	r1, r1, #19
 2269 00a0 0A43     		orrs	r2, r1
 2270 00a2 1A60     		str	r2, [r3]
ARM GAS  C:\Users\lidka\AppData\Local\Temp\ccqOATUZ.s 			page 75


 2271 00a4 FB69     		ldr	r3, [r7, #28]
 2272 00a6 BB61     		str	r3, [r7, #24]
 2273              	.LBB590:
 2274              	.LBB591:
 414:Drivers/CMSIS/Include/cmsis_gcc.h **** }
 2275              		.loc 2 414 3
 2276 00a8 BB69     		ldr	r3, [r7, #24]
 2277              		.syntax divided
 2278              	@ 414 "Drivers/CMSIS/Include/cmsis_gcc.h" 1
 2279 00aa 83F31088 		MSR primask, r3
 2280              	@ 0 "" 2
 2281              		.loc 2 415 1
 2282              		.thumb
 2283              		.syntax unified
 2284 00ae C046     		nop
 2285              	.L120:
 2286              	.LBE591:
 2287              	.LBE590:
 2288              	.LBE585:
1543:Drivers/STM32L0xx_HAL_Driver/Src/stm32l0xx_hal_uart.c ****       }
1544:Drivers/STM32L0xx_HAL_Driver/Src/stm32l0xx_hal_uart.c ****     }
1545:Drivers/STM32L0xx_HAL_Driver/Src/stm32l0xx_hal_uart.c **** 
1546:Drivers/STM32L0xx_HAL_Driver/Src/stm32l0xx_hal_uart.c ****     return (UART_Start_Receive_DMA(huart, pData, Size));
 2289              		.loc 1 1546 13
 2290 00b0 BB1D     		adds	r3, r7, #6
 2291 00b2 1A88     		ldrh	r2, [r3]
 2292 00b4 B968     		ldr	r1, [r7, #8]
 2293 00b6 FB68     		ldr	r3, [r7, #12]
 2294 00b8 1800     		movs	r0, r3
 2295 00ba FFF7FEFF 		bl	UART_Start_Receive_DMA
 2296 00be 0300     		movs	r3, r0
 2297 00c0 00E0     		b	.L117
 2298              	.L114:
1547:Drivers/STM32L0xx_HAL_Driver/Src/stm32l0xx_hal_uart.c ****   }
1548:Drivers/STM32L0xx_HAL_Driver/Src/stm32l0xx_hal_uart.c ****   else
1549:Drivers/STM32L0xx_HAL_Driver/Src/stm32l0xx_hal_uart.c ****   {
1550:Drivers/STM32L0xx_HAL_Driver/Src/stm32l0xx_hal_uart.c ****     return HAL_BUSY;
 2299              		.loc 1 1550 12
 2300 00c2 0223     		movs	r3, #2
 2301              	.L117:
1551:Drivers/STM32L0xx_HAL_Driver/Src/stm32l0xx_hal_uart.c ****   }
1552:Drivers/STM32L0xx_HAL_Driver/Src/stm32l0xx_hal_uart.c **** }
 2302              		.loc 1 1552 1
 2303 00c4 1800     		movs	r0, r3
 2304 00c6 BD46     		mov	sp, r7
 2305 00c8 08B0     		add	sp, sp, #32
 2306              		@ sp needed
 2307 00ca 80BD     		pop	{r7, pc}
 2308              	.L123:
 2309              		.align	2
 2310              	.L122:
 2311 00cc 00480040 		.word	1073760256
 2312              		.cfi_endproc
 2313              	.LFE59:
 2315              		.section	.text.HAL_UART_DMAPause,"ax",%progbits
 2316              		.align	1
 2317              		.global	HAL_UART_DMAPause
ARM GAS  C:\Users\lidka\AppData\Local\Temp\ccqOATUZ.s 			page 76


 2318              		.syntax unified
 2319              		.code	16
 2320              		.thumb_func
 2322              	HAL_UART_DMAPause:
 2323              	.LFB60:
1553:Drivers/STM32L0xx_HAL_Driver/Src/stm32l0xx_hal_uart.c **** 
1554:Drivers/STM32L0xx_HAL_Driver/Src/stm32l0xx_hal_uart.c **** /**
1555:Drivers/STM32L0xx_HAL_Driver/Src/stm32l0xx_hal_uart.c ****   * @brief Pause the DMA Transfer.
1556:Drivers/STM32L0xx_HAL_Driver/Src/stm32l0xx_hal_uart.c ****   * @param huart UART handle.
1557:Drivers/STM32L0xx_HAL_Driver/Src/stm32l0xx_hal_uart.c ****   * @retval HAL status
1558:Drivers/STM32L0xx_HAL_Driver/Src/stm32l0xx_hal_uart.c ****   */
1559:Drivers/STM32L0xx_HAL_Driver/Src/stm32l0xx_hal_uart.c **** HAL_StatusTypeDef HAL_UART_DMAPause(UART_HandleTypeDef *huart)
1560:Drivers/STM32L0xx_HAL_Driver/Src/stm32l0xx_hal_uart.c **** {
 2324              		.loc 1 1560 1
 2325              		.cfi_startproc
 2326              		@ args = 0, pretend = 0, frame = 80
 2327              		@ frame_needed = 1, uses_anonymous_args = 0
 2328 0000 80B5     		push	{r7, lr}
 2329              	.LCFI39:
 2330              		.cfi_def_cfa_offset 8
 2331              		.cfi_offset 7, -8
 2332              		.cfi_offset 14, -4
 2333 0002 94B0     		sub	sp, sp, #80
 2334              	.LCFI40:
 2335              		.cfi_def_cfa_offset 88
 2336 0004 00AF     		add	r7, sp, #0
 2337              	.LCFI41:
 2338              		.cfi_def_cfa_register 7
 2339 0006 7860     		str	r0, [r7, #4]
1561:Drivers/STM32L0xx_HAL_Driver/Src/stm32l0xx_hal_uart.c ****   const HAL_UART_StateTypeDef gstate = huart->gState;
 2340              		.loc 1 1561 31
 2341 0008 7B68     		ldr	r3, [r7, #4]
 2342 000a 9B6F     		ldr	r3, [r3, #120]
 2343 000c FB64     		str	r3, [r7, #76]
1562:Drivers/STM32L0xx_HAL_Driver/Src/stm32l0xx_hal_uart.c ****   const HAL_UART_StateTypeDef rxstate = huart->RxState;
 2344              		.loc 1 1562 31
 2345 000e 7B68     		ldr	r3, [r7, #4]
 2346 0010 DB6F     		ldr	r3, [r3, #124]
 2347 0012 BB64     		str	r3, [r7, #72]
1563:Drivers/STM32L0xx_HAL_Driver/Src/stm32l0xx_hal_uart.c **** 
1564:Drivers/STM32L0xx_HAL_Driver/Src/stm32l0xx_hal_uart.c ****   __HAL_LOCK(huart);
 2348              		.loc 1 1564 3
 2349 0014 7B68     		ldr	r3, [r7, #4]
 2350 0016 7422     		movs	r2, #116
 2351 0018 9B5C     		ldrb	r3, [r3, r2]
 2352 001a 012B     		cmp	r3, #1
 2353 001c 01D1     		bne	.L125
 2354              		.loc 1 1564 3 is_stmt 0 discriminator 1
 2355 001e 0223     		movs	r3, #2
 2356 0020 80E0     		b	.L126
 2357              	.L125:
 2358              		.loc 1 1564 3 discriminator 2
 2359 0022 7B68     		ldr	r3, [r7, #4]
 2360 0024 7422     		movs	r2, #116
 2361 0026 0121     		movs	r1, #1
 2362 0028 9954     		strb	r1, [r3, r2]
1565:Drivers/STM32L0xx_HAL_Driver/Src/stm32l0xx_hal_uart.c **** 
ARM GAS  C:\Users\lidka\AppData\Local\Temp\ccqOATUZ.s 			page 77


1566:Drivers/STM32L0xx_HAL_Driver/Src/stm32l0xx_hal_uart.c ****   if ((HAL_IS_BIT_SET(huart->Instance->CR3, USART_CR3_DMAT)) &&
 2363              		.loc 1 1566 8 is_stmt 1 discriminator 2
 2364 002a 7B68     		ldr	r3, [r7, #4]
 2365 002c 1B68     		ldr	r3, [r3]
 2366 002e 9B68     		ldr	r3, [r3, #8]
 2367 0030 8022     		movs	r2, #128
 2368 0032 1340     		ands	r3, r2
 2369              		.loc 1 1566 6 discriminator 2
 2370 0034 802B     		cmp	r3, #128
 2371 0036 1BD1     		bne	.L127
 2372              		.loc 1 1566 62 discriminator 1
 2373 0038 FB6C     		ldr	r3, [r7, #76]
 2374 003a 212B     		cmp	r3, #33
 2375 003c 18D1     		bne	.L127
 2376              	.LBB592:
 2377              	.LBB593:
 2378              	.LBB594:
 386:Drivers/CMSIS/Include/cmsis_gcc.h ****   return(result);
 2379              		.loc 2 386 3
 2380              		.syntax divided
 2381              	@ 386 "Drivers/CMSIS/Include/cmsis_gcc.h" 1
 2382 003e EFF31083 		MRS r3, primask
 2383              	@ 0 "" 2
 2384              		.thumb
 2385              		.syntax unified
 2386 0042 FB62     		str	r3, [r7, #44]
 387:Drivers/CMSIS/Include/cmsis_gcc.h **** }
 2387              		.loc 2 387 9
 2388 0044 FB6A     		ldr	r3, [r7, #44]
 2389              	.LBE594:
 2390              	.LBE593:
1567:Drivers/STM32L0xx_HAL_Driver/Src/stm32l0xx_hal_uart.c ****       (gstate == HAL_UART_STATE_BUSY_TX))
1568:Drivers/STM32L0xx_HAL_Driver/Src/stm32l0xx_hal_uart.c ****   {
1569:Drivers/STM32L0xx_HAL_Driver/Src/stm32l0xx_hal_uart.c ****     /* Disable the UART DMA Tx request */
1570:Drivers/STM32L0xx_HAL_Driver/Src/stm32l0xx_hal_uart.c ****     ATOMIC_CLEAR_BIT(huart->Instance->CR3, USART_CR3_DMAT);
 2391              		.loc 1 1570 5
 2392 0046 7B64     		str	r3, [r7, #68]
 2393 0048 0123     		movs	r3, #1
 2394 004a 3B63     		str	r3, [r7, #48]
 2395              	.LBB595:
 2396              	.LBB596:
 414:Drivers/CMSIS/Include/cmsis_gcc.h **** }
 2397              		.loc 2 414 3
 2398 004c 3B6B     		ldr	r3, [r7, #48]
 2399              		.syntax divided
 2400              	@ 414 "Drivers/CMSIS/Include/cmsis_gcc.h" 1
 2401 004e 83F31088 		MSR primask, r3
 2402              	@ 0 "" 2
 2403              		.loc 2 415 1
 2404              		.thumb
 2405              		.syntax unified
 2406 0052 C046     		nop
 2407              	.LBE596:
 2408              	.LBE595:
 2409              		.loc 1 1570 5
 2410 0054 7B68     		ldr	r3, [r7, #4]
 2411 0056 1B68     		ldr	r3, [r3]
ARM GAS  C:\Users\lidka\AppData\Local\Temp\ccqOATUZ.s 			page 78


 2412 0058 9A68     		ldr	r2, [r3, #8]
 2413 005a 7B68     		ldr	r3, [r7, #4]
 2414 005c 1B68     		ldr	r3, [r3]
 2415 005e 8021     		movs	r1, #128
 2416 0060 8A43     		bics	r2, r1
 2417 0062 9A60     		str	r2, [r3, #8]
 2418 0064 7B6C     		ldr	r3, [r7, #68]
 2419 0066 7B63     		str	r3, [r7, #52]
 2420              	.LBB597:
 2421              	.LBB598:
 414:Drivers/CMSIS/Include/cmsis_gcc.h **** }
 2422              		.loc 2 414 3
 2423 0068 7B6B     		ldr	r3, [r7, #52]
 2424              		.syntax divided
 2425              	@ 414 "Drivers/CMSIS/Include/cmsis_gcc.h" 1
 2426 006a 83F31088 		MSR primask, r3
 2427              	@ 0 "" 2
 2428              		.loc 2 415 1
 2429              		.thumb
 2430              		.syntax unified
 2431 006e C046     		nop
 2432              	.L127:
 2433              	.LBE598:
 2434              	.LBE597:
 2435              	.LBE592:
1571:Drivers/STM32L0xx_HAL_Driver/Src/stm32l0xx_hal_uart.c ****   }
1572:Drivers/STM32L0xx_HAL_Driver/Src/stm32l0xx_hal_uart.c ****   if ((HAL_IS_BIT_SET(huart->Instance->CR3, USART_CR3_DMAR)) &&
 2436              		.loc 1 1572 8
 2437 0070 7B68     		ldr	r3, [r7, #4]
 2438 0072 1B68     		ldr	r3, [r3]
 2439 0074 9B68     		ldr	r3, [r3, #8]
 2440 0076 4022     		movs	r2, #64
 2441 0078 1340     		ands	r3, r2
 2442              		.loc 1 1572 6
 2443 007a 402B     		cmp	r3, #64
 2444 007c 4DD1     		bne	.L129
 2445              		.loc 1 1572 62 discriminator 1
 2446 007e BB6C     		ldr	r3, [r7, #72]
 2447 0080 222B     		cmp	r3, #34
 2448 0082 4AD1     		bne	.L129
 2449              	.LBB599:
 2450              	.LBB600:
 2451              	.LBB601:
 386:Drivers/CMSIS/Include/cmsis_gcc.h ****   return(result);
 2452              		.loc 2 386 3
 2453              		.syntax divided
 2454              	@ 386 "Drivers/CMSIS/Include/cmsis_gcc.h" 1
 2455 0084 EFF31083 		MRS r3, primask
 2456              	@ 0 "" 2
 2457              		.thumb
 2458              		.syntax unified
 2459 0088 BB60     		str	r3, [r7, #8]
 387:Drivers/CMSIS/Include/cmsis_gcc.h **** }
 2460              		.loc 2 387 9
 2461 008a BB68     		ldr	r3, [r7, #8]
 2462              	.LBE601:
 2463              	.LBE600:
ARM GAS  C:\Users\lidka\AppData\Local\Temp\ccqOATUZ.s 			page 79


1573:Drivers/STM32L0xx_HAL_Driver/Src/stm32l0xx_hal_uart.c ****       (rxstate == HAL_UART_STATE_BUSY_RX))
1574:Drivers/STM32L0xx_HAL_Driver/Src/stm32l0xx_hal_uart.c ****   {
1575:Drivers/STM32L0xx_HAL_Driver/Src/stm32l0xx_hal_uart.c ****     /* Disable PE and ERR (Frame error, noise error, overrun error) interrupts */
1576:Drivers/STM32L0xx_HAL_Driver/Src/stm32l0xx_hal_uart.c ****     ATOMIC_CLEAR_BIT(huart->Instance->CR1, USART_CR1_PEIE);
 2464              		.loc 1 1576 5
 2465 008c 3B64     		str	r3, [r7, #64]
 2466 008e 0123     		movs	r3, #1
 2467 0090 FB60     		str	r3, [r7, #12]
 2468              	.LBB602:
 2469              	.LBB603:
 414:Drivers/CMSIS/Include/cmsis_gcc.h **** }
 2470              		.loc 2 414 3
 2471 0092 FB68     		ldr	r3, [r7, #12]
 2472              		.syntax divided
 2473              	@ 414 "Drivers/CMSIS/Include/cmsis_gcc.h" 1
 2474 0094 83F31088 		MSR primask, r3
 2475              	@ 0 "" 2
 2476              		.loc 2 415 1
 2477              		.thumb
 2478              		.syntax unified
 2479 0098 C046     		nop
 2480              	.LBE603:
 2481              	.LBE602:
 2482              		.loc 1 1576 5
 2483 009a 7B68     		ldr	r3, [r7, #4]
 2484 009c 1B68     		ldr	r3, [r3]
 2485 009e 1A68     		ldr	r2, [r3]
 2486 00a0 7B68     		ldr	r3, [r7, #4]
 2487 00a2 1B68     		ldr	r3, [r3]
 2488 00a4 2149     		ldr	r1, .L133
 2489 00a6 0A40     		ands	r2, r1
 2490 00a8 1A60     		str	r2, [r3]
 2491 00aa 3B6C     		ldr	r3, [r7, #64]
 2492 00ac 3B61     		str	r3, [r7, #16]
 2493              	.LBB604:
 2494              	.LBB605:
 414:Drivers/CMSIS/Include/cmsis_gcc.h **** }
 2495              		.loc 2 414 3
 2496 00ae 3B69     		ldr	r3, [r7, #16]
 2497              		.syntax divided
 2498              	@ 414 "Drivers/CMSIS/Include/cmsis_gcc.h" 1
 2499 00b0 83F31088 		MSR primask, r3
 2500              	@ 0 "" 2
 2501              		.loc 2 415 1
 2502              		.thumb
 2503              		.syntax unified
 2504 00b4 C046     		nop
 2505              	.LBE605:
 2506              	.LBE604:
 2507              	.LBE599:
 2508              	.LBB606:
 2509              	.LBB607:
 2510              	.LBB608:
 386:Drivers/CMSIS/Include/cmsis_gcc.h ****   return(result);
 2511              		.loc 2 386 3
 2512              		.syntax divided
 2513              	@ 386 "Drivers/CMSIS/Include/cmsis_gcc.h" 1
ARM GAS  C:\Users\lidka\AppData\Local\Temp\ccqOATUZ.s 			page 80


 2514 00b6 EFF31083 		MRS r3, primask
 2515              	@ 0 "" 2
 2516              		.thumb
 2517              		.syntax unified
 2518 00ba 7B61     		str	r3, [r7, #20]
 387:Drivers/CMSIS/Include/cmsis_gcc.h **** }
 2519              		.loc 2 387 9
 2520 00bc 7B69     		ldr	r3, [r7, #20]
 2521              	.LBE608:
 2522              	.LBE607:
1577:Drivers/STM32L0xx_HAL_Driver/Src/stm32l0xx_hal_uart.c ****     ATOMIC_CLEAR_BIT(huart->Instance->CR3, USART_CR3_EIE);
 2523              		.loc 1 1577 5
 2524 00be FB63     		str	r3, [r7, #60]
 2525 00c0 0123     		movs	r3, #1
 2526 00c2 BB61     		str	r3, [r7, #24]
 2527              	.LBB609:
 2528              	.LBB610:
 414:Drivers/CMSIS/Include/cmsis_gcc.h **** }
 2529              		.loc 2 414 3
 2530 00c4 BB69     		ldr	r3, [r7, #24]
 2531              		.syntax divided
 2532              	@ 414 "Drivers/CMSIS/Include/cmsis_gcc.h" 1
 2533 00c6 83F31088 		MSR primask, r3
 2534              	@ 0 "" 2
 2535              		.loc 2 415 1
 2536              		.thumb
 2537              		.syntax unified
 2538 00ca C046     		nop
 2539              	.LBE610:
 2540              	.LBE609:
 2541              		.loc 1 1577 5
 2542 00cc 7B68     		ldr	r3, [r7, #4]
 2543 00ce 1B68     		ldr	r3, [r3]
 2544 00d0 9A68     		ldr	r2, [r3, #8]
 2545 00d2 7B68     		ldr	r3, [r7, #4]
 2546 00d4 1B68     		ldr	r3, [r3]
 2547 00d6 0121     		movs	r1, #1
 2548 00d8 8A43     		bics	r2, r1
 2549 00da 9A60     		str	r2, [r3, #8]
 2550 00dc FB6B     		ldr	r3, [r7, #60]
 2551 00de FB61     		str	r3, [r7, #28]
 2552              	.LBB611:
 2553              	.LBB612:
 414:Drivers/CMSIS/Include/cmsis_gcc.h **** }
 2554              		.loc 2 414 3
 2555 00e0 FB69     		ldr	r3, [r7, #28]
 2556              		.syntax divided
 2557              	@ 414 "Drivers/CMSIS/Include/cmsis_gcc.h" 1
 2558 00e2 83F31088 		MSR primask, r3
 2559              	@ 0 "" 2
 2560              		.loc 2 415 1
 2561              		.thumb
 2562              		.syntax unified
 2563 00e6 C046     		nop
 2564              	.LBE612:
 2565              	.LBE611:
 2566              	.LBE606:
ARM GAS  C:\Users\lidka\AppData\Local\Temp\ccqOATUZ.s 			page 81


 2567              	.LBB613:
 2568              	.LBB614:
 2569              	.LBB615:
 386:Drivers/CMSIS/Include/cmsis_gcc.h ****   return(result);
 2570              		.loc 2 386 3
 2571              		.syntax divided
 2572              	@ 386 "Drivers/CMSIS/Include/cmsis_gcc.h" 1
 2573 00e8 EFF31083 		MRS r3, primask
 2574              	@ 0 "" 2
 2575              		.thumb
 2576              		.syntax unified
 2577 00ec 3B62     		str	r3, [r7, #32]
 387:Drivers/CMSIS/Include/cmsis_gcc.h **** }
 2578              		.loc 2 387 9
 2579 00ee 3B6A     		ldr	r3, [r7, #32]
 2580              	.LBE615:
 2581              	.LBE614:
1578:Drivers/STM32L0xx_HAL_Driver/Src/stm32l0xx_hal_uart.c **** 
1579:Drivers/STM32L0xx_HAL_Driver/Src/stm32l0xx_hal_uart.c ****     /* Disable the UART DMA Rx request */
1580:Drivers/STM32L0xx_HAL_Driver/Src/stm32l0xx_hal_uart.c ****     ATOMIC_CLEAR_BIT(huart->Instance->CR3, USART_CR3_DMAR);
 2582              		.loc 1 1580 5
 2583 00f0 BB63     		str	r3, [r7, #56]
 2584 00f2 0123     		movs	r3, #1
 2585 00f4 7B62     		str	r3, [r7, #36]
 2586              	.LBB616:
 2587              	.LBB617:
 414:Drivers/CMSIS/Include/cmsis_gcc.h **** }
 2588              		.loc 2 414 3
 2589 00f6 7B6A     		ldr	r3, [r7, #36]
 2590              		.syntax divided
 2591              	@ 414 "Drivers/CMSIS/Include/cmsis_gcc.h" 1
 2592 00f8 83F31088 		MSR primask, r3
 2593              	@ 0 "" 2
 2594              		.loc 2 415 1
 2595              		.thumb
 2596              		.syntax unified
 2597 00fc C046     		nop
 2598              	.LBE617:
 2599              	.LBE616:
 2600              		.loc 1 1580 5
 2601 00fe 7B68     		ldr	r3, [r7, #4]
 2602 0100 1B68     		ldr	r3, [r3]
 2603 0102 9A68     		ldr	r2, [r3, #8]
 2604 0104 7B68     		ldr	r3, [r7, #4]
 2605 0106 1B68     		ldr	r3, [r3]
 2606 0108 4021     		movs	r1, #64
 2607 010a 8A43     		bics	r2, r1
 2608 010c 9A60     		str	r2, [r3, #8]
 2609 010e BB6B     		ldr	r3, [r7, #56]
 2610 0110 BB62     		str	r3, [r7, #40]
 2611              	.LBB618:
 2612              	.LBB619:
 414:Drivers/CMSIS/Include/cmsis_gcc.h **** }
 2613              		.loc 2 414 3
 2614 0112 BB6A     		ldr	r3, [r7, #40]
 2615              		.syntax divided
 2616              	@ 414 "Drivers/CMSIS/Include/cmsis_gcc.h" 1
ARM GAS  C:\Users\lidka\AppData\Local\Temp\ccqOATUZ.s 			page 82


 2617 0114 83F31088 		MSR primask, r3
 2618              	@ 0 "" 2
 2619              		.loc 2 415 1
 2620              		.thumb
 2621              		.syntax unified
 2622 0118 C046     		nop
 2623              	.L129:
 2624              	.LBE619:
 2625              	.LBE618:
 2626              	.LBE613:
1581:Drivers/STM32L0xx_HAL_Driver/Src/stm32l0xx_hal_uart.c ****   }
1582:Drivers/STM32L0xx_HAL_Driver/Src/stm32l0xx_hal_uart.c **** 
1583:Drivers/STM32L0xx_HAL_Driver/Src/stm32l0xx_hal_uart.c ****   __HAL_UNLOCK(huart);
 2627              		.loc 1 1583 3
 2628 011a 7B68     		ldr	r3, [r7, #4]
 2629 011c 7422     		movs	r2, #116
 2630 011e 0021     		movs	r1, #0
 2631 0120 9954     		strb	r1, [r3, r2]
1584:Drivers/STM32L0xx_HAL_Driver/Src/stm32l0xx_hal_uart.c **** 
1585:Drivers/STM32L0xx_HAL_Driver/Src/stm32l0xx_hal_uart.c ****   return HAL_OK;
 2632              		.loc 1 1585 10
 2633 0122 0023     		movs	r3, #0
 2634              	.L126:
1586:Drivers/STM32L0xx_HAL_Driver/Src/stm32l0xx_hal_uart.c **** }
 2635              		.loc 1 1586 1
 2636 0124 1800     		movs	r0, r3
 2637 0126 BD46     		mov	sp, r7
 2638 0128 14B0     		add	sp, sp, #80
 2639              		@ sp needed
 2640 012a 80BD     		pop	{r7, pc}
 2641              	.L134:
 2642              		.align	2
 2643              	.L133:
 2644 012c FFFEFFFF 		.word	-257
 2645              		.cfi_endproc
 2646              	.LFE60:
 2648              		.section	.text.HAL_UART_DMAResume,"ax",%progbits
 2649              		.align	1
 2650              		.global	HAL_UART_DMAResume
 2651              		.syntax unified
 2652              		.code	16
 2653              		.thumb_func
 2655              	HAL_UART_DMAResume:
 2656              	.LFB61:
1587:Drivers/STM32L0xx_HAL_Driver/Src/stm32l0xx_hal_uart.c **** 
1588:Drivers/STM32L0xx_HAL_Driver/Src/stm32l0xx_hal_uart.c **** /**
1589:Drivers/STM32L0xx_HAL_Driver/Src/stm32l0xx_hal_uart.c ****   * @brief Resume the DMA Transfer.
1590:Drivers/STM32L0xx_HAL_Driver/Src/stm32l0xx_hal_uart.c ****   * @param huart UART handle.
1591:Drivers/STM32L0xx_HAL_Driver/Src/stm32l0xx_hal_uart.c ****   * @retval HAL status
1592:Drivers/STM32L0xx_HAL_Driver/Src/stm32l0xx_hal_uart.c ****   */
1593:Drivers/STM32L0xx_HAL_Driver/Src/stm32l0xx_hal_uart.c **** HAL_StatusTypeDef HAL_UART_DMAResume(UART_HandleTypeDef *huart)
1594:Drivers/STM32L0xx_HAL_Driver/Src/stm32l0xx_hal_uart.c **** {
 2657              		.loc 1 1594 1
 2658              		.cfi_startproc
 2659              		@ args = 0, pretend = 0, frame = 72
 2660              		@ frame_needed = 1, uses_anonymous_args = 0
 2661 0000 80B5     		push	{r7, lr}
ARM GAS  C:\Users\lidka\AppData\Local\Temp\ccqOATUZ.s 			page 83


 2662              	.LCFI42:
 2663              		.cfi_def_cfa_offset 8
 2664              		.cfi_offset 7, -8
 2665              		.cfi_offset 14, -4
 2666 0002 92B0     		sub	sp, sp, #72
 2667              	.LCFI43:
 2668              		.cfi_def_cfa_offset 80
 2669 0004 00AF     		add	r7, sp, #0
 2670              	.LCFI44:
 2671              		.cfi_def_cfa_register 7
 2672 0006 7860     		str	r0, [r7, #4]
1595:Drivers/STM32L0xx_HAL_Driver/Src/stm32l0xx_hal_uart.c ****   __HAL_LOCK(huart);
 2673              		.loc 1 1595 3
 2674 0008 7B68     		ldr	r3, [r7, #4]
 2675 000a 7422     		movs	r2, #116
 2676 000c 9B5C     		ldrb	r3, [r3, r2]
 2677 000e 012B     		cmp	r3, #1
 2678 0010 01D1     		bne	.L136
 2679              		.loc 1 1595 3 is_stmt 0 discriminator 1
 2680 0012 0223     		movs	r3, #2
 2681 0014 79E0     		b	.L137
 2682              	.L136:
 2683              		.loc 1 1595 3 discriminator 2
 2684 0016 7B68     		ldr	r3, [r7, #4]
 2685 0018 7422     		movs	r2, #116
 2686 001a 0121     		movs	r1, #1
 2687 001c 9954     		strb	r1, [r3, r2]
1596:Drivers/STM32L0xx_HAL_Driver/Src/stm32l0xx_hal_uart.c **** 
1597:Drivers/STM32L0xx_HAL_Driver/Src/stm32l0xx_hal_uart.c ****   if (huart->gState == HAL_UART_STATE_BUSY_TX)
 2688              		.loc 1 1597 12 is_stmt 1 discriminator 2
 2689 001e 7B68     		ldr	r3, [r7, #4]
 2690 0020 9B6F     		ldr	r3, [r3, #120]
 2691              		.loc 1 1597 6 discriminator 2
 2692 0022 212B     		cmp	r3, #33
 2693 0024 18D1     		bne	.L138
 2694              	.LBB620:
 2695              	.LBB621:
 2696              	.LBB622:
 386:Drivers/CMSIS/Include/cmsis_gcc.h ****   return(result);
 2697              		.loc 2 386 3
 2698              		.syntax divided
 2699              	@ 386 "Drivers/CMSIS/Include/cmsis_gcc.h" 1
 2700 0026 EFF31083 		MRS r3, primask
 2701              	@ 0 "" 2
 2702              		.thumb
 2703              		.syntax unified
 2704 002a FB62     		str	r3, [r7, #44]
 387:Drivers/CMSIS/Include/cmsis_gcc.h **** }
 2705              		.loc 2 387 9
 2706 002c FB6A     		ldr	r3, [r7, #44]
 2707              	.LBE622:
 2708              	.LBE621:
1598:Drivers/STM32L0xx_HAL_Driver/Src/stm32l0xx_hal_uart.c ****   {
1599:Drivers/STM32L0xx_HAL_Driver/Src/stm32l0xx_hal_uart.c ****     /* Enable the UART DMA Tx request */
1600:Drivers/STM32L0xx_HAL_Driver/Src/stm32l0xx_hal_uart.c ****     ATOMIC_SET_BIT(huart->Instance->CR3, USART_CR3_DMAT);
 2709              		.loc 1 1600 5
 2710 002e 7B64     		str	r3, [r7, #68]
ARM GAS  C:\Users\lidka\AppData\Local\Temp\ccqOATUZ.s 			page 84


 2711 0030 0123     		movs	r3, #1
 2712 0032 3B63     		str	r3, [r7, #48]
 2713              	.LBB623:
 2714              	.LBB624:
 414:Drivers/CMSIS/Include/cmsis_gcc.h **** }
 2715              		.loc 2 414 3
 2716 0034 3B6B     		ldr	r3, [r7, #48]
 2717              		.syntax divided
 2718              	@ 414 "Drivers/CMSIS/Include/cmsis_gcc.h" 1
 2719 0036 83F31088 		MSR primask, r3
 2720              	@ 0 "" 2
 2721              		.loc 2 415 1
 2722              		.thumb
 2723              		.syntax unified
 2724 003a C046     		nop
 2725              	.LBE624:
 2726              	.LBE623:
 2727              		.loc 1 1600 5
 2728 003c 7B68     		ldr	r3, [r7, #4]
 2729 003e 1B68     		ldr	r3, [r3]
 2730 0040 9A68     		ldr	r2, [r3, #8]
 2731 0042 7B68     		ldr	r3, [r7, #4]
 2732 0044 1B68     		ldr	r3, [r3]
 2733 0046 8021     		movs	r1, #128
 2734 0048 0A43     		orrs	r2, r1
 2735 004a 9A60     		str	r2, [r3, #8]
 2736 004c 7B6C     		ldr	r3, [r7, #68]
 2737 004e 7B63     		str	r3, [r7, #52]
 2738              	.LBB625:
 2739              	.LBB626:
 414:Drivers/CMSIS/Include/cmsis_gcc.h **** }
 2740              		.loc 2 414 3
 2741 0050 7B6B     		ldr	r3, [r7, #52]
 2742              		.syntax divided
 2743              	@ 414 "Drivers/CMSIS/Include/cmsis_gcc.h" 1
 2744 0052 83F31088 		MSR primask, r3
 2745              	@ 0 "" 2
 2746              		.loc 2 415 1
 2747              		.thumb
 2748              		.syntax unified
 2749 0056 C046     		nop
 2750              	.L138:
 2751              	.LBE626:
 2752              	.LBE625:
 2753              	.LBE620:
1601:Drivers/STM32L0xx_HAL_Driver/Src/stm32l0xx_hal_uart.c ****   }
1602:Drivers/STM32L0xx_HAL_Driver/Src/stm32l0xx_hal_uart.c ****   if (huart->RxState == HAL_UART_STATE_BUSY_RX)
 2754              		.loc 1 1602 12
 2755 0058 7B68     		ldr	r3, [r7, #4]
 2756 005a DB6F     		ldr	r3, [r3, #124]
 2757              		.loc 1 1602 6
 2758 005c 222B     		cmp	r3, #34
 2759 005e 4FD1     		bne	.L140
1603:Drivers/STM32L0xx_HAL_Driver/Src/stm32l0xx_hal_uart.c ****   {
1604:Drivers/STM32L0xx_HAL_Driver/Src/stm32l0xx_hal_uart.c ****     /* Clear the Overrun flag before resuming the Rx transfer */
1605:Drivers/STM32L0xx_HAL_Driver/Src/stm32l0xx_hal_uart.c ****     __HAL_UART_CLEAR_FLAG(huart, UART_CLEAR_OREF);
 2760              		.loc 1 1605 5
ARM GAS  C:\Users\lidka\AppData\Local\Temp\ccqOATUZ.s 			page 85


 2761 0060 7B68     		ldr	r3, [r7, #4]
 2762 0062 1B68     		ldr	r3, [r3]
 2763 0064 0822     		movs	r2, #8
 2764 0066 1A62     		str	r2, [r3, #32]
 2765              	.LBB627:
 2766              	.LBB628:
 2767              	.LBB629:
 386:Drivers/CMSIS/Include/cmsis_gcc.h ****   return(result);
 2768              		.loc 2 386 3
 2769              		.syntax divided
 2770              	@ 386 "Drivers/CMSIS/Include/cmsis_gcc.h" 1
 2771 0068 EFF31083 		MRS r3, primask
 2772              	@ 0 "" 2
 2773              		.thumb
 2774              		.syntax unified
 2775 006c BB60     		str	r3, [r7, #8]
 387:Drivers/CMSIS/Include/cmsis_gcc.h **** }
 2776              		.loc 2 387 9
 2777 006e BB68     		ldr	r3, [r7, #8]
 2778              	.LBE629:
 2779              	.LBE628:
1606:Drivers/STM32L0xx_HAL_Driver/Src/stm32l0xx_hal_uart.c **** 
1607:Drivers/STM32L0xx_HAL_Driver/Src/stm32l0xx_hal_uart.c ****     /* Re-enable PE and ERR (Frame error, noise error, overrun error) interrupts */
1608:Drivers/STM32L0xx_HAL_Driver/Src/stm32l0xx_hal_uart.c ****     ATOMIC_SET_BIT(huart->Instance->CR1, USART_CR1_PEIE);
 2780              		.loc 1 1608 5
 2781 0070 3B64     		str	r3, [r7, #64]
 2782 0072 0123     		movs	r3, #1
 2783 0074 FB60     		str	r3, [r7, #12]
 2784              	.LBB630:
 2785              	.LBB631:
 414:Drivers/CMSIS/Include/cmsis_gcc.h **** }
 2786              		.loc 2 414 3
 2787 0076 FB68     		ldr	r3, [r7, #12]
 2788              		.syntax divided
 2789              	@ 414 "Drivers/CMSIS/Include/cmsis_gcc.h" 1
 2790 0078 83F31088 		MSR primask, r3
 2791              	@ 0 "" 2
 2792              		.loc 2 415 1
 2793              		.thumb
 2794              		.syntax unified
 2795 007c C046     		nop
 2796              	.LBE631:
 2797              	.LBE630:
 2798              		.loc 1 1608 5
 2799 007e 7B68     		ldr	r3, [r7, #4]
 2800 0080 1B68     		ldr	r3, [r3]
 2801 0082 1A68     		ldr	r2, [r3]
 2802 0084 7B68     		ldr	r3, [r7, #4]
 2803 0086 1B68     		ldr	r3, [r3]
 2804 0088 8021     		movs	r1, #128
 2805 008a 4900     		lsls	r1, r1, #1
 2806 008c 0A43     		orrs	r2, r1
 2807 008e 1A60     		str	r2, [r3]
 2808 0090 3B6C     		ldr	r3, [r7, #64]
 2809 0092 3B61     		str	r3, [r7, #16]
 2810              	.LBB632:
 2811              	.LBB633:
ARM GAS  C:\Users\lidka\AppData\Local\Temp\ccqOATUZ.s 			page 86


 414:Drivers/CMSIS/Include/cmsis_gcc.h **** }
 2812              		.loc 2 414 3
 2813 0094 3B69     		ldr	r3, [r7, #16]
 2814              		.syntax divided
 2815              	@ 414 "Drivers/CMSIS/Include/cmsis_gcc.h" 1
 2816 0096 83F31088 		MSR primask, r3
 2817              	@ 0 "" 2
 2818              		.loc 2 415 1
 2819              		.thumb
 2820              		.syntax unified
 2821 009a C046     		nop
 2822              	.LBE633:
 2823              	.LBE632:
 2824              	.LBE627:
 2825              	.LBB634:
 2826              	.LBB635:
 2827              	.LBB636:
 386:Drivers/CMSIS/Include/cmsis_gcc.h ****   return(result);
 2828              		.loc 2 386 3
 2829              		.syntax divided
 2830              	@ 386 "Drivers/CMSIS/Include/cmsis_gcc.h" 1
 2831 009c EFF31083 		MRS r3, primask
 2832              	@ 0 "" 2
 2833              		.thumb
 2834              		.syntax unified
 2835 00a0 7B61     		str	r3, [r7, #20]
 387:Drivers/CMSIS/Include/cmsis_gcc.h **** }
 2836              		.loc 2 387 9
 2837 00a2 7B69     		ldr	r3, [r7, #20]
 2838              	.LBE636:
 2839              	.LBE635:
1609:Drivers/STM32L0xx_HAL_Driver/Src/stm32l0xx_hal_uart.c ****     ATOMIC_SET_BIT(huart->Instance->CR3, USART_CR3_EIE);
 2840              		.loc 1 1609 5
 2841 00a4 FB63     		str	r3, [r7, #60]
 2842 00a6 0123     		movs	r3, #1
 2843 00a8 BB61     		str	r3, [r7, #24]
 2844              	.LBB637:
 2845              	.LBB638:
 414:Drivers/CMSIS/Include/cmsis_gcc.h **** }
 2846              		.loc 2 414 3
 2847 00aa BB69     		ldr	r3, [r7, #24]
 2848              		.syntax divided
 2849              	@ 414 "Drivers/CMSIS/Include/cmsis_gcc.h" 1
 2850 00ac 83F31088 		MSR primask, r3
 2851              	@ 0 "" 2
 2852              		.loc 2 415 1
 2853              		.thumb
 2854              		.syntax unified
 2855 00b0 C046     		nop
 2856              	.LBE638:
 2857              	.LBE637:
 2858              		.loc 1 1609 5
 2859 00b2 7B68     		ldr	r3, [r7, #4]
 2860 00b4 1B68     		ldr	r3, [r3]
 2861 00b6 9A68     		ldr	r2, [r3, #8]
 2862 00b8 7B68     		ldr	r3, [r7, #4]
 2863 00ba 1B68     		ldr	r3, [r3]
ARM GAS  C:\Users\lidka\AppData\Local\Temp\ccqOATUZ.s 			page 87


 2864 00bc 0121     		movs	r1, #1
 2865 00be 0A43     		orrs	r2, r1
 2866 00c0 9A60     		str	r2, [r3, #8]
 2867 00c2 FB6B     		ldr	r3, [r7, #60]
 2868 00c4 FB61     		str	r3, [r7, #28]
 2869              	.LBB639:
 2870              	.LBB640:
 414:Drivers/CMSIS/Include/cmsis_gcc.h **** }
 2871              		.loc 2 414 3
 2872 00c6 FB69     		ldr	r3, [r7, #28]
 2873              		.syntax divided
 2874              	@ 414 "Drivers/CMSIS/Include/cmsis_gcc.h" 1
 2875 00c8 83F31088 		MSR primask, r3
 2876              	@ 0 "" 2
 2877              		.loc 2 415 1
 2878              		.thumb
 2879              		.syntax unified
 2880 00cc C046     		nop
 2881              	.LBE640:
 2882              	.LBE639:
 2883              	.LBE634:
 2884              	.LBB641:
 2885              	.LBB642:
 2886              	.LBB643:
 386:Drivers/CMSIS/Include/cmsis_gcc.h ****   return(result);
 2887              		.loc 2 386 3
 2888              		.syntax divided
 2889              	@ 386 "Drivers/CMSIS/Include/cmsis_gcc.h" 1
 2890 00ce EFF31083 		MRS r3, primask
 2891              	@ 0 "" 2
 2892              		.thumb
 2893              		.syntax unified
 2894 00d2 3B62     		str	r3, [r7, #32]
 387:Drivers/CMSIS/Include/cmsis_gcc.h **** }
 2895              		.loc 2 387 9
 2896 00d4 3B6A     		ldr	r3, [r7, #32]
 2897              	.LBE643:
 2898              	.LBE642:
1610:Drivers/STM32L0xx_HAL_Driver/Src/stm32l0xx_hal_uart.c **** 
1611:Drivers/STM32L0xx_HAL_Driver/Src/stm32l0xx_hal_uart.c ****     /* Enable the UART DMA Rx request */
1612:Drivers/STM32L0xx_HAL_Driver/Src/stm32l0xx_hal_uart.c ****     ATOMIC_SET_BIT(huart->Instance->CR3, USART_CR3_DMAR);
 2899              		.loc 1 1612 5
 2900 00d6 BB63     		str	r3, [r7, #56]
 2901 00d8 0123     		movs	r3, #1
 2902 00da 7B62     		str	r3, [r7, #36]
 2903              	.LBB644:
 2904              	.LBB645:
 414:Drivers/CMSIS/Include/cmsis_gcc.h **** }
 2905              		.loc 2 414 3
 2906 00dc 7B6A     		ldr	r3, [r7, #36]
 2907              		.syntax divided
 2908              	@ 414 "Drivers/CMSIS/Include/cmsis_gcc.h" 1
 2909 00de 83F31088 		MSR primask, r3
 2910              	@ 0 "" 2
 2911              		.loc 2 415 1
 2912              		.thumb
 2913              		.syntax unified
ARM GAS  C:\Users\lidka\AppData\Local\Temp\ccqOATUZ.s 			page 88


 2914 00e2 C046     		nop
 2915              	.LBE645:
 2916              	.LBE644:
 2917              		.loc 1 1612 5
 2918 00e4 7B68     		ldr	r3, [r7, #4]
 2919 00e6 1B68     		ldr	r3, [r3]
 2920 00e8 9A68     		ldr	r2, [r3, #8]
 2921 00ea 7B68     		ldr	r3, [r7, #4]
 2922 00ec 1B68     		ldr	r3, [r3]
 2923 00ee 4021     		movs	r1, #64
 2924 00f0 0A43     		orrs	r2, r1
 2925 00f2 9A60     		str	r2, [r3, #8]
 2926 00f4 BB6B     		ldr	r3, [r7, #56]
 2927 00f6 BB62     		str	r3, [r7, #40]
 2928              	.LBB646:
 2929              	.LBB647:
 414:Drivers/CMSIS/Include/cmsis_gcc.h **** }
 2930              		.loc 2 414 3
 2931 00f8 BB6A     		ldr	r3, [r7, #40]
 2932              		.syntax divided
 2933              	@ 414 "Drivers/CMSIS/Include/cmsis_gcc.h" 1
 2934 00fa 83F31088 		MSR primask, r3
 2935              	@ 0 "" 2
 2936              		.loc 2 415 1
 2937              		.thumb
 2938              		.syntax unified
 2939 00fe C046     		nop
 2940              	.L140:
 2941              	.LBE647:
 2942              	.LBE646:
 2943              	.LBE641:
1613:Drivers/STM32L0xx_HAL_Driver/Src/stm32l0xx_hal_uart.c ****   }
1614:Drivers/STM32L0xx_HAL_Driver/Src/stm32l0xx_hal_uart.c **** 
1615:Drivers/STM32L0xx_HAL_Driver/Src/stm32l0xx_hal_uart.c ****   __HAL_UNLOCK(huart);
 2944              		.loc 1 1615 3
 2945 0100 7B68     		ldr	r3, [r7, #4]
 2946 0102 7422     		movs	r2, #116
 2947 0104 0021     		movs	r1, #0
 2948 0106 9954     		strb	r1, [r3, r2]
1616:Drivers/STM32L0xx_HAL_Driver/Src/stm32l0xx_hal_uart.c **** 
1617:Drivers/STM32L0xx_HAL_Driver/Src/stm32l0xx_hal_uart.c ****   return HAL_OK;
 2949              		.loc 1 1617 10
 2950 0108 0023     		movs	r3, #0
 2951              	.L137:
1618:Drivers/STM32L0xx_HAL_Driver/Src/stm32l0xx_hal_uart.c **** }
 2952              		.loc 1 1618 1
 2953 010a 1800     		movs	r0, r3
 2954 010c BD46     		mov	sp, r7
 2955 010e 12B0     		add	sp, sp, #72
 2956              		@ sp needed
 2957 0110 80BD     		pop	{r7, pc}
 2958              		.cfi_endproc
 2959              	.LFE61:
 2961              		.section	.text.HAL_UART_DMAStop,"ax",%progbits
 2962              		.align	1
 2963              		.global	HAL_UART_DMAStop
 2964              		.syntax unified
ARM GAS  C:\Users\lidka\AppData\Local\Temp\ccqOATUZ.s 			page 89


 2965              		.code	16
 2966              		.thumb_func
 2968              	HAL_UART_DMAStop:
 2969              	.LFB62:
1619:Drivers/STM32L0xx_HAL_Driver/Src/stm32l0xx_hal_uart.c **** 
1620:Drivers/STM32L0xx_HAL_Driver/Src/stm32l0xx_hal_uart.c **** /**
1621:Drivers/STM32L0xx_HAL_Driver/Src/stm32l0xx_hal_uart.c ****   * @brief Stop the DMA Transfer.
1622:Drivers/STM32L0xx_HAL_Driver/Src/stm32l0xx_hal_uart.c ****   * @param huart UART handle.
1623:Drivers/STM32L0xx_HAL_Driver/Src/stm32l0xx_hal_uart.c ****   * @retval HAL status
1624:Drivers/STM32L0xx_HAL_Driver/Src/stm32l0xx_hal_uart.c ****   */
1625:Drivers/STM32L0xx_HAL_Driver/Src/stm32l0xx_hal_uart.c **** HAL_StatusTypeDef HAL_UART_DMAStop(UART_HandleTypeDef *huart)
1626:Drivers/STM32L0xx_HAL_Driver/Src/stm32l0xx_hal_uart.c **** {
 2970              		.loc 1 1626 1
 2971              		.cfi_startproc
 2972              		@ args = 0, pretend = 0, frame = 48
 2973              		@ frame_needed = 1, uses_anonymous_args = 0
 2974 0000 80B5     		push	{r7, lr}
 2975              	.LCFI45:
 2976              		.cfi_def_cfa_offset 8
 2977              		.cfi_offset 7, -8
 2978              		.cfi_offset 14, -4
 2979 0002 8CB0     		sub	sp, sp, #48
 2980              	.LCFI46:
 2981              		.cfi_def_cfa_offset 56
 2982 0004 00AF     		add	r7, sp, #0
 2983              	.LCFI47:
 2984              		.cfi_def_cfa_register 7
 2985 0006 7860     		str	r0, [r7, #4]
1627:Drivers/STM32L0xx_HAL_Driver/Src/stm32l0xx_hal_uart.c ****   /* The Lock is not implemented on this API to allow the user application
1628:Drivers/STM32L0xx_HAL_Driver/Src/stm32l0xx_hal_uart.c ****      to call the HAL UART API under callbacks HAL_UART_TxCpltCallback() / HAL_UART_RxCpltCallback()
1629:Drivers/STM32L0xx_HAL_Driver/Src/stm32l0xx_hal_uart.c ****      HAL_UART_TxHalfCpltCallback / HAL_UART_RxHalfCpltCallback:
1630:Drivers/STM32L0xx_HAL_Driver/Src/stm32l0xx_hal_uart.c ****      indeed, when HAL_DMA_Abort() API is called, the DMA TX/RX Transfer or Half Transfer complete
1631:Drivers/STM32L0xx_HAL_Driver/Src/stm32l0xx_hal_uart.c ****      interrupt is generated if the DMA transfer interruption occurs at the middle or at the end of
1632:Drivers/STM32L0xx_HAL_Driver/Src/stm32l0xx_hal_uart.c ****      the stream and the corresponding call back is executed. */
1633:Drivers/STM32L0xx_HAL_Driver/Src/stm32l0xx_hal_uart.c **** 
1634:Drivers/STM32L0xx_HAL_Driver/Src/stm32l0xx_hal_uart.c ****   const HAL_UART_StateTypeDef gstate = huart->gState;
 2986              		.loc 1 1634 31
 2987 0008 7B68     		ldr	r3, [r7, #4]
 2988 000a 9B6F     		ldr	r3, [r3, #120]
 2989 000c FB62     		str	r3, [r7, #44]
1635:Drivers/STM32L0xx_HAL_Driver/Src/stm32l0xx_hal_uart.c ****   const HAL_UART_StateTypeDef rxstate = huart->RxState;
 2990              		.loc 1 1635 31
 2991 000e 7B68     		ldr	r3, [r7, #4]
 2992 0010 DB6F     		ldr	r3, [r3, #124]
 2993 0012 BB62     		str	r3, [r7, #40]
1636:Drivers/STM32L0xx_HAL_Driver/Src/stm32l0xx_hal_uart.c **** 
1637:Drivers/STM32L0xx_HAL_Driver/Src/stm32l0xx_hal_uart.c ****   /* Stop UART DMA Tx request if ongoing */
1638:Drivers/STM32L0xx_HAL_Driver/Src/stm32l0xx_hal_uart.c ****   if ((HAL_IS_BIT_SET(huart->Instance->CR3, USART_CR3_DMAT)) &&
 2994              		.loc 1 1638 8
 2995 0014 7B68     		ldr	r3, [r7, #4]
 2996 0016 1B68     		ldr	r3, [r3]
 2997 0018 9B68     		ldr	r3, [r3, #8]
 2998 001a 8022     		movs	r2, #128
 2999 001c 1340     		ands	r3, r2
 3000              		.loc 1 1638 6
 3001 001e 802B     		cmp	r3, #128
 3002 0020 38D1     		bne	.L145
ARM GAS  C:\Users\lidka\AppData\Local\Temp\ccqOATUZ.s 			page 90


 3003              		.loc 1 1638 62 discriminator 1
 3004 0022 FB6A     		ldr	r3, [r7, #44]
 3005 0024 212B     		cmp	r3, #33
 3006 0026 35D1     		bne	.L145
 3007              	.LBB648:
 3008              	.LBB649:
 3009              	.LBB650:
 386:Drivers/CMSIS/Include/cmsis_gcc.h ****   return(result);
 3010              		.loc 2 386 3
 3011              		.syntax divided
 3012              	@ 386 "Drivers/CMSIS/Include/cmsis_gcc.h" 1
 3013 0028 EFF31083 		MRS r3, primask
 3014              	@ 0 "" 2
 3015              		.thumb
 3016              		.syntax unified
 3017 002c 7B61     		str	r3, [r7, #20]
 387:Drivers/CMSIS/Include/cmsis_gcc.h **** }
 3018              		.loc 2 387 9
 3019 002e 7B69     		ldr	r3, [r7, #20]
 3020              	.LBE650:
 3021              	.LBE649:
1639:Drivers/STM32L0xx_HAL_Driver/Src/stm32l0xx_hal_uart.c ****       (gstate == HAL_UART_STATE_BUSY_TX))
1640:Drivers/STM32L0xx_HAL_Driver/Src/stm32l0xx_hal_uart.c ****   {
1641:Drivers/STM32L0xx_HAL_Driver/Src/stm32l0xx_hal_uart.c ****     ATOMIC_CLEAR_BIT(huart->Instance->CR3, USART_CR3_DMAT);
 3022              		.loc 1 1641 5
 3023 0030 7B62     		str	r3, [r7, #36]
 3024 0032 0123     		movs	r3, #1
 3025 0034 BB61     		str	r3, [r7, #24]
 3026              	.LBB651:
 3027              	.LBB652:
 414:Drivers/CMSIS/Include/cmsis_gcc.h **** }
 3028              		.loc 2 414 3
 3029 0036 BB69     		ldr	r3, [r7, #24]
 3030              		.syntax divided
 3031              	@ 414 "Drivers/CMSIS/Include/cmsis_gcc.h" 1
 3032 0038 83F31088 		MSR primask, r3
 3033              	@ 0 "" 2
 3034              		.loc 2 415 1
 3035              		.thumb
 3036              		.syntax unified
 3037 003c C046     		nop
 3038              	.LBE652:
 3039              	.LBE651:
 3040              		.loc 1 1641 5
 3041 003e 7B68     		ldr	r3, [r7, #4]
 3042 0040 1B68     		ldr	r3, [r3]
 3043 0042 9A68     		ldr	r2, [r3, #8]
 3044 0044 7B68     		ldr	r3, [r7, #4]
 3045 0046 1B68     		ldr	r3, [r3]
 3046 0048 8021     		movs	r1, #128
 3047 004a 8A43     		bics	r2, r1
 3048 004c 9A60     		str	r2, [r3, #8]
 3049 004e 7B6A     		ldr	r3, [r7, #36]
 3050 0050 FB61     		str	r3, [r7, #28]
 3051              	.LBB653:
 3052              	.LBB654:
 414:Drivers/CMSIS/Include/cmsis_gcc.h **** }
ARM GAS  C:\Users\lidka\AppData\Local\Temp\ccqOATUZ.s 			page 91


 3053              		.loc 2 414 3
 3054 0052 FB69     		ldr	r3, [r7, #28]
 3055              		.syntax divided
 3056              	@ 414 "Drivers/CMSIS/Include/cmsis_gcc.h" 1
 3057 0054 83F31088 		MSR primask, r3
 3058              	@ 0 "" 2
 3059              		.loc 2 415 1
 3060              		.thumb
 3061              		.syntax unified
 3062 0058 C046     		nop
 3063              	.LBE654:
 3064              	.LBE653:
 3065              	.LBE648:
1642:Drivers/STM32L0xx_HAL_Driver/Src/stm32l0xx_hal_uart.c **** 
1643:Drivers/STM32L0xx_HAL_Driver/Src/stm32l0xx_hal_uart.c ****     /* Abort the UART DMA Tx channel */
1644:Drivers/STM32L0xx_HAL_Driver/Src/stm32l0xx_hal_uart.c ****     if (huart->hdmatx != NULL)
 3066              		.loc 1 1644 14
 3067 005a 7B68     		ldr	r3, [r7, #4]
 3068 005c DB6E     		ldr	r3, [r3, #108]
 3069              		.loc 1 1644 8
 3070 005e 002B     		cmp	r3, #0
 3071 0060 14D0     		beq	.L147
1645:Drivers/STM32L0xx_HAL_Driver/Src/stm32l0xx_hal_uart.c ****     {
1646:Drivers/STM32L0xx_HAL_Driver/Src/stm32l0xx_hal_uart.c ****       if (HAL_DMA_Abort(huart->hdmatx) != HAL_OK)
 3072              		.loc 1 1646 11
 3073 0062 7B68     		ldr	r3, [r7, #4]
 3074 0064 DB6E     		ldr	r3, [r3, #108]
 3075 0066 1800     		movs	r0, r3
 3076 0068 FFF7FEFF 		bl	HAL_DMA_Abort
 3077 006c 031E     		subs	r3, r0, #0
 3078              		.loc 1 1646 10
 3079 006e 0DD0     		beq	.L147
1647:Drivers/STM32L0xx_HAL_Driver/Src/stm32l0xx_hal_uart.c ****       {
1648:Drivers/STM32L0xx_HAL_Driver/Src/stm32l0xx_hal_uart.c ****         if (HAL_DMA_GetError(huart->hdmatx) == HAL_DMA_ERROR_TIMEOUT)
 3080              		.loc 1 1648 13
 3081 0070 7B68     		ldr	r3, [r7, #4]
 3082 0072 DB6E     		ldr	r3, [r3, #108]
 3083 0074 1800     		movs	r0, r3
 3084 0076 FFF7FEFF 		bl	HAL_DMA_GetError
 3085 007a 0300     		movs	r3, r0
 3086              		.loc 1 1648 12
 3087 007c 202B     		cmp	r3, #32
 3088 007e 05D1     		bne	.L147
1649:Drivers/STM32L0xx_HAL_Driver/Src/stm32l0xx_hal_uart.c ****         {
1650:Drivers/STM32L0xx_HAL_Driver/Src/stm32l0xx_hal_uart.c ****           /* Set error code to DMA */
1651:Drivers/STM32L0xx_HAL_Driver/Src/stm32l0xx_hal_uart.c ****           huart->ErrorCode = HAL_UART_ERROR_DMA;
 3089              		.loc 1 1651 28
 3090 0080 7B68     		ldr	r3, [r7, #4]
 3091 0082 8022     		movs	r2, #128
 3092 0084 1021     		movs	r1, #16
 3093 0086 9950     		str	r1, [r3, r2]
1652:Drivers/STM32L0xx_HAL_Driver/Src/stm32l0xx_hal_uart.c **** 
1653:Drivers/STM32L0xx_HAL_Driver/Src/stm32l0xx_hal_uart.c ****           return HAL_TIMEOUT;
 3094              		.loc 1 1653 18
 3095 0088 0323     		movs	r3, #3
 3096 008a 44E0     		b	.L148
 3097              	.L147:
ARM GAS  C:\Users\lidka\AppData\Local\Temp\ccqOATUZ.s 			page 92


1654:Drivers/STM32L0xx_HAL_Driver/Src/stm32l0xx_hal_uart.c ****         }
1655:Drivers/STM32L0xx_HAL_Driver/Src/stm32l0xx_hal_uart.c ****       }
1656:Drivers/STM32L0xx_HAL_Driver/Src/stm32l0xx_hal_uart.c ****     }
1657:Drivers/STM32L0xx_HAL_Driver/Src/stm32l0xx_hal_uart.c **** 
1658:Drivers/STM32L0xx_HAL_Driver/Src/stm32l0xx_hal_uart.c ****     UART_EndTxTransfer(huart);
 3098              		.loc 1 1658 5
 3099 008c 7B68     		ldr	r3, [r7, #4]
 3100 008e 1800     		movs	r0, r3
 3101 0090 FFF7FEFF 		bl	UART_EndTxTransfer
 3102              	.L145:
1659:Drivers/STM32L0xx_HAL_Driver/Src/stm32l0xx_hal_uart.c ****   }
1660:Drivers/STM32L0xx_HAL_Driver/Src/stm32l0xx_hal_uart.c **** 
1661:Drivers/STM32L0xx_HAL_Driver/Src/stm32l0xx_hal_uart.c ****   /* Stop UART DMA Rx request if ongoing */
1662:Drivers/STM32L0xx_HAL_Driver/Src/stm32l0xx_hal_uart.c ****   if ((HAL_IS_BIT_SET(huart->Instance->CR3, USART_CR3_DMAR)) &&
 3103              		.loc 1 1662 8
 3104 0094 7B68     		ldr	r3, [r7, #4]
 3105 0096 1B68     		ldr	r3, [r3]
 3106 0098 9B68     		ldr	r3, [r3, #8]
 3107 009a 4022     		movs	r2, #64
 3108 009c 1340     		ands	r3, r2
 3109              		.loc 1 1662 6
 3110 009e 402B     		cmp	r3, #64
 3111 00a0 38D1     		bne	.L149
 3112              		.loc 1 1662 62 discriminator 1
 3113 00a2 BB6A     		ldr	r3, [r7, #40]
 3114 00a4 222B     		cmp	r3, #34
 3115 00a6 35D1     		bne	.L149
 3116              	.LBB655:
 3117              	.LBB656:
 3118              	.LBB657:
 386:Drivers/CMSIS/Include/cmsis_gcc.h ****   return(result);
 3119              		.loc 2 386 3
 3120              		.syntax divided
 3121              	@ 386 "Drivers/CMSIS/Include/cmsis_gcc.h" 1
 3122 00a8 EFF31083 		MRS r3, primask
 3123              	@ 0 "" 2
 3124              		.thumb
 3125              		.syntax unified
 3126 00ac BB60     		str	r3, [r7, #8]
 387:Drivers/CMSIS/Include/cmsis_gcc.h **** }
 3127              		.loc 2 387 9
 3128 00ae BB68     		ldr	r3, [r7, #8]
 3129              	.LBE657:
 3130              	.LBE656:
1663:Drivers/STM32L0xx_HAL_Driver/Src/stm32l0xx_hal_uart.c ****       (rxstate == HAL_UART_STATE_BUSY_RX))
1664:Drivers/STM32L0xx_HAL_Driver/Src/stm32l0xx_hal_uart.c ****   {
1665:Drivers/STM32L0xx_HAL_Driver/Src/stm32l0xx_hal_uart.c ****     ATOMIC_CLEAR_BIT(huart->Instance->CR3, USART_CR3_DMAR);
 3131              		.loc 1 1665 5
 3132 00b0 3B62     		str	r3, [r7, #32]
 3133 00b2 0123     		movs	r3, #1
 3134 00b4 FB60     		str	r3, [r7, #12]
 3135              	.LBB658:
 3136              	.LBB659:
 414:Drivers/CMSIS/Include/cmsis_gcc.h **** }
 3137              		.loc 2 414 3
 3138 00b6 FB68     		ldr	r3, [r7, #12]
 3139              		.syntax divided
ARM GAS  C:\Users\lidka\AppData\Local\Temp\ccqOATUZ.s 			page 93


 3140              	@ 414 "Drivers/CMSIS/Include/cmsis_gcc.h" 1
 3141 00b8 83F31088 		MSR primask, r3
 3142              	@ 0 "" 2
 3143              		.loc 2 415 1
 3144              		.thumb
 3145              		.syntax unified
 3146 00bc C046     		nop
 3147              	.LBE659:
 3148              	.LBE658:
 3149              		.loc 1 1665 5
 3150 00be 7B68     		ldr	r3, [r7, #4]
 3151 00c0 1B68     		ldr	r3, [r3]
 3152 00c2 9A68     		ldr	r2, [r3, #8]
 3153 00c4 7B68     		ldr	r3, [r7, #4]
 3154 00c6 1B68     		ldr	r3, [r3]
 3155 00c8 4021     		movs	r1, #64
 3156 00ca 8A43     		bics	r2, r1
 3157 00cc 9A60     		str	r2, [r3, #8]
 3158 00ce 3B6A     		ldr	r3, [r7, #32]
 3159 00d0 3B61     		str	r3, [r7, #16]
 3160              	.LBB660:
 3161              	.LBB661:
 414:Drivers/CMSIS/Include/cmsis_gcc.h **** }
 3162              		.loc 2 414 3
 3163 00d2 3B69     		ldr	r3, [r7, #16]
 3164              		.syntax divided
 3165              	@ 414 "Drivers/CMSIS/Include/cmsis_gcc.h" 1
 3166 00d4 83F31088 		MSR primask, r3
 3167              	@ 0 "" 2
 3168              		.loc 2 415 1
 3169              		.thumb
 3170              		.syntax unified
 3171 00d8 C046     		nop
 3172              	.LBE661:
 3173              	.LBE660:
 3174              	.LBE655:
1666:Drivers/STM32L0xx_HAL_Driver/Src/stm32l0xx_hal_uart.c **** 
1667:Drivers/STM32L0xx_HAL_Driver/Src/stm32l0xx_hal_uart.c ****     /* Abort the UART DMA Rx channel */
1668:Drivers/STM32L0xx_HAL_Driver/Src/stm32l0xx_hal_uart.c ****     if (huart->hdmarx != NULL)
 3175              		.loc 1 1668 14
 3176 00da 7B68     		ldr	r3, [r7, #4]
 3177 00dc 1B6F     		ldr	r3, [r3, #112]
 3178              		.loc 1 1668 8
 3179 00de 002B     		cmp	r3, #0
 3180 00e0 14D0     		beq	.L151
1669:Drivers/STM32L0xx_HAL_Driver/Src/stm32l0xx_hal_uart.c ****     {
1670:Drivers/STM32L0xx_HAL_Driver/Src/stm32l0xx_hal_uart.c ****       if (HAL_DMA_Abort(huart->hdmarx) != HAL_OK)
 3181              		.loc 1 1670 11
 3182 00e2 7B68     		ldr	r3, [r7, #4]
 3183 00e4 1B6F     		ldr	r3, [r3, #112]
 3184 00e6 1800     		movs	r0, r3
 3185 00e8 FFF7FEFF 		bl	HAL_DMA_Abort
 3186 00ec 031E     		subs	r3, r0, #0
 3187              		.loc 1 1670 10
 3188 00ee 0DD0     		beq	.L151
1671:Drivers/STM32L0xx_HAL_Driver/Src/stm32l0xx_hal_uart.c ****       {
1672:Drivers/STM32L0xx_HAL_Driver/Src/stm32l0xx_hal_uart.c ****         if (HAL_DMA_GetError(huart->hdmarx) == HAL_DMA_ERROR_TIMEOUT)
ARM GAS  C:\Users\lidka\AppData\Local\Temp\ccqOATUZ.s 			page 94


 3189              		.loc 1 1672 13
 3190 00f0 7B68     		ldr	r3, [r7, #4]
 3191 00f2 1B6F     		ldr	r3, [r3, #112]
 3192 00f4 1800     		movs	r0, r3
 3193 00f6 FFF7FEFF 		bl	HAL_DMA_GetError
 3194 00fa 0300     		movs	r3, r0
 3195              		.loc 1 1672 12
 3196 00fc 202B     		cmp	r3, #32
 3197 00fe 05D1     		bne	.L151
1673:Drivers/STM32L0xx_HAL_Driver/Src/stm32l0xx_hal_uart.c ****         {
1674:Drivers/STM32L0xx_HAL_Driver/Src/stm32l0xx_hal_uart.c ****           /* Set error code to DMA */
1675:Drivers/STM32L0xx_HAL_Driver/Src/stm32l0xx_hal_uart.c ****           huart->ErrorCode = HAL_UART_ERROR_DMA;
 3198              		.loc 1 1675 28
 3199 0100 7B68     		ldr	r3, [r7, #4]
 3200 0102 8022     		movs	r2, #128
 3201 0104 1021     		movs	r1, #16
 3202 0106 9950     		str	r1, [r3, r2]
1676:Drivers/STM32L0xx_HAL_Driver/Src/stm32l0xx_hal_uart.c **** 
1677:Drivers/STM32L0xx_HAL_Driver/Src/stm32l0xx_hal_uart.c ****           return HAL_TIMEOUT;
 3203              		.loc 1 1677 18
 3204 0108 0323     		movs	r3, #3
 3205 010a 04E0     		b	.L148
 3206              	.L151:
1678:Drivers/STM32L0xx_HAL_Driver/Src/stm32l0xx_hal_uart.c ****         }
1679:Drivers/STM32L0xx_HAL_Driver/Src/stm32l0xx_hal_uart.c ****       }
1680:Drivers/STM32L0xx_HAL_Driver/Src/stm32l0xx_hal_uart.c ****     }
1681:Drivers/STM32L0xx_HAL_Driver/Src/stm32l0xx_hal_uart.c **** 
1682:Drivers/STM32L0xx_HAL_Driver/Src/stm32l0xx_hal_uart.c ****     UART_EndRxTransfer(huart);
 3207              		.loc 1 1682 5
 3208 010c 7B68     		ldr	r3, [r7, #4]
 3209 010e 1800     		movs	r0, r3
 3210 0110 FFF7FEFF 		bl	UART_EndRxTransfer
 3211              	.L149:
1683:Drivers/STM32L0xx_HAL_Driver/Src/stm32l0xx_hal_uart.c ****   }
1684:Drivers/STM32L0xx_HAL_Driver/Src/stm32l0xx_hal_uart.c **** 
1685:Drivers/STM32L0xx_HAL_Driver/Src/stm32l0xx_hal_uart.c ****   return HAL_OK;
 3212              		.loc 1 1685 10
 3213 0114 0023     		movs	r3, #0
 3214              	.L148:
1686:Drivers/STM32L0xx_HAL_Driver/Src/stm32l0xx_hal_uart.c **** }
 3215              		.loc 1 1686 1
 3216 0116 1800     		movs	r0, r3
 3217 0118 BD46     		mov	sp, r7
 3218 011a 0CB0     		add	sp, sp, #48
 3219              		@ sp needed
 3220 011c 80BD     		pop	{r7, pc}
 3221              		.cfi_endproc
 3222              	.LFE62:
 3224              		.section	.text.HAL_UART_Abort,"ax",%progbits
 3225              		.align	1
 3226              		.global	HAL_UART_Abort
 3227              		.syntax unified
 3228              		.code	16
 3229              		.thumb_func
 3231              	HAL_UART_Abort:
 3232              	.LFB63:
1687:Drivers/STM32L0xx_HAL_Driver/Src/stm32l0xx_hal_uart.c **** 
ARM GAS  C:\Users\lidka\AppData\Local\Temp\ccqOATUZ.s 			page 95


1688:Drivers/STM32L0xx_HAL_Driver/Src/stm32l0xx_hal_uart.c **** /**
1689:Drivers/STM32L0xx_HAL_Driver/Src/stm32l0xx_hal_uart.c ****   * @brief  Abort ongoing transfers (blocking mode).
1690:Drivers/STM32L0xx_HAL_Driver/Src/stm32l0xx_hal_uart.c ****   * @param  huart UART handle.
1691:Drivers/STM32L0xx_HAL_Driver/Src/stm32l0xx_hal_uart.c ****   * @note   This procedure could be used for aborting any ongoing transfer started in Interrupt or 
1692:Drivers/STM32L0xx_HAL_Driver/Src/stm32l0xx_hal_uart.c ****   *         This procedure performs following operations :
1693:Drivers/STM32L0xx_HAL_Driver/Src/stm32l0xx_hal_uart.c ****   *           - Disable UART Interrupts (Tx and Rx)
1694:Drivers/STM32L0xx_HAL_Driver/Src/stm32l0xx_hal_uart.c ****   *           - Disable the DMA transfer in the peripheral register (if enabled)
1695:Drivers/STM32L0xx_HAL_Driver/Src/stm32l0xx_hal_uart.c ****   *           - Abort DMA transfer by calling HAL_DMA_Abort (in case of transfer in DMA mode)
1696:Drivers/STM32L0xx_HAL_Driver/Src/stm32l0xx_hal_uart.c ****   *           - Set handle State to READY
1697:Drivers/STM32L0xx_HAL_Driver/Src/stm32l0xx_hal_uart.c ****   * @note   This procedure is executed in blocking mode : when exiting function, Abort is considere
1698:Drivers/STM32L0xx_HAL_Driver/Src/stm32l0xx_hal_uart.c ****   * @retval HAL status
1699:Drivers/STM32L0xx_HAL_Driver/Src/stm32l0xx_hal_uart.c ****   */
1700:Drivers/STM32L0xx_HAL_Driver/Src/stm32l0xx_hal_uart.c **** HAL_StatusTypeDef HAL_UART_Abort(UART_HandleTypeDef *huart)
1701:Drivers/STM32L0xx_HAL_Driver/Src/stm32l0xx_hal_uart.c **** {
 3233              		.loc 1 1701 1
 3234              		.cfi_startproc
 3235              		@ args = 0, pretend = 0, frame = 88
 3236              		@ frame_needed = 1, uses_anonymous_args = 0
 3237 0000 80B5     		push	{r7, lr}
 3238              	.LCFI48:
 3239              		.cfi_def_cfa_offset 8
 3240              		.cfi_offset 7, -8
 3241              		.cfi_offset 14, -4
 3242 0002 96B0     		sub	sp, sp, #88
 3243              	.LCFI49:
 3244              		.cfi_def_cfa_offset 96
 3245 0004 00AF     		add	r7, sp, #0
 3246              	.LCFI50:
 3247              		.cfi_def_cfa_register 7
 3248 0006 7860     		str	r0, [r7, #4]
 3249              	.LBB662:
 3250              	.LBB663:
 3251              	.LBB664:
 386:Drivers/CMSIS/Include/cmsis_gcc.h ****   return(result);
 3252              		.loc 2 386 3
 3253              		.syntax divided
 3254              	@ 386 "Drivers/CMSIS/Include/cmsis_gcc.h" 1
 3255 0008 EFF31083 		MRS r3, primask
 3256              	@ 0 "" 2
 3257              		.thumb
 3258              		.syntax unified
 3259 000c FB62     		str	r3, [r7, #44]
 387:Drivers/CMSIS/Include/cmsis_gcc.h **** }
 3260              		.loc 2 387 9
 3261 000e FB6A     		ldr	r3, [r7, #44]
 3262              	.LBE664:
 3263              	.LBE663:
1702:Drivers/STM32L0xx_HAL_Driver/Src/stm32l0xx_hal_uart.c ****   /* Disable TXEIE, TCIE, RXNE, PE and ERR (Frame error, noise error, overrun error) interrupts */
1703:Drivers/STM32L0xx_HAL_Driver/Src/stm32l0xx_hal_uart.c ****   ATOMIC_CLEAR_BIT(huart->Instance->CR1, (USART_CR1_RXNEIE | USART_CR1_PEIE | USART_CR1_TXEIE | USA
 3264              		.loc 1 1703 3
 3265 0010 7B65     		str	r3, [r7, #84]
 3266 0012 0123     		movs	r3, #1
 3267 0014 3B63     		str	r3, [r7, #48]
 3268              	.LBB665:
 3269              	.LBB666:
 414:Drivers/CMSIS/Include/cmsis_gcc.h **** }
 3270              		.loc 2 414 3
ARM GAS  C:\Users\lidka\AppData\Local\Temp\ccqOATUZ.s 			page 96


 3271 0016 3B6B     		ldr	r3, [r7, #48]
 3272              		.syntax divided
 3273              	@ 414 "Drivers/CMSIS/Include/cmsis_gcc.h" 1
 3274 0018 83F31088 		MSR primask, r3
 3275              	@ 0 "" 2
 3276              		.loc 2 415 1
 3277              		.thumb
 3278              		.syntax unified
 3279 001c C046     		nop
 3280              	.LBE666:
 3281              	.LBE665:
 3282              		.loc 1 1703 3
 3283 001e 7B68     		ldr	r3, [r7, #4]
 3284 0020 1B68     		ldr	r3, [r3]
 3285 0022 1A68     		ldr	r2, [r3]
 3286 0024 7B68     		ldr	r3, [r7, #4]
 3287 0026 1B68     		ldr	r3, [r3]
 3288 0028 6F49     		ldr	r1, .L162
 3289 002a 0A40     		ands	r2, r1
 3290 002c 1A60     		str	r2, [r3]
 3291 002e 7B6D     		ldr	r3, [r7, #84]
 3292 0030 7B63     		str	r3, [r7, #52]
 3293              	.LBB667:
 3294              	.LBB668:
 414:Drivers/CMSIS/Include/cmsis_gcc.h **** }
 3295              		.loc 2 414 3
 3296 0032 7B6B     		ldr	r3, [r7, #52]
 3297              		.syntax divided
 3298              	@ 414 "Drivers/CMSIS/Include/cmsis_gcc.h" 1
 3299 0034 83F31088 		MSR primask, r3
 3300              	@ 0 "" 2
 3301              		.loc 2 415 1
 3302              		.thumb
 3303              		.syntax unified
 3304 0038 C046     		nop
 3305              	.LBE668:
 3306              	.LBE667:
 3307              	.LBE662:
 3308              	.LBB669:
 3309              	.LBB670:
 3310              	.LBB671:
 386:Drivers/CMSIS/Include/cmsis_gcc.h ****   return(result);
 3311              		.loc 2 386 3
 3312              		.syntax divided
 3313              	@ 386 "Drivers/CMSIS/Include/cmsis_gcc.h" 1
 3314 003a EFF31083 		MRS r3, primask
 3315              	@ 0 "" 2
 3316              		.thumb
 3317              		.syntax unified
 3318 003e BB63     		str	r3, [r7, #56]
 387:Drivers/CMSIS/Include/cmsis_gcc.h **** }
 3319              		.loc 2 387 9
 3320 0040 BB6B     		ldr	r3, [r7, #56]
 3321              	.LBE671:
 3322              	.LBE670:
1704:Drivers/STM32L0xx_HAL_Driver/Src/stm32l0xx_hal_uart.c ****   ATOMIC_CLEAR_BIT(huart->Instance->CR3, USART_CR3_EIE);
 3323              		.loc 1 1704 3
ARM GAS  C:\Users\lidka\AppData\Local\Temp\ccqOATUZ.s 			page 97


 3324 0042 3B65     		str	r3, [r7, #80]
 3325 0044 0123     		movs	r3, #1
 3326 0046 FB63     		str	r3, [r7, #60]
 3327              	.LBB672:
 3328              	.LBB673:
 414:Drivers/CMSIS/Include/cmsis_gcc.h **** }
 3329              		.loc 2 414 3
 3330 0048 FB6B     		ldr	r3, [r7, #60]
 3331              		.syntax divided
 3332              	@ 414 "Drivers/CMSIS/Include/cmsis_gcc.h" 1
 3333 004a 83F31088 		MSR primask, r3
 3334              	@ 0 "" 2
 3335              		.loc 2 415 1
 3336              		.thumb
 3337              		.syntax unified
 3338 004e C046     		nop
 3339              	.LBE673:
 3340              	.LBE672:
 3341              		.loc 1 1704 3
 3342 0050 7B68     		ldr	r3, [r7, #4]
 3343 0052 1B68     		ldr	r3, [r3]
 3344 0054 9A68     		ldr	r2, [r3, #8]
 3345 0056 7B68     		ldr	r3, [r7, #4]
 3346 0058 1B68     		ldr	r3, [r3]
 3347 005a 0121     		movs	r1, #1
 3348 005c 8A43     		bics	r2, r1
 3349 005e 9A60     		str	r2, [r3, #8]
 3350 0060 3B6D     		ldr	r3, [r7, #80]
 3351 0062 3B64     		str	r3, [r7, #64]
 3352              	.LBB674:
 3353              	.LBB675:
 414:Drivers/CMSIS/Include/cmsis_gcc.h **** }
 3354              		.loc 2 414 3
 3355 0064 3B6C     		ldr	r3, [r7, #64]
 3356              		.syntax divided
 3357              	@ 414 "Drivers/CMSIS/Include/cmsis_gcc.h" 1
 3358 0066 83F31088 		MSR primask, r3
 3359              	@ 0 "" 2
 3360              		.loc 2 415 1
 3361              		.thumb
 3362              		.syntax unified
 3363 006a C046     		nop
 3364              	.LBE675:
 3365              	.LBE674:
 3366              	.LBE669:
1705:Drivers/STM32L0xx_HAL_Driver/Src/stm32l0xx_hal_uart.c **** 
1706:Drivers/STM32L0xx_HAL_Driver/Src/stm32l0xx_hal_uart.c ****   /* If Reception till IDLE event was ongoing, disable IDLEIE interrupt */
1707:Drivers/STM32L0xx_HAL_Driver/Src/stm32l0xx_hal_uart.c ****   if (huart->ReceptionType == HAL_UART_RECEPTION_TOIDLE)
 3367              		.loc 1 1707 12
 3368 006c 7B68     		ldr	r3, [r7, #4]
 3369 006e 1B6E     		ldr	r3, [r3, #96]
 3370              		.loc 1 1707 6
 3371 0070 012B     		cmp	r3, #1
 3372 0072 18D1     		bne	.L155
 3373              	.LBB676:
 3374              	.LBB677:
 3375              	.LBB678:
ARM GAS  C:\Users\lidka\AppData\Local\Temp\ccqOATUZ.s 			page 98


 386:Drivers/CMSIS/Include/cmsis_gcc.h ****   return(result);
 3376              		.loc 2 386 3
 3377              		.syntax divided
 3378              	@ 386 "Drivers/CMSIS/Include/cmsis_gcc.h" 1
 3379 0074 EFF31083 		MRS r3, primask
 3380              	@ 0 "" 2
 3381              		.thumb
 3382              		.syntax unified
 3383 0078 3B62     		str	r3, [r7, #32]
 387:Drivers/CMSIS/Include/cmsis_gcc.h **** }
 3384              		.loc 2 387 9
 3385 007a 3B6A     		ldr	r3, [r7, #32]
 3386              	.LBE678:
 3387              	.LBE677:
1708:Drivers/STM32L0xx_HAL_Driver/Src/stm32l0xx_hal_uart.c ****   {
1709:Drivers/STM32L0xx_HAL_Driver/Src/stm32l0xx_hal_uart.c ****     ATOMIC_CLEAR_BIT(huart->Instance->CR1, (USART_CR1_IDLEIE));
 3388              		.loc 1 1709 5
 3389 007c FB64     		str	r3, [r7, #76]
 3390 007e 0123     		movs	r3, #1
 3391 0080 7B62     		str	r3, [r7, #36]
 3392              	.LBB679:
 3393              	.LBB680:
 414:Drivers/CMSIS/Include/cmsis_gcc.h **** }
 3394              		.loc 2 414 3
 3395 0082 7B6A     		ldr	r3, [r7, #36]
 3396              		.syntax divided
 3397              	@ 414 "Drivers/CMSIS/Include/cmsis_gcc.h" 1
 3398 0084 83F31088 		MSR primask, r3
 3399              	@ 0 "" 2
 3400              		.loc 2 415 1
 3401              		.thumb
 3402              		.syntax unified
 3403 0088 C046     		nop
 3404              	.LBE680:
 3405              	.LBE679:
 3406              		.loc 1 1709 5
 3407 008a 7B68     		ldr	r3, [r7, #4]
 3408 008c 1B68     		ldr	r3, [r3]
 3409 008e 1A68     		ldr	r2, [r3]
 3410 0090 7B68     		ldr	r3, [r7, #4]
 3411 0092 1B68     		ldr	r3, [r3]
 3412 0094 1021     		movs	r1, #16
 3413 0096 8A43     		bics	r2, r1
 3414 0098 1A60     		str	r2, [r3]
 3415 009a FB6C     		ldr	r3, [r7, #76]
 3416 009c BB62     		str	r3, [r7, #40]
 3417              	.LBB681:
 3418              	.LBB682:
 414:Drivers/CMSIS/Include/cmsis_gcc.h **** }
 3419              		.loc 2 414 3
 3420 009e BB6A     		ldr	r3, [r7, #40]
 3421              		.syntax divided
 3422              	@ 414 "Drivers/CMSIS/Include/cmsis_gcc.h" 1
 3423 00a0 83F31088 		MSR primask, r3
 3424              	@ 0 "" 2
 3425              		.loc 2 415 1
 3426              		.thumb
ARM GAS  C:\Users\lidka\AppData\Local\Temp\ccqOATUZ.s 			page 99


 3427              		.syntax unified
 3428 00a4 C046     		nop
 3429              	.L155:
 3430              	.LBE682:
 3431              	.LBE681:
 3432              	.LBE676:
1710:Drivers/STM32L0xx_HAL_Driver/Src/stm32l0xx_hal_uart.c ****   }
1711:Drivers/STM32L0xx_HAL_Driver/Src/stm32l0xx_hal_uart.c **** 
1712:Drivers/STM32L0xx_HAL_Driver/Src/stm32l0xx_hal_uart.c ****   /* Disable the UART DMA Tx request if enabled */
1713:Drivers/STM32L0xx_HAL_Driver/Src/stm32l0xx_hal_uart.c ****   if (HAL_IS_BIT_SET(huart->Instance->CR3, USART_CR3_DMAT))
 3433              		.loc 1 1713 7
 3434 00a6 7B68     		ldr	r3, [r7, #4]
 3435 00a8 1B68     		ldr	r3, [r3]
 3436 00aa 9B68     		ldr	r3, [r3, #8]
 3437 00ac 8022     		movs	r2, #128
 3438 00ae 1340     		ands	r3, r2
 3439              		.loc 1 1713 6
 3440 00b0 802B     		cmp	r3, #128
 3441 00b2 35D1     		bne	.L157
 3442              	.LBB683:
 3443              	.LBB684:
 3444              	.LBB685:
 386:Drivers/CMSIS/Include/cmsis_gcc.h ****   return(result);
 3445              		.loc 2 386 3
 3446              		.syntax divided
 3447              	@ 386 "Drivers/CMSIS/Include/cmsis_gcc.h" 1
 3448 00b4 EFF31083 		MRS r3, primask
 3449              	@ 0 "" 2
 3450              		.thumb
 3451              		.syntax unified
 3452 00b8 7B61     		str	r3, [r7, #20]
 387:Drivers/CMSIS/Include/cmsis_gcc.h **** }
 3453              		.loc 2 387 9
 3454 00ba 7B69     		ldr	r3, [r7, #20]
 3455              	.LBE685:
 3456              	.LBE684:
1714:Drivers/STM32L0xx_HAL_Driver/Src/stm32l0xx_hal_uart.c ****   {
1715:Drivers/STM32L0xx_HAL_Driver/Src/stm32l0xx_hal_uart.c ****     ATOMIC_CLEAR_BIT(huart->Instance->CR3, USART_CR3_DMAT);
 3457              		.loc 1 1715 5
 3458 00bc BB64     		str	r3, [r7, #72]
 3459 00be 0123     		movs	r3, #1
 3460 00c0 BB61     		str	r3, [r7, #24]
 3461              	.LBB686:
 3462              	.LBB687:
 414:Drivers/CMSIS/Include/cmsis_gcc.h **** }
 3463              		.loc 2 414 3
 3464 00c2 BB69     		ldr	r3, [r7, #24]
 3465              		.syntax divided
 3466              	@ 414 "Drivers/CMSIS/Include/cmsis_gcc.h" 1
 3467 00c4 83F31088 		MSR primask, r3
 3468              	@ 0 "" 2
 3469              		.loc 2 415 1
 3470              		.thumb
 3471              		.syntax unified
 3472 00c8 C046     		nop
 3473              	.LBE687:
 3474              	.LBE686:
ARM GAS  C:\Users\lidka\AppData\Local\Temp\ccqOATUZ.s 			page 100


 3475              		.loc 1 1715 5
 3476 00ca 7B68     		ldr	r3, [r7, #4]
 3477 00cc 1B68     		ldr	r3, [r3]
 3478 00ce 9A68     		ldr	r2, [r3, #8]
 3479 00d0 7B68     		ldr	r3, [r7, #4]
 3480 00d2 1B68     		ldr	r3, [r3]
 3481 00d4 8021     		movs	r1, #128
 3482 00d6 8A43     		bics	r2, r1
 3483 00d8 9A60     		str	r2, [r3, #8]
 3484 00da BB6C     		ldr	r3, [r7, #72]
 3485 00dc FB61     		str	r3, [r7, #28]
 3486              	.LBB688:
 3487              	.LBB689:
 414:Drivers/CMSIS/Include/cmsis_gcc.h **** }
 3488              		.loc 2 414 3
 3489 00de FB69     		ldr	r3, [r7, #28]
 3490              		.syntax divided
 3491              	@ 414 "Drivers/CMSIS/Include/cmsis_gcc.h" 1
 3492 00e0 83F31088 		MSR primask, r3
 3493              	@ 0 "" 2
 3494              		.loc 2 415 1
 3495              		.thumb
 3496              		.syntax unified
 3497 00e4 C046     		nop
 3498              	.LBE689:
 3499              	.LBE688:
 3500              	.LBE683:
1716:Drivers/STM32L0xx_HAL_Driver/Src/stm32l0xx_hal_uart.c **** 
1717:Drivers/STM32L0xx_HAL_Driver/Src/stm32l0xx_hal_uart.c ****     /* Abort the UART DMA Tx channel : use blocking DMA Abort API (no callback) */
1718:Drivers/STM32L0xx_HAL_Driver/Src/stm32l0xx_hal_uart.c ****     if (huart->hdmatx != NULL)
 3501              		.loc 1 1718 14
 3502 00e6 7B68     		ldr	r3, [r7, #4]
 3503 00e8 DB6E     		ldr	r3, [r3, #108]
 3504              		.loc 1 1718 8
 3505 00ea 002B     		cmp	r3, #0
 3506 00ec 18D0     		beq	.L157
1719:Drivers/STM32L0xx_HAL_Driver/Src/stm32l0xx_hal_uart.c ****     {
1720:Drivers/STM32L0xx_HAL_Driver/Src/stm32l0xx_hal_uart.c ****       /* Set the UART DMA Abort callback to Null.
1721:Drivers/STM32L0xx_HAL_Driver/Src/stm32l0xx_hal_uart.c ****          No call back execution at end of DMA abort procedure */
1722:Drivers/STM32L0xx_HAL_Driver/Src/stm32l0xx_hal_uart.c ****       huart->hdmatx->XferAbortCallback = NULL;
 3507              		.loc 1 1722 12
 3508 00ee 7B68     		ldr	r3, [r7, #4]
 3509 00f0 DB6E     		ldr	r3, [r3, #108]
 3510              		.loc 1 1722 40
 3511 00f2 0022     		movs	r2, #0
 3512 00f4 9A63     		str	r2, [r3, #56]
1723:Drivers/STM32L0xx_HAL_Driver/Src/stm32l0xx_hal_uart.c **** 
1724:Drivers/STM32L0xx_HAL_Driver/Src/stm32l0xx_hal_uart.c ****       if (HAL_DMA_Abort(huart->hdmatx) != HAL_OK)
 3513              		.loc 1 1724 11
 3514 00f6 7B68     		ldr	r3, [r7, #4]
 3515 00f8 DB6E     		ldr	r3, [r3, #108]
 3516 00fa 1800     		movs	r0, r3
 3517 00fc FFF7FEFF 		bl	HAL_DMA_Abort
 3518 0100 031E     		subs	r3, r0, #0
 3519              		.loc 1 1724 10
 3520 0102 0DD0     		beq	.L157
1725:Drivers/STM32L0xx_HAL_Driver/Src/stm32l0xx_hal_uart.c ****       {
ARM GAS  C:\Users\lidka\AppData\Local\Temp\ccqOATUZ.s 			page 101


1726:Drivers/STM32L0xx_HAL_Driver/Src/stm32l0xx_hal_uart.c ****         if (HAL_DMA_GetError(huart->hdmatx) == HAL_DMA_ERROR_TIMEOUT)
 3521              		.loc 1 1726 13
 3522 0104 7B68     		ldr	r3, [r7, #4]
 3523 0106 DB6E     		ldr	r3, [r3, #108]
 3524 0108 1800     		movs	r0, r3
 3525 010a FFF7FEFF 		bl	HAL_DMA_GetError
 3526 010e 0300     		movs	r3, r0
 3527              		.loc 1 1726 12
 3528 0110 202B     		cmp	r3, #32
 3529 0112 05D1     		bne	.L157
1727:Drivers/STM32L0xx_HAL_Driver/Src/stm32l0xx_hal_uart.c ****         {
1728:Drivers/STM32L0xx_HAL_Driver/Src/stm32l0xx_hal_uart.c ****           /* Set error code to DMA */
1729:Drivers/STM32L0xx_HAL_Driver/Src/stm32l0xx_hal_uart.c ****           huart->ErrorCode = HAL_UART_ERROR_DMA;
 3530              		.loc 1 1729 28
 3531 0114 7B68     		ldr	r3, [r7, #4]
 3532 0116 8022     		movs	r2, #128
 3533 0118 1021     		movs	r1, #16
 3534 011a 9950     		str	r1, [r3, r2]
1730:Drivers/STM32L0xx_HAL_Driver/Src/stm32l0xx_hal_uart.c **** 
1731:Drivers/STM32L0xx_HAL_Driver/Src/stm32l0xx_hal_uart.c ****           return HAL_TIMEOUT;
 3535              		.loc 1 1731 18
 3536 011c 0323     		movs	r3, #3
 3537 011e 5EE0     		b	.L159
 3538              	.L157:
1732:Drivers/STM32L0xx_HAL_Driver/Src/stm32l0xx_hal_uart.c ****         }
1733:Drivers/STM32L0xx_HAL_Driver/Src/stm32l0xx_hal_uart.c ****       }
1734:Drivers/STM32L0xx_HAL_Driver/Src/stm32l0xx_hal_uart.c ****     }
1735:Drivers/STM32L0xx_HAL_Driver/Src/stm32l0xx_hal_uart.c ****   }
1736:Drivers/STM32L0xx_HAL_Driver/Src/stm32l0xx_hal_uart.c **** 
1737:Drivers/STM32L0xx_HAL_Driver/Src/stm32l0xx_hal_uart.c ****   /* Disable the UART DMA Rx request if enabled */
1738:Drivers/STM32L0xx_HAL_Driver/Src/stm32l0xx_hal_uart.c ****   if (HAL_IS_BIT_SET(huart->Instance->CR3, USART_CR3_DMAR))
 3539              		.loc 1 1738 7
 3540 0120 7B68     		ldr	r3, [r7, #4]
 3541 0122 1B68     		ldr	r3, [r3]
 3542 0124 9B68     		ldr	r3, [r3, #8]
 3543 0126 4022     		movs	r2, #64
 3544 0128 1340     		ands	r3, r2
 3545              		.loc 1 1738 6
 3546 012a 402B     		cmp	r3, #64
 3547 012c 35D1     		bne	.L160
 3548              	.LBB690:
 3549              	.LBB691:
 3550              	.LBB692:
 386:Drivers/CMSIS/Include/cmsis_gcc.h ****   return(result);
 3551              		.loc 2 386 3
 3552              		.syntax divided
 3553              	@ 386 "Drivers/CMSIS/Include/cmsis_gcc.h" 1
 3554 012e EFF31083 		MRS r3, primask
 3555              	@ 0 "" 2
 3556              		.thumb
 3557              		.syntax unified
 3558 0132 BB60     		str	r3, [r7, #8]
 387:Drivers/CMSIS/Include/cmsis_gcc.h **** }
 3559              		.loc 2 387 9
 3560 0134 BB68     		ldr	r3, [r7, #8]
 3561              	.LBE692:
 3562              	.LBE691:
ARM GAS  C:\Users\lidka\AppData\Local\Temp\ccqOATUZ.s 			page 102


1739:Drivers/STM32L0xx_HAL_Driver/Src/stm32l0xx_hal_uart.c ****   {
1740:Drivers/STM32L0xx_HAL_Driver/Src/stm32l0xx_hal_uart.c ****     ATOMIC_CLEAR_BIT(huart->Instance->CR3, USART_CR3_DMAR);
 3563              		.loc 1 1740 5
 3564 0136 7B64     		str	r3, [r7, #68]
 3565 0138 0123     		movs	r3, #1
 3566 013a FB60     		str	r3, [r7, #12]
 3567              	.LBB693:
 3568              	.LBB694:
 414:Drivers/CMSIS/Include/cmsis_gcc.h **** }
 3569              		.loc 2 414 3
 3570 013c FB68     		ldr	r3, [r7, #12]
 3571              		.syntax divided
 3572              	@ 414 "Drivers/CMSIS/Include/cmsis_gcc.h" 1
 3573 013e 83F31088 		MSR primask, r3
 3574              	@ 0 "" 2
 3575              		.loc 2 415 1
 3576              		.thumb
 3577              		.syntax unified
 3578 0142 C046     		nop
 3579              	.LBE694:
 3580              	.LBE693:
 3581              		.loc 1 1740 5
 3582 0144 7B68     		ldr	r3, [r7, #4]
 3583 0146 1B68     		ldr	r3, [r3]
 3584 0148 9A68     		ldr	r2, [r3, #8]
 3585 014a 7B68     		ldr	r3, [r7, #4]
 3586 014c 1B68     		ldr	r3, [r3]
 3587 014e 4021     		movs	r1, #64
 3588 0150 8A43     		bics	r2, r1
 3589 0152 9A60     		str	r2, [r3, #8]
 3590 0154 7B6C     		ldr	r3, [r7, #68]
 3591 0156 3B61     		str	r3, [r7, #16]
 3592              	.LBB695:
 3593              	.LBB696:
 414:Drivers/CMSIS/Include/cmsis_gcc.h **** }
 3594              		.loc 2 414 3
 3595 0158 3B69     		ldr	r3, [r7, #16]
 3596              		.syntax divided
 3597              	@ 414 "Drivers/CMSIS/Include/cmsis_gcc.h" 1
 3598 015a 83F31088 		MSR primask, r3
 3599              	@ 0 "" 2
 3600              		.loc 2 415 1
 3601              		.thumb
 3602              		.syntax unified
 3603 015e C046     		nop
 3604              	.LBE696:
 3605              	.LBE695:
 3606              	.LBE690:
1741:Drivers/STM32L0xx_HAL_Driver/Src/stm32l0xx_hal_uart.c **** 
1742:Drivers/STM32L0xx_HAL_Driver/Src/stm32l0xx_hal_uart.c ****     /* Abort the UART DMA Rx channel : use blocking DMA Abort API (no callback) */
1743:Drivers/STM32L0xx_HAL_Driver/Src/stm32l0xx_hal_uart.c ****     if (huart->hdmarx != NULL)
 3607              		.loc 1 1743 14
 3608 0160 7B68     		ldr	r3, [r7, #4]
 3609 0162 1B6F     		ldr	r3, [r3, #112]
 3610              		.loc 1 1743 8
 3611 0164 002B     		cmp	r3, #0
 3612 0166 18D0     		beq	.L160
ARM GAS  C:\Users\lidka\AppData\Local\Temp\ccqOATUZ.s 			page 103


1744:Drivers/STM32L0xx_HAL_Driver/Src/stm32l0xx_hal_uart.c ****     {
1745:Drivers/STM32L0xx_HAL_Driver/Src/stm32l0xx_hal_uart.c ****       /* Set the UART DMA Abort callback to Null.
1746:Drivers/STM32L0xx_HAL_Driver/Src/stm32l0xx_hal_uart.c ****          No call back execution at end of DMA abort procedure */
1747:Drivers/STM32L0xx_HAL_Driver/Src/stm32l0xx_hal_uart.c ****       huart->hdmarx->XferAbortCallback = NULL;
 3613              		.loc 1 1747 12
 3614 0168 7B68     		ldr	r3, [r7, #4]
 3615 016a 1B6F     		ldr	r3, [r3, #112]
 3616              		.loc 1 1747 40
 3617 016c 0022     		movs	r2, #0
 3618 016e 9A63     		str	r2, [r3, #56]
1748:Drivers/STM32L0xx_HAL_Driver/Src/stm32l0xx_hal_uart.c **** 
1749:Drivers/STM32L0xx_HAL_Driver/Src/stm32l0xx_hal_uart.c ****       if (HAL_DMA_Abort(huart->hdmarx) != HAL_OK)
 3619              		.loc 1 1749 11
 3620 0170 7B68     		ldr	r3, [r7, #4]
 3621 0172 1B6F     		ldr	r3, [r3, #112]
 3622 0174 1800     		movs	r0, r3
 3623 0176 FFF7FEFF 		bl	HAL_DMA_Abort
 3624 017a 031E     		subs	r3, r0, #0
 3625              		.loc 1 1749 10
 3626 017c 0DD0     		beq	.L160
1750:Drivers/STM32L0xx_HAL_Driver/Src/stm32l0xx_hal_uart.c ****       {
1751:Drivers/STM32L0xx_HAL_Driver/Src/stm32l0xx_hal_uart.c ****         if (HAL_DMA_GetError(huart->hdmarx) == HAL_DMA_ERROR_TIMEOUT)
 3627              		.loc 1 1751 13
 3628 017e 7B68     		ldr	r3, [r7, #4]
 3629 0180 1B6F     		ldr	r3, [r3, #112]
 3630 0182 1800     		movs	r0, r3
 3631 0184 FFF7FEFF 		bl	HAL_DMA_GetError
 3632 0188 0300     		movs	r3, r0
 3633              		.loc 1 1751 12
 3634 018a 202B     		cmp	r3, #32
 3635 018c 05D1     		bne	.L160
1752:Drivers/STM32L0xx_HAL_Driver/Src/stm32l0xx_hal_uart.c ****         {
1753:Drivers/STM32L0xx_HAL_Driver/Src/stm32l0xx_hal_uart.c ****           /* Set error code to DMA */
1754:Drivers/STM32L0xx_HAL_Driver/Src/stm32l0xx_hal_uart.c ****           huart->ErrorCode = HAL_UART_ERROR_DMA;
 3636              		.loc 1 1754 28
 3637 018e 7B68     		ldr	r3, [r7, #4]
 3638 0190 8022     		movs	r2, #128
 3639 0192 1021     		movs	r1, #16
 3640 0194 9950     		str	r1, [r3, r2]
1755:Drivers/STM32L0xx_HAL_Driver/Src/stm32l0xx_hal_uart.c **** 
1756:Drivers/STM32L0xx_HAL_Driver/Src/stm32l0xx_hal_uart.c ****           return HAL_TIMEOUT;
 3641              		.loc 1 1756 18
 3642 0196 0323     		movs	r3, #3
 3643 0198 21E0     		b	.L159
 3644              	.L160:
1757:Drivers/STM32L0xx_HAL_Driver/Src/stm32l0xx_hal_uart.c ****         }
1758:Drivers/STM32L0xx_HAL_Driver/Src/stm32l0xx_hal_uart.c ****       }
1759:Drivers/STM32L0xx_HAL_Driver/Src/stm32l0xx_hal_uart.c ****     }
1760:Drivers/STM32L0xx_HAL_Driver/Src/stm32l0xx_hal_uart.c ****   }
1761:Drivers/STM32L0xx_HAL_Driver/Src/stm32l0xx_hal_uart.c **** 
1762:Drivers/STM32L0xx_HAL_Driver/Src/stm32l0xx_hal_uart.c ****   /* Reset Tx and Rx transfer counters */
1763:Drivers/STM32L0xx_HAL_Driver/Src/stm32l0xx_hal_uart.c ****   huart->TxXferCount = 0U;
 3645              		.loc 1 1763 22
 3646 019a 7B68     		ldr	r3, [r7, #4]
 3647 019c 5222     		movs	r2, #82
 3648 019e 0021     		movs	r1, #0
 3649 01a0 9952     		strh	r1, [r3, r2]
ARM GAS  C:\Users\lidka\AppData\Local\Temp\ccqOATUZ.s 			page 104


1764:Drivers/STM32L0xx_HAL_Driver/Src/stm32l0xx_hal_uart.c ****   huart->RxXferCount = 0U;
 3650              		.loc 1 1764 22
 3651 01a2 7B68     		ldr	r3, [r7, #4]
 3652 01a4 5A22     		movs	r2, #90
 3653 01a6 0021     		movs	r1, #0
 3654 01a8 9952     		strh	r1, [r3, r2]
1765:Drivers/STM32L0xx_HAL_Driver/Src/stm32l0xx_hal_uart.c **** 
1766:Drivers/STM32L0xx_HAL_Driver/Src/stm32l0xx_hal_uart.c ****   /* Clear the Error flags in the ICR register */
1767:Drivers/STM32L0xx_HAL_Driver/Src/stm32l0xx_hal_uart.c ****   __HAL_UART_CLEAR_FLAG(huart, UART_CLEAR_OREF | UART_CLEAR_NEF | UART_CLEAR_PEF | UART_CLEAR_FEF);
 3655              		.loc 1 1767 3
 3656 01aa 7B68     		ldr	r3, [r7, #4]
 3657 01ac 1B68     		ldr	r3, [r3]
 3658 01ae 0F22     		movs	r2, #15
 3659 01b0 1A62     		str	r2, [r3, #32]
1768:Drivers/STM32L0xx_HAL_Driver/Src/stm32l0xx_hal_uart.c **** 
1769:Drivers/STM32L0xx_HAL_Driver/Src/stm32l0xx_hal_uart.c **** 
1770:Drivers/STM32L0xx_HAL_Driver/Src/stm32l0xx_hal_uart.c ****   /* Discard the received data */
1771:Drivers/STM32L0xx_HAL_Driver/Src/stm32l0xx_hal_uart.c ****   __HAL_UART_SEND_REQ(huart, UART_RXDATA_FLUSH_REQUEST);
 3660              		.loc 1 1771 3
 3661 01b2 7B68     		ldr	r3, [r7, #4]
 3662 01b4 1B68     		ldr	r3, [r3]
 3663 01b6 9A69     		ldr	r2, [r3, #24]
 3664 01b8 7B68     		ldr	r3, [r7, #4]
 3665 01ba 1B68     		ldr	r3, [r3]
 3666 01bc 0821     		movs	r1, #8
 3667 01be 0A43     		orrs	r2, r1
 3668 01c0 9A61     		str	r2, [r3, #24]
1772:Drivers/STM32L0xx_HAL_Driver/Src/stm32l0xx_hal_uart.c **** 
1773:Drivers/STM32L0xx_HAL_Driver/Src/stm32l0xx_hal_uart.c ****   /* Restore huart->gState and huart->RxState to Ready */
1774:Drivers/STM32L0xx_HAL_Driver/Src/stm32l0xx_hal_uart.c ****   huart->gState  = HAL_UART_STATE_READY;
 3669              		.loc 1 1774 18
 3670 01c2 7B68     		ldr	r3, [r7, #4]
 3671 01c4 2022     		movs	r2, #32
 3672 01c6 9A67     		str	r2, [r3, #120]
1775:Drivers/STM32L0xx_HAL_Driver/Src/stm32l0xx_hal_uart.c ****   huart->RxState = HAL_UART_STATE_READY;
 3673              		.loc 1 1775 18
 3674 01c8 7B68     		ldr	r3, [r7, #4]
 3675 01ca 2022     		movs	r2, #32
 3676 01cc DA67     		str	r2, [r3, #124]
1776:Drivers/STM32L0xx_HAL_Driver/Src/stm32l0xx_hal_uart.c ****   huart->ReceptionType = HAL_UART_RECEPTION_STANDARD;
 3677              		.loc 1 1776 24
 3678 01ce 7B68     		ldr	r3, [r7, #4]
 3679 01d0 0022     		movs	r2, #0
 3680 01d2 1A66     		str	r2, [r3, #96]
1777:Drivers/STM32L0xx_HAL_Driver/Src/stm32l0xx_hal_uart.c **** 
1778:Drivers/STM32L0xx_HAL_Driver/Src/stm32l0xx_hal_uart.c ****   huart->ErrorCode = HAL_UART_ERROR_NONE;
 3681              		.loc 1 1778 20
 3682 01d4 7B68     		ldr	r3, [r7, #4]
 3683 01d6 8022     		movs	r2, #128
 3684 01d8 0021     		movs	r1, #0
 3685 01da 9950     		str	r1, [r3, r2]
1779:Drivers/STM32L0xx_HAL_Driver/Src/stm32l0xx_hal_uart.c **** 
1780:Drivers/STM32L0xx_HAL_Driver/Src/stm32l0xx_hal_uart.c ****   return HAL_OK;
 3686              		.loc 1 1780 10
 3687 01dc 0023     		movs	r3, #0
 3688              	.L159:
1781:Drivers/STM32L0xx_HAL_Driver/Src/stm32l0xx_hal_uart.c **** }
ARM GAS  C:\Users\lidka\AppData\Local\Temp\ccqOATUZ.s 			page 105


 3689              		.loc 1 1781 1
 3690 01de 1800     		movs	r0, r3
 3691 01e0 BD46     		mov	sp, r7
 3692 01e2 16B0     		add	sp, sp, #88
 3693              		@ sp needed
 3694 01e4 80BD     		pop	{r7, pc}
 3695              	.L163:
 3696 01e6 C046     		.align	2
 3697              	.L162:
 3698 01e8 1FFEFFFF 		.word	-481
 3699              		.cfi_endproc
 3700              	.LFE63:
 3702              		.section	.text.HAL_UART_AbortTransmit,"ax",%progbits
 3703              		.align	1
 3704              		.global	HAL_UART_AbortTransmit
 3705              		.syntax unified
 3706              		.code	16
 3707              		.thumb_func
 3709              	HAL_UART_AbortTransmit:
 3710              	.LFB64:
1782:Drivers/STM32L0xx_HAL_Driver/Src/stm32l0xx_hal_uart.c **** 
1783:Drivers/STM32L0xx_HAL_Driver/Src/stm32l0xx_hal_uart.c **** /**
1784:Drivers/STM32L0xx_HAL_Driver/Src/stm32l0xx_hal_uart.c ****   * @brief  Abort ongoing Transmit transfer (blocking mode).
1785:Drivers/STM32L0xx_HAL_Driver/Src/stm32l0xx_hal_uart.c ****   * @param  huart UART handle.
1786:Drivers/STM32L0xx_HAL_Driver/Src/stm32l0xx_hal_uart.c ****   * @note   This procedure could be used for aborting any ongoing Tx transfer started in Interrupt 
1787:Drivers/STM32L0xx_HAL_Driver/Src/stm32l0xx_hal_uart.c ****   *         This procedure performs following operations :
1788:Drivers/STM32L0xx_HAL_Driver/Src/stm32l0xx_hal_uart.c ****   *           - Disable UART Interrupts (Tx)
1789:Drivers/STM32L0xx_HAL_Driver/Src/stm32l0xx_hal_uart.c ****   *           - Disable the DMA transfer in the peripheral register (if enabled)
1790:Drivers/STM32L0xx_HAL_Driver/Src/stm32l0xx_hal_uart.c ****   *           - Abort DMA transfer by calling HAL_DMA_Abort (in case of transfer in DMA mode)
1791:Drivers/STM32L0xx_HAL_Driver/Src/stm32l0xx_hal_uart.c ****   *           - Set handle State to READY
1792:Drivers/STM32L0xx_HAL_Driver/Src/stm32l0xx_hal_uart.c ****   * @note   This procedure is executed in blocking mode : when exiting function, Abort is considere
1793:Drivers/STM32L0xx_HAL_Driver/Src/stm32l0xx_hal_uart.c ****   * @retval HAL status
1794:Drivers/STM32L0xx_HAL_Driver/Src/stm32l0xx_hal_uart.c ****   */
1795:Drivers/STM32L0xx_HAL_Driver/Src/stm32l0xx_hal_uart.c **** HAL_StatusTypeDef HAL_UART_AbortTransmit(UART_HandleTypeDef *huart)
1796:Drivers/STM32L0xx_HAL_Driver/Src/stm32l0xx_hal_uart.c **** {
 3711              		.loc 1 1796 1
 3712              		.cfi_startproc
 3713              		@ args = 0, pretend = 0, frame = 40
 3714              		@ frame_needed = 1, uses_anonymous_args = 0
 3715 0000 80B5     		push	{r7, lr}
 3716              	.LCFI51:
 3717              		.cfi_def_cfa_offset 8
 3718              		.cfi_offset 7, -8
 3719              		.cfi_offset 14, -4
 3720 0002 8AB0     		sub	sp, sp, #40
 3721              	.LCFI52:
 3722              		.cfi_def_cfa_offset 48
 3723 0004 00AF     		add	r7, sp, #0
 3724              	.LCFI53:
 3725              		.cfi_def_cfa_register 7
 3726 0006 7860     		str	r0, [r7, #4]
 3727              	.LBB697:
 3728              	.LBB698:
 3729              	.LBB699:
 386:Drivers/CMSIS/Include/cmsis_gcc.h ****   return(result);
 3730              		.loc 2 386 3
 3731              		.syntax divided
ARM GAS  C:\Users\lidka\AppData\Local\Temp\ccqOATUZ.s 			page 106


 3732              	@ 386 "Drivers/CMSIS/Include/cmsis_gcc.h" 1
 3733 0008 EFF31083 		MRS r3, primask
 3734              	@ 0 "" 2
 3735              		.thumb
 3736              		.syntax unified
 3737 000c 7B61     		str	r3, [r7, #20]
 387:Drivers/CMSIS/Include/cmsis_gcc.h **** }
 3738              		.loc 2 387 9
 3739 000e 7B69     		ldr	r3, [r7, #20]
 3740              	.LBE699:
 3741              	.LBE698:
1797:Drivers/STM32L0xx_HAL_Driver/Src/stm32l0xx_hal_uart.c ****   /* Disable TXEIE and TCIE interrupts */
1798:Drivers/STM32L0xx_HAL_Driver/Src/stm32l0xx_hal_uart.c ****   ATOMIC_CLEAR_BIT(huart->Instance->CR1, (USART_CR1_TXEIE | USART_CR1_TCIE));
 3742              		.loc 1 1798 3
 3743 0010 7B62     		str	r3, [r7, #36]
 3744 0012 0123     		movs	r3, #1
 3745 0014 BB61     		str	r3, [r7, #24]
 3746              	.LBB700:
 3747              	.LBB701:
 414:Drivers/CMSIS/Include/cmsis_gcc.h **** }
 3748              		.loc 2 414 3
 3749 0016 BB69     		ldr	r3, [r7, #24]
 3750              		.syntax divided
 3751              	@ 414 "Drivers/CMSIS/Include/cmsis_gcc.h" 1
 3752 0018 83F31088 		MSR primask, r3
 3753              	@ 0 "" 2
 3754              		.loc 2 415 1
 3755              		.thumb
 3756              		.syntax unified
 3757 001c C046     		nop
 3758              	.LBE701:
 3759              	.LBE700:
 3760              		.loc 1 1798 3
 3761 001e 7B68     		ldr	r3, [r7, #4]
 3762 0020 1B68     		ldr	r3, [r3]
 3763 0022 1A68     		ldr	r2, [r3]
 3764 0024 7B68     		ldr	r3, [r7, #4]
 3765 0026 1B68     		ldr	r3, [r3]
 3766 0028 C021     		movs	r1, #192
 3767 002a 8A43     		bics	r2, r1
 3768 002c 1A60     		str	r2, [r3]
 3769 002e 7B6A     		ldr	r3, [r7, #36]
 3770 0030 FB61     		str	r3, [r7, #28]
 3771              	.LBB702:
 3772              	.LBB703:
 414:Drivers/CMSIS/Include/cmsis_gcc.h **** }
 3773              		.loc 2 414 3
 3774 0032 FB69     		ldr	r3, [r7, #28]
 3775              		.syntax divided
 3776              	@ 414 "Drivers/CMSIS/Include/cmsis_gcc.h" 1
 3777 0034 83F31088 		MSR primask, r3
 3778              	@ 0 "" 2
 3779              		.loc 2 415 1
 3780              		.thumb
 3781              		.syntax unified
 3782 0038 C046     		nop
 3783              	.LBE703:
ARM GAS  C:\Users\lidka\AppData\Local\Temp\ccqOATUZ.s 			page 107


 3784              	.LBE702:
 3785              	.LBE697:
1799:Drivers/STM32L0xx_HAL_Driver/Src/stm32l0xx_hal_uart.c **** 
1800:Drivers/STM32L0xx_HAL_Driver/Src/stm32l0xx_hal_uart.c ****   /* Disable the UART DMA Tx request if enabled */
1801:Drivers/STM32L0xx_HAL_Driver/Src/stm32l0xx_hal_uart.c ****   if (HAL_IS_BIT_SET(huart->Instance->CR3, USART_CR3_DMAT))
 3786              		.loc 1 1801 7
 3787 003a 7B68     		ldr	r3, [r7, #4]
 3788 003c 1B68     		ldr	r3, [r3]
 3789 003e 9B68     		ldr	r3, [r3, #8]
 3790 0040 8022     		movs	r2, #128
 3791 0042 1340     		ands	r3, r2
 3792              		.loc 1 1801 6
 3793 0044 802B     		cmp	r3, #128
 3794 0046 35D1     		bne	.L166
 3795              	.LBB704:
 3796              	.LBB705:
 3797              	.LBB706:
 386:Drivers/CMSIS/Include/cmsis_gcc.h ****   return(result);
 3798              		.loc 2 386 3
 3799              		.syntax divided
 3800              	@ 386 "Drivers/CMSIS/Include/cmsis_gcc.h" 1
 3801 0048 EFF31083 		MRS r3, primask
 3802              	@ 0 "" 2
 3803              		.thumb
 3804              		.syntax unified
 3805 004c BB60     		str	r3, [r7, #8]
 387:Drivers/CMSIS/Include/cmsis_gcc.h **** }
 3806              		.loc 2 387 9
 3807 004e BB68     		ldr	r3, [r7, #8]
 3808              	.LBE706:
 3809              	.LBE705:
1802:Drivers/STM32L0xx_HAL_Driver/Src/stm32l0xx_hal_uart.c ****   {
1803:Drivers/STM32L0xx_HAL_Driver/Src/stm32l0xx_hal_uart.c ****     ATOMIC_CLEAR_BIT(huart->Instance->CR3, USART_CR3_DMAT);
 3810              		.loc 1 1803 5
 3811 0050 3B62     		str	r3, [r7, #32]
 3812 0052 0123     		movs	r3, #1
 3813 0054 FB60     		str	r3, [r7, #12]
 3814              	.LBB707:
 3815              	.LBB708:
 414:Drivers/CMSIS/Include/cmsis_gcc.h **** }
 3816              		.loc 2 414 3
 3817 0056 FB68     		ldr	r3, [r7, #12]
 3818              		.syntax divided
 3819              	@ 414 "Drivers/CMSIS/Include/cmsis_gcc.h" 1
 3820 0058 83F31088 		MSR primask, r3
 3821              	@ 0 "" 2
 3822              		.loc 2 415 1
 3823              		.thumb
 3824              		.syntax unified
 3825 005c C046     		nop
 3826              	.LBE708:
 3827              	.LBE707:
 3828              		.loc 1 1803 5
 3829 005e 7B68     		ldr	r3, [r7, #4]
 3830 0060 1B68     		ldr	r3, [r3]
 3831 0062 9A68     		ldr	r2, [r3, #8]
 3832 0064 7B68     		ldr	r3, [r7, #4]
ARM GAS  C:\Users\lidka\AppData\Local\Temp\ccqOATUZ.s 			page 108


 3833 0066 1B68     		ldr	r3, [r3]
 3834 0068 8021     		movs	r1, #128
 3835 006a 8A43     		bics	r2, r1
 3836 006c 9A60     		str	r2, [r3, #8]
 3837 006e 3B6A     		ldr	r3, [r7, #32]
 3838 0070 3B61     		str	r3, [r7, #16]
 3839              	.LBB709:
 3840              	.LBB710:
 414:Drivers/CMSIS/Include/cmsis_gcc.h **** }
 3841              		.loc 2 414 3
 3842 0072 3B69     		ldr	r3, [r7, #16]
 3843              		.syntax divided
 3844              	@ 414 "Drivers/CMSIS/Include/cmsis_gcc.h" 1
 3845 0074 83F31088 		MSR primask, r3
 3846              	@ 0 "" 2
 3847              		.loc 2 415 1
 3848              		.thumb
 3849              		.syntax unified
 3850 0078 C046     		nop
 3851              	.LBE710:
 3852              	.LBE709:
 3853              	.LBE704:
1804:Drivers/STM32L0xx_HAL_Driver/Src/stm32l0xx_hal_uart.c **** 
1805:Drivers/STM32L0xx_HAL_Driver/Src/stm32l0xx_hal_uart.c ****     /* Abort the UART DMA Tx channel : use blocking DMA Abort API (no callback) */
1806:Drivers/STM32L0xx_HAL_Driver/Src/stm32l0xx_hal_uart.c ****     if (huart->hdmatx != NULL)
 3854              		.loc 1 1806 14
 3855 007a 7B68     		ldr	r3, [r7, #4]
 3856 007c DB6E     		ldr	r3, [r3, #108]
 3857              		.loc 1 1806 8
 3858 007e 002B     		cmp	r3, #0
 3859 0080 18D0     		beq	.L166
1807:Drivers/STM32L0xx_HAL_Driver/Src/stm32l0xx_hal_uart.c ****     {
1808:Drivers/STM32L0xx_HAL_Driver/Src/stm32l0xx_hal_uart.c ****       /* Set the UART DMA Abort callback to Null.
1809:Drivers/STM32L0xx_HAL_Driver/Src/stm32l0xx_hal_uart.c ****          No call back execution at end of DMA abort procedure */
1810:Drivers/STM32L0xx_HAL_Driver/Src/stm32l0xx_hal_uart.c ****       huart->hdmatx->XferAbortCallback = NULL;
 3860              		.loc 1 1810 12
 3861 0082 7B68     		ldr	r3, [r7, #4]
 3862 0084 DB6E     		ldr	r3, [r3, #108]
 3863              		.loc 1 1810 40
 3864 0086 0022     		movs	r2, #0
 3865 0088 9A63     		str	r2, [r3, #56]
1811:Drivers/STM32L0xx_HAL_Driver/Src/stm32l0xx_hal_uart.c **** 
1812:Drivers/STM32L0xx_HAL_Driver/Src/stm32l0xx_hal_uart.c ****       if (HAL_DMA_Abort(huart->hdmatx) != HAL_OK)
 3866              		.loc 1 1812 11
 3867 008a 7B68     		ldr	r3, [r7, #4]
 3868 008c DB6E     		ldr	r3, [r3, #108]
 3869 008e 1800     		movs	r0, r3
 3870 0090 FFF7FEFF 		bl	HAL_DMA_Abort
 3871 0094 031E     		subs	r3, r0, #0
 3872              		.loc 1 1812 10
 3873 0096 0DD0     		beq	.L166
1813:Drivers/STM32L0xx_HAL_Driver/Src/stm32l0xx_hal_uart.c ****       {
1814:Drivers/STM32L0xx_HAL_Driver/Src/stm32l0xx_hal_uart.c ****         if (HAL_DMA_GetError(huart->hdmatx) == HAL_DMA_ERROR_TIMEOUT)
 3874              		.loc 1 1814 13
 3875 0098 7B68     		ldr	r3, [r7, #4]
 3876 009a DB6E     		ldr	r3, [r3, #108]
 3877 009c 1800     		movs	r0, r3
ARM GAS  C:\Users\lidka\AppData\Local\Temp\ccqOATUZ.s 			page 109


 3878 009e FFF7FEFF 		bl	HAL_DMA_GetError
 3879 00a2 0300     		movs	r3, r0
 3880              		.loc 1 1814 12
 3881 00a4 202B     		cmp	r3, #32
 3882 00a6 05D1     		bne	.L166
1815:Drivers/STM32L0xx_HAL_Driver/Src/stm32l0xx_hal_uart.c ****         {
1816:Drivers/STM32L0xx_HAL_Driver/Src/stm32l0xx_hal_uart.c ****           /* Set error code to DMA */
1817:Drivers/STM32L0xx_HAL_Driver/Src/stm32l0xx_hal_uart.c ****           huart->ErrorCode = HAL_UART_ERROR_DMA;
 3883              		.loc 1 1817 28
 3884 00a8 7B68     		ldr	r3, [r7, #4]
 3885 00aa 8022     		movs	r2, #128
 3886 00ac 1021     		movs	r1, #16
 3887 00ae 9950     		str	r1, [r3, r2]
1818:Drivers/STM32L0xx_HAL_Driver/Src/stm32l0xx_hal_uart.c **** 
1819:Drivers/STM32L0xx_HAL_Driver/Src/stm32l0xx_hal_uart.c ****           return HAL_TIMEOUT;
 3888              		.loc 1 1819 18
 3889 00b0 0323     		movs	r3, #3
 3890 00b2 07E0     		b	.L168
 3891              	.L166:
1820:Drivers/STM32L0xx_HAL_Driver/Src/stm32l0xx_hal_uart.c ****         }
1821:Drivers/STM32L0xx_HAL_Driver/Src/stm32l0xx_hal_uart.c ****       }
1822:Drivers/STM32L0xx_HAL_Driver/Src/stm32l0xx_hal_uart.c ****     }
1823:Drivers/STM32L0xx_HAL_Driver/Src/stm32l0xx_hal_uart.c ****   }
1824:Drivers/STM32L0xx_HAL_Driver/Src/stm32l0xx_hal_uart.c **** 
1825:Drivers/STM32L0xx_HAL_Driver/Src/stm32l0xx_hal_uart.c ****   /* Reset Tx transfer counter */
1826:Drivers/STM32L0xx_HAL_Driver/Src/stm32l0xx_hal_uart.c ****   huart->TxXferCount = 0U;
 3892              		.loc 1 1826 22
 3893 00b4 7B68     		ldr	r3, [r7, #4]
 3894 00b6 5222     		movs	r2, #82
 3895 00b8 0021     		movs	r1, #0
 3896 00ba 9952     		strh	r1, [r3, r2]
1827:Drivers/STM32L0xx_HAL_Driver/Src/stm32l0xx_hal_uart.c **** 
1828:Drivers/STM32L0xx_HAL_Driver/Src/stm32l0xx_hal_uart.c **** 
1829:Drivers/STM32L0xx_HAL_Driver/Src/stm32l0xx_hal_uart.c ****   /* Restore huart->gState to Ready */
1830:Drivers/STM32L0xx_HAL_Driver/Src/stm32l0xx_hal_uart.c ****   huart->gState = HAL_UART_STATE_READY;
 3897              		.loc 1 1830 17
 3898 00bc 7B68     		ldr	r3, [r7, #4]
 3899 00be 2022     		movs	r2, #32
 3900 00c0 9A67     		str	r2, [r3, #120]
1831:Drivers/STM32L0xx_HAL_Driver/Src/stm32l0xx_hal_uart.c **** 
1832:Drivers/STM32L0xx_HAL_Driver/Src/stm32l0xx_hal_uart.c ****   return HAL_OK;
 3901              		.loc 1 1832 10
 3902 00c2 0023     		movs	r3, #0
 3903              	.L168:
1833:Drivers/STM32L0xx_HAL_Driver/Src/stm32l0xx_hal_uart.c **** }
 3904              		.loc 1 1833 1
 3905 00c4 1800     		movs	r0, r3
 3906 00c6 BD46     		mov	sp, r7
 3907 00c8 0AB0     		add	sp, sp, #40
 3908              		@ sp needed
 3909 00ca 80BD     		pop	{r7, pc}
 3910              		.cfi_endproc
 3911              	.LFE64:
 3913              		.section	.text.HAL_UART_AbortReceive,"ax",%progbits
 3914              		.align	1
 3915              		.global	HAL_UART_AbortReceive
 3916              		.syntax unified
ARM GAS  C:\Users\lidka\AppData\Local\Temp\ccqOATUZ.s 			page 110


 3917              		.code	16
 3918              		.thumb_func
 3920              	HAL_UART_AbortReceive:
 3921              	.LFB65:
1834:Drivers/STM32L0xx_HAL_Driver/Src/stm32l0xx_hal_uart.c **** 
1835:Drivers/STM32L0xx_HAL_Driver/Src/stm32l0xx_hal_uart.c **** /**
1836:Drivers/STM32L0xx_HAL_Driver/Src/stm32l0xx_hal_uart.c ****   * @brief  Abort ongoing Receive transfer (blocking mode).
1837:Drivers/STM32L0xx_HAL_Driver/Src/stm32l0xx_hal_uart.c ****   * @param  huart UART handle.
1838:Drivers/STM32L0xx_HAL_Driver/Src/stm32l0xx_hal_uart.c ****   * @note   This procedure could be used for aborting any ongoing Rx transfer started in Interrupt 
1839:Drivers/STM32L0xx_HAL_Driver/Src/stm32l0xx_hal_uart.c ****   *         This procedure performs following operations :
1840:Drivers/STM32L0xx_HAL_Driver/Src/stm32l0xx_hal_uart.c ****   *           - Disable UART Interrupts (Rx)
1841:Drivers/STM32L0xx_HAL_Driver/Src/stm32l0xx_hal_uart.c ****   *           - Disable the DMA transfer in the peripheral register (if enabled)
1842:Drivers/STM32L0xx_HAL_Driver/Src/stm32l0xx_hal_uart.c ****   *           - Abort DMA transfer by calling HAL_DMA_Abort (in case of transfer in DMA mode)
1843:Drivers/STM32L0xx_HAL_Driver/Src/stm32l0xx_hal_uart.c ****   *           - Set handle State to READY
1844:Drivers/STM32L0xx_HAL_Driver/Src/stm32l0xx_hal_uart.c ****   * @note   This procedure is executed in blocking mode : when exiting function, Abort is considere
1845:Drivers/STM32L0xx_HAL_Driver/Src/stm32l0xx_hal_uart.c ****   * @retval HAL status
1846:Drivers/STM32L0xx_HAL_Driver/Src/stm32l0xx_hal_uart.c ****   */
1847:Drivers/STM32L0xx_HAL_Driver/Src/stm32l0xx_hal_uart.c **** HAL_StatusTypeDef HAL_UART_AbortReceive(UART_HandleTypeDef *huart)
1848:Drivers/STM32L0xx_HAL_Driver/Src/stm32l0xx_hal_uart.c **** {
 3922              		.loc 1 1848 1
 3923              		.cfi_startproc
 3924              		@ args = 0, pretend = 0, frame = 72
 3925              		@ frame_needed = 1, uses_anonymous_args = 0
 3926 0000 80B5     		push	{r7, lr}
 3927              	.LCFI54:
 3928              		.cfi_def_cfa_offset 8
 3929              		.cfi_offset 7, -8
 3930              		.cfi_offset 14, -4
 3931 0002 92B0     		sub	sp, sp, #72
 3932              	.LCFI55:
 3933              		.cfi_def_cfa_offset 80
 3934 0004 00AF     		add	r7, sp, #0
 3935              	.LCFI56:
 3936              		.cfi_def_cfa_register 7
 3937 0006 7860     		str	r0, [r7, #4]
 3938              	.LBB711:
 3939              	.LBB712:
 3940              	.LBB713:
 386:Drivers/CMSIS/Include/cmsis_gcc.h ****   return(result);
 3941              		.loc 2 386 3
 3942              		.syntax divided
 3943              	@ 386 "Drivers/CMSIS/Include/cmsis_gcc.h" 1
 3944 0008 EFF31083 		MRS r3, primask
 3945              	@ 0 "" 2
 3946              		.thumb
 3947              		.syntax unified
 3948 000c 3B62     		str	r3, [r7, #32]
 387:Drivers/CMSIS/Include/cmsis_gcc.h **** }
 3949              		.loc 2 387 9
 3950 000e 3B6A     		ldr	r3, [r7, #32]
 3951              	.LBE713:
 3952              	.LBE712:
1849:Drivers/STM32L0xx_HAL_Driver/Src/stm32l0xx_hal_uart.c ****   /* Disable RXNE, PE and ERR (Frame error, noise error, overrun error) interrupts */
1850:Drivers/STM32L0xx_HAL_Driver/Src/stm32l0xx_hal_uart.c ****   ATOMIC_CLEAR_BIT(huart->Instance->CR1, (USART_CR1_RXNEIE | USART_CR1_PEIE));
 3953              		.loc 1 1850 3
 3954 0010 7B64     		str	r3, [r7, #68]
 3955 0012 0123     		movs	r3, #1
ARM GAS  C:\Users\lidka\AppData\Local\Temp\ccqOATUZ.s 			page 111


 3956 0014 7B62     		str	r3, [r7, #36]
 3957              	.LBB714:
 3958              	.LBB715:
 414:Drivers/CMSIS/Include/cmsis_gcc.h **** }
 3959              		.loc 2 414 3
 3960 0016 7B6A     		ldr	r3, [r7, #36]
 3961              		.syntax divided
 3962              	@ 414 "Drivers/CMSIS/Include/cmsis_gcc.h" 1
 3963 0018 83F31088 		MSR primask, r3
 3964              	@ 0 "" 2
 3965              		.loc 2 415 1
 3966              		.thumb
 3967              		.syntax unified
 3968 001c C046     		nop
 3969              	.LBE715:
 3970              	.LBE714:
 3971              		.loc 1 1850 3
 3972 001e 7B68     		ldr	r3, [r7, #4]
 3973 0020 1B68     		ldr	r3, [r3]
 3974 0022 1A68     		ldr	r2, [r3]
 3975 0024 7B68     		ldr	r3, [r7, #4]
 3976 0026 1B68     		ldr	r3, [r3]
 3977 0028 4B49     		ldr	r1, .L177
 3978 002a 0A40     		ands	r2, r1
 3979 002c 1A60     		str	r2, [r3]
 3980 002e 7B6C     		ldr	r3, [r7, #68]
 3981 0030 BB62     		str	r3, [r7, #40]
 3982              	.LBB716:
 3983              	.LBB717:
 414:Drivers/CMSIS/Include/cmsis_gcc.h **** }
 3984              		.loc 2 414 3
 3985 0032 BB6A     		ldr	r3, [r7, #40]
 3986              		.syntax divided
 3987              	@ 414 "Drivers/CMSIS/Include/cmsis_gcc.h" 1
 3988 0034 83F31088 		MSR primask, r3
 3989              	@ 0 "" 2
 3990              		.loc 2 415 1
 3991              		.thumb
 3992              		.syntax unified
 3993 0038 C046     		nop
 3994              	.LBE717:
 3995              	.LBE716:
 3996              	.LBE711:
 3997              	.LBB718:
 3998              	.LBB719:
 3999              	.LBB720:
 386:Drivers/CMSIS/Include/cmsis_gcc.h ****   return(result);
 4000              		.loc 2 386 3
 4001              		.syntax divided
 4002              	@ 386 "Drivers/CMSIS/Include/cmsis_gcc.h" 1
 4003 003a EFF31083 		MRS r3, primask
 4004              	@ 0 "" 2
 4005              		.thumb
 4006              		.syntax unified
 4007 003e FB62     		str	r3, [r7, #44]
 387:Drivers/CMSIS/Include/cmsis_gcc.h **** }
 4008              		.loc 2 387 9
ARM GAS  C:\Users\lidka\AppData\Local\Temp\ccqOATUZ.s 			page 112


 4009 0040 FB6A     		ldr	r3, [r7, #44]
 4010              	.LBE720:
 4011              	.LBE719:
1851:Drivers/STM32L0xx_HAL_Driver/Src/stm32l0xx_hal_uart.c ****   ATOMIC_CLEAR_BIT(huart->Instance->CR3, USART_CR3_EIE);
 4012              		.loc 1 1851 3
 4013 0042 3B64     		str	r3, [r7, #64]
 4014 0044 0123     		movs	r3, #1
 4015 0046 3B63     		str	r3, [r7, #48]
 4016              	.LBB721:
 4017              	.LBB722:
 414:Drivers/CMSIS/Include/cmsis_gcc.h **** }
 4018              		.loc 2 414 3
 4019 0048 3B6B     		ldr	r3, [r7, #48]
 4020              		.syntax divided
 4021              	@ 414 "Drivers/CMSIS/Include/cmsis_gcc.h" 1
 4022 004a 83F31088 		MSR primask, r3
 4023              	@ 0 "" 2
 4024              		.loc 2 415 1
 4025              		.thumb
 4026              		.syntax unified
 4027 004e C046     		nop
 4028              	.LBE722:
 4029              	.LBE721:
 4030              		.loc 1 1851 3
 4031 0050 7B68     		ldr	r3, [r7, #4]
 4032 0052 1B68     		ldr	r3, [r3]
 4033 0054 9A68     		ldr	r2, [r3, #8]
 4034 0056 7B68     		ldr	r3, [r7, #4]
 4035 0058 1B68     		ldr	r3, [r3]
 4036 005a 0121     		movs	r1, #1
 4037 005c 8A43     		bics	r2, r1
 4038 005e 9A60     		str	r2, [r3, #8]
 4039 0060 3B6C     		ldr	r3, [r7, #64]
 4040 0062 7B63     		str	r3, [r7, #52]
 4041              	.LBB723:
 4042              	.LBB724:
 414:Drivers/CMSIS/Include/cmsis_gcc.h **** }
 4043              		.loc 2 414 3
 4044 0064 7B6B     		ldr	r3, [r7, #52]
 4045              		.syntax divided
 4046              	@ 414 "Drivers/CMSIS/Include/cmsis_gcc.h" 1
 4047 0066 83F31088 		MSR primask, r3
 4048              	@ 0 "" 2
 4049              		.loc 2 415 1
 4050              		.thumb
 4051              		.syntax unified
 4052 006a C046     		nop
 4053              	.LBE724:
 4054              	.LBE723:
 4055              	.LBE718:
1852:Drivers/STM32L0xx_HAL_Driver/Src/stm32l0xx_hal_uart.c **** 
1853:Drivers/STM32L0xx_HAL_Driver/Src/stm32l0xx_hal_uart.c ****   /* If Reception till IDLE event was ongoing, disable IDLEIE interrupt */
1854:Drivers/STM32L0xx_HAL_Driver/Src/stm32l0xx_hal_uart.c ****   if (huart->ReceptionType == HAL_UART_RECEPTION_TOIDLE)
 4056              		.loc 1 1854 12
 4057 006c 7B68     		ldr	r3, [r7, #4]
 4058 006e 1B6E     		ldr	r3, [r3, #96]
 4059              		.loc 1 1854 6
ARM GAS  C:\Users\lidka\AppData\Local\Temp\ccqOATUZ.s 			page 113


 4060 0070 012B     		cmp	r3, #1
 4061 0072 18D1     		bne	.L172
 4062              	.LBB725:
 4063              	.LBB726:
 4064              	.LBB727:
 386:Drivers/CMSIS/Include/cmsis_gcc.h ****   return(result);
 4065              		.loc 2 386 3
 4066              		.syntax divided
 4067              	@ 386 "Drivers/CMSIS/Include/cmsis_gcc.h" 1
 4068 0074 EFF31083 		MRS r3, primask
 4069              	@ 0 "" 2
 4070              		.thumb
 4071              		.syntax unified
 4072 0078 7B61     		str	r3, [r7, #20]
 387:Drivers/CMSIS/Include/cmsis_gcc.h **** }
 4073              		.loc 2 387 9
 4074 007a 7B69     		ldr	r3, [r7, #20]
 4075              	.LBE727:
 4076              	.LBE726:
1855:Drivers/STM32L0xx_HAL_Driver/Src/stm32l0xx_hal_uart.c ****   {
1856:Drivers/STM32L0xx_HAL_Driver/Src/stm32l0xx_hal_uart.c ****     ATOMIC_CLEAR_BIT(huart->Instance->CR1, (USART_CR1_IDLEIE));
 4077              		.loc 1 1856 5
 4078 007c FB63     		str	r3, [r7, #60]
 4079 007e 0123     		movs	r3, #1
 4080 0080 BB61     		str	r3, [r7, #24]
 4081              	.LBB728:
 4082              	.LBB729:
 414:Drivers/CMSIS/Include/cmsis_gcc.h **** }
 4083              		.loc 2 414 3
 4084 0082 BB69     		ldr	r3, [r7, #24]
 4085              		.syntax divided
 4086              	@ 414 "Drivers/CMSIS/Include/cmsis_gcc.h" 1
 4087 0084 83F31088 		MSR primask, r3
 4088              	@ 0 "" 2
 4089              		.loc 2 415 1
 4090              		.thumb
 4091              		.syntax unified
 4092 0088 C046     		nop
 4093              	.LBE729:
 4094              	.LBE728:
 4095              		.loc 1 1856 5
 4096 008a 7B68     		ldr	r3, [r7, #4]
 4097 008c 1B68     		ldr	r3, [r3]
 4098 008e 1A68     		ldr	r2, [r3]
 4099 0090 7B68     		ldr	r3, [r7, #4]
 4100 0092 1B68     		ldr	r3, [r3]
 4101 0094 1021     		movs	r1, #16
 4102 0096 8A43     		bics	r2, r1
 4103 0098 1A60     		str	r2, [r3]
 4104 009a FB6B     		ldr	r3, [r7, #60]
 4105 009c FB61     		str	r3, [r7, #28]
 4106              	.LBB730:
 4107              	.LBB731:
 414:Drivers/CMSIS/Include/cmsis_gcc.h **** }
 4108              		.loc 2 414 3
 4109 009e FB69     		ldr	r3, [r7, #28]
 4110              		.syntax divided
ARM GAS  C:\Users\lidka\AppData\Local\Temp\ccqOATUZ.s 			page 114


 4111              	@ 414 "Drivers/CMSIS/Include/cmsis_gcc.h" 1
 4112 00a0 83F31088 		MSR primask, r3
 4113              	@ 0 "" 2
 4114              		.loc 2 415 1
 4115              		.thumb
 4116              		.syntax unified
 4117 00a4 C046     		nop
 4118              	.L172:
 4119              	.LBE731:
 4120              	.LBE730:
 4121              	.LBE725:
1857:Drivers/STM32L0xx_HAL_Driver/Src/stm32l0xx_hal_uart.c ****   }
1858:Drivers/STM32L0xx_HAL_Driver/Src/stm32l0xx_hal_uart.c **** 
1859:Drivers/STM32L0xx_HAL_Driver/Src/stm32l0xx_hal_uart.c ****   /* Disable the UART DMA Rx request if enabled */
1860:Drivers/STM32L0xx_HAL_Driver/Src/stm32l0xx_hal_uart.c ****   if (HAL_IS_BIT_SET(huart->Instance->CR3, USART_CR3_DMAR))
 4122              		.loc 1 1860 7
 4123 00a6 7B68     		ldr	r3, [r7, #4]
 4124 00a8 1B68     		ldr	r3, [r3]
 4125 00aa 9B68     		ldr	r3, [r3, #8]
 4126 00ac 4022     		movs	r2, #64
 4127 00ae 1340     		ands	r3, r2
 4128              		.loc 1 1860 6
 4129 00b0 402B     		cmp	r3, #64
 4130 00b2 35D1     		bne	.L174
 4131              	.LBB732:
 4132              	.LBB733:
 4133              	.LBB734:
 386:Drivers/CMSIS/Include/cmsis_gcc.h ****   return(result);
 4134              		.loc 2 386 3
 4135              		.syntax divided
 4136              	@ 386 "Drivers/CMSIS/Include/cmsis_gcc.h" 1
 4137 00b4 EFF31083 		MRS r3, primask
 4138              	@ 0 "" 2
 4139              		.thumb
 4140              		.syntax unified
 4141 00b8 BB60     		str	r3, [r7, #8]
 387:Drivers/CMSIS/Include/cmsis_gcc.h **** }
 4142              		.loc 2 387 9
 4143 00ba BB68     		ldr	r3, [r7, #8]
 4144              	.LBE734:
 4145              	.LBE733:
1861:Drivers/STM32L0xx_HAL_Driver/Src/stm32l0xx_hal_uart.c ****   {
1862:Drivers/STM32L0xx_HAL_Driver/Src/stm32l0xx_hal_uart.c ****     ATOMIC_CLEAR_BIT(huart->Instance->CR3, USART_CR3_DMAR);
 4146              		.loc 1 1862 5
 4147 00bc BB63     		str	r3, [r7, #56]
 4148 00be 0123     		movs	r3, #1
 4149 00c0 FB60     		str	r3, [r7, #12]
 4150              	.LBB735:
 4151              	.LBB736:
 414:Drivers/CMSIS/Include/cmsis_gcc.h **** }
 4152              		.loc 2 414 3
 4153 00c2 FB68     		ldr	r3, [r7, #12]
 4154              		.syntax divided
 4155              	@ 414 "Drivers/CMSIS/Include/cmsis_gcc.h" 1
 4156 00c4 83F31088 		MSR primask, r3
 4157              	@ 0 "" 2
 4158              		.loc 2 415 1
ARM GAS  C:\Users\lidka\AppData\Local\Temp\ccqOATUZ.s 			page 115


 4159              		.thumb
 4160              		.syntax unified
 4161 00c8 C046     		nop
 4162              	.LBE736:
 4163              	.LBE735:
 4164              		.loc 1 1862 5
 4165 00ca 7B68     		ldr	r3, [r7, #4]
 4166 00cc 1B68     		ldr	r3, [r3]
 4167 00ce 9A68     		ldr	r2, [r3, #8]
 4168 00d0 7B68     		ldr	r3, [r7, #4]
 4169 00d2 1B68     		ldr	r3, [r3]
 4170 00d4 4021     		movs	r1, #64
 4171 00d6 8A43     		bics	r2, r1
 4172 00d8 9A60     		str	r2, [r3, #8]
 4173 00da BB6B     		ldr	r3, [r7, #56]
 4174 00dc 3B61     		str	r3, [r7, #16]
 4175              	.LBB737:
 4176              	.LBB738:
 414:Drivers/CMSIS/Include/cmsis_gcc.h **** }
 4177              		.loc 2 414 3
 4178 00de 3B69     		ldr	r3, [r7, #16]
 4179              		.syntax divided
 4180              	@ 414 "Drivers/CMSIS/Include/cmsis_gcc.h" 1
 4181 00e0 83F31088 		MSR primask, r3
 4182              	@ 0 "" 2
 4183              		.loc 2 415 1
 4184              		.thumb
 4185              		.syntax unified
 4186 00e4 C046     		nop
 4187              	.LBE738:
 4188              	.LBE737:
 4189              	.LBE732:
1863:Drivers/STM32L0xx_HAL_Driver/Src/stm32l0xx_hal_uart.c **** 
1864:Drivers/STM32L0xx_HAL_Driver/Src/stm32l0xx_hal_uart.c ****     /* Abort the UART DMA Rx channel : use blocking DMA Abort API (no callback) */
1865:Drivers/STM32L0xx_HAL_Driver/Src/stm32l0xx_hal_uart.c ****     if (huart->hdmarx != NULL)
 4190              		.loc 1 1865 14
 4191 00e6 7B68     		ldr	r3, [r7, #4]
 4192 00e8 1B6F     		ldr	r3, [r3, #112]
 4193              		.loc 1 1865 8
 4194 00ea 002B     		cmp	r3, #0
 4195 00ec 18D0     		beq	.L174
1866:Drivers/STM32L0xx_HAL_Driver/Src/stm32l0xx_hal_uart.c ****     {
1867:Drivers/STM32L0xx_HAL_Driver/Src/stm32l0xx_hal_uart.c ****       /* Set the UART DMA Abort callback to Null.
1868:Drivers/STM32L0xx_HAL_Driver/Src/stm32l0xx_hal_uart.c ****          No call back execution at end of DMA abort procedure */
1869:Drivers/STM32L0xx_HAL_Driver/Src/stm32l0xx_hal_uart.c ****       huart->hdmarx->XferAbortCallback = NULL;
 4196              		.loc 1 1869 12
 4197 00ee 7B68     		ldr	r3, [r7, #4]
 4198 00f0 1B6F     		ldr	r3, [r3, #112]
 4199              		.loc 1 1869 40
 4200 00f2 0022     		movs	r2, #0
 4201 00f4 9A63     		str	r2, [r3, #56]
1870:Drivers/STM32L0xx_HAL_Driver/Src/stm32l0xx_hal_uart.c **** 
1871:Drivers/STM32L0xx_HAL_Driver/Src/stm32l0xx_hal_uart.c ****       if (HAL_DMA_Abort(huart->hdmarx) != HAL_OK)
 4202              		.loc 1 1871 11
 4203 00f6 7B68     		ldr	r3, [r7, #4]
 4204 00f8 1B6F     		ldr	r3, [r3, #112]
 4205 00fa 1800     		movs	r0, r3
ARM GAS  C:\Users\lidka\AppData\Local\Temp\ccqOATUZ.s 			page 116


 4206 00fc FFF7FEFF 		bl	HAL_DMA_Abort
 4207 0100 031E     		subs	r3, r0, #0
 4208              		.loc 1 1871 10
 4209 0102 0DD0     		beq	.L174
1872:Drivers/STM32L0xx_HAL_Driver/Src/stm32l0xx_hal_uart.c ****       {
1873:Drivers/STM32L0xx_HAL_Driver/Src/stm32l0xx_hal_uart.c ****         if (HAL_DMA_GetError(huart->hdmarx) == HAL_DMA_ERROR_TIMEOUT)
 4210              		.loc 1 1873 13
 4211 0104 7B68     		ldr	r3, [r7, #4]
 4212 0106 1B6F     		ldr	r3, [r3, #112]
 4213 0108 1800     		movs	r0, r3
 4214 010a FFF7FEFF 		bl	HAL_DMA_GetError
 4215 010e 0300     		movs	r3, r0
 4216              		.loc 1 1873 12
 4217 0110 202B     		cmp	r3, #32
 4218 0112 05D1     		bne	.L174
1874:Drivers/STM32L0xx_HAL_Driver/Src/stm32l0xx_hal_uart.c ****         {
1875:Drivers/STM32L0xx_HAL_Driver/Src/stm32l0xx_hal_uart.c ****           /* Set error code to DMA */
1876:Drivers/STM32L0xx_HAL_Driver/Src/stm32l0xx_hal_uart.c ****           huart->ErrorCode = HAL_UART_ERROR_DMA;
 4219              		.loc 1 1876 28
 4220 0114 7B68     		ldr	r3, [r7, #4]
 4221 0116 8022     		movs	r2, #128
 4222 0118 1021     		movs	r1, #16
 4223 011a 9950     		str	r1, [r3, r2]
1877:Drivers/STM32L0xx_HAL_Driver/Src/stm32l0xx_hal_uart.c **** 
1878:Drivers/STM32L0xx_HAL_Driver/Src/stm32l0xx_hal_uart.c ****           return HAL_TIMEOUT;
 4224              		.loc 1 1878 18
 4225 011c 0323     		movs	r3, #3
 4226 011e 16E0     		b	.L176
 4227              	.L174:
1879:Drivers/STM32L0xx_HAL_Driver/Src/stm32l0xx_hal_uart.c ****         }
1880:Drivers/STM32L0xx_HAL_Driver/Src/stm32l0xx_hal_uart.c ****       }
1881:Drivers/STM32L0xx_HAL_Driver/Src/stm32l0xx_hal_uart.c ****     }
1882:Drivers/STM32L0xx_HAL_Driver/Src/stm32l0xx_hal_uart.c ****   }
1883:Drivers/STM32L0xx_HAL_Driver/Src/stm32l0xx_hal_uart.c **** 
1884:Drivers/STM32L0xx_HAL_Driver/Src/stm32l0xx_hal_uart.c ****   /* Reset Rx transfer counter */
1885:Drivers/STM32L0xx_HAL_Driver/Src/stm32l0xx_hal_uart.c ****   huart->RxXferCount = 0U;
 4228              		.loc 1 1885 22
 4229 0120 7B68     		ldr	r3, [r7, #4]
 4230 0122 5A22     		movs	r2, #90
 4231 0124 0021     		movs	r1, #0
 4232 0126 9952     		strh	r1, [r3, r2]
1886:Drivers/STM32L0xx_HAL_Driver/Src/stm32l0xx_hal_uart.c **** 
1887:Drivers/STM32L0xx_HAL_Driver/Src/stm32l0xx_hal_uart.c ****   /* Clear the Error flags in the ICR register */
1888:Drivers/STM32L0xx_HAL_Driver/Src/stm32l0xx_hal_uart.c ****   __HAL_UART_CLEAR_FLAG(huart, UART_CLEAR_OREF | UART_CLEAR_NEF | UART_CLEAR_PEF | UART_CLEAR_FEF);
 4233              		.loc 1 1888 3
 4234 0128 7B68     		ldr	r3, [r7, #4]
 4235 012a 1B68     		ldr	r3, [r3]
 4236 012c 0F22     		movs	r2, #15
 4237 012e 1A62     		str	r2, [r3, #32]
1889:Drivers/STM32L0xx_HAL_Driver/Src/stm32l0xx_hal_uart.c **** 
1890:Drivers/STM32L0xx_HAL_Driver/Src/stm32l0xx_hal_uart.c ****   /* Discard the received data */
1891:Drivers/STM32L0xx_HAL_Driver/Src/stm32l0xx_hal_uart.c ****   __HAL_UART_SEND_REQ(huart, UART_RXDATA_FLUSH_REQUEST);
 4238              		.loc 1 1891 3
 4239 0130 7B68     		ldr	r3, [r7, #4]
 4240 0132 1B68     		ldr	r3, [r3]
 4241 0134 9A69     		ldr	r2, [r3, #24]
 4242 0136 7B68     		ldr	r3, [r7, #4]
ARM GAS  C:\Users\lidka\AppData\Local\Temp\ccqOATUZ.s 			page 117


 4243 0138 1B68     		ldr	r3, [r3]
 4244 013a 0821     		movs	r1, #8
 4245 013c 0A43     		orrs	r2, r1
 4246 013e 9A61     		str	r2, [r3, #24]
1892:Drivers/STM32L0xx_HAL_Driver/Src/stm32l0xx_hal_uart.c **** 
1893:Drivers/STM32L0xx_HAL_Driver/Src/stm32l0xx_hal_uart.c ****   /* Restore huart->RxState to Ready */
1894:Drivers/STM32L0xx_HAL_Driver/Src/stm32l0xx_hal_uart.c ****   huart->RxState = HAL_UART_STATE_READY;
 4247              		.loc 1 1894 18
 4248 0140 7B68     		ldr	r3, [r7, #4]
 4249 0142 2022     		movs	r2, #32
 4250 0144 DA67     		str	r2, [r3, #124]
1895:Drivers/STM32L0xx_HAL_Driver/Src/stm32l0xx_hal_uart.c ****   huart->ReceptionType = HAL_UART_RECEPTION_STANDARD;
 4251              		.loc 1 1895 24
 4252 0146 7B68     		ldr	r3, [r7, #4]
 4253 0148 0022     		movs	r2, #0
 4254 014a 1A66     		str	r2, [r3, #96]
1896:Drivers/STM32L0xx_HAL_Driver/Src/stm32l0xx_hal_uart.c **** 
1897:Drivers/STM32L0xx_HAL_Driver/Src/stm32l0xx_hal_uart.c ****   return HAL_OK;
 4255              		.loc 1 1897 10
 4256 014c 0023     		movs	r3, #0
 4257              	.L176:
1898:Drivers/STM32L0xx_HAL_Driver/Src/stm32l0xx_hal_uart.c **** }
 4258              		.loc 1 1898 1
 4259 014e 1800     		movs	r0, r3
 4260 0150 BD46     		mov	sp, r7
 4261 0152 12B0     		add	sp, sp, #72
 4262              		@ sp needed
 4263 0154 80BD     		pop	{r7, pc}
 4264              	.L178:
 4265 0156 C046     		.align	2
 4266              	.L177:
 4267 0158 DFFEFFFF 		.word	-289
 4268              		.cfi_endproc
 4269              	.LFE65:
 4271              		.section	.text.HAL_UART_Abort_IT,"ax",%progbits
 4272              		.align	1
 4273              		.global	HAL_UART_Abort_IT
 4274              		.syntax unified
 4275              		.code	16
 4276              		.thumb_func
 4278              	HAL_UART_Abort_IT:
 4279              	.LFB66:
1899:Drivers/STM32L0xx_HAL_Driver/Src/stm32l0xx_hal_uart.c **** 
1900:Drivers/STM32L0xx_HAL_Driver/Src/stm32l0xx_hal_uart.c **** /**
1901:Drivers/STM32L0xx_HAL_Driver/Src/stm32l0xx_hal_uart.c ****   * @brief  Abort ongoing transfers (Interrupt mode).
1902:Drivers/STM32L0xx_HAL_Driver/Src/stm32l0xx_hal_uart.c ****   * @param  huart UART handle.
1903:Drivers/STM32L0xx_HAL_Driver/Src/stm32l0xx_hal_uart.c ****   * @note   This procedure could be used for aborting any ongoing transfer started in Interrupt or 
1904:Drivers/STM32L0xx_HAL_Driver/Src/stm32l0xx_hal_uart.c ****   *         This procedure performs following operations :
1905:Drivers/STM32L0xx_HAL_Driver/Src/stm32l0xx_hal_uart.c ****   *           - Disable UART Interrupts (Tx and Rx)
1906:Drivers/STM32L0xx_HAL_Driver/Src/stm32l0xx_hal_uart.c ****   *           - Disable the DMA transfer in the peripheral register (if enabled)
1907:Drivers/STM32L0xx_HAL_Driver/Src/stm32l0xx_hal_uart.c ****   *           - Abort DMA transfer by calling HAL_DMA_Abort_IT (in case of transfer in DMA mode)
1908:Drivers/STM32L0xx_HAL_Driver/Src/stm32l0xx_hal_uart.c ****   *           - Set handle State to READY
1909:Drivers/STM32L0xx_HAL_Driver/Src/stm32l0xx_hal_uart.c ****   *           - At abort completion, call user abort complete callback
1910:Drivers/STM32L0xx_HAL_Driver/Src/stm32l0xx_hal_uart.c ****   * @note   This procedure is executed in Interrupt mode, meaning that abort procedure could be
1911:Drivers/STM32L0xx_HAL_Driver/Src/stm32l0xx_hal_uart.c ****   *         considered as completed only when user abort complete callback is executed (not when ex
1912:Drivers/STM32L0xx_HAL_Driver/Src/stm32l0xx_hal_uart.c ****   * @retval HAL status
1913:Drivers/STM32L0xx_HAL_Driver/Src/stm32l0xx_hal_uart.c ****   */
ARM GAS  C:\Users\lidka\AppData\Local\Temp\ccqOATUZ.s 			page 118


1914:Drivers/STM32L0xx_HAL_Driver/Src/stm32l0xx_hal_uart.c **** HAL_StatusTypeDef HAL_UART_Abort_IT(UART_HandleTypeDef *huart)
1915:Drivers/STM32L0xx_HAL_Driver/Src/stm32l0xx_hal_uart.c **** {
 4280              		.loc 1 1915 1
 4281              		.cfi_startproc
 4282              		@ args = 0, pretend = 0, frame = 96
 4283              		@ frame_needed = 1, uses_anonymous_args = 0
 4284 0000 80B5     		push	{r7, lr}
 4285              	.LCFI57:
 4286              		.cfi_def_cfa_offset 8
 4287              		.cfi_offset 7, -8
 4288              		.cfi_offset 14, -4
 4289 0002 98B0     		sub	sp, sp, #96
 4290              	.LCFI58:
 4291              		.cfi_def_cfa_offset 104
 4292 0004 00AF     		add	r7, sp, #0
 4293              	.LCFI59:
 4294              		.cfi_def_cfa_register 7
 4295 0006 7860     		str	r0, [r7, #4]
1916:Drivers/STM32L0xx_HAL_Driver/Src/stm32l0xx_hal_uart.c ****   uint32_t abortcplt = 1U;
 4296              		.loc 1 1916 12
 4297 0008 0123     		movs	r3, #1
 4298 000a FB65     		str	r3, [r7, #92]
 4299              	.LBB739:
 4300              	.LBB740:
 4301              	.LBB741:
 386:Drivers/CMSIS/Include/cmsis_gcc.h ****   return(result);
 4302              		.loc 2 386 3
 4303              		.syntax divided
 4304              	@ 386 "Drivers/CMSIS/Include/cmsis_gcc.h" 1
 4305 000c EFF31083 		MRS r3, primask
 4306              	@ 0 "" 2
 4307              		.thumb
 4308              		.syntax unified
 4309 0010 3B63     		str	r3, [r7, #48]
 387:Drivers/CMSIS/Include/cmsis_gcc.h **** }
 4310              		.loc 2 387 9
 4311 0012 3B6B     		ldr	r3, [r7, #48]
 4312              	.LBE741:
 4313              	.LBE740:
1917:Drivers/STM32L0xx_HAL_Driver/Src/stm32l0xx_hal_uart.c **** 
1918:Drivers/STM32L0xx_HAL_Driver/Src/stm32l0xx_hal_uart.c ****   /* Disable interrupts */
1919:Drivers/STM32L0xx_HAL_Driver/Src/stm32l0xx_hal_uart.c ****   ATOMIC_CLEAR_BIT(huart->Instance->CR1, (USART_CR1_RXNEIE | USART_CR1_PEIE | USART_CR1_TXEIE | USA
 4314              		.loc 1 1919 3
 4315 0014 BB65     		str	r3, [r7, #88]
 4316 0016 0123     		movs	r3, #1
 4317 0018 7B63     		str	r3, [r7, #52]
 4318              	.LBB742:
 4319              	.LBB743:
 414:Drivers/CMSIS/Include/cmsis_gcc.h **** }
 4320              		.loc 2 414 3
 4321 001a 7B6B     		ldr	r3, [r7, #52]
 4322              		.syntax divided
 4323              	@ 414 "Drivers/CMSIS/Include/cmsis_gcc.h" 1
 4324 001c 83F31088 		MSR primask, r3
 4325              	@ 0 "" 2
 4326              		.loc 2 415 1
 4327              		.thumb
ARM GAS  C:\Users\lidka\AppData\Local\Temp\ccqOATUZ.s 			page 119


 4328              		.syntax unified
 4329 0020 C046     		nop
 4330              	.LBE743:
 4331              	.LBE742:
 4332              		.loc 1 1919 3
 4333 0022 7B68     		ldr	r3, [r7, #4]
 4334 0024 1B68     		ldr	r3, [r3]
 4335 0026 1A68     		ldr	r2, [r3]
 4336 0028 7B68     		ldr	r3, [r7, #4]
 4337 002a 1B68     		ldr	r3, [r3]
 4338 002c 7F49     		ldr	r1, .L196
 4339 002e 0A40     		ands	r2, r1
 4340 0030 1A60     		str	r2, [r3]
 4341 0032 BB6D     		ldr	r3, [r7, #88]
 4342 0034 BB63     		str	r3, [r7, #56]
 4343              	.LBB744:
 4344              	.LBB745:
 414:Drivers/CMSIS/Include/cmsis_gcc.h **** }
 4345              		.loc 2 414 3
 4346 0036 BB6B     		ldr	r3, [r7, #56]
 4347              		.syntax divided
 4348              	@ 414 "Drivers/CMSIS/Include/cmsis_gcc.h" 1
 4349 0038 83F31088 		MSR primask, r3
 4350              	@ 0 "" 2
 4351              		.loc 2 415 1
 4352              		.thumb
 4353              		.syntax unified
 4354 003c C046     		nop
 4355              	.LBE745:
 4356              	.LBE744:
 4357              	.LBE739:
 4358              	.LBB746:
 4359              	.LBB747:
 4360              	.LBB748:
 386:Drivers/CMSIS/Include/cmsis_gcc.h ****   return(result);
 4361              		.loc 2 386 3
 4362              		.syntax divided
 4363              	@ 386 "Drivers/CMSIS/Include/cmsis_gcc.h" 1
 4364 003e EFF31083 		MRS r3, primask
 4365              	@ 0 "" 2
 4366              		.thumb
 4367              		.syntax unified
 4368 0042 FB63     		str	r3, [r7, #60]
 387:Drivers/CMSIS/Include/cmsis_gcc.h **** }
 4369              		.loc 2 387 9
 4370 0044 FB6B     		ldr	r3, [r7, #60]
 4371              	.LBE748:
 4372              	.LBE747:
1920:Drivers/STM32L0xx_HAL_Driver/Src/stm32l0xx_hal_uart.c ****   ATOMIC_CLEAR_BIT(huart->Instance->CR3, USART_CR3_EIE);
 4373              		.loc 1 1920 3
 4374 0046 7B65     		str	r3, [r7, #84]
 4375 0048 0123     		movs	r3, #1
 4376 004a 3B64     		str	r3, [r7, #64]
 4377              	.LBB749:
 4378              	.LBB750:
 414:Drivers/CMSIS/Include/cmsis_gcc.h **** }
 4379              		.loc 2 414 3
ARM GAS  C:\Users\lidka\AppData\Local\Temp\ccqOATUZ.s 			page 120


 4380 004c 3B6C     		ldr	r3, [r7, #64]
 4381              		.syntax divided
 4382              	@ 414 "Drivers/CMSIS/Include/cmsis_gcc.h" 1
 4383 004e 83F31088 		MSR primask, r3
 4384              	@ 0 "" 2
 4385              		.loc 2 415 1
 4386              		.thumb
 4387              		.syntax unified
 4388 0052 C046     		nop
 4389              	.LBE750:
 4390              	.LBE749:
 4391              		.loc 1 1920 3
 4392 0054 7B68     		ldr	r3, [r7, #4]
 4393 0056 1B68     		ldr	r3, [r3]
 4394 0058 9A68     		ldr	r2, [r3, #8]
 4395 005a 7B68     		ldr	r3, [r7, #4]
 4396 005c 1B68     		ldr	r3, [r3]
 4397 005e 0121     		movs	r1, #1
 4398 0060 8A43     		bics	r2, r1
 4399 0062 9A60     		str	r2, [r3, #8]
 4400 0064 7B6D     		ldr	r3, [r7, #84]
 4401 0066 7B64     		str	r3, [r7, #68]
 4402              	.LBB751:
 4403              	.LBB752:
 414:Drivers/CMSIS/Include/cmsis_gcc.h **** }
 4404              		.loc 2 414 3
 4405 0068 7B6C     		ldr	r3, [r7, #68]
 4406              		.syntax divided
 4407              	@ 414 "Drivers/CMSIS/Include/cmsis_gcc.h" 1
 4408 006a 83F31088 		MSR primask, r3
 4409              	@ 0 "" 2
 4410              		.loc 2 415 1
 4411              		.thumb
 4412              		.syntax unified
 4413 006e C046     		nop
 4414              	.LBE752:
 4415              	.LBE751:
 4416              	.LBE746:
1921:Drivers/STM32L0xx_HAL_Driver/Src/stm32l0xx_hal_uart.c **** 
1922:Drivers/STM32L0xx_HAL_Driver/Src/stm32l0xx_hal_uart.c ****   /* If Reception till IDLE event was ongoing, disable IDLEIE interrupt */
1923:Drivers/STM32L0xx_HAL_Driver/Src/stm32l0xx_hal_uart.c ****   if (huart->ReceptionType == HAL_UART_RECEPTION_TOIDLE)
 4417              		.loc 1 1923 12
 4418 0070 7B68     		ldr	r3, [r7, #4]
 4419 0072 1B6E     		ldr	r3, [r3, #96]
 4420              		.loc 1 1923 6
 4421 0074 012B     		cmp	r3, #1
 4422 0076 18D1     		bne	.L182
 4423              	.LBB753:
 4424              	.LBB754:
 4425              	.LBB755:
 386:Drivers/CMSIS/Include/cmsis_gcc.h ****   return(result);
 4426              		.loc 2 386 3
 4427              		.syntax divided
 4428              	@ 386 "Drivers/CMSIS/Include/cmsis_gcc.h" 1
 4429 0078 EFF31083 		MRS r3, primask
 4430              	@ 0 "" 2
 4431              		.thumb
ARM GAS  C:\Users\lidka\AppData\Local\Temp\ccqOATUZ.s 			page 121


 4432              		.syntax unified
 4433 007c 7B62     		str	r3, [r7, #36]
 387:Drivers/CMSIS/Include/cmsis_gcc.h **** }
 4434              		.loc 2 387 9
 4435 007e 7B6A     		ldr	r3, [r7, #36]
 4436              	.LBE755:
 4437              	.LBE754:
1924:Drivers/STM32L0xx_HAL_Driver/Src/stm32l0xx_hal_uart.c ****   {
1925:Drivers/STM32L0xx_HAL_Driver/Src/stm32l0xx_hal_uart.c ****     ATOMIC_CLEAR_BIT(huart->Instance->CR1, (USART_CR1_IDLEIE));
 4438              		.loc 1 1925 5
 4439 0080 3B65     		str	r3, [r7, #80]
 4440 0082 0123     		movs	r3, #1
 4441 0084 BB62     		str	r3, [r7, #40]
 4442              	.LBB756:
 4443              	.LBB757:
 414:Drivers/CMSIS/Include/cmsis_gcc.h **** }
 4444              		.loc 2 414 3
 4445 0086 BB6A     		ldr	r3, [r7, #40]
 4446              		.syntax divided
 4447              	@ 414 "Drivers/CMSIS/Include/cmsis_gcc.h" 1
 4448 0088 83F31088 		MSR primask, r3
 4449              	@ 0 "" 2
 4450              		.loc 2 415 1
 4451              		.thumb
 4452              		.syntax unified
 4453 008c C046     		nop
 4454              	.LBE757:
 4455              	.LBE756:
 4456              		.loc 1 1925 5
 4457 008e 7B68     		ldr	r3, [r7, #4]
 4458 0090 1B68     		ldr	r3, [r3]
 4459 0092 1A68     		ldr	r2, [r3]
 4460 0094 7B68     		ldr	r3, [r7, #4]
 4461 0096 1B68     		ldr	r3, [r3]
 4462 0098 1021     		movs	r1, #16
 4463 009a 8A43     		bics	r2, r1
 4464 009c 1A60     		str	r2, [r3]
 4465 009e 3B6D     		ldr	r3, [r7, #80]
 4466 00a0 FB62     		str	r3, [r7, #44]
 4467              	.LBB758:
 4468              	.LBB759:
 414:Drivers/CMSIS/Include/cmsis_gcc.h **** }
 4469              		.loc 2 414 3
 4470 00a2 FB6A     		ldr	r3, [r7, #44]
 4471              		.syntax divided
 4472              	@ 414 "Drivers/CMSIS/Include/cmsis_gcc.h" 1
 4473 00a4 83F31088 		MSR primask, r3
 4474              	@ 0 "" 2
 4475              		.loc 2 415 1
 4476              		.thumb
 4477              		.syntax unified
 4478 00a8 C046     		nop
 4479              	.L182:
 4480              	.LBE759:
 4481              	.LBE758:
 4482              	.LBE753:
1926:Drivers/STM32L0xx_HAL_Driver/Src/stm32l0xx_hal_uart.c ****   }
ARM GAS  C:\Users\lidka\AppData\Local\Temp\ccqOATUZ.s 			page 122


1927:Drivers/STM32L0xx_HAL_Driver/Src/stm32l0xx_hal_uart.c **** 
1928:Drivers/STM32L0xx_HAL_Driver/Src/stm32l0xx_hal_uart.c ****   /* If DMA Tx and/or DMA Rx Handles are associated to UART Handle, DMA Abort complete callbacks sh
1929:Drivers/STM32L0xx_HAL_Driver/Src/stm32l0xx_hal_uart.c ****      before any call to DMA Abort functions */
1930:Drivers/STM32L0xx_HAL_Driver/Src/stm32l0xx_hal_uart.c ****   /* DMA Tx Handle is valid */
1931:Drivers/STM32L0xx_HAL_Driver/Src/stm32l0xx_hal_uart.c ****   if (huart->hdmatx != NULL)
 4483              		.loc 1 1931 12
 4484 00aa 7B68     		ldr	r3, [r7, #4]
 4485 00ac DB6E     		ldr	r3, [r3, #108]
 4486              		.loc 1 1931 6
 4487 00ae 002B     		cmp	r3, #0
 4488 00b0 0FD0     		beq	.L184
1932:Drivers/STM32L0xx_HAL_Driver/Src/stm32l0xx_hal_uart.c ****   {
1933:Drivers/STM32L0xx_HAL_Driver/Src/stm32l0xx_hal_uart.c ****     /* Set DMA Abort Complete callback if UART DMA Tx request if enabled.
1934:Drivers/STM32L0xx_HAL_Driver/Src/stm32l0xx_hal_uart.c ****        Otherwise, set it to NULL */
1935:Drivers/STM32L0xx_HAL_Driver/Src/stm32l0xx_hal_uart.c ****     if (HAL_IS_BIT_SET(huart->Instance->CR3, USART_CR3_DMAT))
 4489              		.loc 1 1935 9
 4490 00b2 7B68     		ldr	r3, [r7, #4]
 4491 00b4 1B68     		ldr	r3, [r3]
 4492 00b6 9B68     		ldr	r3, [r3, #8]
 4493 00b8 8022     		movs	r2, #128
 4494 00ba 1340     		ands	r3, r2
 4495              		.loc 1 1935 8
 4496 00bc 802B     		cmp	r3, #128
 4497 00be 04D1     		bne	.L185
1936:Drivers/STM32L0xx_HAL_Driver/Src/stm32l0xx_hal_uart.c ****     {
1937:Drivers/STM32L0xx_HAL_Driver/Src/stm32l0xx_hal_uart.c ****       huart->hdmatx->XferAbortCallback = UART_DMATxAbortCallback;
 4498              		.loc 1 1937 12
 4499 00c0 7B68     		ldr	r3, [r7, #4]
 4500 00c2 DB6E     		ldr	r3, [r3, #108]
 4501              		.loc 1 1937 40
 4502 00c4 5A4A     		ldr	r2, .L196+4
 4503 00c6 9A63     		str	r2, [r3, #56]
 4504 00c8 03E0     		b	.L184
 4505              	.L185:
1938:Drivers/STM32L0xx_HAL_Driver/Src/stm32l0xx_hal_uart.c ****     }
1939:Drivers/STM32L0xx_HAL_Driver/Src/stm32l0xx_hal_uart.c ****     else
1940:Drivers/STM32L0xx_HAL_Driver/Src/stm32l0xx_hal_uart.c ****     {
1941:Drivers/STM32L0xx_HAL_Driver/Src/stm32l0xx_hal_uart.c ****       huart->hdmatx->XferAbortCallback = NULL;
 4506              		.loc 1 1941 12
 4507 00ca 7B68     		ldr	r3, [r7, #4]
 4508 00cc DB6E     		ldr	r3, [r3, #108]
 4509              		.loc 1 1941 40
 4510 00ce 0022     		movs	r2, #0
 4511 00d0 9A63     		str	r2, [r3, #56]
 4512              	.L184:
1942:Drivers/STM32L0xx_HAL_Driver/Src/stm32l0xx_hal_uart.c ****     }
1943:Drivers/STM32L0xx_HAL_Driver/Src/stm32l0xx_hal_uart.c ****   }
1944:Drivers/STM32L0xx_HAL_Driver/Src/stm32l0xx_hal_uart.c ****   /* DMA Rx Handle is valid */
1945:Drivers/STM32L0xx_HAL_Driver/Src/stm32l0xx_hal_uart.c ****   if (huart->hdmarx != NULL)
 4513              		.loc 1 1945 12
 4514 00d2 7B68     		ldr	r3, [r7, #4]
 4515 00d4 1B6F     		ldr	r3, [r3, #112]
 4516              		.loc 1 1945 6
 4517 00d6 002B     		cmp	r3, #0
 4518 00d8 0FD0     		beq	.L186
1946:Drivers/STM32L0xx_HAL_Driver/Src/stm32l0xx_hal_uart.c ****   {
1947:Drivers/STM32L0xx_HAL_Driver/Src/stm32l0xx_hal_uart.c ****     /* Set DMA Abort Complete callback if UART DMA Rx request if enabled.
ARM GAS  C:\Users\lidka\AppData\Local\Temp\ccqOATUZ.s 			page 123


1948:Drivers/STM32L0xx_HAL_Driver/Src/stm32l0xx_hal_uart.c ****        Otherwise, set it to NULL */
1949:Drivers/STM32L0xx_HAL_Driver/Src/stm32l0xx_hal_uart.c ****     if (HAL_IS_BIT_SET(huart->Instance->CR3, USART_CR3_DMAR))
 4519              		.loc 1 1949 9
 4520 00da 7B68     		ldr	r3, [r7, #4]
 4521 00dc 1B68     		ldr	r3, [r3]
 4522 00de 9B68     		ldr	r3, [r3, #8]
 4523 00e0 4022     		movs	r2, #64
 4524 00e2 1340     		ands	r3, r2
 4525              		.loc 1 1949 8
 4526 00e4 402B     		cmp	r3, #64
 4527 00e6 04D1     		bne	.L187
1950:Drivers/STM32L0xx_HAL_Driver/Src/stm32l0xx_hal_uart.c ****     {
1951:Drivers/STM32L0xx_HAL_Driver/Src/stm32l0xx_hal_uart.c ****       huart->hdmarx->XferAbortCallback = UART_DMARxAbortCallback;
 4528              		.loc 1 1951 12
 4529 00e8 7B68     		ldr	r3, [r7, #4]
 4530 00ea 1B6F     		ldr	r3, [r3, #112]
 4531              		.loc 1 1951 40
 4532 00ec 514A     		ldr	r2, .L196+8
 4533 00ee 9A63     		str	r2, [r3, #56]
 4534 00f0 03E0     		b	.L186
 4535              	.L187:
1952:Drivers/STM32L0xx_HAL_Driver/Src/stm32l0xx_hal_uart.c ****     }
1953:Drivers/STM32L0xx_HAL_Driver/Src/stm32l0xx_hal_uart.c ****     else
1954:Drivers/STM32L0xx_HAL_Driver/Src/stm32l0xx_hal_uart.c ****     {
1955:Drivers/STM32L0xx_HAL_Driver/Src/stm32l0xx_hal_uart.c ****       huart->hdmarx->XferAbortCallback = NULL;
 4536              		.loc 1 1955 12
 4537 00f2 7B68     		ldr	r3, [r7, #4]
 4538 00f4 1B6F     		ldr	r3, [r3, #112]
 4539              		.loc 1 1955 40
 4540 00f6 0022     		movs	r2, #0
 4541 00f8 9A63     		str	r2, [r3, #56]
 4542              	.L186:
1956:Drivers/STM32L0xx_HAL_Driver/Src/stm32l0xx_hal_uart.c ****     }
1957:Drivers/STM32L0xx_HAL_Driver/Src/stm32l0xx_hal_uart.c ****   }
1958:Drivers/STM32L0xx_HAL_Driver/Src/stm32l0xx_hal_uart.c **** 
1959:Drivers/STM32L0xx_HAL_Driver/Src/stm32l0xx_hal_uart.c ****   /* Disable the UART DMA Tx request if enabled */
1960:Drivers/STM32L0xx_HAL_Driver/Src/stm32l0xx_hal_uart.c ****   if (HAL_IS_BIT_SET(huart->Instance->CR3, USART_CR3_DMAT))
 4543              		.loc 1 1960 7
 4544 00fa 7B68     		ldr	r3, [r7, #4]
 4545 00fc 1B68     		ldr	r3, [r3]
 4546 00fe 9B68     		ldr	r3, [r3, #8]
 4547 0100 8022     		movs	r2, #128
 4548 0102 1340     		ands	r3, r2
 4549              		.loc 1 1960 6
 4550 0104 802B     		cmp	r3, #128
 4551 0106 2AD1     		bne	.L188
 4552              	.LBB760:
 4553              	.LBB761:
 4554              	.LBB762:
 386:Drivers/CMSIS/Include/cmsis_gcc.h ****   return(result);
 4555              		.loc 2 386 3
 4556              		.syntax divided
 4557              	@ 386 "Drivers/CMSIS/Include/cmsis_gcc.h" 1
 4558 0108 EFF31083 		MRS r3, primask
 4559              	@ 0 "" 2
 4560              		.thumb
 4561              		.syntax unified
ARM GAS  C:\Users\lidka\AppData\Local\Temp\ccqOATUZ.s 			page 124


 4562 010c BB61     		str	r3, [r7, #24]
 387:Drivers/CMSIS/Include/cmsis_gcc.h **** }
 4563              		.loc 2 387 9
 4564 010e BB69     		ldr	r3, [r7, #24]
 4565              	.LBE762:
 4566              	.LBE761:
1961:Drivers/STM32L0xx_HAL_Driver/Src/stm32l0xx_hal_uart.c ****   {
1962:Drivers/STM32L0xx_HAL_Driver/Src/stm32l0xx_hal_uart.c ****     /* Disable DMA Tx at UART level */
1963:Drivers/STM32L0xx_HAL_Driver/Src/stm32l0xx_hal_uart.c ****     ATOMIC_CLEAR_BIT(huart->Instance->CR3, USART_CR3_DMAT);
 4567              		.loc 1 1963 5
 4568 0110 FB64     		str	r3, [r7, #76]
 4569 0112 0123     		movs	r3, #1
 4570 0114 FB61     		str	r3, [r7, #28]
 4571              	.LBB763:
 4572              	.LBB764:
 414:Drivers/CMSIS/Include/cmsis_gcc.h **** }
 4573              		.loc 2 414 3
 4574 0116 FB69     		ldr	r3, [r7, #28]
 4575              		.syntax divided
 4576              	@ 414 "Drivers/CMSIS/Include/cmsis_gcc.h" 1
 4577 0118 83F31088 		MSR primask, r3
 4578              	@ 0 "" 2
 4579              		.loc 2 415 1
 4580              		.thumb
 4581              		.syntax unified
 4582 011c C046     		nop
 4583              	.LBE764:
 4584              	.LBE763:
 4585              		.loc 1 1963 5
 4586 011e 7B68     		ldr	r3, [r7, #4]
 4587 0120 1B68     		ldr	r3, [r3]
 4588 0122 9A68     		ldr	r2, [r3, #8]
 4589 0124 7B68     		ldr	r3, [r7, #4]
 4590 0126 1B68     		ldr	r3, [r3]
 4591 0128 8021     		movs	r1, #128
 4592 012a 8A43     		bics	r2, r1
 4593 012c 9A60     		str	r2, [r3, #8]
 4594 012e FB6C     		ldr	r3, [r7, #76]
 4595 0130 3B62     		str	r3, [r7, #32]
 4596              	.LBB765:
 4597              	.LBB766:
 414:Drivers/CMSIS/Include/cmsis_gcc.h **** }
 4598              		.loc 2 414 3
 4599 0132 3B6A     		ldr	r3, [r7, #32]
 4600              		.syntax divided
 4601              	@ 414 "Drivers/CMSIS/Include/cmsis_gcc.h" 1
 4602 0134 83F31088 		MSR primask, r3
 4603              	@ 0 "" 2
 4604              		.loc 2 415 1
 4605              		.thumb
 4606              		.syntax unified
 4607 0138 C046     		nop
 4608              	.LBE766:
 4609              	.LBE765:
 4610              	.LBE760:
1964:Drivers/STM32L0xx_HAL_Driver/Src/stm32l0xx_hal_uart.c **** 
1965:Drivers/STM32L0xx_HAL_Driver/Src/stm32l0xx_hal_uart.c ****     /* Abort the UART DMA Tx channel : use non blocking DMA Abort API (callback) */
ARM GAS  C:\Users\lidka\AppData\Local\Temp\ccqOATUZ.s 			page 125


1966:Drivers/STM32L0xx_HAL_Driver/Src/stm32l0xx_hal_uart.c ****     if (huart->hdmatx != NULL)
 4611              		.loc 1 1966 14
 4612 013a 7B68     		ldr	r3, [r7, #4]
 4613 013c DB6E     		ldr	r3, [r3, #108]
 4614              		.loc 1 1966 8
 4615 013e 002B     		cmp	r3, #0
 4616 0140 0DD0     		beq	.L188
1967:Drivers/STM32L0xx_HAL_Driver/Src/stm32l0xx_hal_uart.c ****     {
1968:Drivers/STM32L0xx_HAL_Driver/Src/stm32l0xx_hal_uart.c ****       /* UART Tx DMA Abort callback has already been initialised :
1969:Drivers/STM32L0xx_HAL_Driver/Src/stm32l0xx_hal_uart.c ****          will lead to call HAL_UART_AbortCpltCallback() at end of DMA abort procedure */
1970:Drivers/STM32L0xx_HAL_Driver/Src/stm32l0xx_hal_uart.c **** 
1971:Drivers/STM32L0xx_HAL_Driver/Src/stm32l0xx_hal_uart.c ****       /* Abort DMA TX */
1972:Drivers/STM32L0xx_HAL_Driver/Src/stm32l0xx_hal_uart.c ****       if (HAL_DMA_Abort_IT(huart->hdmatx) != HAL_OK)
 4617              		.loc 1 1972 11
 4618 0142 7B68     		ldr	r3, [r7, #4]
 4619 0144 DB6E     		ldr	r3, [r3, #108]
 4620 0146 1800     		movs	r0, r3
 4621 0148 FFF7FEFF 		bl	HAL_DMA_Abort_IT
 4622 014c 031E     		subs	r3, r0, #0
 4623              		.loc 1 1972 10
 4624 014e 04D0     		beq	.L190
1973:Drivers/STM32L0xx_HAL_Driver/Src/stm32l0xx_hal_uart.c ****       {
1974:Drivers/STM32L0xx_HAL_Driver/Src/stm32l0xx_hal_uart.c ****         huart->hdmatx->XferAbortCallback = NULL;
 4625              		.loc 1 1974 14
 4626 0150 7B68     		ldr	r3, [r7, #4]
 4627 0152 DB6E     		ldr	r3, [r3, #108]
 4628              		.loc 1 1974 42
 4629 0154 0022     		movs	r2, #0
 4630 0156 9A63     		str	r2, [r3, #56]
 4631 0158 01E0     		b	.L188
 4632              	.L190:
1975:Drivers/STM32L0xx_HAL_Driver/Src/stm32l0xx_hal_uart.c ****       }
1976:Drivers/STM32L0xx_HAL_Driver/Src/stm32l0xx_hal_uart.c ****       else
1977:Drivers/STM32L0xx_HAL_Driver/Src/stm32l0xx_hal_uart.c ****       {
1978:Drivers/STM32L0xx_HAL_Driver/Src/stm32l0xx_hal_uart.c ****         abortcplt = 0U;
 4633              		.loc 1 1978 19
 4634 015a 0023     		movs	r3, #0
 4635 015c FB65     		str	r3, [r7, #92]
 4636              	.L188:
1979:Drivers/STM32L0xx_HAL_Driver/Src/stm32l0xx_hal_uart.c ****       }
1980:Drivers/STM32L0xx_HAL_Driver/Src/stm32l0xx_hal_uart.c ****     }
1981:Drivers/STM32L0xx_HAL_Driver/Src/stm32l0xx_hal_uart.c ****   }
1982:Drivers/STM32L0xx_HAL_Driver/Src/stm32l0xx_hal_uart.c **** 
1983:Drivers/STM32L0xx_HAL_Driver/Src/stm32l0xx_hal_uart.c ****   /* Disable the UART DMA Rx request if enabled */
1984:Drivers/STM32L0xx_HAL_Driver/Src/stm32l0xx_hal_uart.c ****   if (HAL_IS_BIT_SET(huart->Instance->CR3, USART_CR3_DMAR))
 4637              		.loc 1 1984 7
 4638 015e 7B68     		ldr	r3, [r7, #4]
 4639 0160 1B68     		ldr	r3, [r3]
 4640 0162 9B68     		ldr	r3, [r3, #8]
 4641 0164 4022     		movs	r2, #64
 4642 0166 1340     		ands	r3, r2
 4643              		.loc 1 1984 6
 4644 0168 402B     		cmp	r3, #64
 4645 016a 2CD1     		bne	.L191
 4646              	.LBB767:
 4647              	.LBB768:
 4648              	.LBB769:
ARM GAS  C:\Users\lidka\AppData\Local\Temp\ccqOATUZ.s 			page 126


 386:Drivers/CMSIS/Include/cmsis_gcc.h ****   return(result);
 4649              		.loc 2 386 3
 4650              		.syntax divided
 4651              	@ 386 "Drivers/CMSIS/Include/cmsis_gcc.h" 1
 4652 016c EFF31083 		MRS r3, primask
 4653              	@ 0 "" 2
 4654              		.thumb
 4655              		.syntax unified
 4656 0170 FB60     		str	r3, [r7, #12]
 387:Drivers/CMSIS/Include/cmsis_gcc.h **** }
 4657              		.loc 2 387 9
 4658 0172 FB68     		ldr	r3, [r7, #12]
 4659              	.LBE769:
 4660              	.LBE768:
1985:Drivers/STM32L0xx_HAL_Driver/Src/stm32l0xx_hal_uart.c ****   {
1986:Drivers/STM32L0xx_HAL_Driver/Src/stm32l0xx_hal_uart.c ****     ATOMIC_CLEAR_BIT(huart->Instance->CR3, USART_CR3_DMAR);
 4661              		.loc 1 1986 5
 4662 0174 BB64     		str	r3, [r7, #72]
 4663 0176 0123     		movs	r3, #1
 4664 0178 3B61     		str	r3, [r7, #16]
 4665              	.LBB770:
 4666              	.LBB771:
 414:Drivers/CMSIS/Include/cmsis_gcc.h **** }
 4667              		.loc 2 414 3
 4668 017a 3B69     		ldr	r3, [r7, #16]
 4669              		.syntax divided
 4670              	@ 414 "Drivers/CMSIS/Include/cmsis_gcc.h" 1
 4671 017c 83F31088 		MSR primask, r3
 4672              	@ 0 "" 2
 4673              		.loc 2 415 1
 4674              		.thumb
 4675              		.syntax unified
 4676 0180 C046     		nop
 4677              	.LBE771:
 4678              	.LBE770:
 4679              		.loc 1 1986 5
 4680 0182 7B68     		ldr	r3, [r7, #4]
 4681 0184 1B68     		ldr	r3, [r3]
 4682 0186 9A68     		ldr	r2, [r3, #8]
 4683 0188 7B68     		ldr	r3, [r7, #4]
 4684 018a 1B68     		ldr	r3, [r3]
 4685 018c 4021     		movs	r1, #64
 4686 018e 8A43     		bics	r2, r1
 4687 0190 9A60     		str	r2, [r3, #8]
 4688 0192 BB6C     		ldr	r3, [r7, #72]
 4689 0194 7B61     		str	r3, [r7, #20]
 4690              	.LBB772:
 4691              	.LBB773:
 414:Drivers/CMSIS/Include/cmsis_gcc.h **** }
 4692              		.loc 2 414 3
 4693 0196 7B69     		ldr	r3, [r7, #20]
 4694              		.syntax divided
 4695              	@ 414 "Drivers/CMSIS/Include/cmsis_gcc.h" 1
 4696 0198 83F31088 		MSR primask, r3
 4697              	@ 0 "" 2
 4698              		.loc 2 415 1
 4699              		.thumb
ARM GAS  C:\Users\lidka\AppData\Local\Temp\ccqOATUZ.s 			page 127


 4700              		.syntax unified
 4701 019c C046     		nop
 4702              	.LBE773:
 4703              	.LBE772:
 4704              	.LBE767:
1987:Drivers/STM32L0xx_HAL_Driver/Src/stm32l0xx_hal_uart.c **** 
1988:Drivers/STM32L0xx_HAL_Driver/Src/stm32l0xx_hal_uart.c ****     /* Abort the UART DMA Rx channel : use non blocking DMA Abort API (callback) */
1989:Drivers/STM32L0xx_HAL_Driver/Src/stm32l0xx_hal_uart.c ****     if (huart->hdmarx != NULL)
 4705              		.loc 1 1989 14
 4706 019e 7B68     		ldr	r3, [r7, #4]
 4707 01a0 1B6F     		ldr	r3, [r3, #112]
 4708              		.loc 1 1989 8
 4709 01a2 002B     		cmp	r3, #0
 4710 01a4 0FD0     		beq	.L191
1990:Drivers/STM32L0xx_HAL_Driver/Src/stm32l0xx_hal_uart.c ****     {
1991:Drivers/STM32L0xx_HAL_Driver/Src/stm32l0xx_hal_uart.c ****       /* UART Rx DMA Abort callback has already been initialised :
1992:Drivers/STM32L0xx_HAL_Driver/Src/stm32l0xx_hal_uart.c ****          will lead to call HAL_UART_AbortCpltCallback() at end of DMA abort procedure */
1993:Drivers/STM32L0xx_HAL_Driver/Src/stm32l0xx_hal_uart.c **** 
1994:Drivers/STM32L0xx_HAL_Driver/Src/stm32l0xx_hal_uart.c ****       /* Abort DMA RX */
1995:Drivers/STM32L0xx_HAL_Driver/Src/stm32l0xx_hal_uart.c ****       if (HAL_DMA_Abort_IT(huart->hdmarx) != HAL_OK)
 4711              		.loc 1 1995 11
 4712 01a6 7B68     		ldr	r3, [r7, #4]
 4713 01a8 1B6F     		ldr	r3, [r3, #112]
 4714 01aa 1800     		movs	r0, r3
 4715 01ac FFF7FEFF 		bl	HAL_DMA_Abort_IT
 4716 01b0 031E     		subs	r3, r0, #0
 4717              		.loc 1 1995 10
 4718 01b2 06D0     		beq	.L193
1996:Drivers/STM32L0xx_HAL_Driver/Src/stm32l0xx_hal_uart.c ****       {
1997:Drivers/STM32L0xx_HAL_Driver/Src/stm32l0xx_hal_uart.c ****         huart->hdmarx->XferAbortCallback = NULL;
 4719              		.loc 1 1997 14
 4720 01b4 7B68     		ldr	r3, [r7, #4]
 4721 01b6 1B6F     		ldr	r3, [r3, #112]
 4722              		.loc 1 1997 42
 4723 01b8 0022     		movs	r2, #0
 4724 01ba 9A63     		str	r2, [r3, #56]
1998:Drivers/STM32L0xx_HAL_Driver/Src/stm32l0xx_hal_uart.c ****         abortcplt = 1U;
 4725              		.loc 1 1998 19
 4726 01bc 0123     		movs	r3, #1
 4727 01be FB65     		str	r3, [r7, #92]
 4728 01c0 01E0     		b	.L191
 4729              	.L193:
1999:Drivers/STM32L0xx_HAL_Driver/Src/stm32l0xx_hal_uart.c ****       }
2000:Drivers/STM32L0xx_HAL_Driver/Src/stm32l0xx_hal_uart.c ****       else
2001:Drivers/STM32L0xx_HAL_Driver/Src/stm32l0xx_hal_uart.c ****       {
2002:Drivers/STM32L0xx_HAL_Driver/Src/stm32l0xx_hal_uart.c ****         abortcplt = 0U;
 4730              		.loc 1 2002 19
 4731 01c2 0023     		movs	r3, #0
 4732 01c4 FB65     		str	r3, [r7, #92]
 4733              	.L191:
2003:Drivers/STM32L0xx_HAL_Driver/Src/stm32l0xx_hal_uart.c ****       }
2004:Drivers/STM32L0xx_HAL_Driver/Src/stm32l0xx_hal_uart.c ****     }
2005:Drivers/STM32L0xx_HAL_Driver/Src/stm32l0xx_hal_uart.c ****   }
2006:Drivers/STM32L0xx_HAL_Driver/Src/stm32l0xx_hal_uart.c **** 
2007:Drivers/STM32L0xx_HAL_Driver/Src/stm32l0xx_hal_uart.c ****   /* if no DMA abort complete callback execution is required => call user Abort Complete callback *
2008:Drivers/STM32L0xx_HAL_Driver/Src/stm32l0xx_hal_uart.c ****   if (abortcplt == 1U)
 4734              		.loc 1 2008 6
ARM GAS  C:\Users\lidka\AppData\Local\Temp\ccqOATUZ.s 			page 128


 4735 01c6 FB6D     		ldr	r3, [r7, #92]
 4736 01c8 012B     		cmp	r3, #1
 4737 01ca 2AD1     		bne	.L194
2009:Drivers/STM32L0xx_HAL_Driver/Src/stm32l0xx_hal_uart.c ****   {
2010:Drivers/STM32L0xx_HAL_Driver/Src/stm32l0xx_hal_uart.c ****     /* Reset Tx and Rx transfer counters */
2011:Drivers/STM32L0xx_HAL_Driver/Src/stm32l0xx_hal_uart.c ****     huart->TxXferCount = 0U;
 4738              		.loc 1 2011 24
 4739 01cc 7B68     		ldr	r3, [r7, #4]
 4740 01ce 5222     		movs	r2, #82
 4741 01d0 0021     		movs	r1, #0
 4742 01d2 9952     		strh	r1, [r3, r2]
2012:Drivers/STM32L0xx_HAL_Driver/Src/stm32l0xx_hal_uart.c ****     huart->RxXferCount = 0U;
 4743              		.loc 1 2012 24
 4744 01d4 7B68     		ldr	r3, [r7, #4]
 4745 01d6 5A22     		movs	r2, #90
 4746 01d8 0021     		movs	r1, #0
 4747 01da 9952     		strh	r1, [r3, r2]
2013:Drivers/STM32L0xx_HAL_Driver/Src/stm32l0xx_hal_uart.c **** 
2014:Drivers/STM32L0xx_HAL_Driver/Src/stm32l0xx_hal_uart.c ****     /* Clear ISR function pointers */
2015:Drivers/STM32L0xx_HAL_Driver/Src/stm32l0xx_hal_uart.c ****     huart->RxISR = NULL;
 4748              		.loc 1 2015 18
 4749 01dc 7B68     		ldr	r3, [r7, #4]
 4750 01de 0022     		movs	r2, #0
 4751 01e0 5A66     		str	r2, [r3, #100]
2016:Drivers/STM32L0xx_HAL_Driver/Src/stm32l0xx_hal_uart.c ****     huart->TxISR = NULL;
 4752              		.loc 1 2016 18
 4753 01e2 7B68     		ldr	r3, [r7, #4]
 4754 01e4 0022     		movs	r2, #0
 4755 01e6 9A66     		str	r2, [r3, #104]
2017:Drivers/STM32L0xx_HAL_Driver/Src/stm32l0xx_hal_uart.c **** 
2018:Drivers/STM32L0xx_HAL_Driver/Src/stm32l0xx_hal_uart.c ****     /* Reset errorCode */
2019:Drivers/STM32L0xx_HAL_Driver/Src/stm32l0xx_hal_uart.c ****     huart->ErrorCode = HAL_UART_ERROR_NONE;
 4756              		.loc 1 2019 22
 4757 01e8 7B68     		ldr	r3, [r7, #4]
 4758 01ea 8022     		movs	r2, #128
 4759 01ec 0021     		movs	r1, #0
 4760 01ee 9950     		str	r1, [r3, r2]
2020:Drivers/STM32L0xx_HAL_Driver/Src/stm32l0xx_hal_uart.c **** 
2021:Drivers/STM32L0xx_HAL_Driver/Src/stm32l0xx_hal_uart.c ****     /* Clear the Error flags in the ICR register */
2022:Drivers/STM32L0xx_HAL_Driver/Src/stm32l0xx_hal_uart.c ****     __HAL_UART_CLEAR_FLAG(huart, UART_CLEAR_OREF | UART_CLEAR_NEF | UART_CLEAR_PEF | UART_CLEAR_FEF
 4761              		.loc 1 2022 5
 4762 01f0 7B68     		ldr	r3, [r7, #4]
 4763 01f2 1B68     		ldr	r3, [r3]
 4764 01f4 0F22     		movs	r2, #15
 4765 01f6 1A62     		str	r2, [r3, #32]
2023:Drivers/STM32L0xx_HAL_Driver/Src/stm32l0xx_hal_uart.c **** 
2024:Drivers/STM32L0xx_HAL_Driver/Src/stm32l0xx_hal_uart.c **** 
2025:Drivers/STM32L0xx_HAL_Driver/Src/stm32l0xx_hal_uart.c ****     /* Discard the received data */
2026:Drivers/STM32L0xx_HAL_Driver/Src/stm32l0xx_hal_uart.c ****     __HAL_UART_SEND_REQ(huart, UART_RXDATA_FLUSH_REQUEST);
 4766              		.loc 1 2026 5
 4767 01f8 7B68     		ldr	r3, [r7, #4]
 4768 01fa 1B68     		ldr	r3, [r3]
 4769 01fc 9A69     		ldr	r2, [r3, #24]
 4770 01fe 7B68     		ldr	r3, [r7, #4]
 4771 0200 1B68     		ldr	r3, [r3]
 4772 0202 0821     		movs	r1, #8
 4773 0204 0A43     		orrs	r2, r1
ARM GAS  C:\Users\lidka\AppData\Local\Temp\ccqOATUZ.s 			page 129


 4774 0206 9A61     		str	r2, [r3, #24]
2027:Drivers/STM32L0xx_HAL_Driver/Src/stm32l0xx_hal_uart.c **** 
2028:Drivers/STM32L0xx_HAL_Driver/Src/stm32l0xx_hal_uart.c ****     /* Restore huart->gState and huart->RxState to Ready */
2029:Drivers/STM32L0xx_HAL_Driver/Src/stm32l0xx_hal_uart.c ****     huart->gState  = HAL_UART_STATE_READY;
 4775              		.loc 1 2029 20
 4776 0208 7B68     		ldr	r3, [r7, #4]
 4777 020a 2022     		movs	r2, #32
 4778 020c 9A67     		str	r2, [r3, #120]
2030:Drivers/STM32L0xx_HAL_Driver/Src/stm32l0xx_hal_uart.c ****     huart->RxState = HAL_UART_STATE_READY;
 4779              		.loc 1 2030 20
 4780 020e 7B68     		ldr	r3, [r7, #4]
 4781 0210 2022     		movs	r2, #32
 4782 0212 DA67     		str	r2, [r3, #124]
2031:Drivers/STM32L0xx_HAL_Driver/Src/stm32l0xx_hal_uart.c ****     huart->ReceptionType = HAL_UART_RECEPTION_STANDARD;
 4783              		.loc 1 2031 26
 4784 0214 7B68     		ldr	r3, [r7, #4]
 4785 0216 0022     		movs	r2, #0
 4786 0218 1A66     		str	r2, [r3, #96]
2032:Drivers/STM32L0xx_HAL_Driver/Src/stm32l0xx_hal_uart.c **** 
2033:Drivers/STM32L0xx_HAL_Driver/Src/stm32l0xx_hal_uart.c ****     /* As no DMA to be aborted, call directly user Abort complete callback */
2034:Drivers/STM32L0xx_HAL_Driver/Src/stm32l0xx_hal_uart.c **** #if (USE_HAL_UART_REGISTER_CALLBACKS == 1)
2035:Drivers/STM32L0xx_HAL_Driver/Src/stm32l0xx_hal_uart.c ****     /* Call registered Abort complete callback */
2036:Drivers/STM32L0xx_HAL_Driver/Src/stm32l0xx_hal_uart.c ****     huart->AbortCpltCallback(huart);
2037:Drivers/STM32L0xx_HAL_Driver/Src/stm32l0xx_hal_uart.c **** #else
2038:Drivers/STM32L0xx_HAL_Driver/Src/stm32l0xx_hal_uart.c ****     /* Call legacy weak Abort complete callback */
2039:Drivers/STM32L0xx_HAL_Driver/Src/stm32l0xx_hal_uart.c ****     HAL_UART_AbortCpltCallback(huart);
 4787              		.loc 1 2039 5
 4788 021a 7B68     		ldr	r3, [r7, #4]
 4789 021c 1800     		movs	r0, r3
 4790 021e FFF7FEFF 		bl	HAL_UART_AbortCpltCallback
 4791              	.L194:
2040:Drivers/STM32L0xx_HAL_Driver/Src/stm32l0xx_hal_uart.c **** #endif /* USE_HAL_UART_REGISTER_CALLBACKS */
2041:Drivers/STM32L0xx_HAL_Driver/Src/stm32l0xx_hal_uart.c ****   }
2042:Drivers/STM32L0xx_HAL_Driver/Src/stm32l0xx_hal_uart.c **** 
2043:Drivers/STM32L0xx_HAL_Driver/Src/stm32l0xx_hal_uart.c ****   return HAL_OK;
 4792              		.loc 1 2043 10
 4793 0222 0023     		movs	r3, #0
2044:Drivers/STM32L0xx_HAL_Driver/Src/stm32l0xx_hal_uart.c **** }
 4794              		.loc 1 2044 1
 4795 0224 1800     		movs	r0, r3
 4796 0226 BD46     		mov	sp, r7
 4797 0228 18B0     		add	sp, sp, #96
 4798              		@ sp needed
 4799 022a 80BD     		pop	{r7, pc}
 4800              	.L197:
 4801              		.align	2
 4802              	.L196:
 4803 022c 1FFEFFFF 		.word	-481
 4804 0230 00000000 		.word	UART_DMATxAbortCallback
 4805 0234 00000000 		.word	UART_DMARxAbortCallback
 4806              		.cfi_endproc
 4807              	.LFE66:
 4809              		.section	.text.HAL_UART_AbortTransmit_IT,"ax",%progbits
 4810              		.align	1
 4811              		.global	HAL_UART_AbortTransmit_IT
 4812              		.syntax unified
 4813              		.code	16
ARM GAS  C:\Users\lidka\AppData\Local\Temp\ccqOATUZ.s 			page 130


 4814              		.thumb_func
 4816              	HAL_UART_AbortTransmit_IT:
 4817              	.LFB67:
2045:Drivers/STM32L0xx_HAL_Driver/Src/stm32l0xx_hal_uart.c **** 
2046:Drivers/STM32L0xx_HAL_Driver/Src/stm32l0xx_hal_uart.c **** /**
2047:Drivers/STM32L0xx_HAL_Driver/Src/stm32l0xx_hal_uart.c ****   * @brief  Abort ongoing Transmit transfer (Interrupt mode).
2048:Drivers/STM32L0xx_HAL_Driver/Src/stm32l0xx_hal_uart.c ****   * @param  huart UART handle.
2049:Drivers/STM32L0xx_HAL_Driver/Src/stm32l0xx_hal_uart.c ****   * @note   This procedure could be used for aborting any ongoing Tx transfer started in Interrupt 
2050:Drivers/STM32L0xx_HAL_Driver/Src/stm32l0xx_hal_uart.c ****   *         This procedure performs following operations :
2051:Drivers/STM32L0xx_HAL_Driver/Src/stm32l0xx_hal_uart.c ****   *           - Disable UART Interrupts (Tx)
2052:Drivers/STM32L0xx_HAL_Driver/Src/stm32l0xx_hal_uart.c ****   *           - Disable the DMA transfer in the peripheral register (if enabled)
2053:Drivers/STM32L0xx_HAL_Driver/Src/stm32l0xx_hal_uart.c ****   *           - Abort DMA transfer by calling HAL_DMA_Abort_IT (in case of transfer in DMA mode)
2054:Drivers/STM32L0xx_HAL_Driver/Src/stm32l0xx_hal_uart.c ****   *           - Set handle State to READY
2055:Drivers/STM32L0xx_HAL_Driver/Src/stm32l0xx_hal_uart.c ****   *           - At abort completion, call user abort complete callback
2056:Drivers/STM32L0xx_HAL_Driver/Src/stm32l0xx_hal_uart.c ****   * @note   This procedure is executed in Interrupt mode, meaning that abort procedure could be
2057:Drivers/STM32L0xx_HAL_Driver/Src/stm32l0xx_hal_uart.c ****   *         considered as completed only when user abort complete callback is executed (not when ex
2058:Drivers/STM32L0xx_HAL_Driver/Src/stm32l0xx_hal_uart.c ****   * @retval HAL status
2059:Drivers/STM32L0xx_HAL_Driver/Src/stm32l0xx_hal_uart.c ****   */
2060:Drivers/STM32L0xx_HAL_Driver/Src/stm32l0xx_hal_uart.c **** HAL_StatusTypeDef HAL_UART_AbortTransmit_IT(UART_HandleTypeDef *huart)
2061:Drivers/STM32L0xx_HAL_Driver/Src/stm32l0xx_hal_uart.c **** {
 4818              		.loc 1 2061 1
 4819              		.cfi_startproc
 4820              		@ args = 0, pretend = 0, frame = 40
 4821              		@ frame_needed = 1, uses_anonymous_args = 0
 4822 0000 80B5     		push	{r7, lr}
 4823              	.LCFI60:
 4824              		.cfi_def_cfa_offset 8
 4825              		.cfi_offset 7, -8
 4826              		.cfi_offset 14, -4
 4827 0002 8AB0     		sub	sp, sp, #40
 4828              	.LCFI61:
 4829              		.cfi_def_cfa_offset 48
 4830 0004 00AF     		add	r7, sp, #0
 4831              	.LCFI62:
 4832              		.cfi_def_cfa_register 7
 4833 0006 7860     		str	r0, [r7, #4]
 4834              	.LBB774:
 4835              	.LBB775:
 4836              	.LBB776:
 386:Drivers/CMSIS/Include/cmsis_gcc.h ****   return(result);
 4837              		.loc 2 386 3
 4838              		.syntax divided
 4839              	@ 386 "Drivers/CMSIS/Include/cmsis_gcc.h" 1
 4840 0008 EFF31083 		MRS r3, primask
 4841              	@ 0 "" 2
 4842              		.thumb
 4843              		.syntax unified
 4844 000c 7B61     		str	r3, [r7, #20]
 387:Drivers/CMSIS/Include/cmsis_gcc.h **** }
 4845              		.loc 2 387 9
 4846 000e 7B69     		ldr	r3, [r7, #20]
 4847              	.LBE776:
 4848              	.LBE775:
2062:Drivers/STM32L0xx_HAL_Driver/Src/stm32l0xx_hal_uart.c ****   /* Disable interrupts */
2063:Drivers/STM32L0xx_HAL_Driver/Src/stm32l0xx_hal_uart.c ****   ATOMIC_CLEAR_BIT(huart->Instance->CR1, (USART_CR1_TXEIE | USART_CR1_TCIE));
 4849              		.loc 1 2063 3
 4850 0010 7B62     		str	r3, [r7, #36]
ARM GAS  C:\Users\lidka\AppData\Local\Temp\ccqOATUZ.s 			page 131


 4851 0012 0123     		movs	r3, #1
 4852 0014 BB61     		str	r3, [r7, #24]
 4853              	.LBB777:
 4854              	.LBB778:
 414:Drivers/CMSIS/Include/cmsis_gcc.h **** }
 4855              		.loc 2 414 3
 4856 0016 BB69     		ldr	r3, [r7, #24]
 4857              		.syntax divided
 4858              	@ 414 "Drivers/CMSIS/Include/cmsis_gcc.h" 1
 4859 0018 83F31088 		MSR primask, r3
 4860              	@ 0 "" 2
 4861              		.loc 2 415 1
 4862              		.thumb
 4863              		.syntax unified
 4864 001c C046     		nop
 4865              	.LBE778:
 4866              	.LBE777:
 4867              		.loc 1 2063 3
 4868 001e 7B68     		ldr	r3, [r7, #4]
 4869 0020 1B68     		ldr	r3, [r3]
 4870 0022 1A68     		ldr	r2, [r3]
 4871 0024 7B68     		ldr	r3, [r7, #4]
 4872 0026 1B68     		ldr	r3, [r3]
 4873 0028 C021     		movs	r1, #192
 4874 002a 8A43     		bics	r2, r1
 4875 002c 1A60     		str	r2, [r3]
 4876 002e 7B6A     		ldr	r3, [r7, #36]
 4877 0030 FB61     		str	r3, [r7, #28]
 4878              	.LBB779:
 4879              	.LBB780:
 414:Drivers/CMSIS/Include/cmsis_gcc.h **** }
 4880              		.loc 2 414 3
 4881 0032 FB69     		ldr	r3, [r7, #28]
 4882              		.syntax divided
 4883              	@ 414 "Drivers/CMSIS/Include/cmsis_gcc.h" 1
 4884 0034 83F31088 		MSR primask, r3
 4885              	@ 0 "" 2
 4886              		.loc 2 415 1
 4887              		.thumb
 4888              		.syntax unified
 4889 0038 C046     		nop
 4890              	.LBE780:
 4891              	.LBE779:
 4892              	.LBE774:
2064:Drivers/STM32L0xx_HAL_Driver/Src/stm32l0xx_hal_uart.c **** 
2065:Drivers/STM32L0xx_HAL_Driver/Src/stm32l0xx_hal_uart.c ****   /* Disable the UART DMA Tx request if enabled */
2066:Drivers/STM32L0xx_HAL_Driver/Src/stm32l0xx_hal_uart.c ****   if (HAL_IS_BIT_SET(huart->Instance->CR3, USART_CR3_DMAT))
 4893              		.loc 1 2066 7
 4894 003a 7B68     		ldr	r3, [r7, #4]
 4895 003c 1B68     		ldr	r3, [r3]
 4896 003e 9B68     		ldr	r3, [r3, #8]
 4897 0040 8022     		movs	r2, #128
 4898 0042 1340     		ands	r3, r2
 4899              		.loc 1 2066 6
 4900 0044 802B     		cmp	r3, #128
 4901 0046 3ED1     		bne	.L200
 4902              	.LBB781:
ARM GAS  C:\Users\lidka\AppData\Local\Temp\ccqOATUZ.s 			page 132


 4903              	.LBB782:
 4904              	.LBB783:
 386:Drivers/CMSIS/Include/cmsis_gcc.h ****   return(result);
 4905              		.loc 2 386 3
 4906              		.syntax divided
 4907              	@ 386 "Drivers/CMSIS/Include/cmsis_gcc.h" 1
 4908 0048 EFF31083 		MRS r3, primask
 4909              	@ 0 "" 2
 4910              		.thumb
 4911              		.syntax unified
 4912 004c BB60     		str	r3, [r7, #8]
 387:Drivers/CMSIS/Include/cmsis_gcc.h **** }
 4913              		.loc 2 387 9
 4914 004e BB68     		ldr	r3, [r7, #8]
 4915              	.LBE783:
 4916              	.LBE782:
2067:Drivers/STM32L0xx_HAL_Driver/Src/stm32l0xx_hal_uart.c ****   {
2068:Drivers/STM32L0xx_HAL_Driver/Src/stm32l0xx_hal_uart.c ****     ATOMIC_CLEAR_BIT(huart->Instance->CR3, USART_CR3_DMAT);
 4917              		.loc 1 2068 5
 4918 0050 3B62     		str	r3, [r7, #32]
 4919 0052 0123     		movs	r3, #1
 4920 0054 FB60     		str	r3, [r7, #12]
 4921              	.LBB784:
 4922              	.LBB785:
 414:Drivers/CMSIS/Include/cmsis_gcc.h **** }
 4923              		.loc 2 414 3
 4924 0056 FB68     		ldr	r3, [r7, #12]
 4925              		.syntax divided
 4926              	@ 414 "Drivers/CMSIS/Include/cmsis_gcc.h" 1
 4927 0058 83F31088 		MSR primask, r3
 4928              	@ 0 "" 2
 4929              		.loc 2 415 1
 4930              		.thumb
 4931              		.syntax unified
 4932 005c C046     		nop
 4933              	.LBE785:
 4934              	.LBE784:
 4935              		.loc 1 2068 5
 4936 005e 7B68     		ldr	r3, [r7, #4]
 4937 0060 1B68     		ldr	r3, [r3]
 4938 0062 9A68     		ldr	r2, [r3, #8]
 4939 0064 7B68     		ldr	r3, [r7, #4]
 4940 0066 1B68     		ldr	r3, [r3]
 4941 0068 8021     		movs	r1, #128
 4942 006a 8A43     		bics	r2, r1
 4943 006c 9A60     		str	r2, [r3, #8]
 4944 006e 3B6A     		ldr	r3, [r7, #32]
 4945 0070 3B61     		str	r3, [r7, #16]
 4946              	.LBB786:
 4947              	.LBB787:
 414:Drivers/CMSIS/Include/cmsis_gcc.h **** }
 4948              		.loc 2 414 3
 4949 0072 3B69     		ldr	r3, [r7, #16]
 4950              		.syntax divided
 4951              	@ 414 "Drivers/CMSIS/Include/cmsis_gcc.h" 1
 4952 0074 83F31088 		MSR primask, r3
 4953              	@ 0 "" 2
ARM GAS  C:\Users\lidka\AppData\Local\Temp\ccqOATUZ.s 			page 133


 4954              		.loc 2 415 1
 4955              		.thumb
 4956              		.syntax unified
 4957 0078 C046     		nop
 4958              	.LBE787:
 4959              	.LBE786:
 4960              	.LBE781:
2069:Drivers/STM32L0xx_HAL_Driver/Src/stm32l0xx_hal_uart.c **** 
2070:Drivers/STM32L0xx_HAL_Driver/Src/stm32l0xx_hal_uart.c ****     /* Abort the UART DMA Tx channel : use non blocking DMA Abort API (callback) */
2071:Drivers/STM32L0xx_HAL_Driver/Src/stm32l0xx_hal_uart.c ****     if (huart->hdmatx != NULL)
 4961              		.loc 1 2071 14
 4962 007a 7B68     		ldr	r3, [r7, #4]
 4963 007c DB6E     		ldr	r3, [r3, #108]
 4964              		.loc 1 2071 8
 4965 007e 002B     		cmp	r3, #0
 4966 0080 12D0     		beq	.L202
2072:Drivers/STM32L0xx_HAL_Driver/Src/stm32l0xx_hal_uart.c ****     {
2073:Drivers/STM32L0xx_HAL_Driver/Src/stm32l0xx_hal_uart.c ****       /* Set the UART DMA Abort callback :
2074:Drivers/STM32L0xx_HAL_Driver/Src/stm32l0xx_hal_uart.c ****          will lead to call HAL_UART_AbortCpltCallback() at end of DMA abort procedure */
2075:Drivers/STM32L0xx_HAL_Driver/Src/stm32l0xx_hal_uart.c ****       huart->hdmatx->XferAbortCallback = UART_DMATxOnlyAbortCallback;
 4967              		.loc 1 2075 12
 4968 0082 7B68     		ldr	r3, [r7, #4]
 4969 0084 DB6E     		ldr	r3, [r3, #108]
 4970              		.loc 1 2075 40
 4971 0086 194A     		ldr	r2, .L205
 4972 0088 9A63     		str	r2, [r3, #56]
2076:Drivers/STM32L0xx_HAL_Driver/Src/stm32l0xx_hal_uart.c **** 
2077:Drivers/STM32L0xx_HAL_Driver/Src/stm32l0xx_hal_uart.c ****       /* Abort DMA TX */
2078:Drivers/STM32L0xx_HAL_Driver/Src/stm32l0xx_hal_uart.c ****       if (HAL_DMA_Abort_IT(huart->hdmatx) != HAL_OK)
 4973              		.loc 1 2078 11
 4974 008a 7B68     		ldr	r3, [r7, #4]
 4975 008c DB6E     		ldr	r3, [r3, #108]
 4976 008e 1800     		movs	r0, r3
 4977 0090 FFF7FEFF 		bl	HAL_DMA_Abort_IT
 4978 0094 031E     		subs	r3, r0, #0
 4979              		.loc 1 2078 10
 4980 0096 24D0     		beq	.L203
2079:Drivers/STM32L0xx_HAL_Driver/Src/stm32l0xx_hal_uart.c ****       {
2080:Drivers/STM32L0xx_HAL_Driver/Src/stm32l0xx_hal_uart.c ****         /* Call Directly huart->hdmatx->XferAbortCallback function in case of error */
2081:Drivers/STM32L0xx_HAL_Driver/Src/stm32l0xx_hal_uart.c ****         huart->hdmatx->XferAbortCallback(huart->hdmatx);
 4981              		.loc 1 2081 14
 4982 0098 7B68     		ldr	r3, [r7, #4]
 4983 009a DB6E     		ldr	r3, [r3, #108]
 4984              		.loc 1 2081 22
 4985 009c 9A6B     		ldr	r2, [r3, #56]
 4986              		.loc 1 2081 47
 4987 009e 7B68     		ldr	r3, [r7, #4]
 4988 00a0 DB6E     		ldr	r3, [r3, #108]
 4989              		.loc 1 2081 9
 4990 00a2 1800     		movs	r0, r3
 4991 00a4 9047     		blx	r2
 4992              	.LVL0:
 4993 00a6 1CE0     		b	.L203
 4994              	.L202:
2082:Drivers/STM32L0xx_HAL_Driver/Src/stm32l0xx_hal_uart.c ****       }
2083:Drivers/STM32L0xx_HAL_Driver/Src/stm32l0xx_hal_uart.c ****     }
2084:Drivers/STM32L0xx_HAL_Driver/Src/stm32l0xx_hal_uart.c ****     else
ARM GAS  C:\Users\lidka\AppData\Local\Temp\ccqOATUZ.s 			page 134


2085:Drivers/STM32L0xx_HAL_Driver/Src/stm32l0xx_hal_uart.c ****     {
2086:Drivers/STM32L0xx_HAL_Driver/Src/stm32l0xx_hal_uart.c ****       /* Reset Tx transfer counter */
2087:Drivers/STM32L0xx_HAL_Driver/Src/stm32l0xx_hal_uart.c ****       huart->TxXferCount = 0U;
 4995              		.loc 1 2087 26
 4996 00a8 7B68     		ldr	r3, [r7, #4]
 4997 00aa 5222     		movs	r2, #82
 4998 00ac 0021     		movs	r1, #0
 4999 00ae 9952     		strh	r1, [r3, r2]
2088:Drivers/STM32L0xx_HAL_Driver/Src/stm32l0xx_hal_uart.c **** 
2089:Drivers/STM32L0xx_HAL_Driver/Src/stm32l0xx_hal_uart.c ****       /* Clear TxISR function pointers */
2090:Drivers/STM32L0xx_HAL_Driver/Src/stm32l0xx_hal_uart.c ****       huart->TxISR = NULL;
 5000              		.loc 1 2090 20
 5001 00b0 7B68     		ldr	r3, [r7, #4]
 5002 00b2 0022     		movs	r2, #0
 5003 00b4 9A66     		str	r2, [r3, #104]
2091:Drivers/STM32L0xx_HAL_Driver/Src/stm32l0xx_hal_uart.c **** 
2092:Drivers/STM32L0xx_HAL_Driver/Src/stm32l0xx_hal_uart.c ****       /* Restore huart->gState to Ready */
2093:Drivers/STM32L0xx_HAL_Driver/Src/stm32l0xx_hal_uart.c ****       huart->gState = HAL_UART_STATE_READY;
 5004              		.loc 1 2093 21
 5005 00b6 7B68     		ldr	r3, [r7, #4]
 5006 00b8 2022     		movs	r2, #32
 5007 00ba 9A67     		str	r2, [r3, #120]
2094:Drivers/STM32L0xx_HAL_Driver/Src/stm32l0xx_hal_uart.c **** 
2095:Drivers/STM32L0xx_HAL_Driver/Src/stm32l0xx_hal_uart.c ****       /* As no DMA to be aborted, call directly user Abort complete callback */
2096:Drivers/STM32L0xx_HAL_Driver/Src/stm32l0xx_hal_uart.c **** #if (USE_HAL_UART_REGISTER_CALLBACKS == 1)
2097:Drivers/STM32L0xx_HAL_Driver/Src/stm32l0xx_hal_uart.c ****       /* Call registered Abort Transmit Complete Callback */
2098:Drivers/STM32L0xx_HAL_Driver/Src/stm32l0xx_hal_uart.c ****       huart->AbortTransmitCpltCallback(huart);
2099:Drivers/STM32L0xx_HAL_Driver/Src/stm32l0xx_hal_uart.c **** #else
2100:Drivers/STM32L0xx_HAL_Driver/Src/stm32l0xx_hal_uart.c ****       /* Call legacy weak Abort Transmit Complete Callback */
2101:Drivers/STM32L0xx_HAL_Driver/Src/stm32l0xx_hal_uart.c ****       HAL_UART_AbortTransmitCpltCallback(huart);
 5008              		.loc 1 2101 7
 5009 00bc 7B68     		ldr	r3, [r7, #4]
 5010 00be 1800     		movs	r0, r3
 5011 00c0 FFF7FEFF 		bl	HAL_UART_AbortTransmitCpltCallback
 5012 00c4 0DE0     		b	.L203
 5013              	.L200:
2102:Drivers/STM32L0xx_HAL_Driver/Src/stm32l0xx_hal_uart.c **** #endif /* USE_HAL_UART_REGISTER_CALLBACKS */
2103:Drivers/STM32L0xx_HAL_Driver/Src/stm32l0xx_hal_uart.c ****     }
2104:Drivers/STM32L0xx_HAL_Driver/Src/stm32l0xx_hal_uart.c ****   }
2105:Drivers/STM32L0xx_HAL_Driver/Src/stm32l0xx_hal_uart.c ****   else
2106:Drivers/STM32L0xx_HAL_Driver/Src/stm32l0xx_hal_uart.c ****   {
2107:Drivers/STM32L0xx_HAL_Driver/Src/stm32l0xx_hal_uart.c ****     /* Reset Tx transfer counter */
2108:Drivers/STM32L0xx_HAL_Driver/Src/stm32l0xx_hal_uart.c ****     huart->TxXferCount = 0U;
 5014              		.loc 1 2108 24
 5015 00c6 7B68     		ldr	r3, [r7, #4]
 5016 00c8 5222     		movs	r2, #82
 5017 00ca 0021     		movs	r1, #0
 5018 00cc 9952     		strh	r1, [r3, r2]
2109:Drivers/STM32L0xx_HAL_Driver/Src/stm32l0xx_hal_uart.c **** 
2110:Drivers/STM32L0xx_HAL_Driver/Src/stm32l0xx_hal_uart.c ****     /* Clear TxISR function pointers */
2111:Drivers/STM32L0xx_HAL_Driver/Src/stm32l0xx_hal_uart.c ****     huart->TxISR = NULL;
 5019              		.loc 1 2111 18
 5020 00ce 7B68     		ldr	r3, [r7, #4]
 5021 00d0 0022     		movs	r2, #0
 5022 00d2 9A66     		str	r2, [r3, #104]
2112:Drivers/STM32L0xx_HAL_Driver/Src/stm32l0xx_hal_uart.c **** 
2113:Drivers/STM32L0xx_HAL_Driver/Src/stm32l0xx_hal_uart.c **** 
ARM GAS  C:\Users\lidka\AppData\Local\Temp\ccqOATUZ.s 			page 135


2114:Drivers/STM32L0xx_HAL_Driver/Src/stm32l0xx_hal_uart.c ****     /* Restore huart->gState to Ready */
2115:Drivers/STM32L0xx_HAL_Driver/Src/stm32l0xx_hal_uart.c ****     huart->gState = HAL_UART_STATE_READY;
 5023              		.loc 1 2115 19
 5024 00d4 7B68     		ldr	r3, [r7, #4]
 5025 00d6 2022     		movs	r2, #32
 5026 00d8 9A67     		str	r2, [r3, #120]
2116:Drivers/STM32L0xx_HAL_Driver/Src/stm32l0xx_hal_uart.c **** 
2117:Drivers/STM32L0xx_HAL_Driver/Src/stm32l0xx_hal_uart.c ****     /* As no DMA to be aborted, call directly user Abort complete callback */
2118:Drivers/STM32L0xx_HAL_Driver/Src/stm32l0xx_hal_uart.c **** #if (USE_HAL_UART_REGISTER_CALLBACKS == 1)
2119:Drivers/STM32L0xx_HAL_Driver/Src/stm32l0xx_hal_uart.c ****     /* Call registered Abort Transmit Complete Callback */
2120:Drivers/STM32L0xx_HAL_Driver/Src/stm32l0xx_hal_uart.c ****     huart->AbortTransmitCpltCallback(huart);
2121:Drivers/STM32L0xx_HAL_Driver/Src/stm32l0xx_hal_uart.c **** #else
2122:Drivers/STM32L0xx_HAL_Driver/Src/stm32l0xx_hal_uart.c ****     /* Call legacy weak Abort Transmit Complete Callback */
2123:Drivers/STM32L0xx_HAL_Driver/Src/stm32l0xx_hal_uart.c ****     HAL_UART_AbortTransmitCpltCallback(huart);
 5027              		.loc 1 2123 5
 5028 00da 7B68     		ldr	r3, [r7, #4]
 5029 00dc 1800     		movs	r0, r3
 5030 00de FFF7FEFF 		bl	HAL_UART_AbortTransmitCpltCallback
 5031              	.L203:
2124:Drivers/STM32L0xx_HAL_Driver/Src/stm32l0xx_hal_uart.c **** #endif /* USE_HAL_UART_REGISTER_CALLBACKS */
2125:Drivers/STM32L0xx_HAL_Driver/Src/stm32l0xx_hal_uart.c ****   }
2126:Drivers/STM32L0xx_HAL_Driver/Src/stm32l0xx_hal_uart.c **** 
2127:Drivers/STM32L0xx_HAL_Driver/Src/stm32l0xx_hal_uart.c ****   return HAL_OK;
 5032              		.loc 1 2127 10
 5033 00e2 0023     		movs	r3, #0
2128:Drivers/STM32L0xx_HAL_Driver/Src/stm32l0xx_hal_uart.c **** }
 5034              		.loc 1 2128 1
 5035 00e4 1800     		movs	r0, r3
 5036 00e6 BD46     		mov	sp, r7
 5037 00e8 0AB0     		add	sp, sp, #40
 5038              		@ sp needed
 5039 00ea 80BD     		pop	{r7, pc}
 5040              	.L206:
 5041              		.align	2
 5042              	.L205:
 5043 00ec 00000000 		.word	UART_DMATxOnlyAbortCallback
 5044              		.cfi_endproc
 5045              	.LFE67:
 5047              		.section	.text.HAL_UART_AbortReceive_IT,"ax",%progbits
 5048              		.align	1
 5049              		.global	HAL_UART_AbortReceive_IT
 5050              		.syntax unified
 5051              		.code	16
 5052              		.thumb_func
 5054              	HAL_UART_AbortReceive_IT:
 5055              	.LFB68:
2129:Drivers/STM32L0xx_HAL_Driver/Src/stm32l0xx_hal_uart.c **** 
2130:Drivers/STM32L0xx_HAL_Driver/Src/stm32l0xx_hal_uart.c **** /**
2131:Drivers/STM32L0xx_HAL_Driver/Src/stm32l0xx_hal_uart.c ****   * @brief  Abort ongoing Receive transfer (Interrupt mode).
2132:Drivers/STM32L0xx_HAL_Driver/Src/stm32l0xx_hal_uart.c ****   * @param  huart UART handle.
2133:Drivers/STM32L0xx_HAL_Driver/Src/stm32l0xx_hal_uart.c ****   * @note   This procedure could be used for aborting any ongoing Rx transfer started in Interrupt 
2134:Drivers/STM32L0xx_HAL_Driver/Src/stm32l0xx_hal_uart.c ****   *         This procedure performs following operations :
2135:Drivers/STM32L0xx_HAL_Driver/Src/stm32l0xx_hal_uart.c ****   *           - Disable UART Interrupts (Rx)
2136:Drivers/STM32L0xx_HAL_Driver/Src/stm32l0xx_hal_uart.c ****   *           - Disable the DMA transfer in the peripheral register (if enabled)
2137:Drivers/STM32L0xx_HAL_Driver/Src/stm32l0xx_hal_uart.c ****   *           - Abort DMA transfer by calling HAL_DMA_Abort_IT (in case of transfer in DMA mode)
2138:Drivers/STM32L0xx_HAL_Driver/Src/stm32l0xx_hal_uart.c ****   *           - Set handle State to READY
2139:Drivers/STM32L0xx_HAL_Driver/Src/stm32l0xx_hal_uart.c ****   *           - At abort completion, call user abort complete callback
ARM GAS  C:\Users\lidka\AppData\Local\Temp\ccqOATUZ.s 			page 136


2140:Drivers/STM32L0xx_HAL_Driver/Src/stm32l0xx_hal_uart.c ****   * @note   This procedure is executed in Interrupt mode, meaning that abort procedure could be
2141:Drivers/STM32L0xx_HAL_Driver/Src/stm32l0xx_hal_uart.c ****   *         considered as completed only when user abort complete callback is executed (not when ex
2142:Drivers/STM32L0xx_HAL_Driver/Src/stm32l0xx_hal_uart.c ****   * @retval HAL status
2143:Drivers/STM32L0xx_HAL_Driver/Src/stm32l0xx_hal_uart.c ****   */
2144:Drivers/STM32L0xx_HAL_Driver/Src/stm32l0xx_hal_uart.c **** HAL_StatusTypeDef HAL_UART_AbortReceive_IT(UART_HandleTypeDef *huart)
2145:Drivers/STM32L0xx_HAL_Driver/Src/stm32l0xx_hal_uart.c **** {
 5056              		.loc 1 2145 1
 5057              		.cfi_startproc
 5058              		@ args = 0, pretend = 0, frame = 72
 5059              		@ frame_needed = 1, uses_anonymous_args = 0
 5060 0000 80B5     		push	{r7, lr}
 5061              	.LCFI63:
 5062              		.cfi_def_cfa_offset 8
 5063              		.cfi_offset 7, -8
 5064              		.cfi_offset 14, -4
 5065 0002 92B0     		sub	sp, sp, #72
 5066              	.LCFI64:
 5067              		.cfi_def_cfa_offset 80
 5068 0004 00AF     		add	r7, sp, #0
 5069              	.LCFI65:
 5070              		.cfi_def_cfa_register 7
 5071 0006 7860     		str	r0, [r7, #4]
 5072              	.LBB788:
 5073              	.LBB789:
 5074              	.LBB790:
 386:Drivers/CMSIS/Include/cmsis_gcc.h ****   return(result);
 5075              		.loc 2 386 3
 5076              		.syntax divided
 5077              	@ 386 "Drivers/CMSIS/Include/cmsis_gcc.h" 1
 5078 0008 EFF31083 		MRS r3, primask
 5079              	@ 0 "" 2
 5080              		.thumb
 5081              		.syntax unified
 5082 000c 3B62     		str	r3, [r7, #32]
 387:Drivers/CMSIS/Include/cmsis_gcc.h **** }
 5083              		.loc 2 387 9
 5084 000e 3B6A     		ldr	r3, [r7, #32]
 5085              	.LBE790:
 5086              	.LBE789:
2146:Drivers/STM32L0xx_HAL_Driver/Src/stm32l0xx_hal_uart.c ****   /* Disable RXNE, PE and ERR (Frame error, noise error, overrun error) interrupts */
2147:Drivers/STM32L0xx_HAL_Driver/Src/stm32l0xx_hal_uart.c ****   ATOMIC_CLEAR_BIT(huart->Instance->CR1, (USART_CR1_RXNEIE | USART_CR1_PEIE));
 5087              		.loc 1 2147 3
 5088 0010 7B64     		str	r3, [r7, #68]
 5089 0012 0123     		movs	r3, #1
 5090 0014 7B62     		str	r3, [r7, #36]
 5091              	.LBB791:
 5092              	.LBB792:
 414:Drivers/CMSIS/Include/cmsis_gcc.h **** }
 5093              		.loc 2 414 3
 5094 0016 7B6A     		ldr	r3, [r7, #36]
 5095              		.syntax divided
 5096              	@ 414 "Drivers/CMSIS/Include/cmsis_gcc.h" 1
 5097 0018 83F31088 		MSR primask, r3
 5098              	@ 0 "" 2
 5099              		.loc 2 415 1
 5100              		.thumb
 5101              		.syntax unified
ARM GAS  C:\Users\lidka\AppData\Local\Temp\ccqOATUZ.s 			page 137


 5102 001c C046     		nop
 5103              	.LBE792:
 5104              	.LBE791:
 5105              		.loc 1 2147 3
 5106 001e 7B68     		ldr	r3, [r7, #4]
 5107 0020 1B68     		ldr	r3, [r3]
 5108 0022 1A68     		ldr	r2, [r3]
 5109 0024 7B68     		ldr	r3, [r7, #4]
 5110 0026 1B68     		ldr	r3, [r3]
 5111 0028 5649     		ldr	r1, .L217
 5112 002a 0A40     		ands	r2, r1
 5113 002c 1A60     		str	r2, [r3]
 5114 002e 7B6C     		ldr	r3, [r7, #68]
 5115 0030 BB62     		str	r3, [r7, #40]
 5116              	.LBB793:
 5117              	.LBB794:
 414:Drivers/CMSIS/Include/cmsis_gcc.h **** }
 5118              		.loc 2 414 3
 5119 0032 BB6A     		ldr	r3, [r7, #40]
 5120              		.syntax divided
 5121              	@ 414 "Drivers/CMSIS/Include/cmsis_gcc.h" 1
 5122 0034 83F31088 		MSR primask, r3
 5123              	@ 0 "" 2
 5124              		.loc 2 415 1
 5125              		.thumb
 5126              		.syntax unified
 5127 0038 C046     		nop
 5128              	.LBE794:
 5129              	.LBE793:
 5130              	.LBE788:
 5131              	.LBB795:
 5132              	.LBB796:
 5133              	.LBB797:
 386:Drivers/CMSIS/Include/cmsis_gcc.h ****   return(result);
 5134              		.loc 2 386 3
 5135              		.syntax divided
 5136              	@ 386 "Drivers/CMSIS/Include/cmsis_gcc.h" 1
 5137 003a EFF31083 		MRS r3, primask
 5138              	@ 0 "" 2
 5139              		.thumb
 5140              		.syntax unified
 5141 003e FB62     		str	r3, [r7, #44]
 387:Drivers/CMSIS/Include/cmsis_gcc.h **** }
 5142              		.loc 2 387 9
 5143 0040 FB6A     		ldr	r3, [r7, #44]
 5144              	.LBE797:
 5145              	.LBE796:
2148:Drivers/STM32L0xx_HAL_Driver/Src/stm32l0xx_hal_uart.c ****   ATOMIC_CLEAR_BIT(huart->Instance->CR3, USART_CR3_EIE);
 5146              		.loc 1 2148 3
 5147 0042 3B64     		str	r3, [r7, #64]
 5148 0044 0123     		movs	r3, #1
 5149 0046 3B63     		str	r3, [r7, #48]
 5150              	.LBB798:
 5151              	.LBB799:
 414:Drivers/CMSIS/Include/cmsis_gcc.h **** }
 5152              		.loc 2 414 3
 5153 0048 3B6B     		ldr	r3, [r7, #48]
ARM GAS  C:\Users\lidka\AppData\Local\Temp\ccqOATUZ.s 			page 138


 5154              		.syntax divided
 5155              	@ 414 "Drivers/CMSIS/Include/cmsis_gcc.h" 1
 5156 004a 83F31088 		MSR primask, r3
 5157              	@ 0 "" 2
 5158              		.loc 2 415 1
 5159              		.thumb
 5160              		.syntax unified
 5161 004e C046     		nop
 5162              	.LBE799:
 5163              	.LBE798:
 5164              		.loc 1 2148 3
 5165 0050 7B68     		ldr	r3, [r7, #4]
 5166 0052 1B68     		ldr	r3, [r3]
 5167 0054 9A68     		ldr	r2, [r3, #8]
 5168 0056 7B68     		ldr	r3, [r7, #4]
 5169 0058 1B68     		ldr	r3, [r3]
 5170 005a 0121     		movs	r1, #1
 5171 005c 8A43     		bics	r2, r1
 5172 005e 9A60     		str	r2, [r3, #8]
 5173 0060 3B6C     		ldr	r3, [r7, #64]
 5174 0062 7B63     		str	r3, [r7, #52]
 5175              	.LBB800:
 5176              	.LBB801:
 414:Drivers/CMSIS/Include/cmsis_gcc.h **** }
 5177              		.loc 2 414 3
 5178 0064 7B6B     		ldr	r3, [r7, #52]
 5179              		.syntax divided
 5180              	@ 414 "Drivers/CMSIS/Include/cmsis_gcc.h" 1
 5181 0066 83F31088 		MSR primask, r3
 5182              	@ 0 "" 2
 5183              		.loc 2 415 1
 5184              		.thumb
 5185              		.syntax unified
 5186 006a C046     		nop
 5187              	.LBE801:
 5188              	.LBE800:
 5189              	.LBE795:
2149:Drivers/STM32L0xx_HAL_Driver/Src/stm32l0xx_hal_uart.c **** 
2150:Drivers/STM32L0xx_HAL_Driver/Src/stm32l0xx_hal_uart.c ****   /* If Reception till IDLE event was ongoing, disable IDLEIE interrupt */
2151:Drivers/STM32L0xx_HAL_Driver/Src/stm32l0xx_hal_uart.c ****   if (huart->ReceptionType == HAL_UART_RECEPTION_TOIDLE)
 5190              		.loc 1 2151 12
 5191 006c 7B68     		ldr	r3, [r7, #4]
 5192 006e 1B6E     		ldr	r3, [r3, #96]
 5193              		.loc 1 2151 6
 5194 0070 012B     		cmp	r3, #1
 5195 0072 18D1     		bne	.L210
 5196              	.LBB802:
 5197              	.LBB803:
 5198              	.LBB804:
 386:Drivers/CMSIS/Include/cmsis_gcc.h ****   return(result);
 5199              		.loc 2 386 3
 5200              		.syntax divided
 5201              	@ 386 "Drivers/CMSIS/Include/cmsis_gcc.h" 1
 5202 0074 EFF31083 		MRS r3, primask
 5203              	@ 0 "" 2
 5204              		.thumb
 5205              		.syntax unified
ARM GAS  C:\Users\lidka\AppData\Local\Temp\ccqOATUZ.s 			page 139


 5206 0078 7B61     		str	r3, [r7, #20]
 387:Drivers/CMSIS/Include/cmsis_gcc.h **** }
 5207              		.loc 2 387 9
 5208 007a 7B69     		ldr	r3, [r7, #20]
 5209              	.LBE804:
 5210              	.LBE803:
2152:Drivers/STM32L0xx_HAL_Driver/Src/stm32l0xx_hal_uart.c ****   {
2153:Drivers/STM32L0xx_HAL_Driver/Src/stm32l0xx_hal_uart.c ****     ATOMIC_CLEAR_BIT(huart->Instance->CR1, (USART_CR1_IDLEIE));
 5211              		.loc 1 2153 5
 5212 007c FB63     		str	r3, [r7, #60]
 5213 007e 0123     		movs	r3, #1
 5214 0080 BB61     		str	r3, [r7, #24]
 5215              	.LBB805:
 5216              	.LBB806:
 414:Drivers/CMSIS/Include/cmsis_gcc.h **** }
 5217              		.loc 2 414 3
 5218 0082 BB69     		ldr	r3, [r7, #24]
 5219              		.syntax divided
 5220              	@ 414 "Drivers/CMSIS/Include/cmsis_gcc.h" 1
 5221 0084 83F31088 		MSR primask, r3
 5222              	@ 0 "" 2
 5223              		.loc 2 415 1
 5224              		.thumb
 5225              		.syntax unified
 5226 0088 C046     		nop
 5227              	.LBE806:
 5228              	.LBE805:
 5229              		.loc 1 2153 5
 5230 008a 7B68     		ldr	r3, [r7, #4]
 5231 008c 1B68     		ldr	r3, [r3]
 5232 008e 1A68     		ldr	r2, [r3]
 5233 0090 7B68     		ldr	r3, [r7, #4]
 5234 0092 1B68     		ldr	r3, [r3]
 5235 0094 1021     		movs	r1, #16
 5236 0096 8A43     		bics	r2, r1
 5237 0098 1A60     		str	r2, [r3]
 5238 009a FB6B     		ldr	r3, [r7, #60]
 5239 009c FB61     		str	r3, [r7, #28]
 5240              	.LBB807:
 5241              	.LBB808:
 414:Drivers/CMSIS/Include/cmsis_gcc.h **** }
 5242              		.loc 2 414 3
 5243 009e FB69     		ldr	r3, [r7, #28]
 5244              		.syntax divided
 5245              	@ 414 "Drivers/CMSIS/Include/cmsis_gcc.h" 1
 5246 00a0 83F31088 		MSR primask, r3
 5247              	@ 0 "" 2
 5248              		.loc 2 415 1
 5249              		.thumb
 5250              		.syntax unified
 5251 00a4 C046     		nop
 5252              	.L210:
 5253              	.LBE808:
 5254              	.LBE807:
 5255              	.LBE802:
2154:Drivers/STM32L0xx_HAL_Driver/Src/stm32l0xx_hal_uart.c ****   }
2155:Drivers/STM32L0xx_HAL_Driver/Src/stm32l0xx_hal_uart.c **** 
ARM GAS  C:\Users\lidka\AppData\Local\Temp\ccqOATUZ.s 			page 140


2156:Drivers/STM32L0xx_HAL_Driver/Src/stm32l0xx_hal_uart.c ****   /* Disable the UART DMA Rx request if enabled */
2157:Drivers/STM32L0xx_HAL_Driver/Src/stm32l0xx_hal_uart.c ****   if (HAL_IS_BIT_SET(huart->Instance->CR3, USART_CR3_DMAR))
 5256              		.loc 1 2157 7
 5257 00a6 7B68     		ldr	r3, [r7, #4]
 5258 00a8 1B68     		ldr	r3, [r3]
 5259 00aa 9B68     		ldr	r3, [r3, #8]
 5260 00ac 4022     		movs	r2, #64
 5261 00ae 1340     		ands	r3, r2
 5262              		.loc 1 2157 6
 5263 00b0 402B     		cmp	r3, #64
 5264 00b2 4DD1     		bne	.L212
 5265              	.LBB809:
 5266              	.LBB810:
 5267              	.LBB811:
 386:Drivers/CMSIS/Include/cmsis_gcc.h ****   return(result);
 5268              		.loc 2 386 3
 5269              		.syntax divided
 5270              	@ 386 "Drivers/CMSIS/Include/cmsis_gcc.h" 1
 5271 00b4 EFF31083 		MRS r3, primask
 5272              	@ 0 "" 2
 5273              		.thumb
 5274              		.syntax unified
 5275 00b8 BB60     		str	r3, [r7, #8]
 387:Drivers/CMSIS/Include/cmsis_gcc.h **** }
 5276              		.loc 2 387 9
 5277 00ba BB68     		ldr	r3, [r7, #8]
 5278              	.LBE811:
 5279              	.LBE810:
2158:Drivers/STM32L0xx_HAL_Driver/Src/stm32l0xx_hal_uart.c ****   {
2159:Drivers/STM32L0xx_HAL_Driver/Src/stm32l0xx_hal_uart.c ****     ATOMIC_CLEAR_BIT(huart->Instance->CR3, USART_CR3_DMAR);
 5280              		.loc 1 2159 5
 5281 00bc BB63     		str	r3, [r7, #56]
 5282 00be 0123     		movs	r3, #1
 5283 00c0 FB60     		str	r3, [r7, #12]
 5284              	.LBB812:
 5285              	.LBB813:
 414:Drivers/CMSIS/Include/cmsis_gcc.h **** }
 5286              		.loc 2 414 3
 5287 00c2 FB68     		ldr	r3, [r7, #12]
 5288              		.syntax divided
 5289              	@ 414 "Drivers/CMSIS/Include/cmsis_gcc.h" 1
 5290 00c4 83F31088 		MSR primask, r3
 5291              	@ 0 "" 2
 5292              		.loc 2 415 1
 5293              		.thumb
 5294              		.syntax unified
 5295 00c8 C046     		nop
 5296              	.LBE813:
 5297              	.LBE812:
 5298              		.loc 1 2159 5
 5299 00ca 7B68     		ldr	r3, [r7, #4]
 5300 00cc 1B68     		ldr	r3, [r3]
 5301 00ce 9A68     		ldr	r2, [r3, #8]
 5302 00d0 7B68     		ldr	r3, [r7, #4]
 5303 00d2 1B68     		ldr	r3, [r3]
 5304 00d4 4021     		movs	r1, #64
 5305 00d6 8A43     		bics	r2, r1
ARM GAS  C:\Users\lidka\AppData\Local\Temp\ccqOATUZ.s 			page 141


 5306 00d8 9A60     		str	r2, [r3, #8]
 5307 00da BB6B     		ldr	r3, [r7, #56]
 5308 00dc 3B61     		str	r3, [r7, #16]
 5309              	.LBB814:
 5310              	.LBB815:
 414:Drivers/CMSIS/Include/cmsis_gcc.h **** }
 5311              		.loc 2 414 3
 5312 00de 3B69     		ldr	r3, [r7, #16]
 5313              		.syntax divided
 5314              	@ 414 "Drivers/CMSIS/Include/cmsis_gcc.h" 1
 5315 00e0 83F31088 		MSR primask, r3
 5316              	@ 0 "" 2
 5317              		.loc 2 415 1
 5318              		.thumb
 5319              		.syntax unified
 5320 00e4 C046     		nop
 5321              	.LBE815:
 5322              	.LBE814:
 5323              	.LBE809:
2160:Drivers/STM32L0xx_HAL_Driver/Src/stm32l0xx_hal_uart.c **** 
2161:Drivers/STM32L0xx_HAL_Driver/Src/stm32l0xx_hal_uart.c ****     /* Abort the UART DMA Rx channel : use non blocking DMA Abort API (callback) */
2162:Drivers/STM32L0xx_HAL_Driver/Src/stm32l0xx_hal_uart.c ****     if (huart->hdmarx != NULL)
 5324              		.loc 1 2162 14
 5325 00e6 7B68     		ldr	r3, [r7, #4]
 5326 00e8 1B6F     		ldr	r3, [r3, #112]
 5327              		.loc 1 2162 8
 5328 00ea 002B     		cmp	r3, #0
 5329 00ec 12D0     		beq	.L214
2163:Drivers/STM32L0xx_HAL_Driver/Src/stm32l0xx_hal_uart.c ****     {
2164:Drivers/STM32L0xx_HAL_Driver/Src/stm32l0xx_hal_uart.c ****       /* Set the UART DMA Abort callback :
2165:Drivers/STM32L0xx_HAL_Driver/Src/stm32l0xx_hal_uart.c ****          will lead to call HAL_UART_AbortCpltCallback() at end of DMA abort procedure */
2166:Drivers/STM32L0xx_HAL_Driver/Src/stm32l0xx_hal_uart.c ****       huart->hdmarx->XferAbortCallback = UART_DMARxOnlyAbortCallback;
 5330              		.loc 1 2166 12
 5331 00ee 7B68     		ldr	r3, [r7, #4]
 5332 00f0 1B6F     		ldr	r3, [r3, #112]
 5333              		.loc 1 2166 40
 5334 00f2 254A     		ldr	r2, .L217+4
 5335 00f4 9A63     		str	r2, [r3, #56]
2167:Drivers/STM32L0xx_HAL_Driver/Src/stm32l0xx_hal_uart.c **** 
2168:Drivers/STM32L0xx_HAL_Driver/Src/stm32l0xx_hal_uart.c ****       /* Abort DMA RX */
2169:Drivers/STM32L0xx_HAL_Driver/Src/stm32l0xx_hal_uart.c ****       if (HAL_DMA_Abort_IT(huart->hdmarx) != HAL_OK)
 5336              		.loc 1 2169 11
 5337 00f6 7B68     		ldr	r3, [r7, #4]
 5338 00f8 1B6F     		ldr	r3, [r3, #112]
 5339 00fa 1800     		movs	r0, r3
 5340 00fc FFF7FEFF 		bl	HAL_DMA_Abort_IT
 5341 0100 031E     		subs	r3, r0, #0
 5342              		.loc 1 2169 10
 5343 0102 3AD0     		beq	.L215
2170:Drivers/STM32L0xx_HAL_Driver/Src/stm32l0xx_hal_uart.c ****       {
2171:Drivers/STM32L0xx_HAL_Driver/Src/stm32l0xx_hal_uart.c ****         /* Call Directly huart->hdmarx->XferAbortCallback function in case of error */
2172:Drivers/STM32L0xx_HAL_Driver/Src/stm32l0xx_hal_uart.c ****         huart->hdmarx->XferAbortCallback(huart->hdmarx);
 5344              		.loc 1 2172 14
 5345 0104 7B68     		ldr	r3, [r7, #4]
 5346 0106 1B6F     		ldr	r3, [r3, #112]
 5347              		.loc 1 2172 22
 5348 0108 9A6B     		ldr	r2, [r3, #56]
ARM GAS  C:\Users\lidka\AppData\Local\Temp\ccqOATUZ.s 			page 142


 5349              		.loc 1 2172 47
 5350 010a 7B68     		ldr	r3, [r7, #4]
 5351 010c 1B6F     		ldr	r3, [r3, #112]
 5352              		.loc 1 2172 9
 5353 010e 1800     		movs	r0, r3
 5354 0110 9047     		blx	r2
 5355              	.LVL1:
 5356 0112 32E0     		b	.L215
 5357              	.L214:
2173:Drivers/STM32L0xx_HAL_Driver/Src/stm32l0xx_hal_uart.c ****       }
2174:Drivers/STM32L0xx_HAL_Driver/Src/stm32l0xx_hal_uart.c ****     }
2175:Drivers/STM32L0xx_HAL_Driver/Src/stm32l0xx_hal_uart.c ****     else
2176:Drivers/STM32L0xx_HAL_Driver/Src/stm32l0xx_hal_uart.c ****     {
2177:Drivers/STM32L0xx_HAL_Driver/Src/stm32l0xx_hal_uart.c ****       /* Reset Rx transfer counter */
2178:Drivers/STM32L0xx_HAL_Driver/Src/stm32l0xx_hal_uart.c ****       huart->RxXferCount = 0U;
 5358              		.loc 1 2178 26
 5359 0114 7B68     		ldr	r3, [r7, #4]
 5360 0116 5A22     		movs	r2, #90
 5361 0118 0021     		movs	r1, #0
 5362 011a 9952     		strh	r1, [r3, r2]
2179:Drivers/STM32L0xx_HAL_Driver/Src/stm32l0xx_hal_uart.c **** 
2180:Drivers/STM32L0xx_HAL_Driver/Src/stm32l0xx_hal_uart.c ****       /* Clear RxISR function pointer */
2181:Drivers/STM32L0xx_HAL_Driver/Src/stm32l0xx_hal_uart.c ****       huart->pRxBuffPtr = NULL;
 5363              		.loc 1 2181 25
 5364 011c 7B68     		ldr	r3, [r7, #4]
 5365 011e 0022     		movs	r2, #0
 5366 0120 5A65     		str	r2, [r3, #84]
2182:Drivers/STM32L0xx_HAL_Driver/Src/stm32l0xx_hal_uart.c **** 
2183:Drivers/STM32L0xx_HAL_Driver/Src/stm32l0xx_hal_uart.c ****       /* Clear the Error flags in the ICR register */
2184:Drivers/STM32L0xx_HAL_Driver/Src/stm32l0xx_hal_uart.c ****       __HAL_UART_CLEAR_FLAG(huart, UART_CLEAR_OREF | UART_CLEAR_NEF | UART_CLEAR_PEF | UART_CLEAR_F
 5367              		.loc 1 2184 7
 5368 0122 7B68     		ldr	r3, [r7, #4]
 5369 0124 1B68     		ldr	r3, [r3]
 5370 0126 0F22     		movs	r2, #15
 5371 0128 1A62     		str	r2, [r3, #32]
2185:Drivers/STM32L0xx_HAL_Driver/Src/stm32l0xx_hal_uart.c **** 
2186:Drivers/STM32L0xx_HAL_Driver/Src/stm32l0xx_hal_uart.c ****       /* Discard the received data */
2187:Drivers/STM32L0xx_HAL_Driver/Src/stm32l0xx_hal_uart.c ****       __HAL_UART_SEND_REQ(huart, UART_RXDATA_FLUSH_REQUEST);
 5372              		.loc 1 2187 7
 5373 012a 7B68     		ldr	r3, [r7, #4]
 5374 012c 1B68     		ldr	r3, [r3]
 5375 012e 9A69     		ldr	r2, [r3, #24]
 5376 0130 7B68     		ldr	r3, [r7, #4]
 5377 0132 1B68     		ldr	r3, [r3]
 5378 0134 0821     		movs	r1, #8
 5379 0136 0A43     		orrs	r2, r1
 5380 0138 9A61     		str	r2, [r3, #24]
2188:Drivers/STM32L0xx_HAL_Driver/Src/stm32l0xx_hal_uart.c **** 
2189:Drivers/STM32L0xx_HAL_Driver/Src/stm32l0xx_hal_uart.c ****       /* Restore huart->RxState to Ready */
2190:Drivers/STM32L0xx_HAL_Driver/Src/stm32l0xx_hal_uart.c ****       huart->RxState = HAL_UART_STATE_READY;
 5381              		.loc 1 2190 22
 5382 013a 7B68     		ldr	r3, [r7, #4]
 5383 013c 2022     		movs	r2, #32
 5384 013e DA67     		str	r2, [r3, #124]
2191:Drivers/STM32L0xx_HAL_Driver/Src/stm32l0xx_hal_uart.c ****       huart->ReceptionType = HAL_UART_RECEPTION_STANDARD;
 5385              		.loc 1 2191 28
 5386 0140 7B68     		ldr	r3, [r7, #4]
ARM GAS  C:\Users\lidka\AppData\Local\Temp\ccqOATUZ.s 			page 143


 5387 0142 0022     		movs	r2, #0
 5388 0144 1A66     		str	r2, [r3, #96]
2192:Drivers/STM32L0xx_HAL_Driver/Src/stm32l0xx_hal_uart.c **** 
2193:Drivers/STM32L0xx_HAL_Driver/Src/stm32l0xx_hal_uart.c ****       /* As no DMA to be aborted, call directly user Abort complete callback */
2194:Drivers/STM32L0xx_HAL_Driver/Src/stm32l0xx_hal_uart.c **** #if (USE_HAL_UART_REGISTER_CALLBACKS == 1)
2195:Drivers/STM32L0xx_HAL_Driver/Src/stm32l0xx_hal_uart.c ****       /* Call registered Abort Receive Complete Callback */
2196:Drivers/STM32L0xx_HAL_Driver/Src/stm32l0xx_hal_uart.c ****       huart->AbortReceiveCpltCallback(huart);
2197:Drivers/STM32L0xx_HAL_Driver/Src/stm32l0xx_hal_uart.c **** #else
2198:Drivers/STM32L0xx_HAL_Driver/Src/stm32l0xx_hal_uart.c ****       /* Call legacy weak Abort Receive Complete Callback */
2199:Drivers/STM32L0xx_HAL_Driver/Src/stm32l0xx_hal_uart.c ****       HAL_UART_AbortReceiveCpltCallback(huart);
 5389              		.loc 1 2199 7
 5390 0146 7B68     		ldr	r3, [r7, #4]
 5391 0148 1800     		movs	r0, r3
 5392 014a FFF7FEFF 		bl	HAL_UART_AbortReceiveCpltCallback
 5393 014e 14E0     		b	.L215
 5394              	.L212:
2200:Drivers/STM32L0xx_HAL_Driver/Src/stm32l0xx_hal_uart.c **** #endif /* USE_HAL_UART_REGISTER_CALLBACKS */
2201:Drivers/STM32L0xx_HAL_Driver/Src/stm32l0xx_hal_uart.c ****     }
2202:Drivers/STM32L0xx_HAL_Driver/Src/stm32l0xx_hal_uart.c ****   }
2203:Drivers/STM32L0xx_HAL_Driver/Src/stm32l0xx_hal_uart.c ****   else
2204:Drivers/STM32L0xx_HAL_Driver/Src/stm32l0xx_hal_uart.c ****   {
2205:Drivers/STM32L0xx_HAL_Driver/Src/stm32l0xx_hal_uart.c ****     /* Reset Rx transfer counter */
2206:Drivers/STM32L0xx_HAL_Driver/Src/stm32l0xx_hal_uart.c ****     huart->RxXferCount = 0U;
 5395              		.loc 1 2206 24
 5396 0150 7B68     		ldr	r3, [r7, #4]
 5397 0152 5A22     		movs	r2, #90
 5398 0154 0021     		movs	r1, #0
 5399 0156 9952     		strh	r1, [r3, r2]
2207:Drivers/STM32L0xx_HAL_Driver/Src/stm32l0xx_hal_uart.c **** 
2208:Drivers/STM32L0xx_HAL_Driver/Src/stm32l0xx_hal_uart.c ****     /* Clear RxISR function pointer */
2209:Drivers/STM32L0xx_HAL_Driver/Src/stm32l0xx_hal_uart.c ****     huart->pRxBuffPtr = NULL;
 5400              		.loc 1 2209 23
 5401 0158 7B68     		ldr	r3, [r7, #4]
 5402 015a 0022     		movs	r2, #0
 5403 015c 5A65     		str	r2, [r3, #84]
2210:Drivers/STM32L0xx_HAL_Driver/Src/stm32l0xx_hal_uart.c **** 
2211:Drivers/STM32L0xx_HAL_Driver/Src/stm32l0xx_hal_uart.c ****     /* Clear the Error flags in the ICR register */
2212:Drivers/STM32L0xx_HAL_Driver/Src/stm32l0xx_hal_uart.c ****     __HAL_UART_CLEAR_FLAG(huart, UART_CLEAR_OREF | UART_CLEAR_NEF | UART_CLEAR_PEF | UART_CLEAR_FEF
 5404              		.loc 1 2212 5
 5405 015e 7B68     		ldr	r3, [r7, #4]
 5406 0160 1B68     		ldr	r3, [r3]
 5407 0162 0F22     		movs	r2, #15
 5408 0164 1A62     		str	r2, [r3, #32]
2213:Drivers/STM32L0xx_HAL_Driver/Src/stm32l0xx_hal_uart.c **** 
2214:Drivers/STM32L0xx_HAL_Driver/Src/stm32l0xx_hal_uart.c ****     /* Restore huart->RxState to Ready */
2215:Drivers/STM32L0xx_HAL_Driver/Src/stm32l0xx_hal_uart.c ****     huart->RxState = HAL_UART_STATE_READY;
 5409              		.loc 1 2215 20
 5410 0166 7B68     		ldr	r3, [r7, #4]
 5411 0168 2022     		movs	r2, #32
 5412 016a DA67     		str	r2, [r3, #124]
2216:Drivers/STM32L0xx_HAL_Driver/Src/stm32l0xx_hal_uart.c ****     huart->ReceptionType = HAL_UART_RECEPTION_STANDARD;
 5413              		.loc 1 2216 26
 5414 016c 7B68     		ldr	r3, [r7, #4]
 5415 016e 0022     		movs	r2, #0
 5416 0170 1A66     		str	r2, [r3, #96]
2217:Drivers/STM32L0xx_HAL_Driver/Src/stm32l0xx_hal_uart.c **** 
2218:Drivers/STM32L0xx_HAL_Driver/Src/stm32l0xx_hal_uart.c ****     /* As no DMA to be aborted, call directly user Abort complete callback */
ARM GAS  C:\Users\lidka\AppData\Local\Temp\ccqOATUZ.s 			page 144


2219:Drivers/STM32L0xx_HAL_Driver/Src/stm32l0xx_hal_uart.c **** #if (USE_HAL_UART_REGISTER_CALLBACKS == 1)
2220:Drivers/STM32L0xx_HAL_Driver/Src/stm32l0xx_hal_uart.c ****     /* Call registered Abort Receive Complete Callback */
2221:Drivers/STM32L0xx_HAL_Driver/Src/stm32l0xx_hal_uart.c ****     huart->AbortReceiveCpltCallback(huart);
2222:Drivers/STM32L0xx_HAL_Driver/Src/stm32l0xx_hal_uart.c **** #else
2223:Drivers/STM32L0xx_HAL_Driver/Src/stm32l0xx_hal_uart.c ****     /* Call legacy weak Abort Receive Complete Callback */
2224:Drivers/STM32L0xx_HAL_Driver/Src/stm32l0xx_hal_uart.c ****     HAL_UART_AbortReceiveCpltCallback(huart);
 5417              		.loc 1 2224 5
 5418 0172 7B68     		ldr	r3, [r7, #4]
 5419 0174 1800     		movs	r0, r3
 5420 0176 FFF7FEFF 		bl	HAL_UART_AbortReceiveCpltCallback
 5421              	.L215:
2225:Drivers/STM32L0xx_HAL_Driver/Src/stm32l0xx_hal_uart.c **** #endif /* USE_HAL_UART_REGISTER_CALLBACKS */
2226:Drivers/STM32L0xx_HAL_Driver/Src/stm32l0xx_hal_uart.c ****   }
2227:Drivers/STM32L0xx_HAL_Driver/Src/stm32l0xx_hal_uart.c **** 
2228:Drivers/STM32L0xx_HAL_Driver/Src/stm32l0xx_hal_uart.c ****   return HAL_OK;
 5422              		.loc 1 2228 10
 5423 017a 0023     		movs	r3, #0
2229:Drivers/STM32L0xx_HAL_Driver/Src/stm32l0xx_hal_uart.c **** }
 5424              		.loc 1 2229 1
 5425 017c 1800     		movs	r0, r3
 5426 017e BD46     		mov	sp, r7
 5427 0180 12B0     		add	sp, sp, #72
 5428              		@ sp needed
 5429 0182 80BD     		pop	{r7, pc}
 5430              	.L218:
 5431              		.align	2
 5432              	.L217:
 5433 0184 DFFEFFFF 		.word	-289
 5434 0188 00000000 		.word	UART_DMARxOnlyAbortCallback
 5435              		.cfi_endproc
 5436              	.LFE68:
 5438              		.section	.text.HAL_UART_IRQHandler,"ax",%progbits
 5439              		.align	1
 5440              		.global	HAL_UART_IRQHandler
 5441              		.syntax unified
 5442              		.code	16
 5443              		.thumb_func
 5445              	HAL_UART_IRQHandler:
 5446              	.LFB69:
2230:Drivers/STM32L0xx_HAL_Driver/Src/stm32l0xx_hal_uart.c **** 
2231:Drivers/STM32L0xx_HAL_Driver/Src/stm32l0xx_hal_uart.c **** /**
2232:Drivers/STM32L0xx_HAL_Driver/Src/stm32l0xx_hal_uart.c ****   * @brief Handle UART interrupt request.
2233:Drivers/STM32L0xx_HAL_Driver/Src/stm32l0xx_hal_uart.c ****   * @param huart UART handle.
2234:Drivers/STM32L0xx_HAL_Driver/Src/stm32l0xx_hal_uart.c ****   * @retval None
2235:Drivers/STM32L0xx_HAL_Driver/Src/stm32l0xx_hal_uart.c ****   */
2236:Drivers/STM32L0xx_HAL_Driver/Src/stm32l0xx_hal_uart.c **** void HAL_UART_IRQHandler(UART_HandleTypeDef *huart)
2237:Drivers/STM32L0xx_HAL_Driver/Src/stm32l0xx_hal_uart.c **** {
 5447              		.loc 1 2237 1
 5448              		.cfi_startproc
 5449              		@ args = 0, pretend = 0, frame = 168
 5450              		@ frame_needed = 1, uses_anonymous_args = 0
 5451 0000 90B5     		push	{r4, r7, lr}
 5452              	.LCFI66:
 5453              		.cfi_def_cfa_offset 12
 5454              		.cfi_offset 4, -12
 5455              		.cfi_offset 7, -8
 5456              		.cfi_offset 14, -4
ARM GAS  C:\Users\lidka\AppData\Local\Temp\ccqOATUZ.s 			page 145


 5457 0002 ABB0     		sub	sp, sp, #172
 5458              	.LCFI67:
 5459              		.cfi_def_cfa_offset 184
 5460 0004 00AF     		add	r7, sp, #0
 5461              	.LCFI68:
 5462              		.cfi_def_cfa_register 7
 5463 0006 7860     		str	r0, [r7, #4]
2238:Drivers/STM32L0xx_HAL_Driver/Src/stm32l0xx_hal_uart.c ****   uint32_t isrflags   = READ_REG(huart->Instance->ISR);
 5464              		.loc 1 2238 25
 5465 0008 7B68     		ldr	r3, [r7, #4]
 5466 000a 1B68     		ldr	r3, [r3]
 5467              		.loc 1 2238 12
 5468 000c DB69     		ldr	r3, [r3, #28]
 5469 000e A422     		movs	r2, #164
 5470 0010 B918     		adds	r1, r7, r2
 5471 0012 0B60     		str	r3, [r1]
2239:Drivers/STM32L0xx_HAL_Driver/Src/stm32l0xx_hal_uart.c ****   uint32_t cr1its     = READ_REG(huart->Instance->CR1);
 5472              		.loc 1 2239 25
 5473 0014 7B68     		ldr	r3, [r7, #4]
 5474 0016 1B68     		ldr	r3, [r3]
 5475              		.loc 1 2239 12
 5476 0018 1B68     		ldr	r3, [r3]
 5477 001a A020     		movs	r0, #160
 5478 001c 3918     		adds	r1, r7, r0
 5479 001e 0B60     		str	r3, [r1]
2240:Drivers/STM32L0xx_HAL_Driver/Src/stm32l0xx_hal_uart.c ****   uint32_t cr3its     = READ_REG(huart->Instance->CR3);
 5480              		.loc 1 2240 25
 5481 0020 7B68     		ldr	r3, [r7, #4]
 5482 0022 1B68     		ldr	r3, [r3]
 5483              		.loc 1 2240 12
 5484 0024 9B68     		ldr	r3, [r3, #8]
 5485 0026 9C21     		movs	r1, #156
 5486 0028 7918     		adds	r1, r7, r1
 5487 002a 0B60     		str	r3, [r1]
2241:Drivers/STM32L0xx_HAL_Driver/Src/stm32l0xx_hal_uart.c **** 
2242:Drivers/STM32L0xx_HAL_Driver/Src/stm32l0xx_hal_uart.c ****   uint32_t errorflags;
2243:Drivers/STM32L0xx_HAL_Driver/Src/stm32l0xx_hal_uart.c ****   uint32_t errorcode;
2244:Drivers/STM32L0xx_HAL_Driver/Src/stm32l0xx_hal_uart.c **** 
2245:Drivers/STM32L0xx_HAL_Driver/Src/stm32l0xx_hal_uart.c ****   /* If no error occurs */
2246:Drivers/STM32L0xx_HAL_Driver/Src/stm32l0xx_hal_uart.c ****   errorflags = (isrflags & (uint32_t)(USART_ISR_PE | USART_ISR_FE | USART_ISR_ORE | USART_ISR_NE | 
 5488              		.loc 1 2246 14
 5489 002c 1100     		movs	r1, r2
 5490 002e BB18     		adds	r3, r7, r2
 5491 0030 1B68     		ldr	r3, [r3]
 5492 0032 994A     		ldr	r2, .L260
 5493 0034 1340     		ands	r3, r2
 5494 0036 9822     		movs	r2, #152
 5495 0038 BC18     		adds	r4, r7, r2
 5496 003a 2360     		str	r3, [r4]
2247:Drivers/STM32L0xx_HAL_Driver/Src/stm32l0xx_hal_uart.c ****   if (errorflags == 0U)
 5497              		.loc 1 2247 6
 5498 003c BB18     		adds	r3, r7, r2
 5499 003e 1B68     		ldr	r3, [r3]
 5500 0040 002B     		cmp	r3, #0
 5501 0042 14D1     		bne	.L220
2248:Drivers/STM32L0xx_HAL_Driver/Src/stm32l0xx_hal_uart.c ****   {
2249:Drivers/STM32L0xx_HAL_Driver/Src/stm32l0xx_hal_uart.c ****     /* UART in mode Receiver ---------------------------------------------------*/
ARM GAS  C:\Users\lidka\AppData\Local\Temp\ccqOATUZ.s 			page 146


2250:Drivers/STM32L0xx_HAL_Driver/Src/stm32l0xx_hal_uart.c ****     if (((isrflags & USART_ISR_RXNE) != 0U)
 5502              		.loc 1 2250 20
 5503 0044 7B18     		adds	r3, r7, r1
 5504 0046 1B68     		ldr	r3, [r3]
 5505 0048 2022     		movs	r2, #32
 5506 004a 1340     		ands	r3, r2
 5507              		.loc 1 2250 8
 5508 004c 0FD0     		beq	.L220
2251:Drivers/STM32L0xx_HAL_Driver/Src/stm32l0xx_hal_uart.c ****         && ((cr1its & USART_CR1_RXNEIE) != 0U))
 5509              		.loc 1 2251 21
 5510 004e 3B18     		adds	r3, r7, r0
 5511 0050 1B68     		ldr	r3, [r3]
 5512 0052 2022     		movs	r2, #32
 5513 0054 1340     		ands	r3, r2
 5514              		.loc 1 2251 9
 5515 0056 0AD0     		beq	.L220
2252:Drivers/STM32L0xx_HAL_Driver/Src/stm32l0xx_hal_uart.c ****     {
2253:Drivers/STM32L0xx_HAL_Driver/Src/stm32l0xx_hal_uart.c ****       if (huart->RxISR != NULL)
 5516              		.loc 1 2253 16
 5517 0058 7B68     		ldr	r3, [r7, #4]
 5518 005a 5B6E     		ldr	r3, [r3, #100]
 5519              		.loc 1 2253 10
 5520 005c 002B     		cmp	r3, #0
 5521 005e 00D1     		bne	.LCB4169
 5522 0060 98E2     		b	.L254	@long jump
 5523              	.LCB4169:
2254:Drivers/STM32L0xx_HAL_Driver/Src/stm32l0xx_hal_uart.c ****       {
2255:Drivers/STM32L0xx_HAL_Driver/Src/stm32l0xx_hal_uart.c ****         huart->RxISR(huart);
 5524              		.loc 1 2255 14
 5525 0062 7B68     		ldr	r3, [r7, #4]
 5526 0064 5B6E     		ldr	r3, [r3, #100]
 5527              		.loc 1 2255 9
 5528 0066 7A68     		ldr	r2, [r7, #4]
 5529 0068 1000     		movs	r0, r2
 5530 006a 9847     		blx	r3
 5531              	.LVL2:
2256:Drivers/STM32L0xx_HAL_Driver/Src/stm32l0xx_hal_uart.c ****       }
2257:Drivers/STM32L0xx_HAL_Driver/Src/stm32l0xx_hal_uart.c ****       return;
 5532              		.loc 1 2257 7
 5533 006c 92E2     		b	.L254
 5534              	.L220:
2258:Drivers/STM32L0xx_HAL_Driver/Src/stm32l0xx_hal_uart.c ****     }
2259:Drivers/STM32L0xx_HAL_Driver/Src/stm32l0xx_hal_uart.c ****   }
2260:Drivers/STM32L0xx_HAL_Driver/Src/stm32l0xx_hal_uart.c **** 
2261:Drivers/STM32L0xx_HAL_Driver/Src/stm32l0xx_hal_uart.c ****   /* If some errors occur */
2262:Drivers/STM32L0xx_HAL_Driver/Src/stm32l0xx_hal_uart.c ****   if ((errorflags != 0U)
 5535              		.loc 1 2262 6
 5536 006e 9823     		movs	r3, #152
 5537 0070 FB18     		adds	r3, r7, r3
 5538 0072 1B68     		ldr	r3, [r3]
 5539 0074 002B     		cmp	r3, #0
 5540 0076 00D1     		bne	.LCB4183
 5541 0078 14E1     		b	.L223	@long jump
 5542              	.LCB4183:
2263:Drivers/STM32L0xx_HAL_Driver/Src/stm32l0xx_hal_uart.c ****       && (((cr3its & USART_CR3_EIE) != 0U)
 5543              		.loc 1 2263 20
 5544 007a 9C23     		movs	r3, #156
ARM GAS  C:\Users\lidka\AppData\Local\Temp\ccqOATUZ.s 			page 147


 5545 007c FB18     		adds	r3, r7, r3
 5546 007e 1B68     		ldr	r3, [r3]
 5547 0080 0122     		movs	r2, #1
 5548 0082 1340     		ands	r3, r2
 5549              		.loc 1 2263 7
 5550 0084 06D1     		bne	.L224
2264:Drivers/STM32L0xx_HAL_Driver/Src/stm32l0xx_hal_uart.c ****           || ((cr1its & (USART_CR1_RXNEIE | USART_CR1_PEIE | USART_CR1_RTOIE)) != 0U)))
 5551              		.loc 1 2264 23
 5552 0086 A023     		movs	r3, #160
 5553 0088 FB18     		adds	r3, r7, r3
 5554 008a 1B68     		ldr	r3, [r3]
 5555 008c 834A     		ldr	r2, .L260+4
 5556 008e 1340     		ands	r3, r2
 5557              		.loc 1 2264 11
 5558 0090 00D1     		bne	.LCB4197
 5559 0092 07E1     		b	.L223	@long jump
 5560              	.LCB4197:
 5561              	.L224:
2265:Drivers/STM32L0xx_HAL_Driver/Src/stm32l0xx_hal_uart.c ****   {
2266:Drivers/STM32L0xx_HAL_Driver/Src/stm32l0xx_hal_uart.c ****     /* UART parity error interrupt occurred -------------------------------------*/
2267:Drivers/STM32L0xx_HAL_Driver/Src/stm32l0xx_hal_uart.c ****     if (((isrflags & USART_ISR_PE) != 0U) && ((cr1its & USART_CR1_PEIE) != 0U))
 5562              		.loc 1 2267 20
 5563 0094 A423     		movs	r3, #164
 5564 0096 FB18     		adds	r3, r7, r3
 5565 0098 1B68     		ldr	r3, [r3]
 5566 009a 0122     		movs	r2, #1
 5567 009c 1340     		ands	r3, r2
 5568              		.loc 1 2267 8
 5569 009e 12D0     		beq	.L225
 5570              		.loc 1 2267 55 discriminator 1
 5571 00a0 A023     		movs	r3, #160
 5572 00a2 FB18     		adds	r3, r7, r3
 5573 00a4 1A68     		ldr	r2, [r3]
 5574 00a6 8023     		movs	r3, #128
 5575 00a8 5B00     		lsls	r3, r3, #1
 5576 00aa 1340     		ands	r3, r2
 5577              		.loc 1 2267 43 discriminator 1
 5578 00ac 0BD0     		beq	.L225
2268:Drivers/STM32L0xx_HAL_Driver/Src/stm32l0xx_hal_uart.c ****     {
2269:Drivers/STM32L0xx_HAL_Driver/Src/stm32l0xx_hal_uart.c ****       __HAL_UART_CLEAR_FLAG(huart, UART_CLEAR_PEF);
 5579              		.loc 1 2269 7
 5580 00ae 7B68     		ldr	r3, [r7, #4]
 5581 00b0 1B68     		ldr	r3, [r3]
 5582 00b2 0122     		movs	r2, #1
 5583 00b4 1A62     		str	r2, [r3, #32]
2270:Drivers/STM32L0xx_HAL_Driver/Src/stm32l0xx_hal_uart.c **** 
2271:Drivers/STM32L0xx_HAL_Driver/Src/stm32l0xx_hal_uart.c ****       huart->ErrorCode |= HAL_UART_ERROR_PE;
 5584              		.loc 1 2271 24
 5585 00b6 7B68     		ldr	r3, [r7, #4]
 5586 00b8 8022     		movs	r2, #128
 5587 00ba 9B58     		ldr	r3, [r3, r2]
 5588 00bc 0122     		movs	r2, #1
 5589 00be 1A43     		orrs	r2, r3
 5590 00c0 7B68     		ldr	r3, [r7, #4]
 5591 00c2 8021     		movs	r1, #128
 5592 00c4 5A50     		str	r2, [r3, r1]
 5593              	.L225:
ARM GAS  C:\Users\lidka\AppData\Local\Temp\ccqOATUZ.s 			page 148


2272:Drivers/STM32L0xx_HAL_Driver/Src/stm32l0xx_hal_uart.c ****     }
2273:Drivers/STM32L0xx_HAL_Driver/Src/stm32l0xx_hal_uart.c **** 
2274:Drivers/STM32L0xx_HAL_Driver/Src/stm32l0xx_hal_uart.c ****     /* UART frame error interrupt occurred --------------------------------------*/
2275:Drivers/STM32L0xx_HAL_Driver/Src/stm32l0xx_hal_uart.c ****     if (((isrflags & USART_ISR_FE) != 0U) && ((cr3its & USART_CR3_EIE) != 0U))
 5594              		.loc 1 2275 20
 5595 00c6 A423     		movs	r3, #164
 5596 00c8 FB18     		adds	r3, r7, r3
 5597 00ca 1B68     		ldr	r3, [r3]
 5598 00cc 0222     		movs	r2, #2
 5599 00ce 1340     		ands	r3, r2
 5600              		.loc 1 2275 8
 5601 00d0 11D0     		beq	.L226
 5602              		.loc 1 2275 55 discriminator 1
 5603 00d2 9C23     		movs	r3, #156
 5604 00d4 FB18     		adds	r3, r7, r3
 5605 00d6 1B68     		ldr	r3, [r3]
 5606 00d8 0122     		movs	r2, #1
 5607 00da 1340     		ands	r3, r2
 5608              		.loc 1 2275 43 discriminator 1
 5609 00dc 0BD0     		beq	.L226
2276:Drivers/STM32L0xx_HAL_Driver/Src/stm32l0xx_hal_uart.c ****     {
2277:Drivers/STM32L0xx_HAL_Driver/Src/stm32l0xx_hal_uart.c ****       __HAL_UART_CLEAR_FLAG(huart, UART_CLEAR_FEF);
 5610              		.loc 1 2277 7
 5611 00de 7B68     		ldr	r3, [r7, #4]
 5612 00e0 1B68     		ldr	r3, [r3]
 5613 00e2 0222     		movs	r2, #2
 5614 00e4 1A62     		str	r2, [r3, #32]
2278:Drivers/STM32L0xx_HAL_Driver/Src/stm32l0xx_hal_uart.c **** 
2279:Drivers/STM32L0xx_HAL_Driver/Src/stm32l0xx_hal_uart.c ****       huart->ErrorCode |= HAL_UART_ERROR_FE;
 5615              		.loc 1 2279 24
 5616 00e6 7B68     		ldr	r3, [r7, #4]
 5617 00e8 8022     		movs	r2, #128
 5618 00ea 9B58     		ldr	r3, [r3, r2]
 5619 00ec 0422     		movs	r2, #4
 5620 00ee 1A43     		orrs	r2, r3
 5621 00f0 7B68     		ldr	r3, [r7, #4]
 5622 00f2 8021     		movs	r1, #128
 5623 00f4 5A50     		str	r2, [r3, r1]
 5624              	.L226:
2280:Drivers/STM32L0xx_HAL_Driver/Src/stm32l0xx_hal_uart.c ****     }
2281:Drivers/STM32L0xx_HAL_Driver/Src/stm32l0xx_hal_uart.c **** 
2282:Drivers/STM32L0xx_HAL_Driver/Src/stm32l0xx_hal_uart.c ****     /* UART noise error interrupt occurred --------------------------------------*/
2283:Drivers/STM32L0xx_HAL_Driver/Src/stm32l0xx_hal_uart.c ****     if (((isrflags & USART_ISR_NE) != 0U) && ((cr3its & USART_CR3_EIE) != 0U))
 5625              		.loc 1 2283 20
 5626 00f6 A423     		movs	r3, #164
 5627 00f8 FB18     		adds	r3, r7, r3
 5628 00fa 1B68     		ldr	r3, [r3]
 5629 00fc 0422     		movs	r2, #4
 5630 00fe 1340     		ands	r3, r2
 5631              		.loc 1 2283 8
 5632 0100 11D0     		beq	.L227
 5633              		.loc 1 2283 55 discriminator 1
 5634 0102 9C23     		movs	r3, #156
 5635 0104 FB18     		adds	r3, r7, r3
 5636 0106 1B68     		ldr	r3, [r3]
 5637 0108 0122     		movs	r2, #1
 5638 010a 1340     		ands	r3, r2
ARM GAS  C:\Users\lidka\AppData\Local\Temp\ccqOATUZ.s 			page 149


 5639              		.loc 1 2283 43 discriminator 1
 5640 010c 0BD0     		beq	.L227
2284:Drivers/STM32L0xx_HAL_Driver/Src/stm32l0xx_hal_uart.c ****     {
2285:Drivers/STM32L0xx_HAL_Driver/Src/stm32l0xx_hal_uart.c ****       __HAL_UART_CLEAR_FLAG(huart, UART_CLEAR_NEF);
 5641              		.loc 1 2285 7
 5642 010e 7B68     		ldr	r3, [r7, #4]
 5643 0110 1B68     		ldr	r3, [r3]
 5644 0112 0422     		movs	r2, #4
 5645 0114 1A62     		str	r2, [r3, #32]
2286:Drivers/STM32L0xx_HAL_Driver/Src/stm32l0xx_hal_uart.c **** 
2287:Drivers/STM32L0xx_HAL_Driver/Src/stm32l0xx_hal_uart.c ****       huart->ErrorCode |= HAL_UART_ERROR_NE;
 5646              		.loc 1 2287 24
 5647 0116 7B68     		ldr	r3, [r7, #4]
 5648 0118 8022     		movs	r2, #128
 5649 011a 9B58     		ldr	r3, [r3, r2]
 5650 011c 0222     		movs	r2, #2
 5651 011e 1A43     		orrs	r2, r3
 5652 0120 7B68     		ldr	r3, [r7, #4]
 5653 0122 8021     		movs	r1, #128
 5654 0124 5A50     		str	r2, [r3, r1]
 5655              	.L227:
2288:Drivers/STM32L0xx_HAL_Driver/Src/stm32l0xx_hal_uart.c ****     }
2289:Drivers/STM32L0xx_HAL_Driver/Src/stm32l0xx_hal_uart.c **** 
2290:Drivers/STM32L0xx_HAL_Driver/Src/stm32l0xx_hal_uart.c ****     /* UART Over-Run interrupt occurred -----------------------------------------*/
2291:Drivers/STM32L0xx_HAL_Driver/Src/stm32l0xx_hal_uart.c ****     if (((isrflags & USART_ISR_ORE) != 0U)
 5656              		.loc 1 2291 20
 5657 0126 A423     		movs	r3, #164
 5658 0128 FB18     		adds	r3, r7, r3
 5659 012a 1B68     		ldr	r3, [r3]
 5660 012c 0822     		movs	r2, #8
 5661 012e 1340     		ands	r3, r2
 5662              		.loc 1 2291 8
 5663 0130 17D0     		beq	.L228
2292:Drivers/STM32L0xx_HAL_Driver/Src/stm32l0xx_hal_uart.c ****         && (((cr1its & USART_CR1_RXNEIE) != 0U) ||
 5664              		.loc 1 2292 22
 5665 0132 A023     		movs	r3, #160
 5666 0134 FB18     		adds	r3, r7, r3
 5667 0136 1B68     		ldr	r3, [r3]
 5668 0138 2022     		movs	r2, #32
 5669 013a 1340     		ands	r3, r2
 5670              		.loc 1 2292 9
 5671 013c 05D1     		bne	.L229
2293:Drivers/STM32L0xx_HAL_Driver/Src/stm32l0xx_hal_uart.c ****             ((cr3its & USART_CR3_EIE) != 0U)))
 5672              		.loc 1 2293 22 discriminator 1
 5673 013e 9C23     		movs	r3, #156
 5674 0140 FB18     		adds	r3, r7, r3
 5675 0142 1B68     		ldr	r3, [r3]
 5676 0144 0122     		movs	r2, #1
 5677 0146 1340     		ands	r3, r2
2292:Drivers/STM32L0xx_HAL_Driver/Src/stm32l0xx_hal_uart.c ****         && (((cr1its & USART_CR1_RXNEIE) != 0U) ||
 5678              		.loc 1 2292 49 discriminator 1
 5679 0148 0BD0     		beq	.L228
 5680              	.L229:
2294:Drivers/STM32L0xx_HAL_Driver/Src/stm32l0xx_hal_uart.c ****     {
2295:Drivers/STM32L0xx_HAL_Driver/Src/stm32l0xx_hal_uart.c ****       __HAL_UART_CLEAR_FLAG(huart, UART_CLEAR_OREF);
 5681              		.loc 1 2295 7
 5682 014a 7B68     		ldr	r3, [r7, #4]
ARM GAS  C:\Users\lidka\AppData\Local\Temp\ccqOATUZ.s 			page 150


 5683 014c 1B68     		ldr	r3, [r3]
 5684 014e 0822     		movs	r2, #8
 5685 0150 1A62     		str	r2, [r3, #32]
2296:Drivers/STM32L0xx_HAL_Driver/Src/stm32l0xx_hal_uart.c **** 
2297:Drivers/STM32L0xx_HAL_Driver/Src/stm32l0xx_hal_uart.c ****       huart->ErrorCode |= HAL_UART_ERROR_ORE;
 5686              		.loc 1 2297 24
 5687 0152 7B68     		ldr	r3, [r7, #4]
 5688 0154 8022     		movs	r2, #128
 5689 0156 9B58     		ldr	r3, [r3, r2]
 5690 0158 0822     		movs	r2, #8
 5691 015a 1A43     		orrs	r2, r3
 5692 015c 7B68     		ldr	r3, [r7, #4]
 5693 015e 8021     		movs	r1, #128
 5694 0160 5A50     		str	r2, [r3, r1]
 5695              	.L228:
2298:Drivers/STM32L0xx_HAL_Driver/Src/stm32l0xx_hal_uart.c ****     }
2299:Drivers/STM32L0xx_HAL_Driver/Src/stm32l0xx_hal_uart.c **** 
2300:Drivers/STM32L0xx_HAL_Driver/Src/stm32l0xx_hal_uart.c ****     /* UART Receiver Timeout interrupt occurred ---------------------------------*/
2301:Drivers/STM32L0xx_HAL_Driver/Src/stm32l0xx_hal_uart.c ****     if (((isrflags & USART_ISR_RTOF) != 0U) && ((cr1its & USART_CR1_RTOIE) != 0U))
 5696              		.loc 1 2301 20
 5697 0162 A423     		movs	r3, #164
 5698 0164 FB18     		adds	r3, r7, r3
 5699 0166 1A68     		ldr	r2, [r3]
 5700 0168 8023     		movs	r3, #128
 5701 016a 1B01     		lsls	r3, r3, #4
 5702 016c 1340     		ands	r3, r2
 5703              		.loc 1 2301 8
 5704 016e 13D0     		beq	.L230
 5705              		.loc 1 2301 57 discriminator 1
 5706 0170 A023     		movs	r3, #160
 5707 0172 FB18     		adds	r3, r7, r3
 5708 0174 1A68     		ldr	r2, [r3]
 5709 0176 8023     		movs	r3, #128
 5710 0178 DB04     		lsls	r3, r3, #19
 5711 017a 1340     		ands	r3, r2
 5712              		.loc 1 2301 45 discriminator 1
 5713 017c 0CD0     		beq	.L230
2302:Drivers/STM32L0xx_HAL_Driver/Src/stm32l0xx_hal_uart.c ****     {
2303:Drivers/STM32L0xx_HAL_Driver/Src/stm32l0xx_hal_uart.c ****       __HAL_UART_CLEAR_FLAG(huart, UART_CLEAR_RTOF);
 5714              		.loc 1 2303 7
 5715 017e 7B68     		ldr	r3, [r7, #4]
 5716 0180 1B68     		ldr	r3, [r3]
 5717 0182 8022     		movs	r2, #128
 5718 0184 1201     		lsls	r2, r2, #4
 5719 0186 1A62     		str	r2, [r3, #32]
2304:Drivers/STM32L0xx_HAL_Driver/Src/stm32l0xx_hal_uart.c **** 
2305:Drivers/STM32L0xx_HAL_Driver/Src/stm32l0xx_hal_uart.c ****       huart->ErrorCode |= HAL_UART_ERROR_RTO;
 5720              		.loc 1 2305 24
 5721 0188 7B68     		ldr	r3, [r7, #4]
 5722 018a 8022     		movs	r2, #128
 5723 018c 9B58     		ldr	r3, [r3, r2]
 5724 018e 2022     		movs	r2, #32
 5725 0190 1A43     		orrs	r2, r3
 5726 0192 7B68     		ldr	r3, [r7, #4]
 5727 0194 8021     		movs	r1, #128
 5728 0196 5A50     		str	r2, [r3, r1]
 5729              	.L230:
ARM GAS  C:\Users\lidka\AppData\Local\Temp\ccqOATUZ.s 			page 151


2306:Drivers/STM32L0xx_HAL_Driver/Src/stm32l0xx_hal_uart.c ****     }
2307:Drivers/STM32L0xx_HAL_Driver/Src/stm32l0xx_hal_uart.c **** 
2308:Drivers/STM32L0xx_HAL_Driver/Src/stm32l0xx_hal_uart.c ****     /* Call UART Error Call back function if need be ----------------------------*/
2309:Drivers/STM32L0xx_HAL_Driver/Src/stm32l0xx_hal_uart.c ****     if (huart->ErrorCode != HAL_UART_ERROR_NONE)
 5730              		.loc 1 2309 14
 5731 0198 7B68     		ldr	r3, [r7, #4]
 5732 019a 8022     		movs	r2, #128
 5733 019c 9B58     		ldr	r3, [r3, r2]
 5734              		.loc 1 2309 8
 5735 019e 002B     		cmp	r3, #0
 5736 01a0 00D1     		bne	.LCB4355
 5737 01a2 F9E1     		b	.L255	@long jump
 5738              	.LCB4355:
2310:Drivers/STM32L0xx_HAL_Driver/Src/stm32l0xx_hal_uart.c ****     {
2311:Drivers/STM32L0xx_HAL_Driver/Src/stm32l0xx_hal_uart.c ****       /* UART in mode Receiver --------------------------------------------------*/
2312:Drivers/STM32L0xx_HAL_Driver/Src/stm32l0xx_hal_uart.c ****       if (((isrflags & USART_ISR_RXNE) != 0U)
 5739              		.loc 1 2312 22
 5740 01a4 A423     		movs	r3, #164
 5741 01a6 FB18     		adds	r3, r7, r3
 5742 01a8 1B68     		ldr	r3, [r3]
 5743 01aa 2022     		movs	r2, #32
 5744 01ac 1340     		ands	r3, r2
 5745              		.loc 1 2312 10
 5746 01ae 0ED0     		beq	.L232
2313:Drivers/STM32L0xx_HAL_Driver/Src/stm32l0xx_hal_uart.c ****           && ((cr1its & USART_CR1_RXNEIE) != 0U))
 5747              		.loc 1 2313 23
 5748 01b0 A023     		movs	r3, #160
 5749 01b2 FB18     		adds	r3, r7, r3
 5750 01b4 1B68     		ldr	r3, [r3]
 5751 01b6 2022     		movs	r2, #32
 5752 01b8 1340     		ands	r3, r2
 5753              		.loc 1 2313 11
 5754 01ba 08D0     		beq	.L232
2314:Drivers/STM32L0xx_HAL_Driver/Src/stm32l0xx_hal_uart.c ****       {
2315:Drivers/STM32L0xx_HAL_Driver/Src/stm32l0xx_hal_uart.c ****         if (huart->RxISR != NULL)
 5755              		.loc 1 2315 18
 5756 01bc 7B68     		ldr	r3, [r7, #4]
 5757 01be 5B6E     		ldr	r3, [r3, #100]
 5758              		.loc 1 2315 12
 5759 01c0 002B     		cmp	r3, #0
 5760 01c2 04D0     		beq	.L232
2316:Drivers/STM32L0xx_HAL_Driver/Src/stm32l0xx_hal_uart.c ****         {
2317:Drivers/STM32L0xx_HAL_Driver/Src/stm32l0xx_hal_uart.c ****           huart->RxISR(huart);
 5761              		.loc 1 2317 16
 5762 01c4 7B68     		ldr	r3, [r7, #4]
 5763 01c6 5B6E     		ldr	r3, [r3, #100]
 5764              		.loc 1 2317 11
 5765 01c8 7A68     		ldr	r2, [r7, #4]
 5766 01ca 1000     		movs	r0, r2
 5767 01cc 9847     		blx	r3
 5768              	.LVL3:
 5769              	.L232:
2318:Drivers/STM32L0xx_HAL_Driver/Src/stm32l0xx_hal_uart.c ****         }
2319:Drivers/STM32L0xx_HAL_Driver/Src/stm32l0xx_hal_uart.c ****       }
2320:Drivers/STM32L0xx_HAL_Driver/Src/stm32l0xx_hal_uart.c **** 
2321:Drivers/STM32L0xx_HAL_Driver/Src/stm32l0xx_hal_uart.c ****       /* If Error is to be considered as blocking :
2322:Drivers/STM32L0xx_HAL_Driver/Src/stm32l0xx_hal_uart.c ****           - Receiver Timeout error in Reception
ARM GAS  C:\Users\lidka\AppData\Local\Temp\ccqOATUZ.s 			page 152


2323:Drivers/STM32L0xx_HAL_Driver/Src/stm32l0xx_hal_uart.c ****           - Overrun error in Reception
2324:Drivers/STM32L0xx_HAL_Driver/Src/stm32l0xx_hal_uart.c ****           - any error occurs in DMA mode reception
2325:Drivers/STM32L0xx_HAL_Driver/Src/stm32l0xx_hal_uart.c ****       */
2326:Drivers/STM32L0xx_HAL_Driver/Src/stm32l0xx_hal_uart.c ****       errorcode = huart->ErrorCode;
 5770              		.loc 1 2326 17
 5771 01ce 7B68     		ldr	r3, [r7, #4]
 5772 01d0 8022     		movs	r2, #128
 5773 01d2 9B58     		ldr	r3, [r3, r2]
 5774 01d4 9421     		movs	r1, #148
 5775 01d6 7A18     		adds	r2, r7, r1
 5776 01d8 1360     		str	r3, [r2]
2327:Drivers/STM32L0xx_HAL_Driver/Src/stm32l0xx_hal_uart.c ****       if ((HAL_IS_BIT_SET(huart->Instance->CR3, USART_CR3_DMAR)) ||
 5777              		.loc 1 2327 12
 5778 01da 7B68     		ldr	r3, [r7, #4]
 5779 01dc 1B68     		ldr	r3, [r3]
 5780 01de 9B68     		ldr	r3, [r3, #8]
 5781 01e0 4022     		movs	r2, #64
 5782 01e2 1340     		ands	r3, r2
 5783              		.loc 1 2327 10
 5784 01e4 402B     		cmp	r3, #64
 5785 01e6 04D0     		beq	.L233
2328:Drivers/STM32L0xx_HAL_Driver/Src/stm32l0xx_hal_uart.c ****           ((errorcode & (HAL_UART_ERROR_RTO | HAL_UART_ERROR_ORE)) != 0U))
 5786              		.loc 1 2328 23 discriminator 1
 5787 01e8 7B18     		adds	r3, r7, r1
 5788 01ea 1B68     		ldr	r3, [r3]
 5789 01ec 2822     		movs	r2, #40
 5790 01ee 1340     		ands	r3, r2
2327:Drivers/STM32L0xx_HAL_Driver/Src/stm32l0xx_hal_uart.c ****       if ((HAL_IS_BIT_SET(huart->Instance->CR3, USART_CR3_DMAR)) ||
 5791              		.loc 1 2327 66 discriminator 1
 5792 01f0 47D0     		beq	.L234
 5793              	.L233:
2329:Drivers/STM32L0xx_HAL_Driver/Src/stm32l0xx_hal_uart.c ****       {
2330:Drivers/STM32L0xx_HAL_Driver/Src/stm32l0xx_hal_uart.c ****         /* Blocking error : transfer is aborted
2331:Drivers/STM32L0xx_HAL_Driver/Src/stm32l0xx_hal_uart.c ****            Set the UART state ready to be able to start again the process,
2332:Drivers/STM32L0xx_HAL_Driver/Src/stm32l0xx_hal_uart.c ****            Disable Rx Interrupts, and disable Rx DMA request, if ongoing */
2333:Drivers/STM32L0xx_HAL_Driver/Src/stm32l0xx_hal_uart.c ****         UART_EndRxTransfer(huart);
 5794              		.loc 1 2333 9
 5795 01f2 7B68     		ldr	r3, [r7, #4]
 5796 01f4 1800     		movs	r0, r3
 5797 01f6 FFF7FEFF 		bl	UART_EndRxTransfer
2334:Drivers/STM32L0xx_HAL_Driver/Src/stm32l0xx_hal_uart.c **** 
2335:Drivers/STM32L0xx_HAL_Driver/Src/stm32l0xx_hal_uart.c ****         /* Disable the UART DMA Rx request if enabled */
2336:Drivers/STM32L0xx_HAL_Driver/Src/stm32l0xx_hal_uart.c ****         if (HAL_IS_BIT_SET(huart->Instance->CR3, USART_CR3_DMAR))
 5798              		.loc 1 2336 13
 5799 01fa 7B68     		ldr	r3, [r7, #4]
 5800 01fc 1B68     		ldr	r3, [r3]
 5801 01fe 9B68     		ldr	r3, [r3, #8]
 5802 0200 4022     		movs	r2, #64
 5803 0202 1340     		ands	r3, r2
 5804              		.loc 1 2336 12
 5805 0204 402B     		cmp	r3, #64
 5806 0206 37D1     		bne	.L235
 5807              	.LBB816:
 5808              	.LBB817:
 5809              	.LBB818:
 386:Drivers/CMSIS/Include/cmsis_gcc.h ****   return(result);
 5810              		.loc 2 386 3
ARM GAS  C:\Users\lidka\AppData\Local\Temp\ccqOATUZ.s 			page 153


 5811              		.syntax divided
 5812              	@ 386 "Drivers/CMSIS/Include/cmsis_gcc.h" 1
 5813 0208 EFF31083 		MRS r3, primask
 5814              	@ 0 "" 2
 5815              		.thumb
 5816              		.syntax unified
 5817 020c 3B66     		str	r3, [r7, #96]
 387:Drivers/CMSIS/Include/cmsis_gcc.h **** }
 5818              		.loc 2 387 9
 5819 020e 3B6E     		ldr	r3, [r7, #96]
 5820              	.LBE818:
 5821              	.LBE817:
2337:Drivers/STM32L0xx_HAL_Driver/Src/stm32l0xx_hal_uart.c ****         {
2338:Drivers/STM32L0xx_HAL_Driver/Src/stm32l0xx_hal_uart.c ****           ATOMIC_CLEAR_BIT(huart->Instance->CR3, USART_CR3_DMAR);
 5822              		.loc 1 2338 11
 5823 0210 9020     		movs	r0, #144
 5824 0212 3A18     		adds	r2, r7, r0
 5825 0214 1360     		str	r3, [r2]
 5826 0216 0123     		movs	r3, #1
 5827 0218 7B66     		str	r3, [r7, #100]
 5828              	.LBB819:
 5829              	.LBB820:
 414:Drivers/CMSIS/Include/cmsis_gcc.h **** }
 5830              		.loc 2 414 3
 5831 021a 7B6E     		ldr	r3, [r7, #100]
 5832              		.syntax divided
 5833              	@ 414 "Drivers/CMSIS/Include/cmsis_gcc.h" 1
 5834 021c 83F31088 		MSR primask, r3
 5835              	@ 0 "" 2
 5836              		.loc 2 415 1
 5837              		.thumb
 5838              		.syntax unified
 5839 0220 C046     		nop
 5840              	.LBE820:
 5841              	.LBE819:
 5842              		.loc 1 2338 11
 5843 0222 7B68     		ldr	r3, [r7, #4]
 5844 0224 1B68     		ldr	r3, [r3]
 5845 0226 9A68     		ldr	r2, [r3, #8]
 5846 0228 7B68     		ldr	r3, [r7, #4]
 5847 022a 1B68     		ldr	r3, [r3]
 5848 022c 4021     		movs	r1, #64
 5849 022e 8A43     		bics	r2, r1
 5850 0230 9A60     		str	r2, [r3, #8]
 5851 0232 3B18     		adds	r3, r7, r0
 5852 0234 1B68     		ldr	r3, [r3]
 5853 0236 BB66     		str	r3, [r7, #104]
 5854              	.LBB821:
 5855              	.LBB822:
 414:Drivers/CMSIS/Include/cmsis_gcc.h **** }
 5856              		.loc 2 414 3
 5857 0238 BB6E     		ldr	r3, [r7, #104]
 5858              		.syntax divided
 5859              	@ 414 "Drivers/CMSIS/Include/cmsis_gcc.h" 1
 5860 023a 83F31088 		MSR primask, r3
 5861              	@ 0 "" 2
 5862              		.loc 2 415 1
ARM GAS  C:\Users\lidka\AppData\Local\Temp\ccqOATUZ.s 			page 154


 5863              		.thumb
 5864              		.syntax unified
 5865 023e C046     		nop
 5866              	.LBE822:
 5867              	.LBE821:
 5868              	.LBE816:
2339:Drivers/STM32L0xx_HAL_Driver/Src/stm32l0xx_hal_uart.c **** 
2340:Drivers/STM32L0xx_HAL_Driver/Src/stm32l0xx_hal_uart.c ****           /* Abort the UART DMA Rx channel */
2341:Drivers/STM32L0xx_HAL_Driver/Src/stm32l0xx_hal_uart.c ****           if (huart->hdmarx != NULL)
 5869              		.loc 1 2341 20
 5870 0240 7B68     		ldr	r3, [r7, #4]
 5871 0242 1B6F     		ldr	r3, [r3, #112]
 5872              		.loc 1 2341 14
 5873 0244 002B     		cmp	r3, #0
 5874 0246 12D0     		beq	.L237
2342:Drivers/STM32L0xx_HAL_Driver/Src/stm32l0xx_hal_uart.c ****           {
2343:Drivers/STM32L0xx_HAL_Driver/Src/stm32l0xx_hal_uart.c ****             /* Set the UART DMA Abort callback :
2344:Drivers/STM32L0xx_HAL_Driver/Src/stm32l0xx_hal_uart.c ****                will lead to call HAL_UART_ErrorCallback() at end of DMA abort procedure */
2345:Drivers/STM32L0xx_HAL_Driver/Src/stm32l0xx_hal_uart.c ****             huart->hdmarx->XferAbortCallback = UART_DMAAbortOnError;
 5875              		.loc 1 2345 18
 5876 0248 7B68     		ldr	r3, [r7, #4]
 5877 024a 1B6F     		ldr	r3, [r3, #112]
 5878              		.loc 1 2345 46
 5879 024c 144A     		ldr	r2, .L260+8
 5880 024e 9A63     		str	r2, [r3, #56]
2346:Drivers/STM32L0xx_HAL_Driver/Src/stm32l0xx_hal_uart.c **** 
2347:Drivers/STM32L0xx_HAL_Driver/Src/stm32l0xx_hal_uart.c ****             /* Abort DMA RX */
2348:Drivers/STM32L0xx_HAL_Driver/Src/stm32l0xx_hal_uart.c ****             if (HAL_DMA_Abort_IT(huart->hdmarx) != HAL_OK)
 5881              		.loc 1 2348 17
 5882 0250 7B68     		ldr	r3, [r7, #4]
 5883 0252 1B6F     		ldr	r3, [r3, #112]
 5884 0254 1800     		movs	r0, r3
 5885 0256 FFF7FEFF 		bl	HAL_DMA_Abort_IT
 5886 025a 031E     		subs	r3, r0, #0
 5887              		.loc 1 2348 16
 5888 025c 1AD0     		beq	.L256
2349:Drivers/STM32L0xx_HAL_Driver/Src/stm32l0xx_hal_uart.c ****             {
2350:Drivers/STM32L0xx_HAL_Driver/Src/stm32l0xx_hal_uart.c ****               /* Call Directly huart->hdmarx->XferAbortCallback function in case of error */
2351:Drivers/STM32L0xx_HAL_Driver/Src/stm32l0xx_hal_uart.c ****               huart->hdmarx->XferAbortCallback(huart->hdmarx);
 5889              		.loc 1 2351 20
 5890 025e 7B68     		ldr	r3, [r7, #4]
 5891 0260 1B6F     		ldr	r3, [r3, #112]
 5892              		.loc 1 2351 28
 5893 0262 9A6B     		ldr	r2, [r3, #56]
 5894              		.loc 1 2351 53
 5895 0264 7B68     		ldr	r3, [r7, #4]
 5896 0266 1B6F     		ldr	r3, [r3, #112]
 5897              		.loc 1 2351 15
 5898 0268 1800     		movs	r0, r3
 5899 026a 9047     		blx	r2
 5900              	.LVL4:
2336:Drivers/STM32L0xx_HAL_Driver/Src/stm32l0xx_hal_uart.c ****         {
 5901              		.loc 1 2336 12
 5902 026c 12E0     		b	.L256
 5903              	.L237:
2352:Drivers/STM32L0xx_HAL_Driver/Src/stm32l0xx_hal_uart.c ****             }
2353:Drivers/STM32L0xx_HAL_Driver/Src/stm32l0xx_hal_uart.c ****           }
ARM GAS  C:\Users\lidka\AppData\Local\Temp\ccqOATUZ.s 			page 155


2354:Drivers/STM32L0xx_HAL_Driver/Src/stm32l0xx_hal_uart.c ****           else
2355:Drivers/STM32L0xx_HAL_Driver/Src/stm32l0xx_hal_uart.c ****           {
2356:Drivers/STM32L0xx_HAL_Driver/Src/stm32l0xx_hal_uart.c ****             /* Call user error callback */
2357:Drivers/STM32L0xx_HAL_Driver/Src/stm32l0xx_hal_uart.c **** #if (USE_HAL_UART_REGISTER_CALLBACKS == 1)
2358:Drivers/STM32L0xx_HAL_Driver/Src/stm32l0xx_hal_uart.c ****             /*Call registered error callback*/
2359:Drivers/STM32L0xx_HAL_Driver/Src/stm32l0xx_hal_uart.c ****             huart->ErrorCallback(huart);
2360:Drivers/STM32L0xx_HAL_Driver/Src/stm32l0xx_hal_uart.c **** #else
2361:Drivers/STM32L0xx_HAL_Driver/Src/stm32l0xx_hal_uart.c ****             /*Call legacy weak error callback*/
2362:Drivers/STM32L0xx_HAL_Driver/Src/stm32l0xx_hal_uart.c ****             HAL_UART_ErrorCallback(huart);
 5904              		.loc 1 2362 13
 5905 026e 7B68     		ldr	r3, [r7, #4]
 5906 0270 1800     		movs	r0, r3
 5907 0272 FFF7FEFF 		bl	HAL_UART_ErrorCallback
2336:Drivers/STM32L0xx_HAL_Driver/Src/stm32l0xx_hal_uart.c ****         {
 5908              		.loc 1 2336 12
 5909 0276 0DE0     		b	.L256
 5910              	.L235:
2363:Drivers/STM32L0xx_HAL_Driver/Src/stm32l0xx_hal_uart.c **** #endif /* USE_HAL_UART_REGISTER_CALLBACKS */
2364:Drivers/STM32L0xx_HAL_Driver/Src/stm32l0xx_hal_uart.c **** 
2365:Drivers/STM32L0xx_HAL_Driver/Src/stm32l0xx_hal_uart.c ****           }
2366:Drivers/STM32L0xx_HAL_Driver/Src/stm32l0xx_hal_uart.c ****         }
2367:Drivers/STM32L0xx_HAL_Driver/Src/stm32l0xx_hal_uart.c ****         else
2368:Drivers/STM32L0xx_HAL_Driver/Src/stm32l0xx_hal_uart.c ****         {
2369:Drivers/STM32L0xx_HAL_Driver/Src/stm32l0xx_hal_uart.c ****           /* Call user error callback */
2370:Drivers/STM32L0xx_HAL_Driver/Src/stm32l0xx_hal_uart.c **** #if (USE_HAL_UART_REGISTER_CALLBACKS == 1)
2371:Drivers/STM32L0xx_HAL_Driver/Src/stm32l0xx_hal_uart.c ****           /*Call registered error callback*/
2372:Drivers/STM32L0xx_HAL_Driver/Src/stm32l0xx_hal_uart.c ****           huart->ErrorCallback(huart);
2373:Drivers/STM32L0xx_HAL_Driver/Src/stm32l0xx_hal_uart.c **** #else
2374:Drivers/STM32L0xx_HAL_Driver/Src/stm32l0xx_hal_uart.c ****           /*Call legacy weak error callback*/
2375:Drivers/STM32L0xx_HAL_Driver/Src/stm32l0xx_hal_uart.c ****           HAL_UART_ErrorCallback(huart);
 5911              		.loc 1 2375 11
 5912 0278 7B68     		ldr	r3, [r7, #4]
 5913 027a 1800     		movs	r0, r3
 5914 027c FFF7FEFF 		bl	HAL_UART_ErrorCallback
2336:Drivers/STM32L0xx_HAL_Driver/Src/stm32l0xx_hal_uart.c ****         {
 5915              		.loc 1 2336 12
 5916 0280 08E0     		b	.L256
 5917              	.L234:
2376:Drivers/STM32L0xx_HAL_Driver/Src/stm32l0xx_hal_uart.c **** #endif /* USE_HAL_UART_REGISTER_CALLBACKS */
2377:Drivers/STM32L0xx_HAL_Driver/Src/stm32l0xx_hal_uart.c ****         }
2378:Drivers/STM32L0xx_HAL_Driver/Src/stm32l0xx_hal_uart.c ****       }
2379:Drivers/STM32L0xx_HAL_Driver/Src/stm32l0xx_hal_uart.c ****       else
2380:Drivers/STM32L0xx_HAL_Driver/Src/stm32l0xx_hal_uart.c ****       {
2381:Drivers/STM32L0xx_HAL_Driver/Src/stm32l0xx_hal_uart.c ****         /* Non Blocking error : transfer could go on.
2382:Drivers/STM32L0xx_HAL_Driver/Src/stm32l0xx_hal_uart.c ****            Error is notified to user through user error callback */
2383:Drivers/STM32L0xx_HAL_Driver/Src/stm32l0xx_hal_uart.c **** #if (USE_HAL_UART_REGISTER_CALLBACKS == 1)
2384:Drivers/STM32L0xx_HAL_Driver/Src/stm32l0xx_hal_uart.c ****         /*Call registered error callback*/
2385:Drivers/STM32L0xx_HAL_Driver/Src/stm32l0xx_hal_uart.c ****         huart->ErrorCallback(huart);
2386:Drivers/STM32L0xx_HAL_Driver/Src/stm32l0xx_hal_uart.c **** #else
2387:Drivers/STM32L0xx_HAL_Driver/Src/stm32l0xx_hal_uart.c ****         /*Call legacy weak error callback*/
2388:Drivers/STM32L0xx_HAL_Driver/Src/stm32l0xx_hal_uart.c ****         HAL_UART_ErrorCallback(huart);
 5918              		.loc 1 2388 9
 5919 0282 7B68     		ldr	r3, [r7, #4]
 5920 0284 1800     		movs	r0, r3
 5921 0286 FFF7FEFF 		bl	HAL_UART_ErrorCallback
2389:Drivers/STM32L0xx_HAL_Driver/Src/stm32l0xx_hal_uart.c **** #endif /* USE_HAL_UART_REGISTER_CALLBACKS */
2390:Drivers/STM32L0xx_HAL_Driver/Src/stm32l0xx_hal_uart.c ****         huart->ErrorCode = HAL_UART_ERROR_NONE;
ARM GAS  C:\Users\lidka\AppData\Local\Temp\ccqOATUZ.s 			page 156


 5922              		.loc 1 2390 26
 5923 028a 7B68     		ldr	r3, [r7, #4]
 5924 028c 8022     		movs	r2, #128
 5925 028e 0021     		movs	r1, #0
 5926 0290 9950     		str	r1, [r3, r2]
2391:Drivers/STM32L0xx_HAL_Driver/Src/stm32l0xx_hal_uart.c ****       }
2392:Drivers/STM32L0xx_HAL_Driver/Src/stm32l0xx_hal_uart.c ****     }
2393:Drivers/STM32L0xx_HAL_Driver/Src/stm32l0xx_hal_uart.c ****     return;
 5927              		.loc 1 2393 5
 5928 0292 81E1     		b	.L255
 5929              	.L256:
2336:Drivers/STM32L0xx_HAL_Driver/Src/stm32l0xx_hal_uart.c ****         {
 5930              		.loc 1 2336 12
 5931 0294 C046     		nop
 5932              		.loc 1 2393 5
 5933 0296 7FE1     		b	.L255
 5934              	.L261:
 5935              		.align	2
 5936              	.L260:
 5937 0298 0F080000 		.word	2063
 5938 029c 20010004 		.word	67109152
 5939 02a0 00000000 		.word	UART_DMAAbortOnError
 5940              	.L223:
2394:Drivers/STM32L0xx_HAL_Driver/Src/stm32l0xx_hal_uart.c **** 
2395:Drivers/STM32L0xx_HAL_Driver/Src/stm32l0xx_hal_uart.c ****   } /* End if some error occurs */
2396:Drivers/STM32L0xx_HAL_Driver/Src/stm32l0xx_hal_uart.c **** 
2397:Drivers/STM32L0xx_HAL_Driver/Src/stm32l0xx_hal_uart.c ****   /* Check current reception Mode :
2398:Drivers/STM32L0xx_HAL_Driver/Src/stm32l0xx_hal_uart.c ****      If Reception till IDLE event has been selected : */
2399:Drivers/STM32L0xx_HAL_Driver/Src/stm32l0xx_hal_uart.c ****   if ((huart->ReceptionType == HAL_UART_RECEPTION_TOIDLE)
 5941              		.loc 1 2399 13
 5942 02a4 7B68     		ldr	r3, [r7, #4]
 5943 02a6 1B6E     		ldr	r3, [r3, #96]
 5944              		.loc 1 2399 6
 5945 02a8 012B     		cmp	r3, #1
 5946 02aa 00D0     		beq	.LCB4519
 5947 02ac 33E1     		b	.L239	@long jump
 5948              	.LCB4519:
2400:Drivers/STM32L0xx_HAL_Driver/Src/stm32l0xx_hal_uart.c ****       && ((isrflags & USART_ISR_IDLE) != 0U)
 5949              		.loc 1 2400 21
 5950 02ae A423     		movs	r3, #164
 5951 02b0 FB18     		adds	r3, r7, r3
 5952 02b2 1B68     		ldr	r3, [r3]
 5953 02b4 1022     		movs	r2, #16
 5954 02b6 1340     		ands	r3, r2
 5955              		.loc 1 2400 7
 5956 02b8 00D1     		bne	.LCB4526
 5957 02ba 2CE1     		b	.L239	@long jump
 5958              	.LCB4526:
2401:Drivers/STM32L0xx_HAL_Driver/Src/stm32l0xx_hal_uart.c ****       && ((cr1its & USART_ISR_IDLE) != 0U))
 5959              		.loc 1 2401 19
 5960 02bc A023     		movs	r3, #160
 5961 02be FB18     		adds	r3, r7, r3
 5962 02c0 1B68     		ldr	r3, [r3]
 5963 02c2 1022     		movs	r2, #16
 5964 02c4 1340     		ands	r3, r2
 5965              		.loc 1 2401 7
 5966 02c6 00D1     		bne	.LCB4533
ARM GAS  C:\Users\lidka\AppData\Local\Temp\ccqOATUZ.s 			page 157


 5967 02c8 25E1     		b	.L239	@long jump
 5968              	.LCB4533:
2402:Drivers/STM32L0xx_HAL_Driver/Src/stm32l0xx_hal_uart.c ****   {
2403:Drivers/STM32L0xx_HAL_Driver/Src/stm32l0xx_hal_uart.c ****     __HAL_UART_CLEAR_FLAG(huart, UART_CLEAR_IDLEF);
 5969              		.loc 1 2403 5
 5970 02ca 7B68     		ldr	r3, [r7, #4]
 5971 02cc 1B68     		ldr	r3, [r3]
 5972 02ce 1022     		movs	r2, #16
 5973 02d0 1A62     		str	r2, [r3, #32]
2404:Drivers/STM32L0xx_HAL_Driver/Src/stm32l0xx_hal_uart.c **** 
2405:Drivers/STM32L0xx_HAL_Driver/Src/stm32l0xx_hal_uart.c ****     /* Check if DMA mode is enabled in UART */
2406:Drivers/STM32L0xx_HAL_Driver/Src/stm32l0xx_hal_uart.c ****     if (HAL_IS_BIT_SET(huart->Instance->CR3, USART_CR3_DMAR))
 5974              		.loc 1 2406 9
 5975 02d2 7B68     		ldr	r3, [r7, #4]
 5976 02d4 1B68     		ldr	r3, [r3]
 5977 02d6 9B68     		ldr	r3, [r3, #8]
 5978 02d8 4022     		movs	r2, #64
 5979 02da 1340     		ands	r3, r2
 5980              		.loc 1 2406 8
 5981 02dc 402B     		cmp	r3, #64
 5982 02de 00D0     		beq	.LCB4544
 5983 02e0 9DE0     		b	.L240	@long jump
 5984              	.LCB4544:
 5985              	.LBB823:
2407:Drivers/STM32L0xx_HAL_Driver/Src/stm32l0xx_hal_uart.c ****     {
2408:Drivers/STM32L0xx_HAL_Driver/Src/stm32l0xx_hal_uart.c ****       /* DMA mode enabled */
2409:Drivers/STM32L0xx_HAL_Driver/Src/stm32l0xx_hal_uart.c ****       /* Check received length : If all expected data are received, do nothing,
2410:Drivers/STM32L0xx_HAL_Driver/Src/stm32l0xx_hal_uart.c ****          (DMA cplt callback will be called).
2411:Drivers/STM32L0xx_HAL_Driver/Src/stm32l0xx_hal_uart.c ****          Otherwise, if at least one data has already been received, IDLE event is to be notified to
2412:Drivers/STM32L0xx_HAL_Driver/Src/stm32l0xx_hal_uart.c ****       uint16_t nb_remaining_rx_data = (uint16_t) __HAL_DMA_GET_COUNTER(huart->hdmarx);
 5986              		.loc 1 2412 50
 5987 02e2 7B68     		ldr	r3, [r7, #4]
 5988 02e4 1B6F     		ldr	r3, [r3, #112]
 5989 02e6 1B68     		ldr	r3, [r3]
 5990 02e8 5A68     		ldr	r2, [r3, #4]
 5991              		.loc 1 2412 16
 5992 02ea 7E21     		movs	r1, #126
 5993 02ec 7B18     		adds	r3, r7, r1
 5994 02ee 1A80     		strh	r2, [r3]
2413:Drivers/STM32L0xx_HAL_Driver/Src/stm32l0xx_hal_uart.c ****       if ((nb_remaining_rx_data > 0U)
 5995              		.loc 1 2413 10
 5996 02f0 7B18     		adds	r3, r7, r1
 5997 02f2 1B88     		ldrh	r3, [r3]
 5998 02f4 002B     		cmp	r3, #0
 5999 02f6 00D1     		bne	.LCB4557
 6000 02f8 50E1     		b	.L257	@long jump
 6001              	.LCB4557:
2414:Drivers/STM32L0xx_HAL_Driver/Src/stm32l0xx_hal_uart.c ****           && (nb_remaining_rx_data < huart->RxXferSize))
 6002              		.loc 1 2414 43
 6003 02fa 7B68     		ldr	r3, [r7, #4]
 6004 02fc 5822     		movs	r2, #88
 6005 02fe 9B5A     		ldrh	r3, [r3, r2]
 6006              		.loc 1 2414 11
 6007 0300 7A18     		adds	r2, r7, r1
 6008 0302 1288     		ldrh	r2, [r2]
 6009 0304 9A42     		cmp	r2, r3
 6010 0306 00D3     		bcc	.LCB4565
ARM GAS  C:\Users\lidka\AppData\Local\Temp\ccqOATUZ.s 			page 158


 6011 0308 48E1     		b	.L257	@long jump
 6012              	.LCB4565:
2415:Drivers/STM32L0xx_HAL_Driver/Src/stm32l0xx_hal_uart.c ****       {
2416:Drivers/STM32L0xx_HAL_Driver/Src/stm32l0xx_hal_uart.c ****         /* Reception is not complete */
2417:Drivers/STM32L0xx_HAL_Driver/Src/stm32l0xx_hal_uart.c ****         huart->RxXferCount = nb_remaining_rx_data;
 6013              		.loc 1 2417 28
 6014 030a 7B68     		ldr	r3, [r7, #4]
 6015 030c 7A18     		adds	r2, r7, r1
 6016 030e 5A21     		movs	r1, #90
 6017 0310 1288     		ldrh	r2, [r2]
 6018 0312 5A52     		strh	r2, [r3, r1]
2418:Drivers/STM32L0xx_HAL_Driver/Src/stm32l0xx_hal_uart.c **** 
2419:Drivers/STM32L0xx_HAL_Driver/Src/stm32l0xx_hal_uart.c ****         /* In Normal mode, end DMA xfer and HAL UART Rx process*/
2420:Drivers/STM32L0xx_HAL_Driver/Src/stm32l0xx_hal_uart.c ****         if (HAL_IS_BIT_CLR(huart->hdmarx->Instance->CCR, DMA_CCR_CIRC))
 6019              		.loc 1 2420 13
 6020 0314 7B68     		ldr	r3, [r7, #4]
 6021 0316 1B6F     		ldr	r3, [r3, #112]
 6022 0318 1B68     		ldr	r3, [r3]
 6023 031a 1B68     		ldr	r3, [r3]
 6024 031c 2022     		movs	r2, #32
 6025 031e 1340     		ands	r3, r2
 6026              		.loc 1 2420 12
 6027 0320 6ED1     		bne	.L242
 6028              	.LBB824:
 6029              	.LBB825:
 6030              	.LBB826:
 386:Drivers/CMSIS/Include/cmsis_gcc.h ****   return(result);
 6031              		.loc 2 386 3
 6032              		.syntax divided
 6033              	@ 386 "Drivers/CMSIS/Include/cmsis_gcc.h" 1
 6034 0322 EFF31083 		MRS r3, primask
 6035              	@ 0 "" 2
 6036              		.thumb
 6037              		.syntax unified
 6038 0326 3B63     		str	r3, [r7, #48]
 387:Drivers/CMSIS/Include/cmsis_gcc.h **** }
 6039              		.loc 2 387 9
 6040 0328 3B6B     		ldr	r3, [r7, #48]
 6041              	.LBE826:
 6042              	.LBE825:
2421:Drivers/STM32L0xx_HAL_Driver/Src/stm32l0xx_hal_uart.c ****         {
2422:Drivers/STM32L0xx_HAL_Driver/Src/stm32l0xx_hal_uart.c ****           /* Disable PE and ERR (Frame error, noise error, overrun error) interrupts */
2423:Drivers/STM32L0xx_HAL_Driver/Src/stm32l0xx_hal_uart.c ****           ATOMIC_CLEAR_BIT(huart->Instance->CR1, USART_CR1_PEIE);
 6043              		.loc 1 2423 11
 6044 032a BB67     		str	r3, [r7, #120]
 6045 032c 0123     		movs	r3, #1
 6046 032e 7B63     		str	r3, [r7, #52]
 6047              	.LBB827:
 6048              	.LBB828:
 414:Drivers/CMSIS/Include/cmsis_gcc.h **** }
 6049              		.loc 2 414 3
 6050 0330 7B6B     		ldr	r3, [r7, #52]
 6051              		.syntax divided
 6052              	@ 414 "Drivers/CMSIS/Include/cmsis_gcc.h" 1
 6053 0332 83F31088 		MSR primask, r3
 6054              	@ 0 "" 2
 6055              		.loc 2 415 1
ARM GAS  C:\Users\lidka\AppData\Local\Temp\ccqOATUZ.s 			page 159


 6056              		.thumb
 6057              		.syntax unified
 6058 0336 C046     		nop
 6059              	.LBE828:
 6060              	.LBE827:
 6061              		.loc 1 2423 11
 6062 0338 7B68     		ldr	r3, [r7, #4]
 6063 033a 1B68     		ldr	r3, [r3]
 6064 033c 1A68     		ldr	r2, [r3]
 6065 033e 7B68     		ldr	r3, [r7, #4]
 6066 0340 1B68     		ldr	r3, [r3]
 6067 0342 9A49     		ldr	r1, .L262
 6068 0344 0A40     		ands	r2, r1
 6069 0346 1A60     		str	r2, [r3]
 6070 0348 BB6F     		ldr	r3, [r7, #120]
 6071 034a BB63     		str	r3, [r7, #56]
 6072              	.LBB829:
 6073              	.LBB830:
 414:Drivers/CMSIS/Include/cmsis_gcc.h **** }
 6074              		.loc 2 414 3
 6075 034c BB6B     		ldr	r3, [r7, #56]
 6076              		.syntax divided
 6077              	@ 414 "Drivers/CMSIS/Include/cmsis_gcc.h" 1
 6078 034e 83F31088 		MSR primask, r3
 6079              	@ 0 "" 2
 6080              		.loc 2 415 1
 6081              		.thumb
 6082              		.syntax unified
 6083 0352 C046     		nop
 6084              	.LBE830:
 6085              	.LBE829:
 6086              	.LBE824:
 6087              	.LBB831:
 6088              	.LBB832:
 6089              	.LBB833:
 386:Drivers/CMSIS/Include/cmsis_gcc.h ****   return(result);
 6090              		.loc 2 386 3
 6091              		.syntax divided
 6092              	@ 386 "Drivers/CMSIS/Include/cmsis_gcc.h" 1
 6093 0354 EFF31083 		MRS r3, primask
 6094              	@ 0 "" 2
 6095              		.thumb
 6096              		.syntax unified
 6097 0358 FB63     		str	r3, [r7, #60]
 387:Drivers/CMSIS/Include/cmsis_gcc.h **** }
 6098              		.loc 2 387 9
 6099 035a FB6B     		ldr	r3, [r7, #60]
 6100              	.LBE833:
 6101              	.LBE832:
2424:Drivers/STM32L0xx_HAL_Driver/Src/stm32l0xx_hal_uart.c ****           ATOMIC_CLEAR_BIT(huart->Instance->CR3, USART_CR3_EIE);
 6102              		.loc 1 2424 11
 6103 035c 7B67     		str	r3, [r7, #116]
 6104 035e 0123     		movs	r3, #1
 6105 0360 3B64     		str	r3, [r7, #64]
 6106              	.LBB834:
 6107              	.LBB835:
 414:Drivers/CMSIS/Include/cmsis_gcc.h **** }
ARM GAS  C:\Users\lidka\AppData\Local\Temp\ccqOATUZ.s 			page 160


 6108              		.loc 2 414 3
 6109 0362 3B6C     		ldr	r3, [r7, #64]
 6110              		.syntax divided
 6111              	@ 414 "Drivers/CMSIS/Include/cmsis_gcc.h" 1
 6112 0364 83F31088 		MSR primask, r3
 6113              	@ 0 "" 2
 6114              		.loc 2 415 1
 6115              		.thumb
 6116              		.syntax unified
 6117 0368 C046     		nop
 6118              	.LBE835:
 6119              	.LBE834:
 6120              		.loc 1 2424 11
 6121 036a 7B68     		ldr	r3, [r7, #4]
 6122 036c 1B68     		ldr	r3, [r3]
 6123 036e 9A68     		ldr	r2, [r3, #8]
 6124 0370 7B68     		ldr	r3, [r7, #4]
 6125 0372 1B68     		ldr	r3, [r3]
 6126 0374 0121     		movs	r1, #1
 6127 0376 8A43     		bics	r2, r1
 6128 0378 9A60     		str	r2, [r3, #8]
 6129 037a 7B6F     		ldr	r3, [r7, #116]
 6130 037c 7B64     		str	r3, [r7, #68]
 6131              	.LBB836:
 6132              	.LBB837:
 414:Drivers/CMSIS/Include/cmsis_gcc.h **** }
 6133              		.loc 2 414 3
 6134 037e 7B6C     		ldr	r3, [r7, #68]
 6135              		.syntax divided
 6136              	@ 414 "Drivers/CMSIS/Include/cmsis_gcc.h" 1
 6137 0380 83F31088 		MSR primask, r3
 6138              	@ 0 "" 2
 6139              		.loc 2 415 1
 6140              		.thumb
 6141              		.syntax unified
 6142 0384 C046     		nop
 6143              	.LBE837:
 6144              	.LBE836:
 6145              	.LBE831:
 6146              	.LBB838:
 6147              	.LBB839:
 6148              	.LBB840:
 386:Drivers/CMSIS/Include/cmsis_gcc.h ****   return(result);
 6149              		.loc 2 386 3
 6150              		.syntax divided
 6151              	@ 386 "Drivers/CMSIS/Include/cmsis_gcc.h" 1
 6152 0386 EFF31083 		MRS r3, primask
 6153              	@ 0 "" 2
 6154              		.thumb
 6155              		.syntax unified
 6156 038a BB64     		str	r3, [r7, #72]
 387:Drivers/CMSIS/Include/cmsis_gcc.h **** }
 6157              		.loc 2 387 9
 6158 038c BB6C     		ldr	r3, [r7, #72]
 6159              	.LBE840:
 6160              	.LBE839:
2425:Drivers/STM32L0xx_HAL_Driver/Src/stm32l0xx_hal_uart.c **** 
ARM GAS  C:\Users\lidka\AppData\Local\Temp\ccqOATUZ.s 			page 161


2426:Drivers/STM32L0xx_HAL_Driver/Src/stm32l0xx_hal_uart.c ****           /* Disable the DMA transfer for the receiver request by resetting the DMAR bit
2427:Drivers/STM32L0xx_HAL_Driver/Src/stm32l0xx_hal_uart.c ****              in the UART CR3 register */
2428:Drivers/STM32L0xx_HAL_Driver/Src/stm32l0xx_hal_uart.c ****           ATOMIC_CLEAR_BIT(huart->Instance->CR3, USART_CR3_DMAR);
 6161              		.loc 1 2428 11
 6162 038e 3B67     		str	r3, [r7, #112]
 6163 0390 0123     		movs	r3, #1
 6164 0392 FB64     		str	r3, [r7, #76]
 6165              	.LBB841:
 6166              	.LBB842:
 414:Drivers/CMSIS/Include/cmsis_gcc.h **** }
 6167              		.loc 2 414 3
 6168 0394 FB6C     		ldr	r3, [r7, #76]
 6169              		.syntax divided
 6170              	@ 414 "Drivers/CMSIS/Include/cmsis_gcc.h" 1
 6171 0396 83F31088 		MSR primask, r3
 6172              	@ 0 "" 2
 6173              		.loc 2 415 1
 6174              		.thumb
 6175              		.syntax unified
 6176 039a C046     		nop
 6177              	.LBE842:
 6178              	.LBE841:
 6179              		.loc 1 2428 11
 6180 039c 7B68     		ldr	r3, [r7, #4]
 6181 039e 1B68     		ldr	r3, [r3]
 6182 03a0 9A68     		ldr	r2, [r3, #8]
 6183 03a2 7B68     		ldr	r3, [r7, #4]
 6184 03a4 1B68     		ldr	r3, [r3]
 6185 03a6 4021     		movs	r1, #64
 6186 03a8 8A43     		bics	r2, r1
 6187 03aa 9A60     		str	r2, [r3, #8]
 6188 03ac 3B6F     		ldr	r3, [r7, #112]
 6189 03ae 3B65     		str	r3, [r7, #80]
 6190              	.LBB843:
 6191              	.LBB844:
 414:Drivers/CMSIS/Include/cmsis_gcc.h **** }
 6192              		.loc 2 414 3
 6193 03b0 3B6D     		ldr	r3, [r7, #80]
 6194              		.syntax divided
 6195              	@ 414 "Drivers/CMSIS/Include/cmsis_gcc.h" 1
 6196 03b2 83F31088 		MSR primask, r3
 6197              	@ 0 "" 2
 6198              		.loc 2 415 1
 6199              		.thumb
 6200              		.syntax unified
 6201 03b6 C046     		nop
 6202              	.LBE844:
 6203              	.LBE843:
 6204              	.LBE838:
2429:Drivers/STM32L0xx_HAL_Driver/Src/stm32l0xx_hal_uart.c **** 
2430:Drivers/STM32L0xx_HAL_Driver/Src/stm32l0xx_hal_uart.c ****           /* At end of Rx process, restore huart->RxState to Ready */
2431:Drivers/STM32L0xx_HAL_Driver/Src/stm32l0xx_hal_uart.c ****           huart->RxState = HAL_UART_STATE_READY;
 6205              		.loc 1 2431 26
 6206 03b8 7B68     		ldr	r3, [r7, #4]
 6207 03ba 2022     		movs	r2, #32
 6208 03bc DA67     		str	r2, [r3, #124]
2432:Drivers/STM32L0xx_HAL_Driver/Src/stm32l0xx_hal_uart.c ****           huart->ReceptionType = HAL_UART_RECEPTION_STANDARD;
ARM GAS  C:\Users\lidka\AppData\Local\Temp\ccqOATUZ.s 			page 162


 6209              		.loc 1 2432 32
 6210 03be 7B68     		ldr	r3, [r7, #4]
 6211 03c0 0022     		movs	r2, #0
 6212 03c2 1A66     		str	r2, [r3, #96]
 6213              	.LBB845:
 6214              	.LBB846:
 6215              	.LBB847:
 386:Drivers/CMSIS/Include/cmsis_gcc.h ****   return(result);
 6216              		.loc 2 386 3
 6217              		.syntax divided
 6218              	@ 386 "Drivers/CMSIS/Include/cmsis_gcc.h" 1
 6219 03c4 EFF31083 		MRS r3, primask
 6220              	@ 0 "" 2
 6221              		.thumb
 6222              		.syntax unified
 6223 03c8 7B65     		str	r3, [r7, #84]
 387:Drivers/CMSIS/Include/cmsis_gcc.h **** }
 6224              		.loc 2 387 9
 6225 03ca 7B6D     		ldr	r3, [r7, #84]
 6226              	.LBE847:
 6227              	.LBE846:
2433:Drivers/STM32L0xx_HAL_Driver/Src/stm32l0xx_hal_uart.c **** 
2434:Drivers/STM32L0xx_HAL_Driver/Src/stm32l0xx_hal_uart.c ****           ATOMIC_CLEAR_BIT(huart->Instance->CR1, USART_CR1_IDLEIE);
 6228              		.loc 1 2434 11
 6229 03cc FB66     		str	r3, [r7, #108]
 6230 03ce 0123     		movs	r3, #1
 6231 03d0 BB65     		str	r3, [r7, #88]
 6232              	.LBB848:
 6233              	.LBB849:
 414:Drivers/CMSIS/Include/cmsis_gcc.h **** }
 6234              		.loc 2 414 3
 6235 03d2 BB6D     		ldr	r3, [r7, #88]
 6236              		.syntax divided
 6237              	@ 414 "Drivers/CMSIS/Include/cmsis_gcc.h" 1
 6238 03d4 83F31088 		MSR primask, r3
 6239              	@ 0 "" 2
 6240              		.loc 2 415 1
 6241              		.thumb
 6242              		.syntax unified
 6243 03d8 C046     		nop
 6244              	.LBE849:
 6245              	.LBE848:
 6246              		.loc 1 2434 11
 6247 03da 7B68     		ldr	r3, [r7, #4]
 6248 03dc 1B68     		ldr	r3, [r3]
 6249 03de 1A68     		ldr	r2, [r3]
 6250 03e0 7B68     		ldr	r3, [r7, #4]
 6251 03e2 1B68     		ldr	r3, [r3]
 6252 03e4 1021     		movs	r1, #16
 6253 03e6 8A43     		bics	r2, r1
 6254 03e8 1A60     		str	r2, [r3]
 6255 03ea FB6E     		ldr	r3, [r7, #108]
 6256 03ec FB65     		str	r3, [r7, #92]
 6257              	.LBB850:
 6258              	.LBB851:
 414:Drivers/CMSIS/Include/cmsis_gcc.h **** }
 6259              		.loc 2 414 3
ARM GAS  C:\Users\lidka\AppData\Local\Temp\ccqOATUZ.s 			page 163


 6260 03ee FB6D     		ldr	r3, [r7, #92]
 6261              		.syntax divided
 6262              	@ 414 "Drivers/CMSIS/Include/cmsis_gcc.h" 1
 6263 03f0 83F31088 		MSR primask, r3
 6264              	@ 0 "" 2
 6265              		.loc 2 415 1
 6266              		.thumb
 6267              		.syntax unified
 6268 03f4 C046     		nop
 6269              	.LBE851:
 6270              	.LBE850:
 6271              	.LBE845:
2435:Drivers/STM32L0xx_HAL_Driver/Src/stm32l0xx_hal_uart.c **** 
2436:Drivers/STM32L0xx_HAL_Driver/Src/stm32l0xx_hal_uart.c ****           /* Last bytes received, so no need as the abort is immediate */
2437:Drivers/STM32L0xx_HAL_Driver/Src/stm32l0xx_hal_uart.c ****           (void)HAL_DMA_Abort(huart->hdmarx);
 6272              		.loc 1 2437 17
 6273 03f6 7B68     		ldr	r3, [r7, #4]
 6274 03f8 1B6F     		ldr	r3, [r3, #112]
 6275 03fa 1800     		movs	r0, r3
 6276 03fc FFF7FEFF 		bl	HAL_DMA_Abort
 6277              	.L242:
2438:Drivers/STM32L0xx_HAL_Driver/Src/stm32l0xx_hal_uart.c ****         }
2439:Drivers/STM32L0xx_HAL_Driver/Src/stm32l0xx_hal_uart.c **** #if (USE_HAL_UART_REGISTER_CALLBACKS == 1)
2440:Drivers/STM32L0xx_HAL_Driver/Src/stm32l0xx_hal_uart.c ****         /*Call registered Rx Event callback*/
2441:Drivers/STM32L0xx_HAL_Driver/Src/stm32l0xx_hal_uart.c ****         huart->RxEventCallback(huart, (huart->RxXferSize - huart->RxXferCount));
2442:Drivers/STM32L0xx_HAL_Driver/Src/stm32l0xx_hal_uart.c **** #else
2443:Drivers/STM32L0xx_HAL_Driver/Src/stm32l0xx_hal_uart.c ****         /*Call legacy weak Rx Event callback*/
2444:Drivers/STM32L0xx_HAL_Driver/Src/stm32l0xx_hal_uart.c ****         HAL_UARTEx_RxEventCallback(huart, (huart->RxXferSize - huart->RxXferCount));
 6278              		.loc 1 2444 49
 6279 0400 7B68     		ldr	r3, [r7, #4]
 6280 0402 5822     		movs	r2, #88
 6281 0404 9A5A     		ldrh	r2, [r3, r2]
 6282              		.loc 1 2444 69
 6283 0406 7B68     		ldr	r3, [r7, #4]
 6284 0408 5A21     		movs	r1, #90
 6285 040a 5B5A     		ldrh	r3, [r3, r1]
 6286 040c 9BB2     		uxth	r3, r3
 6287              		.loc 1 2444 9
 6288 040e D31A     		subs	r3, r2, r3
 6289 0410 9AB2     		uxth	r2, r3
 6290 0412 7B68     		ldr	r3, [r7, #4]
 6291 0414 1100     		movs	r1, r2
 6292 0416 1800     		movs	r0, r3
 6293 0418 FFF7FEFF 		bl	HAL_UARTEx_RxEventCallback
2445:Drivers/STM32L0xx_HAL_Driver/Src/stm32l0xx_hal_uart.c **** #endif /* (USE_HAL_UART_REGISTER_CALLBACKS) */
2446:Drivers/STM32L0xx_HAL_Driver/Src/stm32l0xx_hal_uart.c ****       }
2447:Drivers/STM32L0xx_HAL_Driver/Src/stm32l0xx_hal_uart.c ****       return;
 6294              		.loc 1 2447 7
 6295 041c BEE0     		b	.L257
 6296              	.L240:
 6297              	.LBE823:
 6298              	.LBB852:
2448:Drivers/STM32L0xx_HAL_Driver/Src/stm32l0xx_hal_uart.c ****     }
2449:Drivers/STM32L0xx_HAL_Driver/Src/stm32l0xx_hal_uart.c ****     else
2450:Drivers/STM32L0xx_HAL_Driver/Src/stm32l0xx_hal_uart.c ****     {
2451:Drivers/STM32L0xx_HAL_Driver/Src/stm32l0xx_hal_uart.c ****       /* DMA mode not enabled */
2452:Drivers/STM32L0xx_HAL_Driver/Src/stm32l0xx_hal_uart.c ****       /* Check received length : If all expected data are received, do nothing.
ARM GAS  C:\Users\lidka\AppData\Local\Temp\ccqOATUZ.s 			page 164


2453:Drivers/STM32L0xx_HAL_Driver/Src/stm32l0xx_hal_uart.c ****          Otherwise, if at least one data has already been received, IDLE event is to be notified to
2454:Drivers/STM32L0xx_HAL_Driver/Src/stm32l0xx_hal_uart.c ****       uint16_t nb_rx_data = huart->RxXferSize - huart->RxXferCount;
 6299              		.loc 1 2454 34
 6300 041e 7B68     		ldr	r3, [r7, #4]
 6301 0420 5822     		movs	r2, #88
 6302 0422 995A     		ldrh	r1, [r3, r2]
 6303              		.loc 1 2454 54
 6304 0424 7B68     		ldr	r3, [r7, #4]
 6305 0426 5A22     		movs	r2, #90
 6306 0428 9B5A     		ldrh	r3, [r3, r2]
 6307 042a 9AB2     		uxth	r2, r3
 6308              		.loc 1 2454 16
 6309 042c 8E20     		movs	r0, #142
 6310 042e 3B18     		adds	r3, r7, r0
 6311 0430 8A1A     		subs	r2, r1, r2
 6312 0432 1A80     		strh	r2, [r3]
2455:Drivers/STM32L0xx_HAL_Driver/Src/stm32l0xx_hal_uart.c ****       if ((huart->RxXferCount > 0U)
 6313              		.loc 1 2455 17
 6314 0434 7B68     		ldr	r3, [r7, #4]
 6315 0436 5A22     		movs	r2, #90
 6316 0438 9B5A     		ldrh	r3, [r3, r2]
 6317 043a 9BB2     		uxth	r3, r3
 6318              		.loc 1 2455 10
 6319 043c 002B     		cmp	r3, #0
 6320 043e 00D1     		bne	.LCB4771
 6321 0440 AEE0     		b	.L258	@long jump
 6322              	.LCB4771:
2456:Drivers/STM32L0xx_HAL_Driver/Src/stm32l0xx_hal_uart.c ****           && (nb_rx_data > 0U))
 6323              		.loc 1 2456 11
 6324 0442 3B18     		adds	r3, r7, r0
 6325 0444 1B88     		ldrh	r3, [r3]
 6326 0446 002B     		cmp	r3, #0
 6327 0448 00D1     		bne	.LCB4776
 6328 044a A9E0     		b	.L258	@long jump
 6329              	.LCB4776:
 6330              	.LBB853:
 6331              	.LBB854:
 6332              	.LBB855:
 386:Drivers/CMSIS/Include/cmsis_gcc.h ****   return(result);
 6333              		.loc 2 386 3
 6334              		.syntax divided
 6335              	@ 386 "Drivers/CMSIS/Include/cmsis_gcc.h" 1
 6336 044c EFF31083 		MRS r3, primask
 6337              	@ 0 "" 2
 6338              		.thumb
 6339              		.syntax unified
 6340 0450 FB60     		str	r3, [r7, #12]
 387:Drivers/CMSIS/Include/cmsis_gcc.h **** }
 6341              		.loc 2 387 9
 6342 0452 FB68     		ldr	r3, [r7, #12]
 6343              	.LBE855:
 6344              	.LBE854:
2457:Drivers/STM32L0xx_HAL_Driver/Src/stm32l0xx_hal_uart.c ****       {
2458:Drivers/STM32L0xx_HAL_Driver/Src/stm32l0xx_hal_uart.c ****         /* Disable the UART Parity Error Interrupt and RXNE interrupts */
2459:Drivers/STM32L0xx_HAL_Driver/Src/stm32l0xx_hal_uart.c ****         ATOMIC_CLEAR_BIT(huart->Instance->CR1, (USART_CR1_RXNEIE | USART_CR1_PEIE));
 6345              		.loc 1 2459 9
 6346 0454 8824     		movs	r4, #136
ARM GAS  C:\Users\lidka\AppData\Local\Temp\ccqOATUZ.s 			page 165


 6347 0456 3A19     		adds	r2, r7, r4
 6348 0458 1360     		str	r3, [r2]
 6349 045a 0123     		movs	r3, #1
 6350 045c 3B61     		str	r3, [r7, #16]
 6351              	.LBB856:
 6352              	.LBB857:
 414:Drivers/CMSIS/Include/cmsis_gcc.h **** }
 6353              		.loc 2 414 3
 6354 045e 3B69     		ldr	r3, [r7, #16]
 6355              		.syntax divided
 6356              	@ 414 "Drivers/CMSIS/Include/cmsis_gcc.h" 1
 6357 0460 83F31088 		MSR primask, r3
 6358              	@ 0 "" 2
 6359              		.loc 2 415 1
 6360              		.thumb
 6361              		.syntax unified
 6362 0464 C046     		nop
 6363              	.LBE857:
 6364              	.LBE856:
 6365              		.loc 1 2459 9
 6366 0466 7B68     		ldr	r3, [r7, #4]
 6367 0468 1B68     		ldr	r3, [r3]
 6368 046a 1A68     		ldr	r2, [r3]
 6369 046c 7B68     		ldr	r3, [r7, #4]
 6370 046e 1B68     		ldr	r3, [r3]
 6371 0470 4F49     		ldr	r1, .L262+4
 6372 0472 0A40     		ands	r2, r1
 6373 0474 1A60     		str	r2, [r3]
 6374 0476 3B19     		adds	r3, r7, r4
 6375 0478 1B68     		ldr	r3, [r3]
 6376 047a 7B61     		str	r3, [r7, #20]
 6377              	.LBB858:
 6378              	.LBB859:
 414:Drivers/CMSIS/Include/cmsis_gcc.h **** }
 6379              		.loc 2 414 3
 6380 047c 7B69     		ldr	r3, [r7, #20]
 6381              		.syntax divided
 6382              	@ 414 "Drivers/CMSIS/Include/cmsis_gcc.h" 1
 6383 047e 83F31088 		MSR primask, r3
 6384              	@ 0 "" 2
 6385              		.loc 2 415 1
 6386              		.thumb
 6387              		.syntax unified
 6388 0482 C046     		nop
 6389              	.LBE859:
 6390              	.LBE858:
 6391              	.LBE853:
 6392              	.LBB860:
 6393              	.LBB861:
 6394              	.LBB862:
 386:Drivers/CMSIS/Include/cmsis_gcc.h ****   return(result);
 6395              		.loc 2 386 3
 6396              		.syntax divided
 6397              	@ 386 "Drivers/CMSIS/Include/cmsis_gcc.h" 1
 6398 0484 EFF31083 		MRS r3, primask
 6399              	@ 0 "" 2
 6400              		.thumb
ARM GAS  C:\Users\lidka\AppData\Local\Temp\ccqOATUZ.s 			page 166


 6401              		.syntax unified
 6402 0488 BB61     		str	r3, [r7, #24]
 387:Drivers/CMSIS/Include/cmsis_gcc.h **** }
 6403              		.loc 2 387 9
 6404 048a BB69     		ldr	r3, [r7, #24]
 6405              	.LBE862:
 6406              	.LBE861:
2460:Drivers/STM32L0xx_HAL_Driver/Src/stm32l0xx_hal_uart.c **** 
2461:Drivers/STM32L0xx_HAL_Driver/Src/stm32l0xx_hal_uart.c ****         /* Disable the UART Error Interrupt: (Frame error, noise error, overrun error) */
2462:Drivers/STM32L0xx_HAL_Driver/Src/stm32l0xx_hal_uart.c ****         ATOMIC_CLEAR_BIT(huart->Instance->CR3, USART_CR3_EIE);
 6407              		.loc 1 2462 9
 6408 048c 8424     		movs	r4, #132
 6409 048e 3A19     		adds	r2, r7, r4
 6410 0490 1360     		str	r3, [r2]
 6411 0492 0123     		movs	r3, #1
 6412 0494 FB61     		str	r3, [r7, #28]
 6413              	.LBB863:
 6414              	.LBB864:
 414:Drivers/CMSIS/Include/cmsis_gcc.h **** }
 6415              		.loc 2 414 3
 6416 0496 FB69     		ldr	r3, [r7, #28]
 6417              		.syntax divided
 6418              	@ 414 "Drivers/CMSIS/Include/cmsis_gcc.h" 1
 6419 0498 83F31088 		MSR primask, r3
 6420              	@ 0 "" 2
 6421              		.loc 2 415 1
 6422              		.thumb
 6423              		.syntax unified
 6424 049c C046     		nop
 6425              	.LBE864:
 6426              	.LBE863:
 6427              		.loc 1 2462 9
 6428 049e 7B68     		ldr	r3, [r7, #4]
 6429 04a0 1B68     		ldr	r3, [r3]
 6430 04a2 9A68     		ldr	r2, [r3, #8]
 6431 04a4 7B68     		ldr	r3, [r7, #4]
 6432 04a6 1B68     		ldr	r3, [r3]
 6433 04a8 0121     		movs	r1, #1
 6434 04aa 8A43     		bics	r2, r1
 6435 04ac 9A60     		str	r2, [r3, #8]
 6436 04ae 3B19     		adds	r3, r7, r4
 6437 04b0 1B68     		ldr	r3, [r3]
 6438 04b2 3B62     		str	r3, [r7, #32]
 6439              	.LBB865:
 6440              	.LBB866:
 414:Drivers/CMSIS/Include/cmsis_gcc.h **** }
 6441              		.loc 2 414 3
 6442 04b4 3B6A     		ldr	r3, [r7, #32]
 6443              		.syntax divided
 6444              	@ 414 "Drivers/CMSIS/Include/cmsis_gcc.h" 1
 6445 04b6 83F31088 		MSR primask, r3
 6446              	@ 0 "" 2
 6447              		.loc 2 415 1
 6448              		.thumb
 6449              		.syntax unified
 6450 04ba C046     		nop
 6451              	.LBE866:
ARM GAS  C:\Users\lidka\AppData\Local\Temp\ccqOATUZ.s 			page 167


 6452              	.LBE865:
 6453              	.LBE860:
2463:Drivers/STM32L0xx_HAL_Driver/Src/stm32l0xx_hal_uart.c **** 
2464:Drivers/STM32L0xx_HAL_Driver/Src/stm32l0xx_hal_uart.c ****         /* Rx process is completed, restore huart->RxState to Ready */
2465:Drivers/STM32L0xx_HAL_Driver/Src/stm32l0xx_hal_uart.c ****         huart->RxState = HAL_UART_STATE_READY;
 6454              		.loc 1 2465 24
 6455 04bc 7B68     		ldr	r3, [r7, #4]
 6456 04be 2022     		movs	r2, #32
 6457 04c0 DA67     		str	r2, [r3, #124]
2466:Drivers/STM32L0xx_HAL_Driver/Src/stm32l0xx_hal_uart.c ****         huart->ReceptionType = HAL_UART_RECEPTION_STANDARD;
 6458              		.loc 1 2466 30
 6459 04c2 7B68     		ldr	r3, [r7, #4]
 6460 04c4 0022     		movs	r2, #0
 6461 04c6 1A66     		str	r2, [r3, #96]
2467:Drivers/STM32L0xx_HAL_Driver/Src/stm32l0xx_hal_uart.c **** 
2468:Drivers/STM32L0xx_HAL_Driver/Src/stm32l0xx_hal_uart.c ****         /* Clear RxISR function pointer */
2469:Drivers/STM32L0xx_HAL_Driver/Src/stm32l0xx_hal_uart.c ****         huart->RxISR = NULL;
 6462              		.loc 1 2469 22
 6463 04c8 7B68     		ldr	r3, [r7, #4]
 6464 04ca 0022     		movs	r2, #0
 6465 04cc 5A66     		str	r2, [r3, #100]
 6466              	.LBB867:
 6467              	.LBB868:
 6468              	.LBB869:
 386:Drivers/CMSIS/Include/cmsis_gcc.h ****   return(result);
 6469              		.loc 2 386 3
 6470              		.syntax divided
 6471              	@ 386 "Drivers/CMSIS/Include/cmsis_gcc.h" 1
 6472 04ce EFF31083 		MRS r3, primask
 6473              	@ 0 "" 2
 6474              		.thumb
 6475              		.syntax unified
 6476 04d2 7B62     		str	r3, [r7, #36]
 387:Drivers/CMSIS/Include/cmsis_gcc.h **** }
 6477              		.loc 2 387 9
 6478 04d4 7B6A     		ldr	r3, [r7, #36]
 6479              	.LBE869:
 6480              	.LBE868:
2470:Drivers/STM32L0xx_HAL_Driver/Src/stm32l0xx_hal_uart.c **** 
2471:Drivers/STM32L0xx_HAL_Driver/Src/stm32l0xx_hal_uart.c ****         ATOMIC_CLEAR_BIT(huart->Instance->CR1, USART_CR1_IDLEIE);
 6481              		.loc 1 2471 9
 6482 04d6 8024     		movs	r4, #128
 6483 04d8 3A19     		adds	r2, r7, r4
 6484 04da 1360     		str	r3, [r2]
 6485 04dc 0123     		movs	r3, #1
 6486 04de BB62     		str	r3, [r7, #40]
 6487              	.LBB870:
 6488              	.LBB871:
 414:Drivers/CMSIS/Include/cmsis_gcc.h **** }
 6489              		.loc 2 414 3
 6490 04e0 BB6A     		ldr	r3, [r7, #40]
 6491              		.syntax divided
 6492              	@ 414 "Drivers/CMSIS/Include/cmsis_gcc.h" 1
 6493 04e2 83F31088 		MSR primask, r3
 6494              	@ 0 "" 2
 6495              		.loc 2 415 1
 6496              		.thumb
ARM GAS  C:\Users\lidka\AppData\Local\Temp\ccqOATUZ.s 			page 168


 6497              		.syntax unified
 6498 04e6 C046     		nop
 6499              	.LBE871:
 6500              	.LBE870:
 6501              		.loc 1 2471 9
 6502 04e8 7B68     		ldr	r3, [r7, #4]
 6503 04ea 1B68     		ldr	r3, [r3]
 6504 04ec 1A68     		ldr	r2, [r3]
 6505 04ee 7B68     		ldr	r3, [r7, #4]
 6506 04f0 1B68     		ldr	r3, [r3]
 6507 04f2 1021     		movs	r1, #16
 6508 04f4 8A43     		bics	r2, r1
 6509 04f6 1A60     		str	r2, [r3]
 6510 04f8 3B19     		adds	r3, r7, r4
 6511 04fa 1B68     		ldr	r3, [r3]
 6512 04fc FB62     		str	r3, [r7, #44]
 6513              	.LBB872:
 6514              	.LBB873:
 414:Drivers/CMSIS/Include/cmsis_gcc.h **** }
 6515              		.loc 2 414 3
 6516 04fe FB6A     		ldr	r3, [r7, #44]
 6517              		.syntax divided
 6518              	@ 414 "Drivers/CMSIS/Include/cmsis_gcc.h" 1
 6519 0500 83F31088 		MSR primask, r3
 6520              	@ 0 "" 2
 6521              		.loc 2 415 1
 6522              		.thumb
 6523              		.syntax unified
 6524 0504 C046     		nop
 6525              	.LBE873:
 6526              	.LBE872:
 6527              	.LBE867:
2472:Drivers/STM32L0xx_HAL_Driver/Src/stm32l0xx_hal_uart.c **** #if (USE_HAL_UART_REGISTER_CALLBACKS == 1)
2473:Drivers/STM32L0xx_HAL_Driver/Src/stm32l0xx_hal_uart.c ****         /*Call registered Rx complete callback*/
2474:Drivers/STM32L0xx_HAL_Driver/Src/stm32l0xx_hal_uart.c ****         huart->RxEventCallback(huart, nb_rx_data);
2475:Drivers/STM32L0xx_HAL_Driver/Src/stm32l0xx_hal_uart.c **** #else
2476:Drivers/STM32L0xx_HAL_Driver/Src/stm32l0xx_hal_uart.c ****         /*Call legacy weak Rx Event callback*/
2477:Drivers/STM32L0xx_HAL_Driver/Src/stm32l0xx_hal_uart.c ****         HAL_UARTEx_RxEventCallback(huart, nb_rx_data);
 6528              		.loc 1 2477 9
 6529 0506 3B18     		adds	r3, r7, r0
 6530 0508 1A88     		ldrh	r2, [r3]
 6531 050a 7B68     		ldr	r3, [r7, #4]
 6532 050c 1100     		movs	r1, r2
 6533 050e 1800     		movs	r0, r3
 6534 0510 FFF7FEFF 		bl	HAL_UARTEx_RxEventCallback
2478:Drivers/STM32L0xx_HAL_Driver/Src/stm32l0xx_hal_uart.c **** #endif /* (USE_HAL_UART_REGISTER_CALLBACKS) */
2479:Drivers/STM32L0xx_HAL_Driver/Src/stm32l0xx_hal_uart.c ****       }
2480:Drivers/STM32L0xx_HAL_Driver/Src/stm32l0xx_hal_uart.c ****       return;
 6535              		.loc 1 2480 7
 6536 0514 44E0     		b	.L258
 6537              	.L239:
 6538              	.LBE852:
2481:Drivers/STM32L0xx_HAL_Driver/Src/stm32l0xx_hal_uart.c ****     }
2482:Drivers/STM32L0xx_HAL_Driver/Src/stm32l0xx_hal_uart.c ****   }
2483:Drivers/STM32L0xx_HAL_Driver/Src/stm32l0xx_hal_uart.c **** 
2484:Drivers/STM32L0xx_HAL_Driver/Src/stm32l0xx_hal_uart.c ****   /* UART wakeup from Stop mode interrupt occurred ---------------------------*/
2485:Drivers/STM32L0xx_HAL_Driver/Src/stm32l0xx_hal_uart.c ****   if (((isrflags & USART_ISR_WUF) != 0U) && ((cr3its & USART_CR3_WUFIE) != 0U))
ARM GAS  C:\Users\lidka\AppData\Local\Temp\ccqOATUZ.s 			page 169


 6539              		.loc 1 2485 18
 6540 0516 A423     		movs	r3, #164
 6541 0518 FB18     		adds	r3, r7, r3
 6542 051a 1A68     		ldr	r2, [r3]
 6543 051c 8023     		movs	r3, #128
 6544 051e 5B03     		lsls	r3, r3, #13
 6545 0520 1340     		ands	r3, r2
 6546              		.loc 1 2485 6
 6547 0522 10D0     		beq	.L251
 6548              		.loc 1 2485 54 discriminator 1
 6549 0524 9C23     		movs	r3, #156
 6550 0526 FB18     		adds	r3, r7, r3
 6551 0528 1A68     		ldr	r2, [r3]
 6552 052a 8023     		movs	r3, #128
 6553 052c DB03     		lsls	r3, r3, #15
 6554 052e 1340     		ands	r3, r2
 6555              		.loc 1 2485 42 discriminator 1
 6556 0530 09D0     		beq	.L251
2486:Drivers/STM32L0xx_HAL_Driver/Src/stm32l0xx_hal_uart.c ****   {
2487:Drivers/STM32L0xx_HAL_Driver/Src/stm32l0xx_hal_uart.c ****     __HAL_UART_CLEAR_FLAG(huart, UART_CLEAR_WUF);
 6557              		.loc 1 2487 5
 6558 0532 7B68     		ldr	r3, [r7, #4]
 6559 0534 1B68     		ldr	r3, [r3]
 6560 0536 8022     		movs	r2, #128
 6561 0538 5203     		lsls	r2, r2, #13
 6562 053a 1A62     		str	r2, [r3, #32]
2488:Drivers/STM32L0xx_HAL_Driver/Src/stm32l0xx_hal_uart.c **** 
2489:Drivers/STM32L0xx_HAL_Driver/Src/stm32l0xx_hal_uart.c ****     /* UART Rx state is not reset as a reception process might be ongoing.
2490:Drivers/STM32L0xx_HAL_Driver/Src/stm32l0xx_hal_uart.c ****        If UART handle state fields need to be reset to READY, this could be done in Wakeup callback
2491:Drivers/STM32L0xx_HAL_Driver/Src/stm32l0xx_hal_uart.c **** 
2492:Drivers/STM32L0xx_HAL_Driver/Src/stm32l0xx_hal_uart.c **** #if (USE_HAL_UART_REGISTER_CALLBACKS == 1)
2493:Drivers/STM32L0xx_HAL_Driver/Src/stm32l0xx_hal_uart.c ****     /* Call registered Wakeup Callback */
2494:Drivers/STM32L0xx_HAL_Driver/Src/stm32l0xx_hal_uart.c ****     huart->WakeupCallback(huart);
2495:Drivers/STM32L0xx_HAL_Driver/Src/stm32l0xx_hal_uart.c **** #else
2496:Drivers/STM32L0xx_HAL_Driver/Src/stm32l0xx_hal_uart.c ****     /* Call legacy weak Wakeup Callback */
2497:Drivers/STM32L0xx_HAL_Driver/Src/stm32l0xx_hal_uart.c ****     HAL_UARTEx_WakeupCallback(huart);
 6563              		.loc 1 2497 5
 6564 053c 7B68     		ldr	r3, [r7, #4]
 6565 053e 1800     		movs	r0, r3
 6566 0540 FFF7FEFF 		bl	HAL_UARTEx_WakeupCallback
2498:Drivers/STM32L0xx_HAL_Driver/Src/stm32l0xx_hal_uart.c **** #endif /* USE_HAL_UART_REGISTER_CALLBACKS */
2499:Drivers/STM32L0xx_HAL_Driver/Src/stm32l0xx_hal_uart.c ****     return;
 6567              		.loc 1 2499 5
 6568 0544 2FE0     		b	.L219
 6569              	.L251:
2500:Drivers/STM32L0xx_HAL_Driver/Src/stm32l0xx_hal_uart.c ****   }
2501:Drivers/STM32L0xx_HAL_Driver/Src/stm32l0xx_hal_uart.c **** 
2502:Drivers/STM32L0xx_HAL_Driver/Src/stm32l0xx_hal_uart.c ****   /* UART in mode Transmitter ------------------------------------------------*/
2503:Drivers/STM32L0xx_HAL_Driver/Src/stm32l0xx_hal_uart.c ****   if (((isrflags & USART_ISR_TXE) != 0U)
 6570              		.loc 1 2503 18
 6571 0546 A423     		movs	r3, #164
 6572 0548 FB18     		adds	r3, r7, r3
 6573 054a 1B68     		ldr	r3, [r3]
 6574 054c 8022     		movs	r2, #128
 6575 054e 1340     		ands	r3, r2
 6576              		.loc 1 2503 6
 6577 0550 0FD0     		beq	.L252
ARM GAS  C:\Users\lidka\AppData\Local\Temp\ccqOATUZ.s 			page 170


2504:Drivers/STM32L0xx_HAL_Driver/Src/stm32l0xx_hal_uart.c ****       && ((cr1its & USART_CR1_TXEIE) != 0U))
 6578              		.loc 1 2504 19
 6579 0552 A023     		movs	r3, #160
 6580 0554 FB18     		adds	r3, r7, r3
 6581 0556 1B68     		ldr	r3, [r3]
 6582 0558 8022     		movs	r2, #128
 6583 055a 1340     		ands	r3, r2
 6584              		.loc 1 2504 7
 6585 055c 09D0     		beq	.L252
2505:Drivers/STM32L0xx_HAL_Driver/Src/stm32l0xx_hal_uart.c ****   {
2506:Drivers/STM32L0xx_HAL_Driver/Src/stm32l0xx_hal_uart.c ****     if (huart->TxISR != NULL)
 6586              		.loc 1 2506 14
 6587 055e 7B68     		ldr	r3, [r7, #4]
 6588 0560 9B6E     		ldr	r3, [r3, #104]
 6589              		.loc 1 2506 8
 6590 0562 002B     		cmp	r3, #0
 6591 0564 1ED0     		beq	.L259
2507:Drivers/STM32L0xx_HAL_Driver/Src/stm32l0xx_hal_uart.c ****     {
2508:Drivers/STM32L0xx_HAL_Driver/Src/stm32l0xx_hal_uart.c ****       huart->TxISR(huart);
 6592              		.loc 1 2508 12
 6593 0566 7B68     		ldr	r3, [r7, #4]
 6594 0568 9B6E     		ldr	r3, [r3, #104]
 6595              		.loc 1 2508 7
 6596 056a 7A68     		ldr	r2, [r7, #4]
 6597 056c 1000     		movs	r0, r2
 6598 056e 9847     		blx	r3
 6599              	.LVL5:
2509:Drivers/STM32L0xx_HAL_Driver/Src/stm32l0xx_hal_uart.c ****     }
2510:Drivers/STM32L0xx_HAL_Driver/Src/stm32l0xx_hal_uart.c ****     return;
 6600              		.loc 1 2510 5
 6601 0570 18E0     		b	.L259
 6602              	.L252:
2511:Drivers/STM32L0xx_HAL_Driver/Src/stm32l0xx_hal_uart.c ****   }
2512:Drivers/STM32L0xx_HAL_Driver/Src/stm32l0xx_hal_uart.c **** 
2513:Drivers/STM32L0xx_HAL_Driver/Src/stm32l0xx_hal_uart.c ****   /* UART in mode Transmitter (transmission end) -----------------------------*/
2514:Drivers/STM32L0xx_HAL_Driver/Src/stm32l0xx_hal_uart.c ****   if (((isrflags & USART_ISR_TC) != 0U) && ((cr1its & USART_CR1_TCIE) != 0U))
 6603              		.loc 1 2514 18
 6604 0572 A423     		movs	r3, #164
 6605 0574 FB18     		adds	r3, r7, r3
 6606 0576 1B68     		ldr	r3, [r3]
 6607 0578 4022     		movs	r2, #64
 6608 057a 1340     		ands	r3, r2
 6609              		.loc 1 2514 6
 6610 057c 13D0     		beq	.L219
 6611              		.loc 1 2514 53 discriminator 1
 6612 057e A023     		movs	r3, #160
 6613 0580 FB18     		adds	r3, r7, r3
 6614 0582 1B68     		ldr	r3, [r3]
 6615 0584 4022     		movs	r2, #64
 6616 0586 1340     		ands	r3, r2
 6617              		.loc 1 2514 41 discriminator 1
 6618 0588 0DD0     		beq	.L219
2515:Drivers/STM32L0xx_HAL_Driver/Src/stm32l0xx_hal_uart.c ****   {
2516:Drivers/STM32L0xx_HAL_Driver/Src/stm32l0xx_hal_uart.c ****     UART_EndTransmit_IT(huart);
 6619              		.loc 1 2516 5
 6620 058a 7B68     		ldr	r3, [r7, #4]
 6621 058c 1800     		movs	r0, r3
ARM GAS  C:\Users\lidka\AppData\Local\Temp\ccqOATUZ.s 			page 171


 6622 058e FFF7FEFF 		bl	UART_EndTransmit_IT
2517:Drivers/STM32L0xx_HAL_Driver/Src/stm32l0xx_hal_uart.c ****     return;
 6623              		.loc 1 2517 5
 6624 0592 08E0     		b	.L219
 6625              	.L254:
2257:Drivers/STM32L0xx_HAL_Driver/Src/stm32l0xx_hal_uart.c ****     }
 6626              		.loc 1 2257 7
 6627 0594 C046     		nop
 6628 0596 06E0     		b	.L219
 6629              	.L255:
2393:Drivers/STM32L0xx_HAL_Driver/Src/stm32l0xx_hal_uart.c **** 
 6630              		.loc 1 2393 5
 6631 0598 C046     		nop
 6632 059a 04E0     		b	.L219
 6633              	.L257:
 6634              	.LBB874:
2447:Drivers/STM32L0xx_HAL_Driver/Src/stm32l0xx_hal_uart.c ****     }
 6635              		.loc 1 2447 7
 6636 059c C046     		nop
 6637 059e 02E0     		b	.L219
 6638              	.L258:
 6639              	.LBE874:
 6640              	.LBB875:
2480:Drivers/STM32L0xx_HAL_Driver/Src/stm32l0xx_hal_uart.c ****     }
 6641              		.loc 1 2480 7
 6642 05a0 C046     		nop
 6643 05a2 00E0     		b	.L219
 6644              	.L259:
 6645              	.LBE875:
2510:Drivers/STM32L0xx_HAL_Driver/Src/stm32l0xx_hal_uart.c ****   }
 6646              		.loc 1 2510 5
 6647 05a4 C046     		nop
 6648              	.L219:
2518:Drivers/STM32L0xx_HAL_Driver/Src/stm32l0xx_hal_uart.c ****   }
2519:Drivers/STM32L0xx_HAL_Driver/Src/stm32l0xx_hal_uart.c **** 
2520:Drivers/STM32L0xx_HAL_Driver/Src/stm32l0xx_hal_uart.c **** }
 6649              		.loc 1 2520 1
 6650 05a6 BD46     		mov	sp, r7
 6651 05a8 2BB0     		add	sp, sp, #172
 6652              		@ sp needed
 6653 05aa 90BD     		pop	{r4, r7, pc}
 6654              	.L263:
 6655              		.align	2
 6656              	.L262:
 6657 05ac FFFEFFFF 		.word	-257
 6658 05b0 DFFEFFFF 		.word	-289
 6659              		.cfi_endproc
 6660              	.LFE69:
 6662              		.section	.text.HAL_UART_TxCpltCallback,"ax",%progbits
 6663              		.align	1
 6664              		.weak	HAL_UART_TxCpltCallback
 6665              		.syntax unified
 6666              		.code	16
 6667              		.thumb_func
 6669              	HAL_UART_TxCpltCallback:
 6670              	.LFB70:
2521:Drivers/STM32L0xx_HAL_Driver/Src/stm32l0xx_hal_uart.c **** 
ARM GAS  C:\Users\lidka\AppData\Local\Temp\ccqOATUZ.s 			page 172


2522:Drivers/STM32L0xx_HAL_Driver/Src/stm32l0xx_hal_uart.c **** /**
2523:Drivers/STM32L0xx_HAL_Driver/Src/stm32l0xx_hal_uart.c ****   * @brief Tx Transfer completed callback.
2524:Drivers/STM32L0xx_HAL_Driver/Src/stm32l0xx_hal_uart.c ****   * @param huart UART handle.
2525:Drivers/STM32L0xx_HAL_Driver/Src/stm32l0xx_hal_uart.c ****   * @retval None
2526:Drivers/STM32L0xx_HAL_Driver/Src/stm32l0xx_hal_uart.c ****   */
2527:Drivers/STM32L0xx_HAL_Driver/Src/stm32l0xx_hal_uart.c **** __weak void HAL_UART_TxCpltCallback(UART_HandleTypeDef *huart)
2528:Drivers/STM32L0xx_HAL_Driver/Src/stm32l0xx_hal_uart.c **** {
 6671              		.loc 1 2528 1
 6672              		.cfi_startproc
 6673              		@ args = 0, pretend = 0, frame = 8
 6674              		@ frame_needed = 1, uses_anonymous_args = 0
 6675 0000 80B5     		push	{r7, lr}
 6676              	.LCFI69:
 6677              		.cfi_def_cfa_offset 8
 6678              		.cfi_offset 7, -8
 6679              		.cfi_offset 14, -4
 6680 0002 82B0     		sub	sp, sp, #8
 6681              	.LCFI70:
 6682              		.cfi_def_cfa_offset 16
 6683 0004 00AF     		add	r7, sp, #0
 6684              	.LCFI71:
 6685              		.cfi_def_cfa_register 7
 6686 0006 7860     		str	r0, [r7, #4]
2529:Drivers/STM32L0xx_HAL_Driver/Src/stm32l0xx_hal_uart.c ****   /* Prevent unused argument(s) compilation warning */
2530:Drivers/STM32L0xx_HAL_Driver/Src/stm32l0xx_hal_uart.c ****   UNUSED(huart);
2531:Drivers/STM32L0xx_HAL_Driver/Src/stm32l0xx_hal_uart.c **** 
2532:Drivers/STM32L0xx_HAL_Driver/Src/stm32l0xx_hal_uart.c ****   /* NOTE : This function should not be modified, when the callback is needed,
2533:Drivers/STM32L0xx_HAL_Driver/Src/stm32l0xx_hal_uart.c ****             the HAL_UART_TxCpltCallback can be implemented in the user file.
2534:Drivers/STM32L0xx_HAL_Driver/Src/stm32l0xx_hal_uart.c ****    */
2535:Drivers/STM32L0xx_HAL_Driver/Src/stm32l0xx_hal_uart.c **** }
 6687              		.loc 1 2535 1
 6688 0008 C046     		nop
 6689 000a BD46     		mov	sp, r7
 6690 000c 02B0     		add	sp, sp, #8
 6691              		@ sp needed
 6692 000e 80BD     		pop	{r7, pc}
 6693              		.cfi_endproc
 6694              	.LFE70:
 6696              		.section	.text.HAL_UART_TxHalfCpltCallback,"ax",%progbits
 6697              		.align	1
 6698              		.weak	HAL_UART_TxHalfCpltCallback
 6699              		.syntax unified
 6700              		.code	16
 6701              		.thumb_func
 6703              	HAL_UART_TxHalfCpltCallback:
 6704              	.LFB71:
2536:Drivers/STM32L0xx_HAL_Driver/Src/stm32l0xx_hal_uart.c **** 
2537:Drivers/STM32L0xx_HAL_Driver/Src/stm32l0xx_hal_uart.c **** /**
2538:Drivers/STM32L0xx_HAL_Driver/Src/stm32l0xx_hal_uart.c ****   * @brief  Tx Half Transfer completed callback.
2539:Drivers/STM32L0xx_HAL_Driver/Src/stm32l0xx_hal_uart.c ****   * @param  huart UART handle.
2540:Drivers/STM32L0xx_HAL_Driver/Src/stm32l0xx_hal_uart.c ****   * @retval None
2541:Drivers/STM32L0xx_HAL_Driver/Src/stm32l0xx_hal_uart.c ****   */
2542:Drivers/STM32L0xx_HAL_Driver/Src/stm32l0xx_hal_uart.c **** __weak void HAL_UART_TxHalfCpltCallback(UART_HandleTypeDef *huart)
2543:Drivers/STM32L0xx_HAL_Driver/Src/stm32l0xx_hal_uart.c **** {
 6705              		.loc 1 2543 1
 6706              		.cfi_startproc
 6707              		@ args = 0, pretend = 0, frame = 8
ARM GAS  C:\Users\lidka\AppData\Local\Temp\ccqOATUZ.s 			page 173


 6708              		@ frame_needed = 1, uses_anonymous_args = 0
 6709 0000 80B5     		push	{r7, lr}
 6710              	.LCFI72:
 6711              		.cfi_def_cfa_offset 8
 6712              		.cfi_offset 7, -8
 6713              		.cfi_offset 14, -4
 6714 0002 82B0     		sub	sp, sp, #8
 6715              	.LCFI73:
 6716              		.cfi_def_cfa_offset 16
 6717 0004 00AF     		add	r7, sp, #0
 6718              	.LCFI74:
 6719              		.cfi_def_cfa_register 7
 6720 0006 7860     		str	r0, [r7, #4]
2544:Drivers/STM32L0xx_HAL_Driver/Src/stm32l0xx_hal_uart.c ****   /* Prevent unused argument(s) compilation warning */
2545:Drivers/STM32L0xx_HAL_Driver/Src/stm32l0xx_hal_uart.c ****   UNUSED(huart);
2546:Drivers/STM32L0xx_HAL_Driver/Src/stm32l0xx_hal_uart.c **** 
2547:Drivers/STM32L0xx_HAL_Driver/Src/stm32l0xx_hal_uart.c ****   /* NOTE: This function should not be modified, when the callback is needed,
2548:Drivers/STM32L0xx_HAL_Driver/Src/stm32l0xx_hal_uart.c ****            the HAL_UART_TxHalfCpltCallback can be implemented in the user file.
2549:Drivers/STM32L0xx_HAL_Driver/Src/stm32l0xx_hal_uart.c ****    */
2550:Drivers/STM32L0xx_HAL_Driver/Src/stm32l0xx_hal_uart.c **** }
 6721              		.loc 1 2550 1
 6722 0008 C046     		nop
 6723 000a BD46     		mov	sp, r7
 6724 000c 02B0     		add	sp, sp, #8
 6725              		@ sp needed
 6726 000e 80BD     		pop	{r7, pc}
 6727              		.cfi_endproc
 6728              	.LFE71:
 6730              		.section	.text.HAL_UART_RxCpltCallback,"ax",%progbits
 6731              		.align	1
 6732              		.weak	HAL_UART_RxCpltCallback
 6733              		.syntax unified
 6734              		.code	16
 6735              		.thumb_func
 6737              	HAL_UART_RxCpltCallback:
 6738              	.LFB72:
2551:Drivers/STM32L0xx_HAL_Driver/Src/stm32l0xx_hal_uart.c **** 
2552:Drivers/STM32L0xx_HAL_Driver/Src/stm32l0xx_hal_uart.c **** /**
2553:Drivers/STM32L0xx_HAL_Driver/Src/stm32l0xx_hal_uart.c ****   * @brief  Rx Transfer completed callback.
2554:Drivers/STM32L0xx_HAL_Driver/Src/stm32l0xx_hal_uart.c ****   * @param  huart UART handle.
2555:Drivers/STM32L0xx_HAL_Driver/Src/stm32l0xx_hal_uart.c ****   * @retval None
2556:Drivers/STM32L0xx_HAL_Driver/Src/stm32l0xx_hal_uart.c ****   */
2557:Drivers/STM32L0xx_HAL_Driver/Src/stm32l0xx_hal_uart.c **** __weak void HAL_UART_RxCpltCallback(UART_HandleTypeDef *huart)
2558:Drivers/STM32L0xx_HAL_Driver/Src/stm32l0xx_hal_uart.c **** {
 6739              		.loc 1 2558 1
 6740              		.cfi_startproc
 6741              		@ args = 0, pretend = 0, frame = 8
 6742              		@ frame_needed = 1, uses_anonymous_args = 0
 6743 0000 80B5     		push	{r7, lr}
 6744              	.LCFI75:
 6745              		.cfi_def_cfa_offset 8
 6746              		.cfi_offset 7, -8
 6747              		.cfi_offset 14, -4
 6748 0002 82B0     		sub	sp, sp, #8
 6749              	.LCFI76:
 6750              		.cfi_def_cfa_offset 16
 6751 0004 00AF     		add	r7, sp, #0
ARM GAS  C:\Users\lidka\AppData\Local\Temp\ccqOATUZ.s 			page 174


 6752              	.LCFI77:
 6753              		.cfi_def_cfa_register 7
 6754 0006 7860     		str	r0, [r7, #4]
2559:Drivers/STM32L0xx_HAL_Driver/Src/stm32l0xx_hal_uart.c ****   /* Prevent unused argument(s) compilation warning */
2560:Drivers/STM32L0xx_HAL_Driver/Src/stm32l0xx_hal_uart.c ****   UNUSED(huart);
2561:Drivers/STM32L0xx_HAL_Driver/Src/stm32l0xx_hal_uart.c **** 
2562:Drivers/STM32L0xx_HAL_Driver/Src/stm32l0xx_hal_uart.c ****   /* NOTE : This function should not be modified, when the callback is needed,
2563:Drivers/STM32L0xx_HAL_Driver/Src/stm32l0xx_hal_uart.c ****             the HAL_UART_RxCpltCallback can be implemented in the user file.
2564:Drivers/STM32L0xx_HAL_Driver/Src/stm32l0xx_hal_uart.c ****    */
2565:Drivers/STM32L0xx_HAL_Driver/Src/stm32l0xx_hal_uart.c **** }
 6755              		.loc 1 2565 1
 6756 0008 C046     		nop
 6757 000a BD46     		mov	sp, r7
 6758 000c 02B0     		add	sp, sp, #8
 6759              		@ sp needed
 6760 000e 80BD     		pop	{r7, pc}
 6761              		.cfi_endproc
 6762              	.LFE72:
 6764              		.section	.text.HAL_UART_RxHalfCpltCallback,"ax",%progbits
 6765              		.align	1
 6766              		.weak	HAL_UART_RxHalfCpltCallback
 6767              		.syntax unified
 6768              		.code	16
 6769              		.thumb_func
 6771              	HAL_UART_RxHalfCpltCallback:
 6772              	.LFB73:
2566:Drivers/STM32L0xx_HAL_Driver/Src/stm32l0xx_hal_uart.c **** 
2567:Drivers/STM32L0xx_HAL_Driver/Src/stm32l0xx_hal_uart.c **** /**
2568:Drivers/STM32L0xx_HAL_Driver/Src/stm32l0xx_hal_uart.c ****   * @brief  Rx Half Transfer completed callback.
2569:Drivers/STM32L0xx_HAL_Driver/Src/stm32l0xx_hal_uart.c ****   * @param  huart UART handle.
2570:Drivers/STM32L0xx_HAL_Driver/Src/stm32l0xx_hal_uart.c ****   * @retval None
2571:Drivers/STM32L0xx_HAL_Driver/Src/stm32l0xx_hal_uart.c ****   */
2572:Drivers/STM32L0xx_HAL_Driver/Src/stm32l0xx_hal_uart.c **** __weak void HAL_UART_RxHalfCpltCallback(UART_HandleTypeDef *huart)
2573:Drivers/STM32L0xx_HAL_Driver/Src/stm32l0xx_hal_uart.c **** {
 6773              		.loc 1 2573 1
 6774              		.cfi_startproc
 6775              		@ args = 0, pretend = 0, frame = 8
 6776              		@ frame_needed = 1, uses_anonymous_args = 0
 6777 0000 80B5     		push	{r7, lr}
 6778              	.LCFI78:
 6779              		.cfi_def_cfa_offset 8
 6780              		.cfi_offset 7, -8
 6781              		.cfi_offset 14, -4
 6782 0002 82B0     		sub	sp, sp, #8
 6783              	.LCFI79:
 6784              		.cfi_def_cfa_offset 16
 6785 0004 00AF     		add	r7, sp, #0
 6786              	.LCFI80:
 6787              		.cfi_def_cfa_register 7
 6788 0006 7860     		str	r0, [r7, #4]
2574:Drivers/STM32L0xx_HAL_Driver/Src/stm32l0xx_hal_uart.c ****   /* Prevent unused argument(s) compilation warning */
2575:Drivers/STM32L0xx_HAL_Driver/Src/stm32l0xx_hal_uart.c ****   UNUSED(huart);
2576:Drivers/STM32L0xx_HAL_Driver/Src/stm32l0xx_hal_uart.c **** 
2577:Drivers/STM32L0xx_HAL_Driver/Src/stm32l0xx_hal_uart.c ****   /* NOTE: This function should not be modified, when the callback is needed,
2578:Drivers/STM32L0xx_HAL_Driver/Src/stm32l0xx_hal_uart.c ****            the HAL_UART_RxHalfCpltCallback can be implemented in the user file.
2579:Drivers/STM32L0xx_HAL_Driver/Src/stm32l0xx_hal_uart.c ****    */
2580:Drivers/STM32L0xx_HAL_Driver/Src/stm32l0xx_hal_uart.c **** }
ARM GAS  C:\Users\lidka\AppData\Local\Temp\ccqOATUZ.s 			page 175


 6789              		.loc 1 2580 1
 6790 0008 C046     		nop
 6791 000a BD46     		mov	sp, r7
 6792 000c 02B0     		add	sp, sp, #8
 6793              		@ sp needed
 6794 000e 80BD     		pop	{r7, pc}
 6795              		.cfi_endproc
 6796              	.LFE73:
 6798              		.section	.text.HAL_UART_ErrorCallback,"ax",%progbits
 6799              		.align	1
 6800              		.weak	HAL_UART_ErrorCallback
 6801              		.syntax unified
 6802              		.code	16
 6803              		.thumb_func
 6805              	HAL_UART_ErrorCallback:
 6806              	.LFB74:
2581:Drivers/STM32L0xx_HAL_Driver/Src/stm32l0xx_hal_uart.c **** 
2582:Drivers/STM32L0xx_HAL_Driver/Src/stm32l0xx_hal_uart.c **** /**
2583:Drivers/STM32L0xx_HAL_Driver/Src/stm32l0xx_hal_uart.c ****   * @brief  UART error callback.
2584:Drivers/STM32L0xx_HAL_Driver/Src/stm32l0xx_hal_uart.c ****   * @param  huart UART handle.
2585:Drivers/STM32L0xx_HAL_Driver/Src/stm32l0xx_hal_uart.c ****   * @retval None
2586:Drivers/STM32L0xx_HAL_Driver/Src/stm32l0xx_hal_uart.c ****   */
2587:Drivers/STM32L0xx_HAL_Driver/Src/stm32l0xx_hal_uart.c **** __weak void HAL_UART_ErrorCallback(UART_HandleTypeDef *huart)
2588:Drivers/STM32L0xx_HAL_Driver/Src/stm32l0xx_hal_uart.c **** {
 6807              		.loc 1 2588 1
 6808              		.cfi_startproc
 6809              		@ args = 0, pretend = 0, frame = 8
 6810              		@ frame_needed = 1, uses_anonymous_args = 0
 6811 0000 80B5     		push	{r7, lr}
 6812              	.LCFI81:
 6813              		.cfi_def_cfa_offset 8
 6814              		.cfi_offset 7, -8
 6815              		.cfi_offset 14, -4
 6816 0002 82B0     		sub	sp, sp, #8
 6817              	.LCFI82:
 6818              		.cfi_def_cfa_offset 16
 6819 0004 00AF     		add	r7, sp, #0
 6820              	.LCFI83:
 6821              		.cfi_def_cfa_register 7
 6822 0006 7860     		str	r0, [r7, #4]
2589:Drivers/STM32L0xx_HAL_Driver/Src/stm32l0xx_hal_uart.c ****   /* Prevent unused argument(s) compilation warning */
2590:Drivers/STM32L0xx_HAL_Driver/Src/stm32l0xx_hal_uart.c ****   UNUSED(huart);
2591:Drivers/STM32L0xx_HAL_Driver/Src/stm32l0xx_hal_uart.c **** 
2592:Drivers/STM32L0xx_HAL_Driver/Src/stm32l0xx_hal_uart.c ****   /* NOTE : This function should not be modified, when the callback is needed,
2593:Drivers/STM32L0xx_HAL_Driver/Src/stm32l0xx_hal_uart.c ****             the HAL_UART_ErrorCallback can be implemented in the user file.
2594:Drivers/STM32L0xx_HAL_Driver/Src/stm32l0xx_hal_uart.c ****    */
2595:Drivers/STM32L0xx_HAL_Driver/Src/stm32l0xx_hal_uart.c **** }
 6823              		.loc 1 2595 1
 6824 0008 C046     		nop
 6825 000a BD46     		mov	sp, r7
 6826 000c 02B0     		add	sp, sp, #8
 6827              		@ sp needed
 6828 000e 80BD     		pop	{r7, pc}
 6829              		.cfi_endproc
 6830              	.LFE74:
 6832              		.section	.text.HAL_UART_AbortCpltCallback,"ax",%progbits
 6833              		.align	1
ARM GAS  C:\Users\lidka\AppData\Local\Temp\ccqOATUZ.s 			page 176


 6834              		.weak	HAL_UART_AbortCpltCallback
 6835              		.syntax unified
 6836              		.code	16
 6837              		.thumb_func
 6839              	HAL_UART_AbortCpltCallback:
 6840              	.LFB75:
2596:Drivers/STM32L0xx_HAL_Driver/Src/stm32l0xx_hal_uart.c **** 
2597:Drivers/STM32L0xx_HAL_Driver/Src/stm32l0xx_hal_uart.c **** /**
2598:Drivers/STM32L0xx_HAL_Driver/Src/stm32l0xx_hal_uart.c ****   * @brief  UART Abort Complete callback.
2599:Drivers/STM32L0xx_HAL_Driver/Src/stm32l0xx_hal_uart.c ****   * @param  huart UART handle.
2600:Drivers/STM32L0xx_HAL_Driver/Src/stm32l0xx_hal_uart.c ****   * @retval None
2601:Drivers/STM32L0xx_HAL_Driver/Src/stm32l0xx_hal_uart.c ****   */
2602:Drivers/STM32L0xx_HAL_Driver/Src/stm32l0xx_hal_uart.c **** __weak void HAL_UART_AbortCpltCallback(UART_HandleTypeDef *huart)
2603:Drivers/STM32L0xx_HAL_Driver/Src/stm32l0xx_hal_uart.c **** {
 6841              		.loc 1 2603 1
 6842              		.cfi_startproc
 6843              		@ args = 0, pretend = 0, frame = 8
 6844              		@ frame_needed = 1, uses_anonymous_args = 0
 6845 0000 80B5     		push	{r7, lr}
 6846              	.LCFI84:
 6847              		.cfi_def_cfa_offset 8
 6848              		.cfi_offset 7, -8
 6849              		.cfi_offset 14, -4
 6850 0002 82B0     		sub	sp, sp, #8
 6851              	.LCFI85:
 6852              		.cfi_def_cfa_offset 16
 6853 0004 00AF     		add	r7, sp, #0
 6854              	.LCFI86:
 6855              		.cfi_def_cfa_register 7
 6856 0006 7860     		str	r0, [r7, #4]
2604:Drivers/STM32L0xx_HAL_Driver/Src/stm32l0xx_hal_uart.c ****   /* Prevent unused argument(s) compilation warning */
2605:Drivers/STM32L0xx_HAL_Driver/Src/stm32l0xx_hal_uart.c ****   UNUSED(huart);
2606:Drivers/STM32L0xx_HAL_Driver/Src/stm32l0xx_hal_uart.c **** 
2607:Drivers/STM32L0xx_HAL_Driver/Src/stm32l0xx_hal_uart.c ****   /* NOTE : This function should not be modified, when the callback is needed,
2608:Drivers/STM32L0xx_HAL_Driver/Src/stm32l0xx_hal_uart.c ****             the HAL_UART_AbortCpltCallback can be implemented in the user file.
2609:Drivers/STM32L0xx_HAL_Driver/Src/stm32l0xx_hal_uart.c ****    */
2610:Drivers/STM32L0xx_HAL_Driver/Src/stm32l0xx_hal_uart.c **** }
 6857              		.loc 1 2610 1
 6858 0008 C046     		nop
 6859 000a BD46     		mov	sp, r7
 6860 000c 02B0     		add	sp, sp, #8
 6861              		@ sp needed
 6862 000e 80BD     		pop	{r7, pc}
 6863              		.cfi_endproc
 6864              	.LFE75:
 6866              		.section	.text.HAL_UART_AbortTransmitCpltCallback,"ax",%progbits
 6867              		.align	1
 6868              		.weak	HAL_UART_AbortTransmitCpltCallback
 6869              		.syntax unified
 6870              		.code	16
 6871              		.thumb_func
 6873              	HAL_UART_AbortTransmitCpltCallback:
 6874              	.LFB76:
2611:Drivers/STM32L0xx_HAL_Driver/Src/stm32l0xx_hal_uart.c **** 
2612:Drivers/STM32L0xx_HAL_Driver/Src/stm32l0xx_hal_uart.c **** /**
2613:Drivers/STM32L0xx_HAL_Driver/Src/stm32l0xx_hal_uart.c ****   * @brief  UART Abort Complete callback.
2614:Drivers/STM32L0xx_HAL_Driver/Src/stm32l0xx_hal_uart.c ****   * @param  huart UART handle.
ARM GAS  C:\Users\lidka\AppData\Local\Temp\ccqOATUZ.s 			page 177


2615:Drivers/STM32L0xx_HAL_Driver/Src/stm32l0xx_hal_uart.c ****   * @retval None
2616:Drivers/STM32L0xx_HAL_Driver/Src/stm32l0xx_hal_uart.c ****   */
2617:Drivers/STM32L0xx_HAL_Driver/Src/stm32l0xx_hal_uart.c **** __weak void HAL_UART_AbortTransmitCpltCallback(UART_HandleTypeDef *huart)
2618:Drivers/STM32L0xx_HAL_Driver/Src/stm32l0xx_hal_uart.c **** {
 6875              		.loc 1 2618 1
 6876              		.cfi_startproc
 6877              		@ args = 0, pretend = 0, frame = 8
 6878              		@ frame_needed = 1, uses_anonymous_args = 0
 6879 0000 80B5     		push	{r7, lr}
 6880              	.LCFI87:
 6881              		.cfi_def_cfa_offset 8
 6882              		.cfi_offset 7, -8
 6883              		.cfi_offset 14, -4
 6884 0002 82B0     		sub	sp, sp, #8
 6885              	.LCFI88:
 6886              		.cfi_def_cfa_offset 16
 6887 0004 00AF     		add	r7, sp, #0
 6888              	.LCFI89:
 6889              		.cfi_def_cfa_register 7
 6890 0006 7860     		str	r0, [r7, #4]
2619:Drivers/STM32L0xx_HAL_Driver/Src/stm32l0xx_hal_uart.c ****   /* Prevent unused argument(s) compilation warning */
2620:Drivers/STM32L0xx_HAL_Driver/Src/stm32l0xx_hal_uart.c ****   UNUSED(huart);
2621:Drivers/STM32L0xx_HAL_Driver/Src/stm32l0xx_hal_uart.c **** 
2622:Drivers/STM32L0xx_HAL_Driver/Src/stm32l0xx_hal_uart.c ****   /* NOTE : This function should not be modified, when the callback is needed,
2623:Drivers/STM32L0xx_HAL_Driver/Src/stm32l0xx_hal_uart.c ****             the HAL_UART_AbortTransmitCpltCallback can be implemented in the user file.
2624:Drivers/STM32L0xx_HAL_Driver/Src/stm32l0xx_hal_uart.c ****    */
2625:Drivers/STM32L0xx_HAL_Driver/Src/stm32l0xx_hal_uart.c **** }
 6891              		.loc 1 2625 1
 6892 0008 C046     		nop
 6893 000a BD46     		mov	sp, r7
 6894 000c 02B0     		add	sp, sp, #8
 6895              		@ sp needed
 6896 000e 80BD     		pop	{r7, pc}
 6897              		.cfi_endproc
 6898              	.LFE76:
 6900              		.section	.text.HAL_UART_AbortReceiveCpltCallback,"ax",%progbits
 6901              		.align	1
 6902              		.weak	HAL_UART_AbortReceiveCpltCallback
 6903              		.syntax unified
 6904              		.code	16
 6905              		.thumb_func
 6907              	HAL_UART_AbortReceiveCpltCallback:
 6908              	.LFB77:
2626:Drivers/STM32L0xx_HAL_Driver/Src/stm32l0xx_hal_uart.c **** 
2627:Drivers/STM32L0xx_HAL_Driver/Src/stm32l0xx_hal_uart.c **** /**
2628:Drivers/STM32L0xx_HAL_Driver/Src/stm32l0xx_hal_uart.c ****   * @brief  UART Abort Receive Complete callback.
2629:Drivers/STM32L0xx_HAL_Driver/Src/stm32l0xx_hal_uart.c ****   * @param  huart UART handle.
2630:Drivers/STM32L0xx_HAL_Driver/Src/stm32l0xx_hal_uart.c ****   * @retval None
2631:Drivers/STM32L0xx_HAL_Driver/Src/stm32l0xx_hal_uart.c ****   */
2632:Drivers/STM32L0xx_HAL_Driver/Src/stm32l0xx_hal_uart.c **** __weak void HAL_UART_AbortReceiveCpltCallback(UART_HandleTypeDef *huart)
2633:Drivers/STM32L0xx_HAL_Driver/Src/stm32l0xx_hal_uart.c **** {
 6909              		.loc 1 2633 1
 6910              		.cfi_startproc
 6911              		@ args = 0, pretend = 0, frame = 8
 6912              		@ frame_needed = 1, uses_anonymous_args = 0
 6913 0000 80B5     		push	{r7, lr}
 6914              	.LCFI90:
ARM GAS  C:\Users\lidka\AppData\Local\Temp\ccqOATUZ.s 			page 178


 6915              		.cfi_def_cfa_offset 8
 6916              		.cfi_offset 7, -8
 6917              		.cfi_offset 14, -4
 6918 0002 82B0     		sub	sp, sp, #8
 6919              	.LCFI91:
 6920              		.cfi_def_cfa_offset 16
 6921 0004 00AF     		add	r7, sp, #0
 6922              	.LCFI92:
 6923              		.cfi_def_cfa_register 7
 6924 0006 7860     		str	r0, [r7, #4]
2634:Drivers/STM32L0xx_HAL_Driver/Src/stm32l0xx_hal_uart.c ****   /* Prevent unused argument(s) compilation warning */
2635:Drivers/STM32L0xx_HAL_Driver/Src/stm32l0xx_hal_uart.c ****   UNUSED(huart);
2636:Drivers/STM32L0xx_HAL_Driver/Src/stm32l0xx_hal_uart.c **** 
2637:Drivers/STM32L0xx_HAL_Driver/Src/stm32l0xx_hal_uart.c ****   /* NOTE : This function should not be modified, when the callback is needed,
2638:Drivers/STM32L0xx_HAL_Driver/Src/stm32l0xx_hal_uart.c ****             the HAL_UART_AbortReceiveCpltCallback can be implemented in the user file.
2639:Drivers/STM32L0xx_HAL_Driver/Src/stm32l0xx_hal_uart.c ****    */
2640:Drivers/STM32L0xx_HAL_Driver/Src/stm32l0xx_hal_uart.c **** }
 6925              		.loc 1 2640 1
 6926 0008 C046     		nop
 6927 000a BD46     		mov	sp, r7
 6928 000c 02B0     		add	sp, sp, #8
 6929              		@ sp needed
 6930 000e 80BD     		pop	{r7, pc}
 6931              		.cfi_endproc
 6932              	.LFE77:
 6934              		.section	.text.HAL_UARTEx_RxEventCallback,"ax",%progbits
 6935              		.align	1
 6936              		.weak	HAL_UARTEx_RxEventCallback
 6937              		.syntax unified
 6938              		.code	16
 6939              		.thumb_func
 6941              	HAL_UARTEx_RxEventCallback:
 6942              	.LFB78:
2641:Drivers/STM32L0xx_HAL_Driver/Src/stm32l0xx_hal_uart.c **** 
2642:Drivers/STM32L0xx_HAL_Driver/Src/stm32l0xx_hal_uart.c **** /**
2643:Drivers/STM32L0xx_HAL_Driver/Src/stm32l0xx_hal_uart.c ****   * @brief  Reception Event Callback (Rx event notification called after use of advanced reception 
2644:Drivers/STM32L0xx_HAL_Driver/Src/stm32l0xx_hal_uart.c ****   * @param  huart UART handle
2645:Drivers/STM32L0xx_HAL_Driver/Src/stm32l0xx_hal_uart.c ****   * @param  Size  Number of data available in application reception buffer (indicates a position in
2646:Drivers/STM32L0xx_HAL_Driver/Src/stm32l0xx_hal_uart.c ****   *               reception buffer until which, data are available)
2647:Drivers/STM32L0xx_HAL_Driver/Src/stm32l0xx_hal_uart.c ****   * @retval None
2648:Drivers/STM32L0xx_HAL_Driver/Src/stm32l0xx_hal_uart.c ****   */
2649:Drivers/STM32L0xx_HAL_Driver/Src/stm32l0xx_hal_uart.c **** __weak void HAL_UARTEx_RxEventCallback(UART_HandleTypeDef *huart, uint16_t Size)
2650:Drivers/STM32L0xx_HAL_Driver/Src/stm32l0xx_hal_uart.c **** {
 6943              		.loc 1 2650 1
 6944              		.cfi_startproc
 6945              		@ args = 0, pretend = 0, frame = 8
 6946              		@ frame_needed = 1, uses_anonymous_args = 0
 6947 0000 80B5     		push	{r7, lr}
 6948              	.LCFI93:
 6949              		.cfi_def_cfa_offset 8
 6950              		.cfi_offset 7, -8
 6951              		.cfi_offset 14, -4
 6952 0002 82B0     		sub	sp, sp, #8
 6953              	.LCFI94:
 6954              		.cfi_def_cfa_offset 16
 6955 0004 00AF     		add	r7, sp, #0
 6956              	.LCFI95:
ARM GAS  C:\Users\lidka\AppData\Local\Temp\ccqOATUZ.s 			page 179


 6957              		.cfi_def_cfa_register 7
 6958 0006 7860     		str	r0, [r7, #4]
 6959 0008 0A00     		movs	r2, r1
 6960 000a BB1C     		adds	r3, r7, #2
 6961 000c 1A80     		strh	r2, [r3]
2651:Drivers/STM32L0xx_HAL_Driver/Src/stm32l0xx_hal_uart.c ****   /* Prevent unused argument(s) compilation warning */
2652:Drivers/STM32L0xx_HAL_Driver/Src/stm32l0xx_hal_uart.c ****   UNUSED(huart);
2653:Drivers/STM32L0xx_HAL_Driver/Src/stm32l0xx_hal_uart.c ****   UNUSED(Size);
2654:Drivers/STM32L0xx_HAL_Driver/Src/stm32l0xx_hal_uart.c **** 
2655:Drivers/STM32L0xx_HAL_Driver/Src/stm32l0xx_hal_uart.c ****   /* NOTE : This function should not be modified, when the callback is needed,
2656:Drivers/STM32L0xx_HAL_Driver/Src/stm32l0xx_hal_uart.c ****             the HAL_UARTEx_RxEventCallback can be implemented in the user file.
2657:Drivers/STM32L0xx_HAL_Driver/Src/stm32l0xx_hal_uart.c ****    */
2658:Drivers/STM32L0xx_HAL_Driver/Src/stm32l0xx_hal_uart.c **** }
 6962              		.loc 1 2658 1
 6963 000e C046     		nop
 6964 0010 BD46     		mov	sp, r7
 6965 0012 02B0     		add	sp, sp, #8
 6966              		@ sp needed
 6967 0014 80BD     		pop	{r7, pc}
 6968              		.cfi_endproc
 6969              	.LFE78:
 6971              		.section	.text.HAL_UART_ReceiverTimeout_Config,"ax",%progbits
 6972              		.align	1
 6973              		.global	HAL_UART_ReceiverTimeout_Config
 6974              		.syntax unified
 6975              		.code	16
 6976              		.thumb_func
 6978              	HAL_UART_ReceiverTimeout_Config:
 6979              	.LFB79:
2659:Drivers/STM32L0xx_HAL_Driver/Src/stm32l0xx_hal_uart.c **** 
2660:Drivers/STM32L0xx_HAL_Driver/Src/stm32l0xx_hal_uart.c **** /**
2661:Drivers/STM32L0xx_HAL_Driver/Src/stm32l0xx_hal_uart.c ****   * @}
2662:Drivers/STM32L0xx_HAL_Driver/Src/stm32l0xx_hal_uart.c ****   */
2663:Drivers/STM32L0xx_HAL_Driver/Src/stm32l0xx_hal_uart.c **** 
2664:Drivers/STM32L0xx_HAL_Driver/Src/stm32l0xx_hal_uart.c **** /** @defgroup UART_Exported_Functions_Group3 Peripheral Control functions
2665:Drivers/STM32L0xx_HAL_Driver/Src/stm32l0xx_hal_uart.c ****   *  @brief   UART control functions
2666:Drivers/STM32L0xx_HAL_Driver/Src/stm32l0xx_hal_uart.c ****   *
2667:Drivers/STM32L0xx_HAL_Driver/Src/stm32l0xx_hal_uart.c **** @verbatim
2668:Drivers/STM32L0xx_HAL_Driver/Src/stm32l0xx_hal_uart.c ****  ===============================================================================
2669:Drivers/STM32L0xx_HAL_Driver/Src/stm32l0xx_hal_uart.c ****                       ##### Peripheral Control functions #####
2670:Drivers/STM32L0xx_HAL_Driver/Src/stm32l0xx_hal_uart.c ****  ===============================================================================
2671:Drivers/STM32L0xx_HAL_Driver/Src/stm32l0xx_hal_uart.c ****     [..]
2672:Drivers/STM32L0xx_HAL_Driver/Src/stm32l0xx_hal_uart.c ****     This subsection provides a set of functions allowing to control the UART.
2673:Drivers/STM32L0xx_HAL_Driver/Src/stm32l0xx_hal_uart.c ****      (+) HAL_UART_ReceiverTimeout_Config() API allows to configure the receiver timeout value on th
2674:Drivers/STM32L0xx_HAL_Driver/Src/stm32l0xx_hal_uart.c ****      (+) HAL_UART_EnableReceiverTimeout() API enables the receiver timeout feature
2675:Drivers/STM32L0xx_HAL_Driver/Src/stm32l0xx_hal_uart.c ****      (+) HAL_UART_DisableReceiverTimeout() API disables the receiver timeout feature
2676:Drivers/STM32L0xx_HAL_Driver/Src/stm32l0xx_hal_uart.c ****      (+) HAL_MultiProcessor_EnableMuteMode() API enables mute mode
2677:Drivers/STM32L0xx_HAL_Driver/Src/stm32l0xx_hal_uart.c ****      (+) HAL_MultiProcessor_DisableMuteMode() API disables mute mode
2678:Drivers/STM32L0xx_HAL_Driver/Src/stm32l0xx_hal_uart.c ****      (+) HAL_MultiProcessor_EnterMuteMode() API enters mute mode
2679:Drivers/STM32L0xx_HAL_Driver/Src/stm32l0xx_hal_uart.c ****      (+) UART_SetConfig() API configures the UART peripheral
2680:Drivers/STM32L0xx_HAL_Driver/Src/stm32l0xx_hal_uart.c ****      (+) UART_AdvFeatureConfig() API optionally configures the UART advanced features
2681:Drivers/STM32L0xx_HAL_Driver/Src/stm32l0xx_hal_uart.c ****      (+) UART_CheckIdleState() API ensures that TEACK and/or REACK are set after initialization
2682:Drivers/STM32L0xx_HAL_Driver/Src/stm32l0xx_hal_uart.c ****      (+) HAL_HalfDuplex_EnableTransmitter() API disables receiver and enables transmitter
2683:Drivers/STM32L0xx_HAL_Driver/Src/stm32l0xx_hal_uart.c ****      (+) HAL_HalfDuplex_EnableReceiver() API disables transmitter and enables receiver
2684:Drivers/STM32L0xx_HAL_Driver/Src/stm32l0xx_hal_uart.c ****      (+) HAL_LIN_SendBreak() API transmits the break characters
2685:Drivers/STM32L0xx_HAL_Driver/Src/stm32l0xx_hal_uart.c **** @endverbatim
2686:Drivers/STM32L0xx_HAL_Driver/Src/stm32l0xx_hal_uart.c ****   * @{
ARM GAS  C:\Users\lidka\AppData\Local\Temp\ccqOATUZ.s 			page 180


2687:Drivers/STM32L0xx_HAL_Driver/Src/stm32l0xx_hal_uart.c ****   */
2688:Drivers/STM32L0xx_HAL_Driver/Src/stm32l0xx_hal_uart.c **** 
2689:Drivers/STM32L0xx_HAL_Driver/Src/stm32l0xx_hal_uart.c **** /**
2690:Drivers/STM32L0xx_HAL_Driver/Src/stm32l0xx_hal_uart.c ****   * @brief  Update on the fly the receiver timeout value in RTOR register.
2691:Drivers/STM32L0xx_HAL_Driver/Src/stm32l0xx_hal_uart.c ****   * @param  huart Pointer to a UART_HandleTypeDef structure that contains
2692:Drivers/STM32L0xx_HAL_Driver/Src/stm32l0xx_hal_uart.c ****   *                    the configuration information for the specified UART module.
2693:Drivers/STM32L0xx_HAL_Driver/Src/stm32l0xx_hal_uart.c ****   * @param  TimeoutValue receiver timeout value in number of baud blocks. The timeout
2694:Drivers/STM32L0xx_HAL_Driver/Src/stm32l0xx_hal_uart.c ****   *                     value must be less or equal to 0x0FFFFFFFF.
2695:Drivers/STM32L0xx_HAL_Driver/Src/stm32l0xx_hal_uart.c ****   * @retval None
2696:Drivers/STM32L0xx_HAL_Driver/Src/stm32l0xx_hal_uart.c ****   */
2697:Drivers/STM32L0xx_HAL_Driver/Src/stm32l0xx_hal_uart.c **** void HAL_UART_ReceiverTimeout_Config(UART_HandleTypeDef *huart, uint32_t TimeoutValue)
2698:Drivers/STM32L0xx_HAL_Driver/Src/stm32l0xx_hal_uart.c **** {
 6980              		.loc 1 2698 1
 6981              		.cfi_startproc
 6982              		@ args = 0, pretend = 0, frame = 8
 6983              		@ frame_needed = 1, uses_anonymous_args = 0
 6984 0000 80B5     		push	{r7, lr}
 6985              	.LCFI96:
 6986              		.cfi_def_cfa_offset 8
 6987              		.cfi_offset 7, -8
 6988              		.cfi_offset 14, -4
 6989 0002 82B0     		sub	sp, sp, #8
 6990              	.LCFI97:
 6991              		.cfi_def_cfa_offset 16
 6992 0004 00AF     		add	r7, sp, #0
 6993              	.LCFI98:
 6994              		.cfi_def_cfa_register 7
 6995 0006 7860     		str	r0, [r7, #4]
 6996 0008 3960     		str	r1, [r7]
2699:Drivers/STM32L0xx_HAL_Driver/Src/stm32l0xx_hal_uart.c ****   if (!(IS_LPUART_INSTANCE(huart->Instance)))
 6997              		.loc 1 2699 9
 6998 000a 7B68     		ldr	r3, [r7, #4]
 6999 000c 1B68     		ldr	r3, [r3]
 7000              		.loc 1 2699 6
 7001 000e 084A     		ldr	r2, .L276
 7002 0010 9342     		cmp	r3, r2
 7003 0012 09D0     		beq	.L275
2700:Drivers/STM32L0xx_HAL_Driver/Src/stm32l0xx_hal_uart.c ****   {
2701:Drivers/STM32L0xx_HAL_Driver/Src/stm32l0xx_hal_uart.c ****     assert_param(IS_UART_RECEIVER_TIMEOUT_VALUE(TimeoutValue));
2702:Drivers/STM32L0xx_HAL_Driver/Src/stm32l0xx_hal_uart.c ****     MODIFY_REG(huart->Instance->RTOR, USART_RTOR_RTO, TimeoutValue);
 7004              		.loc 1 2702 5
 7005 0014 7B68     		ldr	r3, [r7, #4]
 7006 0016 1B68     		ldr	r3, [r3]
 7007 0018 5B69     		ldr	r3, [r3, #20]
 7008 001a 1B0E     		lsrs	r3, r3, #24
 7009 001c 1906     		lsls	r1, r3, #24
 7010 001e 7B68     		ldr	r3, [r7, #4]
 7011 0020 1B68     		ldr	r3, [r3]
 7012 0022 3A68     		ldr	r2, [r7]
 7013 0024 0A43     		orrs	r2, r1
 7014 0026 5A61     		str	r2, [r3, #20]
 7015              	.L275:
2703:Drivers/STM32L0xx_HAL_Driver/Src/stm32l0xx_hal_uart.c ****   }
2704:Drivers/STM32L0xx_HAL_Driver/Src/stm32l0xx_hal_uart.c **** }
 7016              		.loc 1 2704 1
 7017 0028 C046     		nop
 7018 002a BD46     		mov	sp, r7
ARM GAS  C:\Users\lidka\AppData\Local\Temp\ccqOATUZ.s 			page 181


 7019 002c 02B0     		add	sp, sp, #8
 7020              		@ sp needed
 7021 002e 80BD     		pop	{r7, pc}
 7022              	.L277:
 7023              		.align	2
 7024              	.L276:
 7025 0030 00480040 		.word	1073760256
 7026              		.cfi_endproc
 7027              	.LFE79:
 7029              		.section	.text.HAL_UART_EnableReceiverTimeout,"ax",%progbits
 7030              		.align	1
 7031              		.global	HAL_UART_EnableReceiverTimeout
 7032              		.syntax unified
 7033              		.code	16
 7034              		.thumb_func
 7036              	HAL_UART_EnableReceiverTimeout:
 7037              	.LFB80:
2705:Drivers/STM32L0xx_HAL_Driver/Src/stm32l0xx_hal_uart.c **** 
2706:Drivers/STM32L0xx_HAL_Driver/Src/stm32l0xx_hal_uart.c **** /**
2707:Drivers/STM32L0xx_HAL_Driver/Src/stm32l0xx_hal_uart.c ****   * @brief  Enable the UART receiver timeout feature.
2708:Drivers/STM32L0xx_HAL_Driver/Src/stm32l0xx_hal_uart.c ****   * @param  huart Pointer to a UART_HandleTypeDef structure that contains
2709:Drivers/STM32L0xx_HAL_Driver/Src/stm32l0xx_hal_uart.c ****   *                    the configuration information for the specified UART module.
2710:Drivers/STM32L0xx_HAL_Driver/Src/stm32l0xx_hal_uart.c ****   * @retval HAL status
2711:Drivers/STM32L0xx_HAL_Driver/Src/stm32l0xx_hal_uart.c ****   */
2712:Drivers/STM32L0xx_HAL_Driver/Src/stm32l0xx_hal_uart.c **** HAL_StatusTypeDef HAL_UART_EnableReceiverTimeout(UART_HandleTypeDef *huart)
2713:Drivers/STM32L0xx_HAL_Driver/Src/stm32l0xx_hal_uart.c **** {
 7038              		.loc 1 2713 1
 7039              		.cfi_startproc
 7040              		@ args = 0, pretend = 0, frame = 8
 7041              		@ frame_needed = 1, uses_anonymous_args = 0
 7042 0000 80B5     		push	{r7, lr}
 7043              	.LCFI99:
 7044              		.cfi_def_cfa_offset 8
 7045              		.cfi_offset 7, -8
 7046              		.cfi_offset 14, -4
 7047 0002 82B0     		sub	sp, sp, #8
 7048              	.LCFI100:
 7049              		.cfi_def_cfa_offset 16
 7050 0004 00AF     		add	r7, sp, #0
 7051              	.LCFI101:
 7052              		.cfi_def_cfa_register 7
 7053 0006 7860     		str	r0, [r7, #4]
2714:Drivers/STM32L0xx_HAL_Driver/Src/stm32l0xx_hal_uart.c ****   if (!(IS_LPUART_INSTANCE(huart->Instance)))
 7054              		.loc 1 2714 9
 7055 0008 7B68     		ldr	r3, [r7, #4]
 7056 000a 1B68     		ldr	r3, [r3]
 7057              		.loc 1 2714 6
 7058 000c 164A     		ldr	r2, .L283
 7059 000e 9342     		cmp	r3, r2
 7060 0010 25D0     		beq	.L279
2715:Drivers/STM32L0xx_HAL_Driver/Src/stm32l0xx_hal_uart.c ****   {
2716:Drivers/STM32L0xx_HAL_Driver/Src/stm32l0xx_hal_uart.c ****     if (huart->gState == HAL_UART_STATE_READY)
 7061              		.loc 1 2716 14
 7062 0012 7B68     		ldr	r3, [r7, #4]
 7063 0014 9B6F     		ldr	r3, [r3, #120]
 7064              		.loc 1 2716 8
 7065 0016 202B     		cmp	r3, #32
ARM GAS  C:\Users\lidka\AppData\Local\Temp\ccqOATUZ.s 			page 182


 7066 0018 1FD1     		bne	.L280
2717:Drivers/STM32L0xx_HAL_Driver/Src/stm32l0xx_hal_uart.c ****     {
2718:Drivers/STM32L0xx_HAL_Driver/Src/stm32l0xx_hal_uart.c ****       /* Process Locked */
2719:Drivers/STM32L0xx_HAL_Driver/Src/stm32l0xx_hal_uart.c ****       __HAL_LOCK(huart);
 7067              		.loc 1 2719 7
 7068 001a 7B68     		ldr	r3, [r7, #4]
 7069 001c 7422     		movs	r2, #116
 7070 001e 9B5C     		ldrb	r3, [r3, r2]
 7071 0020 012B     		cmp	r3, #1
 7072 0022 01D1     		bne	.L281
 7073              		.loc 1 2719 7 is_stmt 0 discriminator 1
 7074 0024 0223     		movs	r3, #2
 7075 0026 1BE0     		b	.L282
 7076              	.L281:
 7077              		.loc 1 2719 7 discriminator 2
 7078 0028 7B68     		ldr	r3, [r7, #4]
 7079 002a 7422     		movs	r2, #116
 7080 002c 0121     		movs	r1, #1
 7081 002e 9954     		strb	r1, [r3, r2]
2720:Drivers/STM32L0xx_HAL_Driver/Src/stm32l0xx_hal_uart.c **** 
2721:Drivers/STM32L0xx_HAL_Driver/Src/stm32l0xx_hal_uart.c ****       huart->gState = HAL_UART_STATE_BUSY;
 7082              		.loc 1 2721 21 is_stmt 1 discriminator 2
 7083 0030 7B68     		ldr	r3, [r7, #4]
 7084 0032 2422     		movs	r2, #36
 7085 0034 9A67     		str	r2, [r3, #120]
2722:Drivers/STM32L0xx_HAL_Driver/Src/stm32l0xx_hal_uart.c **** 
2723:Drivers/STM32L0xx_HAL_Driver/Src/stm32l0xx_hal_uart.c ****       /* Set the USART RTOEN bit */
2724:Drivers/STM32L0xx_HAL_Driver/Src/stm32l0xx_hal_uart.c ****       SET_BIT(huart->Instance->CR2, USART_CR2_RTOEN);
 7086              		.loc 1 2724 7 discriminator 2
 7087 0036 7B68     		ldr	r3, [r7, #4]
 7088 0038 1B68     		ldr	r3, [r3]
 7089 003a 5A68     		ldr	r2, [r3, #4]
 7090 003c 7B68     		ldr	r3, [r7, #4]
 7091 003e 1B68     		ldr	r3, [r3]
 7092 0040 8021     		movs	r1, #128
 7093 0042 0904     		lsls	r1, r1, #16
 7094 0044 0A43     		orrs	r2, r1
 7095 0046 5A60     		str	r2, [r3, #4]
2725:Drivers/STM32L0xx_HAL_Driver/Src/stm32l0xx_hal_uart.c **** 
2726:Drivers/STM32L0xx_HAL_Driver/Src/stm32l0xx_hal_uart.c ****       huart->gState = HAL_UART_STATE_READY;
 7096              		.loc 1 2726 21 discriminator 2
 7097 0048 7B68     		ldr	r3, [r7, #4]
 7098 004a 2022     		movs	r2, #32
 7099 004c 9A67     		str	r2, [r3, #120]
2727:Drivers/STM32L0xx_HAL_Driver/Src/stm32l0xx_hal_uart.c **** 
2728:Drivers/STM32L0xx_HAL_Driver/Src/stm32l0xx_hal_uart.c ****       /* Process Unlocked */
2729:Drivers/STM32L0xx_HAL_Driver/Src/stm32l0xx_hal_uart.c ****       __HAL_UNLOCK(huart);
 7100              		.loc 1 2729 7 discriminator 2
 7101 004e 7B68     		ldr	r3, [r7, #4]
 7102 0050 7422     		movs	r2, #116
 7103 0052 0021     		movs	r1, #0
 7104 0054 9954     		strb	r1, [r3, r2]
2730:Drivers/STM32L0xx_HAL_Driver/Src/stm32l0xx_hal_uart.c **** 
2731:Drivers/STM32L0xx_HAL_Driver/Src/stm32l0xx_hal_uart.c ****       return HAL_OK;
 7105              		.loc 1 2731 14 discriminator 2
 7106 0056 0023     		movs	r3, #0
 7107 0058 02E0     		b	.L282
ARM GAS  C:\Users\lidka\AppData\Local\Temp\ccqOATUZ.s 			page 183


 7108              	.L280:
2732:Drivers/STM32L0xx_HAL_Driver/Src/stm32l0xx_hal_uart.c ****     }
2733:Drivers/STM32L0xx_HAL_Driver/Src/stm32l0xx_hal_uart.c ****     else
2734:Drivers/STM32L0xx_HAL_Driver/Src/stm32l0xx_hal_uart.c ****     {
2735:Drivers/STM32L0xx_HAL_Driver/Src/stm32l0xx_hal_uart.c ****       return HAL_BUSY;
 7109              		.loc 1 2735 14
 7110 005a 0223     		movs	r3, #2
 7111 005c 00E0     		b	.L282
 7112              	.L279:
2736:Drivers/STM32L0xx_HAL_Driver/Src/stm32l0xx_hal_uart.c ****     }
2737:Drivers/STM32L0xx_HAL_Driver/Src/stm32l0xx_hal_uart.c ****   }
2738:Drivers/STM32L0xx_HAL_Driver/Src/stm32l0xx_hal_uart.c ****   else
2739:Drivers/STM32L0xx_HAL_Driver/Src/stm32l0xx_hal_uart.c ****   {
2740:Drivers/STM32L0xx_HAL_Driver/Src/stm32l0xx_hal_uart.c ****     return HAL_ERROR;
 7113              		.loc 1 2740 12
 7114 005e 0123     		movs	r3, #1
 7115              	.L282:
2741:Drivers/STM32L0xx_HAL_Driver/Src/stm32l0xx_hal_uart.c ****   }
2742:Drivers/STM32L0xx_HAL_Driver/Src/stm32l0xx_hal_uart.c **** }
 7116              		.loc 1 2742 1
 7117 0060 1800     		movs	r0, r3
 7118 0062 BD46     		mov	sp, r7
 7119 0064 02B0     		add	sp, sp, #8
 7120              		@ sp needed
 7121 0066 80BD     		pop	{r7, pc}
 7122              	.L284:
 7123              		.align	2
 7124              	.L283:
 7125 0068 00480040 		.word	1073760256
 7126              		.cfi_endproc
 7127              	.LFE80:
 7129              		.section	.text.HAL_UART_DisableReceiverTimeout,"ax",%progbits
 7130              		.align	1
 7131              		.global	HAL_UART_DisableReceiverTimeout
 7132              		.syntax unified
 7133              		.code	16
 7134              		.thumb_func
 7136              	HAL_UART_DisableReceiverTimeout:
 7137              	.LFB81:
2743:Drivers/STM32L0xx_HAL_Driver/Src/stm32l0xx_hal_uart.c **** 
2744:Drivers/STM32L0xx_HAL_Driver/Src/stm32l0xx_hal_uart.c **** /**
2745:Drivers/STM32L0xx_HAL_Driver/Src/stm32l0xx_hal_uart.c ****   * @brief  Disable the UART receiver timeout feature.
2746:Drivers/STM32L0xx_HAL_Driver/Src/stm32l0xx_hal_uart.c ****   * @param  huart Pointer to a UART_HandleTypeDef structure that contains
2747:Drivers/STM32L0xx_HAL_Driver/Src/stm32l0xx_hal_uart.c ****   *                    the configuration information for the specified UART module.
2748:Drivers/STM32L0xx_HAL_Driver/Src/stm32l0xx_hal_uart.c ****   * @retval HAL status
2749:Drivers/STM32L0xx_HAL_Driver/Src/stm32l0xx_hal_uart.c ****   */
2750:Drivers/STM32L0xx_HAL_Driver/Src/stm32l0xx_hal_uart.c **** HAL_StatusTypeDef HAL_UART_DisableReceiverTimeout(UART_HandleTypeDef *huart)
2751:Drivers/STM32L0xx_HAL_Driver/Src/stm32l0xx_hal_uart.c **** {
 7138              		.loc 1 2751 1
 7139              		.cfi_startproc
 7140              		@ args = 0, pretend = 0, frame = 8
 7141              		@ frame_needed = 1, uses_anonymous_args = 0
 7142 0000 80B5     		push	{r7, lr}
 7143              	.LCFI102:
 7144              		.cfi_def_cfa_offset 8
 7145              		.cfi_offset 7, -8
 7146              		.cfi_offset 14, -4
ARM GAS  C:\Users\lidka\AppData\Local\Temp\ccqOATUZ.s 			page 184


 7147 0002 82B0     		sub	sp, sp, #8
 7148              	.LCFI103:
 7149              		.cfi_def_cfa_offset 16
 7150 0004 00AF     		add	r7, sp, #0
 7151              	.LCFI104:
 7152              		.cfi_def_cfa_register 7
 7153 0006 7860     		str	r0, [r7, #4]
2752:Drivers/STM32L0xx_HAL_Driver/Src/stm32l0xx_hal_uart.c ****   if (!(IS_LPUART_INSTANCE(huart->Instance)))
 7154              		.loc 1 2752 9
 7155 0008 7B68     		ldr	r3, [r7, #4]
 7156 000a 1B68     		ldr	r3, [r3]
 7157              		.loc 1 2752 6
 7158 000c 164A     		ldr	r2, .L290
 7159 000e 9342     		cmp	r3, r2
 7160 0010 24D0     		beq	.L286
2753:Drivers/STM32L0xx_HAL_Driver/Src/stm32l0xx_hal_uart.c ****   {
2754:Drivers/STM32L0xx_HAL_Driver/Src/stm32l0xx_hal_uart.c ****     if (huart->gState == HAL_UART_STATE_READY)
 7161              		.loc 1 2754 14
 7162 0012 7B68     		ldr	r3, [r7, #4]
 7163 0014 9B6F     		ldr	r3, [r3, #120]
 7164              		.loc 1 2754 8
 7165 0016 202B     		cmp	r3, #32
 7166 0018 1ED1     		bne	.L287
2755:Drivers/STM32L0xx_HAL_Driver/Src/stm32l0xx_hal_uart.c ****     {
2756:Drivers/STM32L0xx_HAL_Driver/Src/stm32l0xx_hal_uart.c ****       /* Process Locked */
2757:Drivers/STM32L0xx_HAL_Driver/Src/stm32l0xx_hal_uart.c ****       __HAL_LOCK(huart);
 7167              		.loc 1 2757 7
 7168 001a 7B68     		ldr	r3, [r7, #4]
 7169 001c 7422     		movs	r2, #116
 7170 001e 9B5C     		ldrb	r3, [r3, r2]
 7171 0020 012B     		cmp	r3, #1
 7172 0022 01D1     		bne	.L288
 7173              		.loc 1 2757 7 is_stmt 0 discriminator 1
 7174 0024 0223     		movs	r3, #2
 7175 0026 1AE0     		b	.L289
 7176              	.L288:
 7177              		.loc 1 2757 7 discriminator 2
 7178 0028 7B68     		ldr	r3, [r7, #4]
 7179 002a 7422     		movs	r2, #116
 7180 002c 0121     		movs	r1, #1
 7181 002e 9954     		strb	r1, [r3, r2]
2758:Drivers/STM32L0xx_HAL_Driver/Src/stm32l0xx_hal_uart.c **** 
2759:Drivers/STM32L0xx_HAL_Driver/Src/stm32l0xx_hal_uart.c ****       huart->gState = HAL_UART_STATE_BUSY;
 7182              		.loc 1 2759 21 is_stmt 1 discriminator 2
 7183 0030 7B68     		ldr	r3, [r7, #4]
 7184 0032 2422     		movs	r2, #36
 7185 0034 9A67     		str	r2, [r3, #120]
2760:Drivers/STM32L0xx_HAL_Driver/Src/stm32l0xx_hal_uart.c **** 
2761:Drivers/STM32L0xx_HAL_Driver/Src/stm32l0xx_hal_uart.c ****       /* Clear the USART RTOEN bit */
2762:Drivers/STM32L0xx_HAL_Driver/Src/stm32l0xx_hal_uart.c ****       CLEAR_BIT(huart->Instance->CR2, USART_CR2_RTOEN);
 7186              		.loc 1 2762 7 discriminator 2
 7187 0036 7B68     		ldr	r3, [r7, #4]
 7188 0038 1B68     		ldr	r3, [r3]
 7189 003a 5A68     		ldr	r2, [r3, #4]
 7190 003c 7B68     		ldr	r3, [r7, #4]
 7191 003e 1B68     		ldr	r3, [r3]
 7192 0040 0A49     		ldr	r1, .L290+4
ARM GAS  C:\Users\lidka\AppData\Local\Temp\ccqOATUZ.s 			page 185


 7193 0042 0A40     		ands	r2, r1
 7194 0044 5A60     		str	r2, [r3, #4]
2763:Drivers/STM32L0xx_HAL_Driver/Src/stm32l0xx_hal_uart.c **** 
2764:Drivers/STM32L0xx_HAL_Driver/Src/stm32l0xx_hal_uart.c ****       huart->gState = HAL_UART_STATE_READY;
 7195              		.loc 1 2764 21 discriminator 2
 7196 0046 7B68     		ldr	r3, [r7, #4]
 7197 0048 2022     		movs	r2, #32
 7198 004a 9A67     		str	r2, [r3, #120]
2765:Drivers/STM32L0xx_HAL_Driver/Src/stm32l0xx_hal_uart.c **** 
2766:Drivers/STM32L0xx_HAL_Driver/Src/stm32l0xx_hal_uart.c ****       /* Process Unlocked */
2767:Drivers/STM32L0xx_HAL_Driver/Src/stm32l0xx_hal_uart.c ****       __HAL_UNLOCK(huart);
 7199              		.loc 1 2767 7 discriminator 2
 7200 004c 7B68     		ldr	r3, [r7, #4]
 7201 004e 7422     		movs	r2, #116
 7202 0050 0021     		movs	r1, #0
 7203 0052 9954     		strb	r1, [r3, r2]
2768:Drivers/STM32L0xx_HAL_Driver/Src/stm32l0xx_hal_uart.c **** 
2769:Drivers/STM32L0xx_HAL_Driver/Src/stm32l0xx_hal_uart.c ****       return HAL_OK;
 7204              		.loc 1 2769 14 discriminator 2
 7205 0054 0023     		movs	r3, #0
 7206 0056 02E0     		b	.L289
 7207              	.L287:
2770:Drivers/STM32L0xx_HAL_Driver/Src/stm32l0xx_hal_uart.c ****     }
2771:Drivers/STM32L0xx_HAL_Driver/Src/stm32l0xx_hal_uart.c ****     else
2772:Drivers/STM32L0xx_HAL_Driver/Src/stm32l0xx_hal_uart.c ****     {
2773:Drivers/STM32L0xx_HAL_Driver/Src/stm32l0xx_hal_uart.c ****       return HAL_BUSY;
 7208              		.loc 1 2773 14
 7209 0058 0223     		movs	r3, #2
 7210 005a 00E0     		b	.L289
 7211              	.L286:
2774:Drivers/STM32L0xx_HAL_Driver/Src/stm32l0xx_hal_uart.c ****     }
2775:Drivers/STM32L0xx_HAL_Driver/Src/stm32l0xx_hal_uart.c ****   }
2776:Drivers/STM32L0xx_HAL_Driver/Src/stm32l0xx_hal_uart.c ****   else
2777:Drivers/STM32L0xx_HAL_Driver/Src/stm32l0xx_hal_uart.c ****   {
2778:Drivers/STM32L0xx_HAL_Driver/Src/stm32l0xx_hal_uart.c ****     return HAL_ERROR;
 7212              		.loc 1 2778 12
 7213 005c 0123     		movs	r3, #1
 7214              	.L289:
2779:Drivers/STM32L0xx_HAL_Driver/Src/stm32l0xx_hal_uart.c ****   }
2780:Drivers/STM32L0xx_HAL_Driver/Src/stm32l0xx_hal_uart.c **** }
 7215              		.loc 1 2780 1
 7216 005e 1800     		movs	r0, r3
 7217 0060 BD46     		mov	sp, r7
 7218 0062 02B0     		add	sp, sp, #8
 7219              		@ sp needed
 7220 0064 80BD     		pop	{r7, pc}
 7221              	.L291:
 7222 0066 C046     		.align	2
 7223              	.L290:
 7224 0068 00480040 		.word	1073760256
 7225 006c FFFF7FFF 		.word	-8388609
 7226              		.cfi_endproc
 7227              	.LFE81:
 7229              		.section	.text.HAL_MultiProcessor_EnableMuteMode,"ax",%progbits
 7230              		.align	1
 7231              		.global	HAL_MultiProcessor_EnableMuteMode
 7232              		.syntax unified
ARM GAS  C:\Users\lidka\AppData\Local\Temp\ccqOATUZ.s 			page 186


 7233              		.code	16
 7234              		.thumb_func
 7236              	HAL_MultiProcessor_EnableMuteMode:
 7237              	.LFB82:
2781:Drivers/STM32L0xx_HAL_Driver/Src/stm32l0xx_hal_uart.c **** 
2782:Drivers/STM32L0xx_HAL_Driver/Src/stm32l0xx_hal_uart.c **** /**
2783:Drivers/STM32L0xx_HAL_Driver/Src/stm32l0xx_hal_uart.c ****   * @brief  Enable UART in mute mode (does not mean UART enters mute mode;
2784:Drivers/STM32L0xx_HAL_Driver/Src/stm32l0xx_hal_uart.c ****   *         to enter mute mode, HAL_MultiProcessor_EnterMuteMode() API must be called).
2785:Drivers/STM32L0xx_HAL_Driver/Src/stm32l0xx_hal_uart.c ****   * @param  huart UART handle.
2786:Drivers/STM32L0xx_HAL_Driver/Src/stm32l0xx_hal_uart.c ****   * @retval HAL status
2787:Drivers/STM32L0xx_HAL_Driver/Src/stm32l0xx_hal_uart.c ****   */
2788:Drivers/STM32L0xx_HAL_Driver/Src/stm32l0xx_hal_uart.c **** HAL_StatusTypeDef HAL_MultiProcessor_EnableMuteMode(UART_HandleTypeDef *huart)
2789:Drivers/STM32L0xx_HAL_Driver/Src/stm32l0xx_hal_uart.c **** {
 7238              		.loc 1 2789 1
 7239              		.cfi_startproc
 7240              		@ args = 0, pretend = 0, frame = 24
 7241              		@ frame_needed = 1, uses_anonymous_args = 0
 7242 0000 80B5     		push	{r7, lr}
 7243              	.LCFI105:
 7244              		.cfi_def_cfa_offset 8
 7245              		.cfi_offset 7, -8
 7246              		.cfi_offset 14, -4
 7247 0002 86B0     		sub	sp, sp, #24
 7248              	.LCFI106:
 7249              		.cfi_def_cfa_offset 32
 7250 0004 00AF     		add	r7, sp, #0
 7251              	.LCFI107:
 7252              		.cfi_def_cfa_register 7
 7253 0006 7860     		str	r0, [r7, #4]
2790:Drivers/STM32L0xx_HAL_Driver/Src/stm32l0xx_hal_uart.c ****   __HAL_LOCK(huart);
 7254              		.loc 1 2790 3
 7255 0008 7B68     		ldr	r3, [r7, #4]
 7256 000a 7422     		movs	r2, #116
 7257 000c 9B5C     		ldrb	r3, [r3, r2]
 7258 000e 012B     		cmp	r3, #1
 7259 0010 01D1     		bne	.L293
 7260              		.loc 1 2790 3 is_stmt 0 discriminator 1
 7261 0012 0223     		movs	r3, #2
 7262 0014 28E0     		b	.L294
 7263              	.L293:
 7264              		.loc 1 2790 3 discriminator 2
 7265 0016 7B68     		ldr	r3, [r7, #4]
 7266 0018 7422     		movs	r2, #116
 7267 001a 0121     		movs	r1, #1
 7268 001c 9954     		strb	r1, [r3, r2]
2791:Drivers/STM32L0xx_HAL_Driver/Src/stm32l0xx_hal_uart.c **** 
2792:Drivers/STM32L0xx_HAL_Driver/Src/stm32l0xx_hal_uart.c ****   huart->gState = HAL_UART_STATE_BUSY;
 7269              		.loc 1 2792 17 is_stmt 1 discriminator 2
 7270 001e 7B68     		ldr	r3, [r7, #4]
 7271 0020 2422     		movs	r2, #36
 7272 0022 9A67     		str	r2, [r3, #120]
 7273              	.LBB876:
 7274              	.LBB877:
 7275              	.LBB878:
 386:Drivers/CMSIS/Include/cmsis_gcc.h ****   return(result);
 7276              		.loc 2 386 3 discriminator 2
 7277              		.syntax divided
ARM GAS  C:\Users\lidka\AppData\Local\Temp\ccqOATUZ.s 			page 187


 7278              	@ 386 "Drivers/CMSIS/Include/cmsis_gcc.h" 1
 7279 0024 EFF31083 		MRS r3, primask
 7280              	@ 0 "" 2
 7281              		.thumb
 7282              		.syntax unified
 7283 0028 BB60     		str	r3, [r7, #8]
 387:Drivers/CMSIS/Include/cmsis_gcc.h **** }
 7284              		.loc 2 387 9 discriminator 2
 7285 002a BB68     		ldr	r3, [r7, #8]
 7286              	.LBE878:
 7287              	.LBE877:
2793:Drivers/STM32L0xx_HAL_Driver/Src/stm32l0xx_hal_uart.c **** 
2794:Drivers/STM32L0xx_HAL_Driver/Src/stm32l0xx_hal_uart.c ****   /* Enable USART mute mode by setting the MME bit in the CR1 register */
2795:Drivers/STM32L0xx_HAL_Driver/Src/stm32l0xx_hal_uart.c ****   ATOMIC_SET_BIT(huart->Instance->CR1, USART_CR1_MME);
 7288              		.loc 1 2795 3 discriminator 2
 7289 002c 7B61     		str	r3, [r7, #20]
 7290 002e 0123     		movs	r3, #1
 7291 0030 FB60     		str	r3, [r7, #12]
 7292              	.LBB879:
 7293              	.LBB880:
 414:Drivers/CMSIS/Include/cmsis_gcc.h **** }
 7294              		.loc 2 414 3 discriminator 2
 7295 0032 FB68     		ldr	r3, [r7, #12]
 7296              		.syntax divided
 7297              	@ 414 "Drivers/CMSIS/Include/cmsis_gcc.h" 1
 7298 0034 83F31088 		MSR primask, r3
 7299              	@ 0 "" 2
 7300              		.loc 2 415 1 discriminator 2
 7301              		.thumb
 7302              		.syntax unified
 7303 0038 C046     		nop
 7304              	.LBE880:
 7305              	.LBE879:
 7306              		.loc 1 2795 3 discriminator 2
 7307 003a 7B68     		ldr	r3, [r7, #4]
 7308 003c 1B68     		ldr	r3, [r3]
 7309 003e 1A68     		ldr	r2, [r3]
 7310 0040 7B68     		ldr	r3, [r7, #4]
 7311 0042 1B68     		ldr	r3, [r3]
 7312 0044 8021     		movs	r1, #128
 7313 0046 8901     		lsls	r1, r1, #6
 7314 0048 0A43     		orrs	r2, r1
 7315 004a 1A60     		str	r2, [r3]
 7316 004c 7B69     		ldr	r3, [r7, #20]
 7317 004e 3B61     		str	r3, [r7, #16]
 7318              	.LBB881:
 7319              	.LBB882:
 414:Drivers/CMSIS/Include/cmsis_gcc.h **** }
 7320              		.loc 2 414 3 discriminator 2
 7321 0050 3B69     		ldr	r3, [r7, #16]
 7322              		.syntax divided
 7323              	@ 414 "Drivers/CMSIS/Include/cmsis_gcc.h" 1
 7324 0052 83F31088 		MSR primask, r3
 7325              	@ 0 "" 2
 7326              		.loc 2 415 1 discriminator 2
 7327              		.thumb
 7328              		.syntax unified
ARM GAS  C:\Users\lidka\AppData\Local\Temp\ccqOATUZ.s 			page 188


 7329 0056 C046     		nop
 7330              	.LBE882:
 7331              	.LBE881:
 7332              	.LBE876:
2796:Drivers/STM32L0xx_HAL_Driver/Src/stm32l0xx_hal_uart.c **** 
2797:Drivers/STM32L0xx_HAL_Driver/Src/stm32l0xx_hal_uart.c ****   huart->gState = HAL_UART_STATE_READY;
 7333              		.loc 1 2797 17 discriminator 2
 7334 0058 7B68     		ldr	r3, [r7, #4]
 7335 005a 2022     		movs	r2, #32
 7336 005c 9A67     		str	r2, [r3, #120]
2798:Drivers/STM32L0xx_HAL_Driver/Src/stm32l0xx_hal_uart.c **** 
2799:Drivers/STM32L0xx_HAL_Driver/Src/stm32l0xx_hal_uart.c ****   return (UART_CheckIdleState(huart));
 7337              		.loc 1 2799 11 discriminator 2
 7338 005e 7B68     		ldr	r3, [r7, #4]
 7339 0060 1800     		movs	r0, r3
 7340 0062 FFF7FEFF 		bl	UART_CheckIdleState
 7341 0066 0300     		movs	r3, r0
 7342              	.L294:
2800:Drivers/STM32L0xx_HAL_Driver/Src/stm32l0xx_hal_uart.c **** }
 7343              		.loc 1 2800 1
 7344 0068 1800     		movs	r0, r3
 7345 006a BD46     		mov	sp, r7
 7346 006c 06B0     		add	sp, sp, #24
 7347              		@ sp needed
 7348 006e 80BD     		pop	{r7, pc}
 7349              		.cfi_endproc
 7350              	.LFE82:
 7352              		.section	.text.HAL_MultiProcessor_DisableMuteMode,"ax",%progbits
 7353              		.align	1
 7354              		.global	HAL_MultiProcessor_DisableMuteMode
 7355              		.syntax unified
 7356              		.code	16
 7357              		.thumb_func
 7359              	HAL_MultiProcessor_DisableMuteMode:
 7360              	.LFB83:
2801:Drivers/STM32L0xx_HAL_Driver/Src/stm32l0xx_hal_uart.c **** 
2802:Drivers/STM32L0xx_HAL_Driver/Src/stm32l0xx_hal_uart.c **** /**
2803:Drivers/STM32L0xx_HAL_Driver/Src/stm32l0xx_hal_uart.c ****   * @brief  Disable UART mute mode (does not mean the UART actually exits mute mode
2804:Drivers/STM32L0xx_HAL_Driver/Src/stm32l0xx_hal_uart.c ****   *         as it may not have been in mute mode at this very moment).
2805:Drivers/STM32L0xx_HAL_Driver/Src/stm32l0xx_hal_uart.c ****   * @param  huart UART handle.
2806:Drivers/STM32L0xx_HAL_Driver/Src/stm32l0xx_hal_uart.c ****   * @retval HAL status
2807:Drivers/STM32L0xx_HAL_Driver/Src/stm32l0xx_hal_uart.c ****   */
2808:Drivers/STM32L0xx_HAL_Driver/Src/stm32l0xx_hal_uart.c **** HAL_StatusTypeDef HAL_MultiProcessor_DisableMuteMode(UART_HandleTypeDef *huart)
2809:Drivers/STM32L0xx_HAL_Driver/Src/stm32l0xx_hal_uart.c **** {
 7361              		.loc 1 2809 1
 7362              		.cfi_startproc
 7363              		@ args = 0, pretend = 0, frame = 24
 7364              		@ frame_needed = 1, uses_anonymous_args = 0
 7365 0000 80B5     		push	{r7, lr}
 7366              	.LCFI108:
 7367              		.cfi_def_cfa_offset 8
 7368              		.cfi_offset 7, -8
 7369              		.cfi_offset 14, -4
 7370 0002 86B0     		sub	sp, sp, #24
 7371              	.LCFI109:
 7372              		.cfi_def_cfa_offset 32
 7373 0004 00AF     		add	r7, sp, #0
ARM GAS  C:\Users\lidka\AppData\Local\Temp\ccqOATUZ.s 			page 189


 7374              	.LCFI110:
 7375              		.cfi_def_cfa_register 7
 7376 0006 7860     		str	r0, [r7, #4]
2810:Drivers/STM32L0xx_HAL_Driver/Src/stm32l0xx_hal_uart.c ****   __HAL_LOCK(huart);
 7377              		.loc 1 2810 3
 7378 0008 7B68     		ldr	r3, [r7, #4]
 7379 000a 7422     		movs	r2, #116
 7380 000c 9B5C     		ldrb	r3, [r3, r2]
 7381 000e 012B     		cmp	r3, #1
 7382 0010 01D1     		bne	.L297
 7383              		.loc 1 2810 3 is_stmt 0 discriminator 1
 7384 0012 0223     		movs	r3, #2
 7385 0014 27E0     		b	.L298
 7386              	.L297:
 7387              		.loc 1 2810 3 discriminator 2
 7388 0016 7B68     		ldr	r3, [r7, #4]
 7389 0018 7422     		movs	r2, #116
 7390 001a 0121     		movs	r1, #1
 7391 001c 9954     		strb	r1, [r3, r2]
2811:Drivers/STM32L0xx_HAL_Driver/Src/stm32l0xx_hal_uart.c **** 
2812:Drivers/STM32L0xx_HAL_Driver/Src/stm32l0xx_hal_uart.c ****   huart->gState = HAL_UART_STATE_BUSY;
 7392              		.loc 1 2812 17 is_stmt 1 discriminator 2
 7393 001e 7B68     		ldr	r3, [r7, #4]
 7394 0020 2422     		movs	r2, #36
 7395 0022 9A67     		str	r2, [r3, #120]
 7396              	.LBB883:
 7397              	.LBB884:
 7398              	.LBB885:
 386:Drivers/CMSIS/Include/cmsis_gcc.h ****   return(result);
 7399              		.loc 2 386 3 discriminator 2
 7400              		.syntax divided
 7401              	@ 386 "Drivers/CMSIS/Include/cmsis_gcc.h" 1
 7402 0024 EFF31083 		MRS r3, primask
 7403              	@ 0 "" 2
 7404              		.thumb
 7405              		.syntax unified
 7406 0028 BB60     		str	r3, [r7, #8]
 387:Drivers/CMSIS/Include/cmsis_gcc.h **** }
 7407              		.loc 2 387 9 discriminator 2
 7408 002a BB68     		ldr	r3, [r7, #8]
 7409              	.LBE885:
 7410              	.LBE884:
2813:Drivers/STM32L0xx_HAL_Driver/Src/stm32l0xx_hal_uart.c **** 
2814:Drivers/STM32L0xx_HAL_Driver/Src/stm32l0xx_hal_uart.c ****   /* Disable USART mute mode by clearing the MME bit in the CR1 register */
2815:Drivers/STM32L0xx_HAL_Driver/Src/stm32l0xx_hal_uart.c ****   ATOMIC_CLEAR_BIT(huart->Instance->CR1, USART_CR1_MME);
 7411              		.loc 1 2815 3 discriminator 2
 7412 002c 7B61     		str	r3, [r7, #20]
 7413 002e 0123     		movs	r3, #1
 7414 0030 FB60     		str	r3, [r7, #12]
 7415              	.LBB886:
 7416              	.LBB887:
 414:Drivers/CMSIS/Include/cmsis_gcc.h **** }
 7417              		.loc 2 414 3 discriminator 2
 7418 0032 FB68     		ldr	r3, [r7, #12]
 7419              		.syntax divided
 7420              	@ 414 "Drivers/CMSIS/Include/cmsis_gcc.h" 1
 7421 0034 83F31088 		MSR primask, r3
ARM GAS  C:\Users\lidka\AppData\Local\Temp\ccqOATUZ.s 			page 190


 7422              	@ 0 "" 2
 7423              		.loc 2 415 1 discriminator 2
 7424              		.thumb
 7425              		.syntax unified
 7426 0038 C046     		nop
 7427              	.LBE887:
 7428              	.LBE886:
 7429              		.loc 1 2815 3 discriminator 2
 7430 003a 7B68     		ldr	r3, [r7, #4]
 7431 003c 1B68     		ldr	r3, [r3]
 7432 003e 1A68     		ldr	r2, [r3]
 7433 0040 7B68     		ldr	r3, [r7, #4]
 7434 0042 1B68     		ldr	r3, [r3]
 7435 0044 0A49     		ldr	r1, .L300
 7436 0046 0A40     		ands	r2, r1
 7437 0048 1A60     		str	r2, [r3]
 7438 004a 7B69     		ldr	r3, [r7, #20]
 7439 004c 3B61     		str	r3, [r7, #16]
 7440              	.LBB888:
 7441              	.LBB889:
 414:Drivers/CMSIS/Include/cmsis_gcc.h **** }
 7442              		.loc 2 414 3 discriminator 2
 7443 004e 3B69     		ldr	r3, [r7, #16]
 7444              		.syntax divided
 7445              	@ 414 "Drivers/CMSIS/Include/cmsis_gcc.h" 1
 7446 0050 83F31088 		MSR primask, r3
 7447              	@ 0 "" 2
 7448              		.loc 2 415 1 discriminator 2
 7449              		.thumb
 7450              		.syntax unified
 7451 0054 C046     		nop
 7452              	.LBE889:
 7453              	.LBE888:
 7454              	.LBE883:
2816:Drivers/STM32L0xx_HAL_Driver/Src/stm32l0xx_hal_uart.c **** 
2817:Drivers/STM32L0xx_HAL_Driver/Src/stm32l0xx_hal_uart.c ****   huart->gState = HAL_UART_STATE_READY;
 7455              		.loc 1 2817 17 discriminator 2
 7456 0056 7B68     		ldr	r3, [r7, #4]
 7457 0058 2022     		movs	r2, #32
 7458 005a 9A67     		str	r2, [r3, #120]
2818:Drivers/STM32L0xx_HAL_Driver/Src/stm32l0xx_hal_uart.c **** 
2819:Drivers/STM32L0xx_HAL_Driver/Src/stm32l0xx_hal_uart.c ****   return (UART_CheckIdleState(huart));
 7459              		.loc 1 2819 11 discriminator 2
 7460 005c 7B68     		ldr	r3, [r7, #4]
 7461 005e 1800     		movs	r0, r3
 7462 0060 FFF7FEFF 		bl	UART_CheckIdleState
 7463 0064 0300     		movs	r3, r0
 7464              	.L298:
2820:Drivers/STM32L0xx_HAL_Driver/Src/stm32l0xx_hal_uart.c **** }
 7465              		.loc 1 2820 1
 7466 0066 1800     		movs	r0, r3
 7467 0068 BD46     		mov	sp, r7
 7468 006a 06B0     		add	sp, sp, #24
 7469              		@ sp needed
 7470 006c 80BD     		pop	{r7, pc}
 7471              	.L301:
 7472 006e C046     		.align	2
ARM GAS  C:\Users\lidka\AppData\Local\Temp\ccqOATUZ.s 			page 191


 7473              	.L300:
 7474 0070 FFDFFFFF 		.word	-8193
 7475              		.cfi_endproc
 7476              	.LFE83:
 7478              		.section	.text.HAL_MultiProcessor_EnterMuteMode,"ax",%progbits
 7479              		.align	1
 7480              		.global	HAL_MultiProcessor_EnterMuteMode
 7481              		.syntax unified
 7482              		.code	16
 7483              		.thumb_func
 7485              	HAL_MultiProcessor_EnterMuteMode:
 7486              	.LFB84:
2821:Drivers/STM32L0xx_HAL_Driver/Src/stm32l0xx_hal_uart.c **** 
2822:Drivers/STM32L0xx_HAL_Driver/Src/stm32l0xx_hal_uart.c **** /**
2823:Drivers/STM32L0xx_HAL_Driver/Src/stm32l0xx_hal_uart.c ****   * @brief Enter UART mute mode (means UART actually enters mute mode).
2824:Drivers/STM32L0xx_HAL_Driver/Src/stm32l0xx_hal_uart.c ****   * @note  To exit from mute mode, HAL_MultiProcessor_DisableMuteMode() API must be called.
2825:Drivers/STM32L0xx_HAL_Driver/Src/stm32l0xx_hal_uart.c ****   * @param huart UART handle.
2826:Drivers/STM32L0xx_HAL_Driver/Src/stm32l0xx_hal_uart.c ****   * @retval None
2827:Drivers/STM32L0xx_HAL_Driver/Src/stm32l0xx_hal_uart.c ****   */
2828:Drivers/STM32L0xx_HAL_Driver/Src/stm32l0xx_hal_uart.c **** void HAL_MultiProcessor_EnterMuteMode(UART_HandleTypeDef *huart)
2829:Drivers/STM32L0xx_HAL_Driver/Src/stm32l0xx_hal_uart.c **** {
 7487              		.loc 1 2829 1
 7488              		.cfi_startproc
 7489              		@ args = 0, pretend = 0, frame = 8
 7490              		@ frame_needed = 1, uses_anonymous_args = 0
 7491 0000 80B5     		push	{r7, lr}
 7492              	.LCFI111:
 7493              		.cfi_def_cfa_offset 8
 7494              		.cfi_offset 7, -8
 7495              		.cfi_offset 14, -4
 7496 0002 82B0     		sub	sp, sp, #8
 7497              	.LCFI112:
 7498              		.cfi_def_cfa_offset 16
 7499 0004 00AF     		add	r7, sp, #0
 7500              	.LCFI113:
 7501              		.cfi_def_cfa_register 7
 7502 0006 7860     		str	r0, [r7, #4]
2830:Drivers/STM32L0xx_HAL_Driver/Src/stm32l0xx_hal_uart.c ****   __HAL_UART_SEND_REQ(huart, UART_MUTE_MODE_REQUEST);
 7503              		.loc 1 2830 3
 7504 0008 7B68     		ldr	r3, [r7, #4]
 7505 000a 1B68     		ldr	r3, [r3]
 7506 000c 9A69     		ldr	r2, [r3, #24]
 7507 000e 7B68     		ldr	r3, [r7, #4]
 7508 0010 1B68     		ldr	r3, [r3]
 7509 0012 0421     		movs	r1, #4
 7510 0014 0A43     		orrs	r2, r1
 7511 0016 9A61     		str	r2, [r3, #24]
2831:Drivers/STM32L0xx_HAL_Driver/Src/stm32l0xx_hal_uart.c **** }
 7512              		.loc 1 2831 1
 7513 0018 C046     		nop
 7514 001a BD46     		mov	sp, r7
 7515 001c 02B0     		add	sp, sp, #8
 7516              		@ sp needed
 7517 001e 80BD     		pop	{r7, pc}
 7518              		.cfi_endproc
 7519              	.LFE84:
 7521              		.section	.text.HAL_HalfDuplex_EnableTransmitter,"ax",%progbits
ARM GAS  C:\Users\lidka\AppData\Local\Temp\ccqOATUZ.s 			page 192


 7522              		.align	1
 7523              		.global	HAL_HalfDuplex_EnableTransmitter
 7524              		.syntax unified
 7525              		.code	16
 7526              		.thumb_func
 7528              	HAL_HalfDuplex_EnableTransmitter:
 7529              	.LFB85:
2832:Drivers/STM32L0xx_HAL_Driver/Src/stm32l0xx_hal_uart.c **** 
2833:Drivers/STM32L0xx_HAL_Driver/Src/stm32l0xx_hal_uart.c **** /**
2834:Drivers/STM32L0xx_HAL_Driver/Src/stm32l0xx_hal_uart.c ****   * @brief  Enable the UART transmitter and disable the UART receiver.
2835:Drivers/STM32L0xx_HAL_Driver/Src/stm32l0xx_hal_uart.c ****   * @param  huart UART handle.
2836:Drivers/STM32L0xx_HAL_Driver/Src/stm32l0xx_hal_uart.c ****   * @retval HAL status
2837:Drivers/STM32L0xx_HAL_Driver/Src/stm32l0xx_hal_uart.c ****   */
2838:Drivers/STM32L0xx_HAL_Driver/Src/stm32l0xx_hal_uart.c **** HAL_StatusTypeDef HAL_HalfDuplex_EnableTransmitter(UART_HandleTypeDef *huart)
2839:Drivers/STM32L0xx_HAL_Driver/Src/stm32l0xx_hal_uart.c **** {
 7530              		.loc 1 2839 1
 7531              		.cfi_startproc
 7532              		@ args = 0, pretend = 0, frame = 40
 7533              		@ frame_needed = 1, uses_anonymous_args = 0
 7534 0000 80B5     		push	{r7, lr}
 7535              	.LCFI114:
 7536              		.cfi_def_cfa_offset 8
 7537              		.cfi_offset 7, -8
 7538              		.cfi_offset 14, -4
 7539 0002 8AB0     		sub	sp, sp, #40
 7540              	.LCFI115:
 7541              		.cfi_def_cfa_offset 48
 7542 0004 00AF     		add	r7, sp, #0
 7543              	.LCFI116:
 7544              		.cfi_def_cfa_register 7
 7545 0006 7860     		str	r0, [r7, #4]
2840:Drivers/STM32L0xx_HAL_Driver/Src/stm32l0xx_hal_uart.c ****   __HAL_LOCK(huart);
 7546              		.loc 1 2840 3
 7547 0008 7B68     		ldr	r3, [r7, #4]
 7548 000a 7422     		movs	r2, #116
 7549 000c 9B5C     		ldrb	r3, [r3, r2]
 7550 000e 012B     		cmp	r3, #1
 7551 0010 01D1     		bne	.L304
 7552              		.loc 1 2840 3 is_stmt 0 discriminator 1
 7553 0012 0223     		movs	r3, #2
 7554 0014 40E0     		b	.L305
 7555              	.L304:
 7556              		.loc 1 2840 3 discriminator 2
 7557 0016 7B68     		ldr	r3, [r7, #4]
 7558 0018 7422     		movs	r2, #116
 7559 001a 0121     		movs	r1, #1
 7560 001c 9954     		strb	r1, [r3, r2]
2841:Drivers/STM32L0xx_HAL_Driver/Src/stm32l0xx_hal_uart.c ****   huart->gState = HAL_UART_STATE_BUSY;
 7561              		.loc 1 2841 17 is_stmt 1 discriminator 2
 7562 001e 7B68     		ldr	r3, [r7, #4]
 7563 0020 2422     		movs	r2, #36
 7564 0022 9A67     		str	r2, [r3, #120]
 7565              	.LBB890:
 7566              	.LBB891:
 7567              	.LBB892:
 386:Drivers/CMSIS/Include/cmsis_gcc.h ****   return(result);
 7568              		.loc 2 386 3 discriminator 2
ARM GAS  C:\Users\lidka\AppData\Local\Temp\ccqOATUZ.s 			page 193


 7569              		.syntax divided
 7570              	@ 386 "Drivers/CMSIS/Include/cmsis_gcc.h" 1
 7571 0024 EFF31083 		MRS r3, primask
 7572              	@ 0 "" 2
 7573              		.thumb
 7574              		.syntax unified
 7575 0028 BB60     		str	r3, [r7, #8]
 387:Drivers/CMSIS/Include/cmsis_gcc.h **** }
 7576              		.loc 2 387 9 discriminator 2
 7577 002a BB68     		ldr	r3, [r7, #8]
 7578              	.LBE892:
 7579              	.LBE891:
2842:Drivers/STM32L0xx_HAL_Driver/Src/stm32l0xx_hal_uart.c **** 
2843:Drivers/STM32L0xx_HAL_Driver/Src/stm32l0xx_hal_uart.c ****   /* Clear TE and RE bits */
2844:Drivers/STM32L0xx_HAL_Driver/Src/stm32l0xx_hal_uart.c ****   ATOMIC_CLEAR_BIT(huart->Instance->CR1, (USART_CR1_TE | USART_CR1_RE));
 7580              		.loc 1 2844 3 discriminator 2
 7581 002c 7B62     		str	r3, [r7, #36]
 7582 002e 0123     		movs	r3, #1
 7583 0030 FB60     		str	r3, [r7, #12]
 7584              	.LBB893:
 7585              	.LBB894:
 414:Drivers/CMSIS/Include/cmsis_gcc.h **** }
 7586              		.loc 2 414 3 discriminator 2
 7587 0032 FB68     		ldr	r3, [r7, #12]
 7588              		.syntax divided
 7589              	@ 414 "Drivers/CMSIS/Include/cmsis_gcc.h" 1
 7590 0034 83F31088 		MSR primask, r3
 7591              	@ 0 "" 2
 7592              		.loc 2 415 1 discriminator 2
 7593              		.thumb
 7594              		.syntax unified
 7595 0038 C046     		nop
 7596              	.LBE894:
 7597              	.LBE893:
 7598              		.loc 1 2844 3 discriminator 2
 7599 003a 7B68     		ldr	r3, [r7, #4]
 7600 003c 1B68     		ldr	r3, [r3]
 7601 003e 1A68     		ldr	r2, [r3]
 7602 0040 7B68     		ldr	r3, [r7, #4]
 7603 0042 1B68     		ldr	r3, [r3]
 7604 0044 0C21     		movs	r1, #12
 7605 0046 8A43     		bics	r2, r1
 7606 0048 1A60     		str	r2, [r3]
 7607 004a 7B6A     		ldr	r3, [r7, #36]
 7608 004c 3B61     		str	r3, [r7, #16]
 7609              	.LBB895:
 7610              	.LBB896:
 414:Drivers/CMSIS/Include/cmsis_gcc.h **** }
 7611              		.loc 2 414 3 discriminator 2
 7612 004e 3B69     		ldr	r3, [r7, #16]
 7613              		.syntax divided
 7614              	@ 414 "Drivers/CMSIS/Include/cmsis_gcc.h" 1
 7615 0050 83F31088 		MSR primask, r3
 7616              	@ 0 "" 2
 7617              		.loc 2 415 1 discriminator 2
 7618              		.thumb
 7619              		.syntax unified
ARM GAS  C:\Users\lidka\AppData\Local\Temp\ccqOATUZ.s 			page 194


 7620 0054 C046     		nop
 7621              	.LBE896:
 7622              	.LBE895:
 7623              	.LBE890:
 7624              	.LBB897:
 7625              	.LBB898:
 7626              	.LBB899:
 386:Drivers/CMSIS/Include/cmsis_gcc.h ****   return(result);
 7627              		.loc 2 386 3 discriminator 2
 7628              		.syntax divided
 7629              	@ 386 "Drivers/CMSIS/Include/cmsis_gcc.h" 1
 7630 0056 EFF31083 		MRS r3, primask
 7631              	@ 0 "" 2
 7632              		.thumb
 7633              		.syntax unified
 7634 005a 7B61     		str	r3, [r7, #20]
 387:Drivers/CMSIS/Include/cmsis_gcc.h **** }
 7635              		.loc 2 387 9 discriminator 2
 7636 005c 7B69     		ldr	r3, [r7, #20]
 7637              	.LBE899:
 7638              	.LBE898:
2845:Drivers/STM32L0xx_HAL_Driver/Src/stm32l0xx_hal_uart.c **** 
2846:Drivers/STM32L0xx_HAL_Driver/Src/stm32l0xx_hal_uart.c ****   /* Enable the USART's transmit interface by setting the TE bit in the USART CR1 register */
2847:Drivers/STM32L0xx_HAL_Driver/Src/stm32l0xx_hal_uart.c ****   ATOMIC_SET_BIT(huart->Instance->CR1, USART_CR1_TE);
 7639              		.loc 1 2847 3 discriminator 2
 7640 005e 3B62     		str	r3, [r7, #32]
 7641 0060 0123     		movs	r3, #1
 7642 0062 BB61     		str	r3, [r7, #24]
 7643              	.LBB900:
 7644              	.LBB901:
 414:Drivers/CMSIS/Include/cmsis_gcc.h **** }
 7645              		.loc 2 414 3 discriminator 2
 7646 0064 BB69     		ldr	r3, [r7, #24]
 7647              		.syntax divided
 7648              	@ 414 "Drivers/CMSIS/Include/cmsis_gcc.h" 1
 7649 0066 83F31088 		MSR primask, r3
 7650              	@ 0 "" 2
 7651              		.loc 2 415 1 discriminator 2
 7652              		.thumb
 7653              		.syntax unified
 7654 006a C046     		nop
 7655              	.LBE901:
 7656              	.LBE900:
 7657              		.loc 1 2847 3 discriminator 2
 7658 006c 7B68     		ldr	r3, [r7, #4]
 7659 006e 1B68     		ldr	r3, [r3]
 7660 0070 1A68     		ldr	r2, [r3]
 7661 0072 7B68     		ldr	r3, [r7, #4]
 7662 0074 1B68     		ldr	r3, [r3]
 7663 0076 0821     		movs	r1, #8
 7664 0078 0A43     		orrs	r2, r1
 7665 007a 1A60     		str	r2, [r3]
 7666 007c 3B6A     		ldr	r3, [r7, #32]
 7667 007e FB61     		str	r3, [r7, #28]
 7668              	.LBB902:
 7669              	.LBB903:
 414:Drivers/CMSIS/Include/cmsis_gcc.h **** }
ARM GAS  C:\Users\lidka\AppData\Local\Temp\ccqOATUZ.s 			page 195


 7670              		.loc 2 414 3 discriminator 2
 7671 0080 FB69     		ldr	r3, [r7, #28]
 7672              		.syntax divided
 7673              	@ 414 "Drivers/CMSIS/Include/cmsis_gcc.h" 1
 7674 0082 83F31088 		MSR primask, r3
 7675              	@ 0 "" 2
 7676              		.loc 2 415 1 discriminator 2
 7677              		.thumb
 7678              		.syntax unified
 7679 0086 C046     		nop
 7680              	.LBE903:
 7681              	.LBE902:
 7682              	.LBE897:
2848:Drivers/STM32L0xx_HAL_Driver/Src/stm32l0xx_hal_uart.c **** 
2849:Drivers/STM32L0xx_HAL_Driver/Src/stm32l0xx_hal_uart.c ****   huart->gState = HAL_UART_STATE_READY;
 7683              		.loc 1 2849 17 discriminator 2
 7684 0088 7B68     		ldr	r3, [r7, #4]
 7685 008a 2022     		movs	r2, #32
 7686 008c 9A67     		str	r2, [r3, #120]
2850:Drivers/STM32L0xx_HAL_Driver/Src/stm32l0xx_hal_uart.c **** 
2851:Drivers/STM32L0xx_HAL_Driver/Src/stm32l0xx_hal_uart.c ****   __HAL_UNLOCK(huart);
 7687              		.loc 1 2851 3 discriminator 2
 7688 008e 7B68     		ldr	r3, [r7, #4]
 7689 0090 7422     		movs	r2, #116
 7690 0092 0021     		movs	r1, #0
 7691 0094 9954     		strb	r1, [r3, r2]
2852:Drivers/STM32L0xx_HAL_Driver/Src/stm32l0xx_hal_uart.c **** 
2853:Drivers/STM32L0xx_HAL_Driver/Src/stm32l0xx_hal_uart.c ****   return HAL_OK;
 7692              		.loc 1 2853 10 discriminator 2
 7693 0096 0023     		movs	r3, #0
 7694              	.L305:
2854:Drivers/STM32L0xx_HAL_Driver/Src/stm32l0xx_hal_uart.c **** }
 7695              		.loc 1 2854 1
 7696 0098 1800     		movs	r0, r3
 7697 009a BD46     		mov	sp, r7
 7698 009c 0AB0     		add	sp, sp, #40
 7699              		@ sp needed
 7700 009e 80BD     		pop	{r7, pc}
 7701              		.cfi_endproc
 7702              	.LFE85:
 7704              		.section	.text.HAL_HalfDuplex_EnableReceiver,"ax",%progbits
 7705              		.align	1
 7706              		.global	HAL_HalfDuplex_EnableReceiver
 7707              		.syntax unified
 7708              		.code	16
 7709              		.thumb_func
 7711              	HAL_HalfDuplex_EnableReceiver:
 7712              	.LFB86:
2855:Drivers/STM32L0xx_HAL_Driver/Src/stm32l0xx_hal_uart.c **** 
2856:Drivers/STM32L0xx_HAL_Driver/Src/stm32l0xx_hal_uart.c **** /**
2857:Drivers/STM32L0xx_HAL_Driver/Src/stm32l0xx_hal_uart.c ****   * @brief  Enable the UART receiver and disable the UART transmitter.
2858:Drivers/STM32L0xx_HAL_Driver/Src/stm32l0xx_hal_uart.c ****   * @param  huart UART handle.
2859:Drivers/STM32L0xx_HAL_Driver/Src/stm32l0xx_hal_uart.c ****   * @retval HAL status.
2860:Drivers/STM32L0xx_HAL_Driver/Src/stm32l0xx_hal_uart.c ****   */
2861:Drivers/STM32L0xx_HAL_Driver/Src/stm32l0xx_hal_uart.c **** HAL_StatusTypeDef HAL_HalfDuplex_EnableReceiver(UART_HandleTypeDef *huart)
2862:Drivers/STM32L0xx_HAL_Driver/Src/stm32l0xx_hal_uart.c **** {
 7713              		.loc 1 2862 1
ARM GAS  C:\Users\lidka\AppData\Local\Temp\ccqOATUZ.s 			page 196


 7714              		.cfi_startproc
 7715              		@ args = 0, pretend = 0, frame = 40
 7716              		@ frame_needed = 1, uses_anonymous_args = 0
 7717 0000 80B5     		push	{r7, lr}
 7718              	.LCFI117:
 7719              		.cfi_def_cfa_offset 8
 7720              		.cfi_offset 7, -8
 7721              		.cfi_offset 14, -4
 7722 0002 8AB0     		sub	sp, sp, #40
 7723              	.LCFI118:
 7724              		.cfi_def_cfa_offset 48
 7725 0004 00AF     		add	r7, sp, #0
 7726              	.LCFI119:
 7727              		.cfi_def_cfa_register 7
 7728 0006 7860     		str	r0, [r7, #4]
2863:Drivers/STM32L0xx_HAL_Driver/Src/stm32l0xx_hal_uart.c ****   __HAL_LOCK(huart);
 7729              		.loc 1 2863 3
 7730 0008 7B68     		ldr	r3, [r7, #4]
 7731 000a 7422     		movs	r2, #116
 7732 000c 9B5C     		ldrb	r3, [r3, r2]
 7733 000e 012B     		cmp	r3, #1
 7734 0010 01D1     		bne	.L309
 7735              		.loc 1 2863 3 is_stmt 0 discriminator 1
 7736 0012 0223     		movs	r3, #2
 7737 0014 40E0     		b	.L310
 7738              	.L309:
 7739              		.loc 1 2863 3 discriminator 2
 7740 0016 7B68     		ldr	r3, [r7, #4]
 7741 0018 7422     		movs	r2, #116
 7742 001a 0121     		movs	r1, #1
 7743 001c 9954     		strb	r1, [r3, r2]
2864:Drivers/STM32L0xx_HAL_Driver/Src/stm32l0xx_hal_uart.c ****   huart->gState = HAL_UART_STATE_BUSY;
 7744              		.loc 1 2864 17 is_stmt 1 discriminator 2
 7745 001e 7B68     		ldr	r3, [r7, #4]
 7746 0020 2422     		movs	r2, #36
 7747 0022 9A67     		str	r2, [r3, #120]
 7748              	.LBB904:
 7749              	.LBB905:
 7750              	.LBB906:
 386:Drivers/CMSIS/Include/cmsis_gcc.h ****   return(result);
 7751              		.loc 2 386 3 discriminator 2
 7752              		.syntax divided
 7753              	@ 386 "Drivers/CMSIS/Include/cmsis_gcc.h" 1
 7754 0024 EFF31083 		MRS r3, primask
 7755              	@ 0 "" 2
 7756              		.thumb
 7757              		.syntax unified
 7758 0028 BB60     		str	r3, [r7, #8]
 387:Drivers/CMSIS/Include/cmsis_gcc.h **** }
 7759              		.loc 2 387 9 discriminator 2
 7760 002a BB68     		ldr	r3, [r7, #8]
 7761              	.LBE906:
 7762              	.LBE905:
2865:Drivers/STM32L0xx_HAL_Driver/Src/stm32l0xx_hal_uart.c **** 
2866:Drivers/STM32L0xx_HAL_Driver/Src/stm32l0xx_hal_uart.c ****   /* Clear TE and RE bits */
2867:Drivers/STM32L0xx_HAL_Driver/Src/stm32l0xx_hal_uart.c ****   ATOMIC_CLEAR_BIT(huart->Instance->CR1, (USART_CR1_TE | USART_CR1_RE));
 7763              		.loc 1 2867 3 discriminator 2
ARM GAS  C:\Users\lidka\AppData\Local\Temp\ccqOATUZ.s 			page 197


 7764 002c 7B62     		str	r3, [r7, #36]
 7765 002e 0123     		movs	r3, #1
 7766 0030 FB60     		str	r3, [r7, #12]
 7767              	.LBB907:
 7768              	.LBB908:
 414:Drivers/CMSIS/Include/cmsis_gcc.h **** }
 7769              		.loc 2 414 3 discriminator 2
 7770 0032 FB68     		ldr	r3, [r7, #12]
 7771              		.syntax divided
 7772              	@ 414 "Drivers/CMSIS/Include/cmsis_gcc.h" 1
 7773 0034 83F31088 		MSR primask, r3
 7774              	@ 0 "" 2
 7775              		.loc 2 415 1 discriminator 2
 7776              		.thumb
 7777              		.syntax unified
 7778 0038 C046     		nop
 7779              	.LBE908:
 7780              	.LBE907:
 7781              		.loc 1 2867 3 discriminator 2
 7782 003a 7B68     		ldr	r3, [r7, #4]
 7783 003c 1B68     		ldr	r3, [r3]
 7784 003e 1A68     		ldr	r2, [r3]
 7785 0040 7B68     		ldr	r3, [r7, #4]
 7786 0042 1B68     		ldr	r3, [r3]
 7787 0044 0C21     		movs	r1, #12
 7788 0046 8A43     		bics	r2, r1
 7789 0048 1A60     		str	r2, [r3]
 7790 004a 7B6A     		ldr	r3, [r7, #36]
 7791 004c 3B61     		str	r3, [r7, #16]
 7792              	.LBB909:
 7793              	.LBB910:
 414:Drivers/CMSIS/Include/cmsis_gcc.h **** }
 7794              		.loc 2 414 3 discriminator 2
 7795 004e 3B69     		ldr	r3, [r7, #16]
 7796              		.syntax divided
 7797              	@ 414 "Drivers/CMSIS/Include/cmsis_gcc.h" 1
 7798 0050 83F31088 		MSR primask, r3
 7799              	@ 0 "" 2
 7800              		.loc 2 415 1 discriminator 2
 7801              		.thumb
 7802              		.syntax unified
 7803 0054 C046     		nop
 7804              	.LBE910:
 7805              	.LBE909:
 7806              	.LBE904:
 7807              	.LBB911:
 7808              	.LBB912:
 7809              	.LBB913:
 386:Drivers/CMSIS/Include/cmsis_gcc.h ****   return(result);
 7810              		.loc 2 386 3 discriminator 2
 7811              		.syntax divided
 7812              	@ 386 "Drivers/CMSIS/Include/cmsis_gcc.h" 1
 7813 0056 EFF31083 		MRS r3, primask
 7814              	@ 0 "" 2
 7815              		.thumb
 7816              		.syntax unified
 7817 005a 7B61     		str	r3, [r7, #20]
ARM GAS  C:\Users\lidka\AppData\Local\Temp\ccqOATUZ.s 			page 198


 387:Drivers/CMSIS/Include/cmsis_gcc.h **** }
 7818              		.loc 2 387 9 discriminator 2
 7819 005c 7B69     		ldr	r3, [r7, #20]
 7820              	.LBE913:
 7821              	.LBE912:
2868:Drivers/STM32L0xx_HAL_Driver/Src/stm32l0xx_hal_uart.c **** 
2869:Drivers/STM32L0xx_HAL_Driver/Src/stm32l0xx_hal_uart.c ****   /* Enable the USART's receive interface by setting the RE bit in the USART CR1 register */
2870:Drivers/STM32L0xx_HAL_Driver/Src/stm32l0xx_hal_uart.c ****   ATOMIC_SET_BIT(huart->Instance->CR1, USART_CR1_RE);
 7822              		.loc 1 2870 3 discriminator 2
 7823 005e 3B62     		str	r3, [r7, #32]
 7824 0060 0123     		movs	r3, #1
 7825 0062 BB61     		str	r3, [r7, #24]
 7826              	.LBB914:
 7827              	.LBB915:
 414:Drivers/CMSIS/Include/cmsis_gcc.h **** }
 7828              		.loc 2 414 3 discriminator 2
 7829 0064 BB69     		ldr	r3, [r7, #24]
 7830              		.syntax divided
 7831              	@ 414 "Drivers/CMSIS/Include/cmsis_gcc.h" 1
 7832 0066 83F31088 		MSR primask, r3
 7833              	@ 0 "" 2
 7834              		.loc 2 415 1 discriminator 2
 7835              		.thumb
 7836              		.syntax unified
 7837 006a C046     		nop
 7838              	.LBE915:
 7839              	.LBE914:
 7840              		.loc 1 2870 3 discriminator 2
 7841 006c 7B68     		ldr	r3, [r7, #4]
 7842 006e 1B68     		ldr	r3, [r3]
 7843 0070 1A68     		ldr	r2, [r3]
 7844 0072 7B68     		ldr	r3, [r7, #4]
 7845 0074 1B68     		ldr	r3, [r3]
 7846 0076 0421     		movs	r1, #4
 7847 0078 0A43     		orrs	r2, r1
 7848 007a 1A60     		str	r2, [r3]
 7849 007c 3B6A     		ldr	r3, [r7, #32]
 7850 007e FB61     		str	r3, [r7, #28]
 7851              	.LBB916:
 7852              	.LBB917:
 414:Drivers/CMSIS/Include/cmsis_gcc.h **** }
 7853              		.loc 2 414 3 discriminator 2
 7854 0080 FB69     		ldr	r3, [r7, #28]
 7855              		.syntax divided
 7856              	@ 414 "Drivers/CMSIS/Include/cmsis_gcc.h" 1
 7857 0082 83F31088 		MSR primask, r3
 7858              	@ 0 "" 2
 7859              		.loc 2 415 1 discriminator 2
 7860              		.thumb
 7861              		.syntax unified
 7862 0086 C046     		nop
 7863              	.LBE917:
 7864              	.LBE916:
 7865              	.LBE911:
2871:Drivers/STM32L0xx_HAL_Driver/Src/stm32l0xx_hal_uart.c **** 
2872:Drivers/STM32L0xx_HAL_Driver/Src/stm32l0xx_hal_uart.c ****   huart->gState = HAL_UART_STATE_READY;
 7866              		.loc 1 2872 17 discriminator 2
ARM GAS  C:\Users\lidka\AppData\Local\Temp\ccqOATUZ.s 			page 199


 7867 0088 7B68     		ldr	r3, [r7, #4]
 7868 008a 2022     		movs	r2, #32
 7869 008c 9A67     		str	r2, [r3, #120]
2873:Drivers/STM32L0xx_HAL_Driver/Src/stm32l0xx_hal_uart.c **** 
2874:Drivers/STM32L0xx_HAL_Driver/Src/stm32l0xx_hal_uart.c ****   __HAL_UNLOCK(huart);
 7870              		.loc 1 2874 3 discriminator 2
 7871 008e 7B68     		ldr	r3, [r7, #4]
 7872 0090 7422     		movs	r2, #116
 7873 0092 0021     		movs	r1, #0
 7874 0094 9954     		strb	r1, [r3, r2]
2875:Drivers/STM32L0xx_HAL_Driver/Src/stm32l0xx_hal_uart.c **** 
2876:Drivers/STM32L0xx_HAL_Driver/Src/stm32l0xx_hal_uart.c ****   return HAL_OK;
 7875              		.loc 1 2876 10 discriminator 2
 7876 0096 0023     		movs	r3, #0
 7877              	.L310:
2877:Drivers/STM32L0xx_HAL_Driver/Src/stm32l0xx_hal_uart.c **** }
 7878              		.loc 1 2877 1
 7879 0098 1800     		movs	r0, r3
 7880 009a BD46     		mov	sp, r7
 7881 009c 0AB0     		add	sp, sp, #40
 7882              		@ sp needed
 7883 009e 80BD     		pop	{r7, pc}
 7884              		.cfi_endproc
 7885              	.LFE86:
 7887              		.section	.text.HAL_LIN_SendBreak,"ax",%progbits
 7888              		.align	1
 7889              		.global	HAL_LIN_SendBreak
 7890              		.syntax unified
 7891              		.code	16
 7892              		.thumb_func
 7894              	HAL_LIN_SendBreak:
 7895              	.LFB87:
2878:Drivers/STM32L0xx_HAL_Driver/Src/stm32l0xx_hal_uart.c **** 
2879:Drivers/STM32L0xx_HAL_Driver/Src/stm32l0xx_hal_uart.c **** 
2880:Drivers/STM32L0xx_HAL_Driver/Src/stm32l0xx_hal_uart.c **** /**
2881:Drivers/STM32L0xx_HAL_Driver/Src/stm32l0xx_hal_uart.c ****   * @brief  Transmit break characters.
2882:Drivers/STM32L0xx_HAL_Driver/Src/stm32l0xx_hal_uart.c ****   * @param  huart UART handle.
2883:Drivers/STM32L0xx_HAL_Driver/Src/stm32l0xx_hal_uart.c ****   * @retval HAL status
2884:Drivers/STM32L0xx_HAL_Driver/Src/stm32l0xx_hal_uart.c ****   */
2885:Drivers/STM32L0xx_HAL_Driver/Src/stm32l0xx_hal_uart.c **** HAL_StatusTypeDef HAL_LIN_SendBreak(UART_HandleTypeDef *huart)
2886:Drivers/STM32L0xx_HAL_Driver/Src/stm32l0xx_hal_uart.c **** {
 7896              		.loc 1 2886 1
 7897              		.cfi_startproc
 7898              		@ args = 0, pretend = 0, frame = 8
 7899              		@ frame_needed = 1, uses_anonymous_args = 0
 7900 0000 80B5     		push	{r7, lr}
 7901              	.LCFI120:
 7902              		.cfi_def_cfa_offset 8
 7903              		.cfi_offset 7, -8
 7904              		.cfi_offset 14, -4
 7905 0002 82B0     		sub	sp, sp, #8
 7906              	.LCFI121:
 7907              		.cfi_def_cfa_offset 16
 7908 0004 00AF     		add	r7, sp, #0
 7909              	.LCFI122:
 7910              		.cfi_def_cfa_register 7
 7911 0006 7860     		str	r0, [r7, #4]
ARM GAS  C:\Users\lidka\AppData\Local\Temp\ccqOATUZ.s 			page 200


2887:Drivers/STM32L0xx_HAL_Driver/Src/stm32l0xx_hal_uart.c ****   /* Check the parameters */
2888:Drivers/STM32L0xx_HAL_Driver/Src/stm32l0xx_hal_uart.c ****   assert_param(IS_UART_LIN_INSTANCE(huart->Instance));
2889:Drivers/STM32L0xx_HAL_Driver/Src/stm32l0xx_hal_uart.c **** 
2890:Drivers/STM32L0xx_HAL_Driver/Src/stm32l0xx_hal_uart.c ****   __HAL_LOCK(huart);
 7912              		.loc 1 2890 3
 7913 0008 7B68     		ldr	r3, [r7, #4]
 7914 000a 7422     		movs	r2, #116
 7915 000c 9B5C     		ldrb	r3, [r3, r2]
 7916 000e 012B     		cmp	r3, #1
 7917 0010 01D1     		bne	.L314
 7918              		.loc 1 2890 3 is_stmt 0 discriminator 1
 7919 0012 0223     		movs	r3, #2
 7920 0014 16E0     		b	.L315
 7921              	.L314:
 7922              		.loc 1 2890 3 discriminator 2
 7923 0016 7B68     		ldr	r3, [r7, #4]
 7924 0018 7422     		movs	r2, #116
 7925 001a 0121     		movs	r1, #1
 7926 001c 9954     		strb	r1, [r3, r2]
2891:Drivers/STM32L0xx_HAL_Driver/Src/stm32l0xx_hal_uart.c **** 
2892:Drivers/STM32L0xx_HAL_Driver/Src/stm32l0xx_hal_uart.c ****   huart->gState = HAL_UART_STATE_BUSY;
 7927              		.loc 1 2892 17 is_stmt 1 discriminator 2
 7928 001e 7B68     		ldr	r3, [r7, #4]
 7929 0020 2422     		movs	r2, #36
 7930 0022 9A67     		str	r2, [r3, #120]
2893:Drivers/STM32L0xx_HAL_Driver/Src/stm32l0xx_hal_uart.c **** 
2894:Drivers/STM32L0xx_HAL_Driver/Src/stm32l0xx_hal_uart.c ****   /* Send break characters */
2895:Drivers/STM32L0xx_HAL_Driver/Src/stm32l0xx_hal_uart.c ****   __HAL_UART_SEND_REQ(huart, UART_SENDBREAK_REQUEST);
 7931              		.loc 1 2895 3 discriminator 2
 7932 0024 7B68     		ldr	r3, [r7, #4]
 7933 0026 1B68     		ldr	r3, [r3]
 7934 0028 9A69     		ldr	r2, [r3, #24]
 7935 002a 7B68     		ldr	r3, [r7, #4]
 7936 002c 1B68     		ldr	r3, [r3]
 7937 002e 0221     		movs	r1, #2
 7938 0030 0A43     		orrs	r2, r1
 7939 0032 9A61     		str	r2, [r3, #24]
2896:Drivers/STM32L0xx_HAL_Driver/Src/stm32l0xx_hal_uart.c **** 
2897:Drivers/STM32L0xx_HAL_Driver/Src/stm32l0xx_hal_uart.c ****   huart->gState = HAL_UART_STATE_READY;
 7940              		.loc 1 2897 17 discriminator 2
 7941 0034 7B68     		ldr	r3, [r7, #4]
 7942 0036 2022     		movs	r2, #32
 7943 0038 9A67     		str	r2, [r3, #120]
2898:Drivers/STM32L0xx_HAL_Driver/Src/stm32l0xx_hal_uart.c **** 
2899:Drivers/STM32L0xx_HAL_Driver/Src/stm32l0xx_hal_uart.c ****   __HAL_UNLOCK(huart);
 7944              		.loc 1 2899 3 discriminator 2
 7945 003a 7B68     		ldr	r3, [r7, #4]
 7946 003c 7422     		movs	r2, #116
 7947 003e 0021     		movs	r1, #0
 7948 0040 9954     		strb	r1, [r3, r2]
2900:Drivers/STM32L0xx_HAL_Driver/Src/stm32l0xx_hal_uart.c **** 
2901:Drivers/STM32L0xx_HAL_Driver/Src/stm32l0xx_hal_uart.c ****   return HAL_OK;
 7949              		.loc 1 2901 10 discriminator 2
 7950 0042 0023     		movs	r3, #0
 7951              	.L315:
2902:Drivers/STM32L0xx_HAL_Driver/Src/stm32l0xx_hal_uart.c **** }
 7952              		.loc 1 2902 1
ARM GAS  C:\Users\lidka\AppData\Local\Temp\ccqOATUZ.s 			page 201


 7953 0044 1800     		movs	r0, r3
 7954 0046 BD46     		mov	sp, r7
 7955 0048 02B0     		add	sp, sp, #8
 7956              		@ sp needed
 7957 004a 80BD     		pop	{r7, pc}
 7958              		.cfi_endproc
 7959              	.LFE87:
 7961              		.section	.text.HAL_UART_GetState,"ax",%progbits
 7962              		.align	1
 7963              		.global	HAL_UART_GetState
 7964              		.syntax unified
 7965              		.code	16
 7966              		.thumb_func
 7968              	HAL_UART_GetState:
 7969              	.LFB88:
2903:Drivers/STM32L0xx_HAL_Driver/Src/stm32l0xx_hal_uart.c **** 
2904:Drivers/STM32L0xx_HAL_Driver/Src/stm32l0xx_hal_uart.c **** /**
2905:Drivers/STM32L0xx_HAL_Driver/Src/stm32l0xx_hal_uart.c ****   * @}
2906:Drivers/STM32L0xx_HAL_Driver/Src/stm32l0xx_hal_uart.c ****   */
2907:Drivers/STM32L0xx_HAL_Driver/Src/stm32l0xx_hal_uart.c **** 
2908:Drivers/STM32L0xx_HAL_Driver/Src/stm32l0xx_hal_uart.c **** /** @defgroup UART_Exported_Functions_Group4 Peripheral State and Error functions
2909:Drivers/STM32L0xx_HAL_Driver/Src/stm32l0xx_hal_uart.c ****   *  @brief   UART Peripheral State functions
2910:Drivers/STM32L0xx_HAL_Driver/Src/stm32l0xx_hal_uart.c ****   *
2911:Drivers/STM32L0xx_HAL_Driver/Src/stm32l0xx_hal_uart.c **** @verbatim
2912:Drivers/STM32L0xx_HAL_Driver/Src/stm32l0xx_hal_uart.c ****   ==============================================================================
2913:Drivers/STM32L0xx_HAL_Driver/Src/stm32l0xx_hal_uart.c ****             ##### Peripheral State and Error functions #####
2914:Drivers/STM32L0xx_HAL_Driver/Src/stm32l0xx_hal_uart.c ****   ==============================================================================
2915:Drivers/STM32L0xx_HAL_Driver/Src/stm32l0xx_hal_uart.c ****     [..]
2916:Drivers/STM32L0xx_HAL_Driver/Src/stm32l0xx_hal_uart.c ****     This subsection provides functions allowing to :
2917:Drivers/STM32L0xx_HAL_Driver/Src/stm32l0xx_hal_uart.c ****       (+) Return the UART handle state.
2918:Drivers/STM32L0xx_HAL_Driver/Src/stm32l0xx_hal_uart.c ****       (+) Return the UART handle error code
2919:Drivers/STM32L0xx_HAL_Driver/Src/stm32l0xx_hal_uart.c **** 
2920:Drivers/STM32L0xx_HAL_Driver/Src/stm32l0xx_hal_uart.c **** @endverbatim
2921:Drivers/STM32L0xx_HAL_Driver/Src/stm32l0xx_hal_uart.c ****   * @{
2922:Drivers/STM32L0xx_HAL_Driver/Src/stm32l0xx_hal_uart.c ****   */
2923:Drivers/STM32L0xx_HAL_Driver/Src/stm32l0xx_hal_uart.c **** 
2924:Drivers/STM32L0xx_HAL_Driver/Src/stm32l0xx_hal_uart.c **** /**
2925:Drivers/STM32L0xx_HAL_Driver/Src/stm32l0xx_hal_uart.c ****   * @brief Return the UART handle state.
2926:Drivers/STM32L0xx_HAL_Driver/Src/stm32l0xx_hal_uart.c ****   * @param  huart Pointer to a UART_HandleTypeDef structure that contains
2927:Drivers/STM32L0xx_HAL_Driver/Src/stm32l0xx_hal_uart.c ****   *               the configuration information for the specified UART.
2928:Drivers/STM32L0xx_HAL_Driver/Src/stm32l0xx_hal_uart.c ****   * @retval HAL state
2929:Drivers/STM32L0xx_HAL_Driver/Src/stm32l0xx_hal_uart.c ****   */
2930:Drivers/STM32L0xx_HAL_Driver/Src/stm32l0xx_hal_uart.c **** HAL_UART_StateTypeDef HAL_UART_GetState(UART_HandleTypeDef *huart)
2931:Drivers/STM32L0xx_HAL_Driver/Src/stm32l0xx_hal_uart.c **** {
 7970              		.loc 1 2931 1
 7971              		.cfi_startproc
 7972              		@ args = 0, pretend = 0, frame = 16
 7973              		@ frame_needed = 1, uses_anonymous_args = 0
 7974 0000 80B5     		push	{r7, lr}
 7975              	.LCFI123:
 7976              		.cfi_def_cfa_offset 8
 7977              		.cfi_offset 7, -8
 7978              		.cfi_offset 14, -4
 7979 0002 84B0     		sub	sp, sp, #16
 7980              	.LCFI124:
 7981              		.cfi_def_cfa_offset 24
 7982 0004 00AF     		add	r7, sp, #0
ARM GAS  C:\Users\lidka\AppData\Local\Temp\ccqOATUZ.s 			page 202


 7983              	.LCFI125:
 7984              		.cfi_def_cfa_register 7
 7985 0006 7860     		str	r0, [r7, #4]
2932:Drivers/STM32L0xx_HAL_Driver/Src/stm32l0xx_hal_uart.c ****   uint32_t temp1;
2933:Drivers/STM32L0xx_HAL_Driver/Src/stm32l0xx_hal_uart.c ****   uint32_t temp2;
2934:Drivers/STM32L0xx_HAL_Driver/Src/stm32l0xx_hal_uart.c ****   temp1 = huart->gState;
 7986              		.loc 1 2934 9
 7987 0008 7B68     		ldr	r3, [r7, #4]
 7988 000a 9B6F     		ldr	r3, [r3, #120]
 7989 000c FB60     		str	r3, [r7, #12]
2935:Drivers/STM32L0xx_HAL_Driver/Src/stm32l0xx_hal_uart.c ****   temp2 = huart->RxState;
 7990              		.loc 1 2935 9
 7991 000e 7B68     		ldr	r3, [r7, #4]
 7992 0010 DB6F     		ldr	r3, [r3, #124]
 7993 0012 BB60     		str	r3, [r7, #8]
2936:Drivers/STM32L0xx_HAL_Driver/Src/stm32l0xx_hal_uart.c **** 
2937:Drivers/STM32L0xx_HAL_Driver/Src/stm32l0xx_hal_uart.c ****   return (HAL_UART_StateTypeDef)(temp1 | temp2);
 7994              		.loc 1 2937 10
 7995 0014 FA68     		ldr	r2, [r7, #12]
 7996 0016 BB68     		ldr	r3, [r7, #8]
 7997 0018 1343     		orrs	r3, r2
2938:Drivers/STM32L0xx_HAL_Driver/Src/stm32l0xx_hal_uart.c **** }
 7998              		.loc 1 2938 1
 7999 001a 1800     		movs	r0, r3
 8000 001c BD46     		mov	sp, r7
 8001 001e 04B0     		add	sp, sp, #16
 8002              		@ sp needed
 8003 0020 80BD     		pop	{r7, pc}
 8004              		.cfi_endproc
 8005              	.LFE88:
 8007              		.section	.text.HAL_UART_GetError,"ax",%progbits
 8008              		.align	1
 8009              		.global	HAL_UART_GetError
 8010              		.syntax unified
 8011              		.code	16
 8012              		.thumb_func
 8014              	HAL_UART_GetError:
 8015              	.LFB89:
2939:Drivers/STM32L0xx_HAL_Driver/Src/stm32l0xx_hal_uart.c **** 
2940:Drivers/STM32L0xx_HAL_Driver/Src/stm32l0xx_hal_uart.c **** /**
2941:Drivers/STM32L0xx_HAL_Driver/Src/stm32l0xx_hal_uart.c ****   * @brief  Return the UART handle error code.
2942:Drivers/STM32L0xx_HAL_Driver/Src/stm32l0xx_hal_uart.c ****   * @param  huart Pointer to a UART_HandleTypeDef structure that contains
2943:Drivers/STM32L0xx_HAL_Driver/Src/stm32l0xx_hal_uart.c ****   *               the configuration information for the specified UART.
2944:Drivers/STM32L0xx_HAL_Driver/Src/stm32l0xx_hal_uart.c ****   * @retval UART Error Code
2945:Drivers/STM32L0xx_HAL_Driver/Src/stm32l0xx_hal_uart.c ****   */
2946:Drivers/STM32L0xx_HAL_Driver/Src/stm32l0xx_hal_uart.c **** uint32_t HAL_UART_GetError(UART_HandleTypeDef *huart)
2947:Drivers/STM32L0xx_HAL_Driver/Src/stm32l0xx_hal_uart.c **** {
 8016              		.loc 1 2947 1
 8017              		.cfi_startproc
 8018              		@ args = 0, pretend = 0, frame = 8
 8019              		@ frame_needed = 1, uses_anonymous_args = 0
 8020 0000 80B5     		push	{r7, lr}
 8021              	.LCFI126:
 8022              		.cfi_def_cfa_offset 8
 8023              		.cfi_offset 7, -8
 8024              		.cfi_offset 14, -4
 8025 0002 82B0     		sub	sp, sp, #8
ARM GAS  C:\Users\lidka\AppData\Local\Temp\ccqOATUZ.s 			page 203


 8026              	.LCFI127:
 8027              		.cfi_def_cfa_offset 16
 8028 0004 00AF     		add	r7, sp, #0
 8029              	.LCFI128:
 8030              		.cfi_def_cfa_register 7
 8031 0006 7860     		str	r0, [r7, #4]
2948:Drivers/STM32L0xx_HAL_Driver/Src/stm32l0xx_hal_uart.c ****   return huart->ErrorCode;
 8032              		.loc 1 2948 15
 8033 0008 7B68     		ldr	r3, [r7, #4]
 8034 000a 8022     		movs	r2, #128
 8035 000c 9B58     		ldr	r3, [r3, r2]
2949:Drivers/STM32L0xx_HAL_Driver/Src/stm32l0xx_hal_uart.c **** }
 8036              		.loc 1 2949 1
 8037 000e 1800     		movs	r0, r3
 8038 0010 BD46     		mov	sp, r7
 8039 0012 02B0     		add	sp, sp, #8
 8040              		@ sp needed
 8041 0014 80BD     		pop	{r7, pc}
 8042              		.cfi_endproc
 8043              	.LFE89:
 8045              		.global	__aeabi_uldivmod
 8046              		.global	__aeabi_uidiv
 8047              		.section	.text.UART_SetConfig,"ax",%progbits
 8048              		.align	1
 8049              		.global	UART_SetConfig
 8050              		.syntax unified
 8051              		.code	16
 8052              		.thumb_func
 8054              	UART_SetConfig:
 8055              	.LFB90:
2950:Drivers/STM32L0xx_HAL_Driver/Src/stm32l0xx_hal_uart.c **** /**
2951:Drivers/STM32L0xx_HAL_Driver/Src/stm32l0xx_hal_uart.c ****   * @}
2952:Drivers/STM32L0xx_HAL_Driver/Src/stm32l0xx_hal_uart.c ****   */
2953:Drivers/STM32L0xx_HAL_Driver/Src/stm32l0xx_hal_uart.c **** 
2954:Drivers/STM32L0xx_HAL_Driver/Src/stm32l0xx_hal_uart.c **** /**
2955:Drivers/STM32L0xx_HAL_Driver/Src/stm32l0xx_hal_uart.c ****   * @}
2956:Drivers/STM32L0xx_HAL_Driver/Src/stm32l0xx_hal_uart.c ****   */
2957:Drivers/STM32L0xx_HAL_Driver/Src/stm32l0xx_hal_uart.c **** 
2958:Drivers/STM32L0xx_HAL_Driver/Src/stm32l0xx_hal_uart.c **** /** @defgroup UART_Private_Functions UART Private Functions
2959:Drivers/STM32L0xx_HAL_Driver/Src/stm32l0xx_hal_uart.c ****   * @{
2960:Drivers/STM32L0xx_HAL_Driver/Src/stm32l0xx_hal_uart.c ****   */
2961:Drivers/STM32L0xx_HAL_Driver/Src/stm32l0xx_hal_uart.c **** 
2962:Drivers/STM32L0xx_HAL_Driver/Src/stm32l0xx_hal_uart.c **** /**
2963:Drivers/STM32L0xx_HAL_Driver/Src/stm32l0xx_hal_uart.c ****   * @brief  Initialize the callbacks to their default values.
2964:Drivers/STM32L0xx_HAL_Driver/Src/stm32l0xx_hal_uart.c ****   * @param  huart UART handle.
2965:Drivers/STM32L0xx_HAL_Driver/Src/stm32l0xx_hal_uart.c ****   * @retval none
2966:Drivers/STM32L0xx_HAL_Driver/Src/stm32l0xx_hal_uart.c ****   */
2967:Drivers/STM32L0xx_HAL_Driver/Src/stm32l0xx_hal_uart.c **** #if (USE_HAL_UART_REGISTER_CALLBACKS == 1)
2968:Drivers/STM32L0xx_HAL_Driver/Src/stm32l0xx_hal_uart.c **** void UART_InitCallbacksToDefault(UART_HandleTypeDef *huart)
2969:Drivers/STM32L0xx_HAL_Driver/Src/stm32l0xx_hal_uart.c **** {
2970:Drivers/STM32L0xx_HAL_Driver/Src/stm32l0xx_hal_uart.c ****   /* Init the UART Callback settings */
2971:Drivers/STM32L0xx_HAL_Driver/Src/stm32l0xx_hal_uart.c ****   huart->TxHalfCpltCallback        = HAL_UART_TxHalfCpltCallback;        /* Legacy weak TxHalfCpltC
2972:Drivers/STM32L0xx_HAL_Driver/Src/stm32l0xx_hal_uart.c ****   huart->TxCpltCallback            = HAL_UART_TxCpltCallback;            /* Legacy weak TxCpltCallb
2973:Drivers/STM32L0xx_HAL_Driver/Src/stm32l0xx_hal_uart.c ****   huart->RxHalfCpltCallback        = HAL_UART_RxHalfCpltCallback;        /* Legacy weak RxHalfCpltC
2974:Drivers/STM32L0xx_HAL_Driver/Src/stm32l0xx_hal_uart.c ****   huart->RxCpltCallback            = HAL_UART_RxCpltCallback;            /* Legacy weak RxCpltCallb
2975:Drivers/STM32L0xx_HAL_Driver/Src/stm32l0xx_hal_uart.c ****   huart->ErrorCallback             = HAL_UART_ErrorCallback;             /* Legacy weak ErrorCallba
2976:Drivers/STM32L0xx_HAL_Driver/Src/stm32l0xx_hal_uart.c ****   huart->AbortCpltCallback         = HAL_UART_AbortCpltCallback;         /* Legacy weak AbortCpltCa
ARM GAS  C:\Users\lidka\AppData\Local\Temp\ccqOATUZ.s 			page 204


2977:Drivers/STM32L0xx_HAL_Driver/Src/stm32l0xx_hal_uart.c ****   huart->AbortTransmitCpltCallback = HAL_UART_AbortTransmitCpltCallback; /* Legacy weak AbortTransm
2978:Drivers/STM32L0xx_HAL_Driver/Src/stm32l0xx_hal_uart.c ****   huart->AbortReceiveCpltCallback  = HAL_UART_AbortReceiveCpltCallback;  /* Legacy weak AbortReceiv
2979:Drivers/STM32L0xx_HAL_Driver/Src/stm32l0xx_hal_uart.c ****   huart->WakeupCallback            = HAL_UARTEx_WakeupCallback;          /* Legacy weak WakeupCallb
2980:Drivers/STM32L0xx_HAL_Driver/Src/stm32l0xx_hal_uart.c ****   huart->RxEventCallback           = HAL_UARTEx_RxEventCallback;         /* Legacy weak RxEventCall
2981:Drivers/STM32L0xx_HAL_Driver/Src/stm32l0xx_hal_uart.c **** 
2982:Drivers/STM32L0xx_HAL_Driver/Src/stm32l0xx_hal_uart.c **** }
2983:Drivers/STM32L0xx_HAL_Driver/Src/stm32l0xx_hal_uart.c **** #endif /* USE_HAL_UART_REGISTER_CALLBACKS */
2984:Drivers/STM32L0xx_HAL_Driver/Src/stm32l0xx_hal_uart.c **** 
2985:Drivers/STM32L0xx_HAL_Driver/Src/stm32l0xx_hal_uart.c **** /**
2986:Drivers/STM32L0xx_HAL_Driver/Src/stm32l0xx_hal_uart.c ****   * @brief Configure the UART peripheral.
2987:Drivers/STM32L0xx_HAL_Driver/Src/stm32l0xx_hal_uart.c ****   * @param huart UART handle.
2988:Drivers/STM32L0xx_HAL_Driver/Src/stm32l0xx_hal_uart.c ****   * @retval HAL status
2989:Drivers/STM32L0xx_HAL_Driver/Src/stm32l0xx_hal_uart.c ****   */
2990:Drivers/STM32L0xx_HAL_Driver/Src/stm32l0xx_hal_uart.c **** HAL_StatusTypeDef UART_SetConfig(UART_HandleTypeDef *huart)
2991:Drivers/STM32L0xx_HAL_Driver/Src/stm32l0xx_hal_uart.c **** {
 8056              		.loc 1 2991 1
 8057              		.cfi_startproc
 8058              		@ args = 0, pretend = 0, frame = 56
 8059              		@ frame_needed = 1, uses_anonymous_args = 0
 8060 0000 B0B5     		push	{r4, r5, r7, lr}
 8061              	.LCFI129:
 8062              		.cfi_def_cfa_offset 16
 8063              		.cfi_offset 4, -16
 8064              		.cfi_offset 5, -12
 8065              		.cfi_offset 7, -8
 8066              		.cfi_offset 14, -4
 8067 0002 8EB0     		sub	sp, sp, #56
 8068              	.LCFI130:
 8069              		.cfi_def_cfa_offset 72
 8070 0004 00AF     		add	r7, sp, #0
 8071              	.LCFI131:
 8072              		.cfi_def_cfa_register 7
 8073 0006 F861     		str	r0, [r7, #28]
2992:Drivers/STM32L0xx_HAL_Driver/Src/stm32l0xx_hal_uart.c ****   uint32_t tmpreg;
2993:Drivers/STM32L0xx_HAL_Driver/Src/stm32l0xx_hal_uart.c ****   uint16_t brrtemp;
2994:Drivers/STM32L0xx_HAL_Driver/Src/stm32l0xx_hal_uart.c ****   UART_ClockSourceTypeDef clocksource;
2995:Drivers/STM32L0xx_HAL_Driver/Src/stm32l0xx_hal_uart.c ****   uint32_t usartdiv;
2996:Drivers/STM32L0xx_HAL_Driver/Src/stm32l0xx_hal_uart.c ****   HAL_StatusTypeDef ret               = HAL_OK;
 8074              		.loc 1 2996 21
 8075 0008 1A23     		movs	r3, #26
 8076 000a 1822     		movs	r2, #24
 8077 000c 9B18     		adds	r3, r3, r2
 8078 000e DB19     		adds	r3, r3, r7
 8079 0010 0022     		movs	r2, #0
 8080 0012 1A70     		strb	r2, [r3]
2997:Drivers/STM32L0xx_HAL_Driver/Src/stm32l0xx_hal_uart.c ****   uint32_t pclk;
2998:Drivers/STM32L0xx_HAL_Driver/Src/stm32l0xx_hal_uart.c **** 
2999:Drivers/STM32L0xx_HAL_Driver/Src/stm32l0xx_hal_uart.c ****   /* Check the parameters */
3000:Drivers/STM32L0xx_HAL_Driver/Src/stm32l0xx_hal_uart.c ****   assert_param(IS_UART_BAUDRATE(huart->Init.BaudRate));
3001:Drivers/STM32L0xx_HAL_Driver/Src/stm32l0xx_hal_uart.c ****   assert_param(IS_UART_WORD_LENGTH(huart->Init.WordLength));
3002:Drivers/STM32L0xx_HAL_Driver/Src/stm32l0xx_hal_uart.c ****   if (UART_INSTANCE_LOWPOWER(huart))
3003:Drivers/STM32L0xx_HAL_Driver/Src/stm32l0xx_hal_uart.c ****   {
3004:Drivers/STM32L0xx_HAL_Driver/Src/stm32l0xx_hal_uart.c ****     assert_param(IS_LPUART_STOPBITS(huart->Init.StopBits));
3005:Drivers/STM32L0xx_HAL_Driver/Src/stm32l0xx_hal_uart.c ****   }
3006:Drivers/STM32L0xx_HAL_Driver/Src/stm32l0xx_hal_uart.c ****   else
3007:Drivers/STM32L0xx_HAL_Driver/Src/stm32l0xx_hal_uart.c ****   {
3008:Drivers/STM32L0xx_HAL_Driver/Src/stm32l0xx_hal_uart.c ****     assert_param(IS_UART_STOPBITS(huart->Init.StopBits));
ARM GAS  C:\Users\lidka\AppData\Local\Temp\ccqOATUZ.s 			page 205


3009:Drivers/STM32L0xx_HAL_Driver/Src/stm32l0xx_hal_uart.c ****     assert_param(IS_UART_ONE_BIT_SAMPLE(huart->Init.OneBitSampling));
3010:Drivers/STM32L0xx_HAL_Driver/Src/stm32l0xx_hal_uart.c ****   }
3011:Drivers/STM32L0xx_HAL_Driver/Src/stm32l0xx_hal_uart.c **** 
3012:Drivers/STM32L0xx_HAL_Driver/Src/stm32l0xx_hal_uart.c ****   assert_param(IS_UART_PARITY(huart->Init.Parity));
3013:Drivers/STM32L0xx_HAL_Driver/Src/stm32l0xx_hal_uart.c ****   assert_param(IS_UART_MODE(huart->Init.Mode));
3014:Drivers/STM32L0xx_HAL_Driver/Src/stm32l0xx_hal_uart.c ****   assert_param(IS_UART_HARDWARE_FLOW_CONTROL(huart->Init.HwFlowCtl));
3015:Drivers/STM32L0xx_HAL_Driver/Src/stm32l0xx_hal_uart.c ****   assert_param(IS_UART_OVERSAMPLING(huart->Init.OverSampling));
3016:Drivers/STM32L0xx_HAL_Driver/Src/stm32l0xx_hal_uart.c **** 
3017:Drivers/STM32L0xx_HAL_Driver/Src/stm32l0xx_hal_uart.c ****   /*-------------------------- USART CR1 Configuration -----------------------*/
3018:Drivers/STM32L0xx_HAL_Driver/Src/stm32l0xx_hal_uart.c ****   /* Clear M, PCE, PS, TE, RE and OVER8 bits and configure
3019:Drivers/STM32L0xx_HAL_Driver/Src/stm32l0xx_hal_uart.c ****   *  the UART Word Length, Parity, Mode and oversampling:
3020:Drivers/STM32L0xx_HAL_Driver/Src/stm32l0xx_hal_uart.c ****   *  set the M bits according to huart->Init.WordLength value
3021:Drivers/STM32L0xx_HAL_Driver/Src/stm32l0xx_hal_uart.c ****   *  set PCE and PS bits according to huart->Init.Parity value
3022:Drivers/STM32L0xx_HAL_Driver/Src/stm32l0xx_hal_uart.c ****   *  set TE and RE bits according to huart->Init.Mode value
3023:Drivers/STM32L0xx_HAL_Driver/Src/stm32l0xx_hal_uart.c ****   *  set OVER8 bit according to huart->Init.OverSampling value */
3024:Drivers/STM32L0xx_HAL_Driver/Src/stm32l0xx_hal_uart.c ****   tmpreg = (uint32_t)huart->Init.WordLength | huart->Init.Parity | huart->Init.Mode | huart->Init.O
 8081              		.loc 1 3024 33
 8082 0014 FB69     		ldr	r3, [r7, #28]
 8083 0016 9A68     		ldr	r2, [r3, #8]
 8084              		.loc 1 3024 58
 8085 0018 FB69     		ldr	r3, [r7, #28]
 8086 001a 1B69     		ldr	r3, [r3, #16]
 8087              		.loc 1 3024 45
 8088 001c 1A43     		orrs	r2, r3
 8089              		.loc 1 3024 79
 8090 001e FB69     		ldr	r3, [r7, #28]
 8091 0020 5B69     		ldr	r3, [r3, #20]
 8092              		.loc 1 3024 66
 8093 0022 1A43     		orrs	r2, r3
 8094              		.loc 1 3024 98
 8095 0024 FB69     		ldr	r3, [r7, #28]
 8096 0026 DB69     		ldr	r3, [r3, #28]
 8097              		.loc 1 3024 10
 8098 0028 1343     		orrs	r3, r2
 8099 002a 7B63     		str	r3, [r7, #52]
3025:Drivers/STM32L0xx_HAL_Driver/Src/stm32l0xx_hal_uart.c ****   MODIFY_REG(huart->Instance->CR1, USART_CR1_FIELDS, tmpreg);
 8100              		.loc 1 3025 3
 8101 002c FB69     		ldr	r3, [r7, #28]
 8102 002e 1B68     		ldr	r3, [r3]
 8103 0030 1B68     		ldr	r3, [r3]
 8104 0032 C64A     		ldr	r2, .L383
 8105 0034 1340     		ands	r3, r2
 8106 0036 1900     		movs	r1, r3
 8107 0038 FB69     		ldr	r3, [r7, #28]
 8108 003a 1B68     		ldr	r3, [r3]
 8109 003c 7A6B     		ldr	r2, [r7, #52]
 8110 003e 0A43     		orrs	r2, r1
 8111 0040 1A60     		str	r2, [r3]
3026:Drivers/STM32L0xx_HAL_Driver/Src/stm32l0xx_hal_uart.c **** 
3027:Drivers/STM32L0xx_HAL_Driver/Src/stm32l0xx_hal_uart.c ****   /*-------------------------- USART CR2 Configuration -----------------------*/
3028:Drivers/STM32L0xx_HAL_Driver/Src/stm32l0xx_hal_uart.c ****   /* Configure the UART Stop Bits: Set STOP[13:12] bits according
3029:Drivers/STM32L0xx_HAL_Driver/Src/stm32l0xx_hal_uart.c ****   * to huart->Init.StopBits value */
3030:Drivers/STM32L0xx_HAL_Driver/Src/stm32l0xx_hal_uart.c ****   MODIFY_REG(huart->Instance->CR2, USART_CR2_STOP, huart->Init.StopBits);
 8112              		.loc 1 3030 3
 8113 0042 FB69     		ldr	r3, [r7, #28]
 8114 0044 1B68     		ldr	r3, [r3]
 8115 0046 5B68     		ldr	r3, [r3, #4]
ARM GAS  C:\Users\lidka\AppData\Local\Temp\ccqOATUZ.s 			page 206


 8116 0048 C14A     		ldr	r2, .L383+4
 8117 004a 1340     		ands	r3, r2
 8118 004c 1900     		movs	r1, r3
 8119 004e FB69     		ldr	r3, [r7, #28]
 8120 0050 DA68     		ldr	r2, [r3, #12]
 8121 0052 FB69     		ldr	r3, [r7, #28]
 8122 0054 1B68     		ldr	r3, [r3]
 8123 0056 0A43     		orrs	r2, r1
 8124 0058 5A60     		str	r2, [r3, #4]
3031:Drivers/STM32L0xx_HAL_Driver/Src/stm32l0xx_hal_uart.c **** 
3032:Drivers/STM32L0xx_HAL_Driver/Src/stm32l0xx_hal_uart.c ****   /*-------------------------- USART CR3 Configuration -----------------------*/
3033:Drivers/STM32L0xx_HAL_Driver/Src/stm32l0xx_hal_uart.c ****   /* Configure
3034:Drivers/STM32L0xx_HAL_Driver/Src/stm32l0xx_hal_uart.c ****   * - UART HardWare Flow Control: set CTSE and RTSE bits according
3035:Drivers/STM32L0xx_HAL_Driver/Src/stm32l0xx_hal_uart.c ****   *   to huart->Init.HwFlowCtl value
3036:Drivers/STM32L0xx_HAL_Driver/Src/stm32l0xx_hal_uart.c ****   * - one-bit sampling method versus three samples' majority rule according
3037:Drivers/STM32L0xx_HAL_Driver/Src/stm32l0xx_hal_uart.c ****   *   to huart->Init.OneBitSampling (not applicable to LPUART) */
3038:Drivers/STM32L0xx_HAL_Driver/Src/stm32l0xx_hal_uart.c ****   tmpreg = (uint32_t)huart->Init.HwFlowCtl;
 8125              		.loc 1 3038 10
 8126 005a FB69     		ldr	r3, [r7, #28]
 8127 005c 9B69     		ldr	r3, [r3, #24]
 8128 005e 7B63     		str	r3, [r7, #52]
3039:Drivers/STM32L0xx_HAL_Driver/Src/stm32l0xx_hal_uart.c **** 
3040:Drivers/STM32L0xx_HAL_Driver/Src/stm32l0xx_hal_uart.c ****   if (!(UART_INSTANCE_LOWPOWER(huart)))
 8129              		.loc 1 3040 9
 8130 0060 FB69     		ldr	r3, [r7, #28]
 8131 0062 1B68     		ldr	r3, [r3]
 8132              		.loc 1 3040 6
 8133 0064 BB4A     		ldr	r2, .L383+8
 8134 0066 9342     		cmp	r3, r2
 8135 0068 04D0     		beq	.L321
3041:Drivers/STM32L0xx_HAL_Driver/Src/stm32l0xx_hal_uart.c ****   {
3042:Drivers/STM32L0xx_HAL_Driver/Src/stm32l0xx_hal_uart.c ****     tmpreg |= huart->Init.OneBitSampling;
 8136              		.loc 1 3042 26
 8137 006a FB69     		ldr	r3, [r7, #28]
 8138 006c 1B6A     		ldr	r3, [r3, #32]
 8139              		.loc 1 3042 12
 8140 006e 7A6B     		ldr	r2, [r7, #52]
 8141 0070 1343     		orrs	r3, r2
 8142 0072 7B63     		str	r3, [r7, #52]
 8143              	.L321:
3043:Drivers/STM32L0xx_HAL_Driver/Src/stm32l0xx_hal_uart.c ****   }
3044:Drivers/STM32L0xx_HAL_Driver/Src/stm32l0xx_hal_uart.c ****   MODIFY_REG(huart->Instance->CR3, USART_CR3_FIELDS, tmpreg);
 8144              		.loc 1 3044 3
 8145 0074 FB69     		ldr	r3, [r7, #28]
 8146 0076 1B68     		ldr	r3, [r3]
 8147 0078 9B68     		ldr	r3, [r3, #8]
 8148 007a B74A     		ldr	r2, .L383+12
 8149 007c 1340     		ands	r3, r2
 8150 007e 1900     		movs	r1, r3
 8151 0080 FB69     		ldr	r3, [r7, #28]
 8152 0082 1B68     		ldr	r3, [r3]
 8153 0084 7A6B     		ldr	r2, [r7, #52]
 8154 0086 0A43     		orrs	r2, r1
 8155 0088 9A60     		str	r2, [r3, #8]
3045:Drivers/STM32L0xx_HAL_Driver/Src/stm32l0xx_hal_uart.c **** 
3046:Drivers/STM32L0xx_HAL_Driver/Src/stm32l0xx_hal_uart.c **** 
3047:Drivers/STM32L0xx_HAL_Driver/Src/stm32l0xx_hal_uart.c ****   /*-------------------------- USART BRR Configuration -----------------------*/
ARM GAS  C:\Users\lidka\AppData\Local\Temp\ccqOATUZ.s 			page 207


3048:Drivers/STM32L0xx_HAL_Driver/Src/stm32l0xx_hal_uart.c ****   UART_GETCLOCKSOURCE(huart, clocksource);
 8156              		.loc 1 3048 3
 8157 008a FB69     		ldr	r3, [r7, #28]
 8158 008c 1B68     		ldr	r3, [r3]
 8159 008e B34A     		ldr	r2, .L383+16
 8160 0090 9342     		cmp	r3, r2
 8161 0092 31D1     		bne	.L322
 8162              		.loc 1 3048 3 is_stmt 0 discriminator 1
 8163 0094 B24B     		ldr	r3, .L383+20
 8164 0096 DB6C     		ldr	r3, [r3, #76]
 8165 0098 0322     		movs	r2, #3
 8166 009a 1340     		ands	r3, r2
 8167 009c 032B     		cmp	r3, #3
 8168 009e 1DD0     		beq	.L323
 8169              		.loc 1 3048 3
 8170 00a0 23D8     		bhi	.L324
 8171 00a2 022B     		cmp	r3, #2
 8172 00a4 0CD0     		beq	.L325
 8173 00a6 20D8     		bhi	.L324
 8174 00a8 002B     		cmp	r3, #0
 8175 00aa 02D0     		beq	.L326
 8176 00ac 012B     		cmp	r3, #1
 8177 00ae 0ED0     		beq	.L327
 8178 00b0 1BE0     		b	.L324
 8179              	.L326:
 8180              		.loc 1 3048 3 discriminator 4
 8181 00b2 1B23     		movs	r3, #27
 8182 00b4 1822     		movs	r2, #24
 8183 00b6 9B18     		adds	r3, r3, r2
 8184 00b8 DB19     		adds	r3, r3, r7
 8185 00ba 0122     		movs	r2, #1
 8186 00bc 1A70     		strb	r2, [r3]
 8187 00be 9CE0     		b	.L329
 8188              	.L325:
 8189              		.loc 1 3048 3 discriminator 6
 8190 00c0 1B23     		movs	r3, #27
 8191 00c2 1822     		movs	r2, #24
 8192 00c4 9B18     		adds	r3, r3, r2
 8193 00c6 DB19     		adds	r3, r3, r7
 8194 00c8 0222     		movs	r2, #2
 8195 00ca 1A70     		strb	r2, [r3]
 8196 00cc 95E0     		b	.L329
 8197              	.L327:
 8198              		.loc 1 3048 3 discriminator 5
 8199 00ce 1B23     		movs	r3, #27
 8200 00d0 1822     		movs	r2, #24
 8201 00d2 9B18     		adds	r3, r3, r2
 8202 00d4 DB19     		adds	r3, r3, r7
 8203 00d6 0422     		movs	r2, #4
 8204 00d8 1A70     		strb	r2, [r3]
 8205 00da 8EE0     		b	.L329
 8206              	.L323:
 8207              		.loc 1 3048 3 discriminator 7
 8208 00dc 1B23     		movs	r3, #27
 8209 00de 1822     		movs	r2, #24
 8210 00e0 9B18     		adds	r3, r3, r2
 8211 00e2 DB19     		adds	r3, r3, r7
ARM GAS  C:\Users\lidka\AppData\Local\Temp\ccqOATUZ.s 			page 208


 8212 00e4 0822     		movs	r2, #8
 8213 00e6 1A70     		strb	r2, [r3]
 8214 00e8 87E0     		b	.L329
 8215              	.L324:
 8216              		.loc 1 3048 3 discriminator 3
 8217 00ea 1B23     		movs	r3, #27
 8218 00ec 1822     		movs	r2, #24
 8219 00ee 9B18     		adds	r3, r3, r2
 8220 00f0 DB19     		adds	r3, r3, r7
 8221 00f2 1022     		movs	r2, #16
 8222 00f4 1A70     		strb	r2, [r3]
 8223 00f6 80E0     		b	.L329
 8224              	.L322:
 8225              		.loc 1 3048 3 discriminator 2
 8226 00f8 FB69     		ldr	r3, [r7, #28]
 8227 00fa 1B68     		ldr	r3, [r3]
 8228 00fc 994A     		ldr	r2, .L383+24
 8229 00fe 9342     		cmp	r3, r2
 8230 0100 31D1     		bne	.L330
 8231              		.loc 1 3048 3 discriminator 13
 8232 0102 974B     		ldr	r3, .L383+20
 8233 0104 DB6C     		ldr	r3, [r3, #76]
 8234 0106 0C22     		movs	r2, #12
 8235 0108 1340     		ands	r3, r2
 8236 010a 0C2B     		cmp	r3, #12
 8237 010c 1DD0     		beq	.L331
 8238              		.loc 1 3048 3
 8239 010e 23D8     		bhi	.L332
 8240 0110 082B     		cmp	r3, #8
 8241 0112 0CD0     		beq	.L333
 8242 0114 20D8     		bhi	.L332
 8243 0116 002B     		cmp	r3, #0
 8244 0118 02D0     		beq	.L334
 8245 011a 042B     		cmp	r3, #4
 8246 011c 0ED0     		beq	.L335
 8247 011e 1BE0     		b	.L332
 8248              	.L334:
 8249              		.loc 1 3048 3 discriminator 16
 8250 0120 1B23     		movs	r3, #27
 8251 0122 1822     		movs	r2, #24
 8252 0124 9B18     		adds	r3, r3, r2
 8253 0126 DB19     		adds	r3, r3, r7
 8254 0128 0022     		movs	r2, #0
 8255 012a 1A70     		strb	r2, [r3]
 8256 012c 65E0     		b	.L329
 8257              	.L333:
 8258              		.loc 1 3048 3 discriminator 18
 8259 012e 1B23     		movs	r3, #27
 8260 0130 1822     		movs	r2, #24
 8261 0132 9B18     		adds	r3, r3, r2
 8262 0134 DB19     		adds	r3, r3, r7
 8263 0136 0222     		movs	r2, #2
 8264 0138 1A70     		strb	r2, [r3]
 8265 013a 5EE0     		b	.L329
 8266              	.L335:
 8267              		.loc 1 3048 3 discriminator 17
 8268 013c 1B23     		movs	r3, #27
ARM GAS  C:\Users\lidka\AppData\Local\Temp\ccqOATUZ.s 			page 209


 8269 013e 1822     		movs	r2, #24
 8270 0140 9B18     		adds	r3, r3, r2
 8271 0142 DB19     		adds	r3, r3, r7
 8272 0144 0422     		movs	r2, #4
 8273 0146 1A70     		strb	r2, [r3]
 8274 0148 57E0     		b	.L329
 8275              	.L331:
 8276              		.loc 1 3048 3 discriminator 19
 8277 014a 1B23     		movs	r3, #27
 8278 014c 1822     		movs	r2, #24
 8279 014e 9B18     		adds	r3, r3, r2
 8280 0150 DB19     		adds	r3, r3, r7
 8281 0152 0822     		movs	r2, #8
 8282 0154 1A70     		strb	r2, [r3]
 8283 0156 50E0     		b	.L329
 8284              	.L332:
 8285              		.loc 1 3048 3 discriminator 15
 8286 0158 1B23     		movs	r3, #27
 8287 015a 1822     		movs	r2, #24
 8288 015c 9B18     		adds	r3, r3, r2
 8289 015e DB19     		adds	r3, r3, r7
 8290 0160 1022     		movs	r2, #16
 8291 0162 1A70     		strb	r2, [r3]
 8292 0164 49E0     		b	.L329
 8293              	.L330:
 8294              		.loc 1 3048 3 discriminator 14
 8295 0166 FB69     		ldr	r3, [r7, #28]
 8296 0168 1B68     		ldr	r3, [r3]
 8297 016a 7A4A     		ldr	r2, .L383+8
 8298 016c 9342     		cmp	r3, r2
 8299 016e 3ED1     		bne	.L337
 8300              		.loc 1 3048 3 discriminator 25
 8301 0170 7B4B     		ldr	r3, .L383+20
 8302 0172 DA6C     		ldr	r2, [r3, #76]
 8303 0174 C023     		movs	r3, #192
 8304 0176 1B01     		lsls	r3, r3, #4
 8305 0178 1340     		ands	r3, r2
 8306 017a C022     		movs	r2, #192
 8307 017c 1201     		lsls	r2, r2, #4
 8308 017e 9342     		cmp	r3, r2
 8309 0180 27D0     		beq	.L338
 8310              		.loc 1 3048 3
 8311 0182 C022     		movs	r2, #192
 8312 0184 1201     		lsls	r2, r2, #4
 8313 0186 9342     		cmp	r3, r2
 8314 0188 2AD8     		bhi	.L339
 8315 018a 8022     		movs	r2, #128
 8316 018c 1201     		lsls	r2, r2, #4
 8317 018e 9342     		cmp	r3, r2
 8318 0190 11D0     		beq	.L340
 8319 0192 8022     		movs	r2, #128
 8320 0194 1201     		lsls	r2, r2, #4
 8321 0196 9342     		cmp	r3, r2
 8322 0198 22D8     		bhi	.L339
 8323 019a 002B     		cmp	r3, #0
 8324 019c 04D0     		beq	.L341
 8325 019e 8022     		movs	r2, #128
ARM GAS  C:\Users\lidka\AppData\Local\Temp\ccqOATUZ.s 			page 210


 8326 01a0 D200     		lsls	r2, r2, #3
 8327 01a2 9342     		cmp	r3, r2
 8328 01a4 0ED0     		beq	.L342
 8329 01a6 1BE0     		b	.L339
 8330              	.L341:
 8331              		.loc 1 3048 3 discriminator 28
 8332 01a8 1B23     		movs	r3, #27
 8333 01aa 1822     		movs	r2, #24
 8334 01ac 9B18     		adds	r3, r3, r2
 8335 01ae DB19     		adds	r3, r3, r7
 8336 01b0 0022     		movs	r2, #0
 8337 01b2 1A70     		strb	r2, [r3]
 8338 01b4 21E0     		b	.L329
 8339              	.L340:
 8340              		.loc 1 3048 3 discriminator 30
 8341 01b6 1B23     		movs	r3, #27
 8342 01b8 1822     		movs	r2, #24
 8343 01ba 9B18     		adds	r3, r3, r2
 8344 01bc DB19     		adds	r3, r3, r7
 8345 01be 0222     		movs	r2, #2
 8346 01c0 1A70     		strb	r2, [r3]
 8347 01c2 1AE0     		b	.L329
 8348              	.L342:
 8349              		.loc 1 3048 3 discriminator 29
 8350 01c4 1B23     		movs	r3, #27
 8351 01c6 1822     		movs	r2, #24
 8352 01c8 9B18     		adds	r3, r3, r2
 8353 01ca DB19     		adds	r3, r3, r7
 8354 01cc 0422     		movs	r2, #4
 8355 01ce 1A70     		strb	r2, [r3]
 8356 01d0 13E0     		b	.L329
 8357              	.L338:
 8358              		.loc 1 3048 3 discriminator 31
 8359 01d2 1B23     		movs	r3, #27
 8360 01d4 1822     		movs	r2, #24
 8361 01d6 9B18     		adds	r3, r3, r2
 8362 01d8 DB19     		adds	r3, r3, r7
 8363 01da 0822     		movs	r2, #8
 8364 01dc 1A70     		strb	r2, [r3]
 8365 01de 0CE0     		b	.L329
 8366              	.L339:
 8367              		.loc 1 3048 3 discriminator 27
 8368 01e0 1B23     		movs	r3, #27
 8369 01e2 1822     		movs	r2, #24
 8370 01e4 9B18     		adds	r3, r3, r2
 8371 01e6 DB19     		adds	r3, r3, r7
 8372 01e8 1022     		movs	r2, #16
 8373 01ea 1A70     		strb	r2, [r3]
 8374 01ec 05E0     		b	.L329
 8375              	.L337:
 8376              		.loc 1 3048 3 discriminator 26
 8377 01ee 1B23     		movs	r3, #27
 8378 01f0 1822     		movs	r2, #24
 8379 01f2 9B18     		adds	r3, r3, r2
 8380 01f4 DB19     		adds	r3, r3, r7
 8381 01f6 1022     		movs	r2, #16
 8382 01f8 1A70     		strb	r2, [r3]
ARM GAS  C:\Users\lidka\AppData\Local\Temp\ccqOATUZ.s 			page 211


 8383              	.L329:
3049:Drivers/STM32L0xx_HAL_Driver/Src/stm32l0xx_hal_uart.c **** 
3050:Drivers/STM32L0xx_HAL_Driver/Src/stm32l0xx_hal_uart.c ****   /* Check LPUART instance */
3051:Drivers/STM32L0xx_HAL_Driver/Src/stm32l0xx_hal_uart.c ****   if (UART_INSTANCE_LOWPOWER(huart))
 8384              		.loc 1 3051 7 is_stmt 1
 8385 01fa FB69     		ldr	r3, [r7, #28]
 8386 01fc 1B68     		ldr	r3, [r3]
 8387              		.loc 1 3051 6
 8388 01fe 554A     		ldr	r2, .L383+8
 8389 0200 9342     		cmp	r3, r2
 8390 0202 00D0     		beq	.LCB6451
 8391 0204 84E0     		b	.L344	@long jump
 8392              	.LCB6451:
3052:Drivers/STM32L0xx_HAL_Driver/Src/stm32l0xx_hal_uart.c ****   {
3053:Drivers/STM32L0xx_HAL_Driver/Src/stm32l0xx_hal_uart.c ****     /* Retrieve frequency clock */
3054:Drivers/STM32L0xx_HAL_Driver/Src/stm32l0xx_hal_uart.c ****     switch (clocksource)
 8393              		.loc 1 3054 5
 8394 0206 1B23     		movs	r3, #27
 8395 0208 1822     		movs	r2, #24
 8396 020a 9B18     		adds	r3, r3, r2
 8397 020c DB19     		adds	r3, r3, r7
 8398 020e 1B78     		ldrb	r3, [r3]
 8399 0210 082B     		cmp	r3, #8
 8400 0212 1DD0     		beq	.L345
 8401 0214 20DC     		bgt	.L346
 8402 0216 042B     		cmp	r3, #4
 8403 0218 15D0     		beq	.L347
 8404 021a 1DDC     		bgt	.L346
 8405 021c 002B     		cmp	r3, #0
 8406 021e 02D0     		beq	.L348
 8407 0220 022B     		cmp	r3, #2
 8408 0222 05D0     		beq	.L349
 8409 0224 18E0     		b	.L346
 8410              	.L348:
3055:Drivers/STM32L0xx_HAL_Driver/Src/stm32l0xx_hal_uart.c ****     {
3056:Drivers/STM32L0xx_HAL_Driver/Src/stm32l0xx_hal_uart.c ****       case UART_CLOCKSOURCE_PCLK1:
3057:Drivers/STM32L0xx_HAL_Driver/Src/stm32l0xx_hal_uart.c ****         pclk = HAL_RCC_GetPCLK1Freq();
 8411              		.loc 1 3057 16
 8412 0226 FFF7FEFF 		bl	HAL_RCC_GetPCLK1Freq
 8413 022a 0300     		movs	r3, r0
 8414 022c FB62     		str	r3, [r7, #44]
3058:Drivers/STM32L0xx_HAL_Driver/Src/stm32l0xx_hal_uart.c ****         break;
 8415              		.loc 1 3058 9
 8416 022e 1CE0     		b	.L350
 8417              	.L349:
3059:Drivers/STM32L0xx_HAL_Driver/Src/stm32l0xx_hal_uart.c ****       case UART_CLOCKSOURCE_HSI:
3060:Drivers/STM32L0xx_HAL_Driver/Src/stm32l0xx_hal_uart.c ****         if (__HAL_RCC_GET_FLAG(RCC_FLAG_HSIDIV) != 0U)
 8418              		.loc 1 3060 13
 8419 0230 4B4B     		ldr	r3, .L383+20
 8420 0232 1B68     		ldr	r3, [r3]
 8421 0234 1022     		movs	r2, #16
 8422 0236 1340     		ands	r3, r2
 8423              		.loc 1 3060 12
 8424 0238 02D0     		beq	.L351
3061:Drivers/STM32L0xx_HAL_Driver/Src/stm32l0xx_hal_uart.c ****         {
3062:Drivers/STM32L0xx_HAL_Driver/Src/stm32l0xx_hal_uart.c ****           pclk = (uint32_t)(HSI_VALUE >> 2U);
 8425              		.loc 1 3062 16
ARM GAS  C:\Users\lidka\AppData\Local\Temp\ccqOATUZ.s 			page 212


 8426 023a 4B4B     		ldr	r3, .L383+28
 8427 023c FB62     		str	r3, [r7, #44]
3063:Drivers/STM32L0xx_HAL_Driver/Src/stm32l0xx_hal_uart.c ****         }
3064:Drivers/STM32L0xx_HAL_Driver/Src/stm32l0xx_hal_uart.c ****         else
3065:Drivers/STM32L0xx_HAL_Driver/Src/stm32l0xx_hal_uart.c ****         {
3066:Drivers/STM32L0xx_HAL_Driver/Src/stm32l0xx_hal_uart.c ****           pclk = (uint32_t) HSI_VALUE;
3067:Drivers/STM32L0xx_HAL_Driver/Src/stm32l0xx_hal_uart.c ****         }
3068:Drivers/STM32L0xx_HAL_Driver/Src/stm32l0xx_hal_uart.c ****         break;
 8428              		.loc 1 3068 9
 8429 023e 14E0     		b	.L350
 8430              	.L351:
3066:Drivers/STM32L0xx_HAL_Driver/Src/stm32l0xx_hal_uart.c ****         }
 8431              		.loc 1 3066 16
 8432 0240 4A4B     		ldr	r3, .L383+32
 8433 0242 FB62     		str	r3, [r7, #44]
 8434              		.loc 1 3068 9
 8435 0244 11E0     		b	.L350
 8436              	.L347:
3069:Drivers/STM32L0xx_HAL_Driver/Src/stm32l0xx_hal_uart.c ****       case UART_CLOCKSOURCE_SYSCLK:
3070:Drivers/STM32L0xx_HAL_Driver/Src/stm32l0xx_hal_uart.c ****         pclk = HAL_RCC_GetSysClockFreq();
 8437              		.loc 1 3070 16
 8438 0246 FFF7FEFF 		bl	HAL_RCC_GetSysClockFreq
 8439 024a 0300     		movs	r3, r0
 8440 024c FB62     		str	r3, [r7, #44]
3071:Drivers/STM32L0xx_HAL_Driver/Src/stm32l0xx_hal_uart.c ****         break;
 8441              		.loc 1 3071 9
 8442 024e 0CE0     		b	.L350
 8443              	.L345:
3072:Drivers/STM32L0xx_HAL_Driver/Src/stm32l0xx_hal_uart.c ****       case UART_CLOCKSOURCE_LSE:
3073:Drivers/STM32L0xx_HAL_Driver/Src/stm32l0xx_hal_uart.c ****         pclk = (uint32_t) LSE_VALUE;
 8444              		.loc 1 3073 14
 8445 0250 8023     		movs	r3, #128
 8446 0252 1B02     		lsls	r3, r3, #8
 8447 0254 FB62     		str	r3, [r7, #44]
3074:Drivers/STM32L0xx_HAL_Driver/Src/stm32l0xx_hal_uart.c ****         break;
 8448              		.loc 1 3074 9
 8449 0256 08E0     		b	.L350
 8450              	.L346:
3075:Drivers/STM32L0xx_HAL_Driver/Src/stm32l0xx_hal_uart.c ****       default:
3076:Drivers/STM32L0xx_HAL_Driver/Src/stm32l0xx_hal_uart.c ****         pclk = 0U;
 8451              		.loc 1 3076 14
 8452 0258 0023     		movs	r3, #0
 8453 025a FB62     		str	r3, [r7, #44]
3077:Drivers/STM32L0xx_HAL_Driver/Src/stm32l0xx_hal_uart.c ****         ret = HAL_ERROR;
 8454              		.loc 1 3077 13
 8455 025c 1A23     		movs	r3, #26
 8456 025e 1822     		movs	r2, #24
 8457 0260 9B18     		adds	r3, r3, r2
 8458 0262 DB19     		adds	r3, r3, r7
 8459 0264 0122     		movs	r2, #1
 8460 0266 1A70     		strb	r2, [r3]
3078:Drivers/STM32L0xx_HAL_Driver/Src/stm32l0xx_hal_uart.c ****         break;
 8461              		.loc 1 3078 9
 8462 0268 C046     		nop
 8463              	.L350:
3079:Drivers/STM32L0xx_HAL_Driver/Src/stm32l0xx_hal_uart.c ****     }
3080:Drivers/STM32L0xx_HAL_Driver/Src/stm32l0xx_hal_uart.c **** 
ARM GAS  C:\Users\lidka\AppData\Local\Temp\ccqOATUZ.s 			page 213


3081:Drivers/STM32L0xx_HAL_Driver/Src/stm32l0xx_hal_uart.c ****     /* If proper clock source reported */
3082:Drivers/STM32L0xx_HAL_Driver/Src/stm32l0xx_hal_uart.c ****     if (pclk != 0U)
 8464              		.loc 1 3082 8
 8465 026a FB6A     		ldr	r3, [r7, #44]
 8466 026c 002B     		cmp	r3, #0
 8467 026e 00D1     		bne	.LCB6525
 8468 0270 33E1     		b	.L357	@long jump
 8469              	.LCB6525:
3083:Drivers/STM32L0xx_HAL_Driver/Src/stm32l0xx_hal_uart.c ****     {
3084:Drivers/STM32L0xx_HAL_Driver/Src/stm32l0xx_hal_uart.c ****       /* No Prescaler applicable */
3085:Drivers/STM32L0xx_HAL_Driver/Src/stm32l0xx_hal_uart.c ****       /* Ensure that Frequency clock is in the range [3 * baudrate, 4096 * baudrate] */
3086:Drivers/STM32L0xx_HAL_Driver/Src/stm32l0xx_hal_uart.c ****       if ((pclk < (3U * huart->Init.BaudRate)) ||
 8470              		.loc 1 3086 36
 8471 0272 FB69     		ldr	r3, [r7, #28]
 8472 0274 5A68     		ldr	r2, [r3, #4]
 8473              		.loc 1 3086 23
 8474 0276 1300     		movs	r3, r2
 8475 0278 5B00     		lsls	r3, r3, #1
 8476 027a 9B18     		adds	r3, r3, r2
 8477              		.loc 1 3086 10
 8478 027c FA6A     		ldr	r2, [r7, #44]
 8479 027e 9A42     		cmp	r2, r3
 8480 0280 05D3     		bcc	.L354
3087:Drivers/STM32L0xx_HAL_Driver/Src/stm32l0xx_hal_uart.c ****           (pclk > (4096U * huart->Init.BaudRate)))
 8481              		.loc 1 3087 39 discriminator 1
 8482 0282 FB69     		ldr	r3, [r7, #28]
 8483 0284 5B68     		ldr	r3, [r3, #4]
 8484              		.loc 1 3087 26 discriminator 1
 8485 0286 1B03     		lsls	r3, r3, #12
3086:Drivers/STM32L0xx_HAL_Driver/Src/stm32l0xx_hal_uart.c ****           (pclk > (4096U * huart->Init.BaudRate)))
 8486              		.loc 1 3086 48 discriminator 1
 8487 0288 FA6A     		ldr	r2, [r7, #44]
 8488 028a 9A42     		cmp	r2, r3
 8489 028c 06D9     		bls	.L355
 8490              	.L354:
3088:Drivers/STM32L0xx_HAL_Driver/Src/stm32l0xx_hal_uart.c ****       {
3089:Drivers/STM32L0xx_HAL_Driver/Src/stm32l0xx_hal_uart.c ****         ret = HAL_ERROR;
 8491              		.loc 1 3089 13
 8492 028e 1A23     		movs	r3, #26
 8493 0290 1822     		movs	r2, #24
 8494 0292 9B18     		adds	r3, r3, r2
 8495 0294 DB19     		adds	r3, r3, r7
 8496 0296 0122     		movs	r2, #1
 8497 0298 1A70     		strb	r2, [r3]
 8498 029a 1EE1     		b	.L357
 8499              	.L355:
3090:Drivers/STM32L0xx_HAL_Driver/Src/stm32l0xx_hal_uart.c ****       }
3091:Drivers/STM32L0xx_HAL_Driver/Src/stm32l0xx_hal_uart.c ****       else
3092:Drivers/STM32L0xx_HAL_Driver/Src/stm32l0xx_hal_uart.c ****       {
3093:Drivers/STM32L0xx_HAL_Driver/Src/stm32l0xx_hal_uart.c ****         usartdiv = (uint32_t)(UART_DIV_LPUART(pclk, huart->Init.BaudRate));
 8500              		.loc 1 3093 31
 8501 029c FB6A     		ldr	r3, [r7, #44]
 8502 029e 3B61     		str	r3, [r7, #16]
 8503 02a0 0023     		movs	r3, #0
 8504 02a2 7B61     		str	r3, [r7, #20]
 8505 02a4 3969     		ldr	r1, [r7, #16]
 8506 02a6 7A69     		ldr	r2, [r7, #20]
ARM GAS  C:\Users\lidka\AppData\Local\Temp\ccqOATUZ.s 			page 214


 8507 02a8 0B00     		movs	r3, r1
 8508 02aa 1B0E     		lsrs	r3, r3, #24
 8509 02ac 1000     		movs	r0, r2
 8510 02ae 0502     		lsls	r5, r0, #8
 8511 02b0 1D43     		orrs	r5, r3
 8512 02b2 0B00     		movs	r3, r1
 8513 02b4 1C02     		lsls	r4, r3, #8
 8514 02b6 FB69     		ldr	r3, [r7, #28]
 8515 02b8 5B68     		ldr	r3, [r3, #4]
 8516 02ba 5B08     		lsrs	r3, r3, #1
 8517 02bc BB60     		str	r3, [r7, #8]
 8518 02be 0023     		movs	r3, #0
 8519 02c0 FB60     		str	r3, [r7, #12]
 8520 02c2 B868     		ldr	r0, [r7, #8]
 8521 02c4 F968     		ldr	r1, [r7, #12]
 8522 02c6 0019     		adds	r0, r0, r4
 8523 02c8 6941     		adcs	r1, r1, r5
 8524 02ca FB69     		ldr	r3, [r7, #28]
 8525 02cc 5B68     		ldr	r3, [r3, #4]
 8526 02ce 3B60     		str	r3, [r7]
 8527 02d0 0023     		movs	r3, #0
 8528 02d2 7B60     		str	r3, [r7, #4]
 8529 02d4 3A68     		ldr	r2, [r7]
 8530 02d6 7B68     		ldr	r3, [r7, #4]
 8531 02d8 FFF7FEFF 		bl	__aeabi_uldivmod
 8532 02dc 0200     		movs	r2, r0
 8533 02de 0B00     		movs	r3, r1
 8534              		.loc 1 3093 18
 8535 02e0 1300     		movs	r3, r2
 8536 02e2 BB62     		str	r3, [r7, #40]
3094:Drivers/STM32L0xx_HAL_Driver/Src/stm32l0xx_hal_uart.c ****         if ((usartdiv >= LPUART_BRR_MIN) && (usartdiv <= LPUART_BRR_MAX))
 8537              		.loc 1 3094 12
 8538 02e4 BA6A     		ldr	r2, [r7, #40]
 8539 02e6 C023     		movs	r3, #192
 8540 02e8 9B00     		lsls	r3, r3, #2
 8541 02ea 9A42     		cmp	r2, r3
 8542 02ec 09D3     		bcc	.L356
 8543              		.loc 1 3094 42 discriminator 1
 8544 02ee BA6A     		ldr	r2, [r7, #40]
 8545 02f0 8023     		movs	r3, #128
 8546 02f2 5B03     		lsls	r3, r3, #13
 8547 02f4 9A42     		cmp	r2, r3
 8548 02f6 04D2     		bcs	.L356
3095:Drivers/STM32L0xx_HAL_Driver/Src/stm32l0xx_hal_uart.c ****         {
3096:Drivers/STM32L0xx_HAL_Driver/Src/stm32l0xx_hal_uart.c ****           huart->Instance->BRR = usartdiv;
 8549              		.loc 1 3096 16
 8550 02f8 FB69     		ldr	r3, [r7, #28]
 8551 02fa 1B68     		ldr	r3, [r3]
 8552              		.loc 1 3096 32
 8553 02fc BA6A     		ldr	r2, [r7, #40]
 8554 02fe DA60     		str	r2, [r3, #12]
 8555 0300 EBE0     		b	.L357
 8556              	.L356:
3097:Drivers/STM32L0xx_HAL_Driver/Src/stm32l0xx_hal_uart.c ****         }
3098:Drivers/STM32L0xx_HAL_Driver/Src/stm32l0xx_hal_uart.c ****         else
3099:Drivers/STM32L0xx_HAL_Driver/Src/stm32l0xx_hal_uart.c ****         {
3100:Drivers/STM32L0xx_HAL_Driver/Src/stm32l0xx_hal_uart.c ****           ret = HAL_ERROR;
ARM GAS  C:\Users\lidka\AppData\Local\Temp\ccqOATUZ.s 			page 215


 8557              		.loc 1 3100 15
 8558 0302 1A23     		movs	r3, #26
 8559 0304 1822     		movs	r2, #24
 8560 0306 9B18     		adds	r3, r3, r2
 8561 0308 DB19     		adds	r3, r3, r7
 8562 030a 0122     		movs	r2, #1
 8563 030c 1A70     		strb	r2, [r3]
 8564 030e E4E0     		b	.L357
 8565              	.L344:
3101:Drivers/STM32L0xx_HAL_Driver/Src/stm32l0xx_hal_uart.c ****         }
3102:Drivers/STM32L0xx_HAL_Driver/Src/stm32l0xx_hal_uart.c ****       } /* if ( (pclk < (3 * huart->Init.BaudRate) ) || (pclk > (4096 * huart->Init.BaudRate) )) */
3103:Drivers/STM32L0xx_HAL_Driver/Src/stm32l0xx_hal_uart.c ****     } /* if (pclk != 0) */
3104:Drivers/STM32L0xx_HAL_Driver/Src/stm32l0xx_hal_uart.c ****   }
3105:Drivers/STM32L0xx_HAL_Driver/Src/stm32l0xx_hal_uart.c ****   /* Check UART Over Sampling to set Baud Rate Register */
3106:Drivers/STM32L0xx_HAL_Driver/Src/stm32l0xx_hal_uart.c ****   else if (huart->Init.OverSampling == UART_OVERSAMPLING_8)
 8566              		.loc 1 3106 23
 8567 0310 FB69     		ldr	r3, [r7, #28]
 8568 0312 DA69     		ldr	r2, [r3, #28]
 8569              		.loc 1 3106 11
 8570 0314 8023     		movs	r3, #128
 8571 0316 1B02     		lsls	r3, r3, #8
 8572 0318 9A42     		cmp	r2, r3
 8573 031a 00D0     		beq	.LCB6615
 8574 031c 86E0     		b	.L358	@long jump
 8575              	.LCB6615:
3107:Drivers/STM32L0xx_HAL_Driver/Src/stm32l0xx_hal_uart.c ****   {
3108:Drivers/STM32L0xx_HAL_Driver/Src/stm32l0xx_hal_uart.c ****     switch (clocksource)
 8576              		.loc 1 3108 5
 8577 031e 1B23     		movs	r3, #27
 8578 0320 1822     		movs	r2, #24
 8579 0322 9B18     		adds	r3, r3, r2
 8580 0324 DB19     		adds	r3, r3, r7
 8581 0326 1B78     		ldrb	r3, [r3]
 8582 0328 082B     		cmp	r3, #8
 8583 032a 37D8     		bhi	.L359
 8584 032c 9A00     		lsls	r2, r3, #2
 8585 032e 104B     		ldr	r3, .L383+36
 8586 0330 D318     		adds	r3, r2, r3
 8587 0332 1B68     		ldr	r3, [r3]
 8588 0334 9F46     		mov	pc, r3
 8589              		.section	.rodata.UART_SetConfig,"a",%progbits
 8590              		.align	2
 8591              	.L361:
 8592 0000 36030000 		.word	.L365
 8593 0004 40030000 		.word	.L364
 8594 0008 74030000 		.word	.L363
 8595 000c 9C030000 		.word	.L359
 8596 0010 8A030000 		.word	.L362
 8597 0014 9C030000 		.word	.L359
 8598 0018 9C030000 		.word	.L359
 8599 001c 9C030000 		.word	.L359
 8600 0020 94030000 		.word	.L360
 8601              		.section	.text.UART_SetConfig
 8602              	.L365:
3109:Drivers/STM32L0xx_HAL_Driver/Src/stm32l0xx_hal_uart.c ****     {
3110:Drivers/STM32L0xx_HAL_Driver/Src/stm32l0xx_hal_uart.c ****       case UART_CLOCKSOURCE_PCLK1:
3111:Drivers/STM32L0xx_HAL_Driver/Src/stm32l0xx_hal_uart.c ****         pclk = HAL_RCC_GetPCLK1Freq();
ARM GAS  C:\Users\lidka\AppData\Local\Temp\ccqOATUZ.s 			page 216


 8603              		.loc 1 3111 16
 8604 0336 FFF7FEFF 		bl	HAL_RCC_GetPCLK1Freq
 8605 033a 0300     		movs	r3, r0
 8606 033c FB62     		str	r3, [r7, #44]
3112:Drivers/STM32L0xx_HAL_Driver/Src/stm32l0xx_hal_uart.c ****         break;
 8607              		.loc 1 3112 9
 8608 033e 36E0     		b	.L366
 8609              	.L364:
3113:Drivers/STM32L0xx_HAL_Driver/Src/stm32l0xx_hal_uart.c ****       case UART_CLOCKSOURCE_PCLK2:
3114:Drivers/STM32L0xx_HAL_Driver/Src/stm32l0xx_hal_uart.c ****         pclk = HAL_RCC_GetPCLK2Freq();
 8610              		.loc 1 3114 16
 8611 0340 FFF7FEFF 		bl	HAL_RCC_GetPCLK2Freq
 8612 0344 0300     		movs	r3, r0
 8613 0346 FB62     		str	r3, [r7, #44]
3115:Drivers/STM32L0xx_HAL_Driver/Src/stm32l0xx_hal_uart.c ****         break;
 8614              		.loc 1 3115 9
 8615 0348 31E0     		b	.L366
 8616              	.L384:
 8617 034a C046     		.align	2
 8618              	.L383:
 8619 034c F369FFEF 		.word	-268473869
 8620 0350 FFCFFFFF 		.word	-12289
 8621 0354 00480040 		.word	1073760256
 8622 0358 FFF4FFFF 		.word	-2817
 8623 035c 00380140 		.word	1073821696
 8624 0360 00100240 		.word	1073876992
 8625 0364 00440040 		.word	1073759232
 8626 0368 00093D00 		.word	4000000
 8627 036c 0024F400 		.word	16000000
 8628 0370 00000000 		.word	.L361
 8629              	.L363:
3116:Drivers/STM32L0xx_HAL_Driver/Src/stm32l0xx_hal_uart.c ****       case UART_CLOCKSOURCE_HSI:
3117:Drivers/STM32L0xx_HAL_Driver/Src/stm32l0xx_hal_uart.c ****         if (__HAL_RCC_GET_FLAG(RCC_FLAG_HSIDIV) != 0U)
 8630              		.loc 1 3117 13
 8631 0374 604B     		ldr	r3, .L385
 8632 0376 1B68     		ldr	r3, [r3]
 8633 0378 1022     		movs	r2, #16
 8634 037a 1340     		ands	r3, r2
 8635              		.loc 1 3117 12
 8636 037c 02D0     		beq	.L367
3118:Drivers/STM32L0xx_HAL_Driver/Src/stm32l0xx_hal_uart.c ****         {
3119:Drivers/STM32L0xx_HAL_Driver/Src/stm32l0xx_hal_uart.c ****           pclk = (uint32_t)(HSI_VALUE >> 2U);
 8637              		.loc 1 3119 16
 8638 037e 5F4B     		ldr	r3, .L385+4
 8639 0380 FB62     		str	r3, [r7, #44]
3120:Drivers/STM32L0xx_HAL_Driver/Src/stm32l0xx_hal_uart.c ****         }
3121:Drivers/STM32L0xx_HAL_Driver/Src/stm32l0xx_hal_uart.c ****         else
3122:Drivers/STM32L0xx_HAL_Driver/Src/stm32l0xx_hal_uart.c ****         {
3123:Drivers/STM32L0xx_HAL_Driver/Src/stm32l0xx_hal_uart.c ****           pclk = (uint32_t) HSI_VALUE;
3124:Drivers/STM32L0xx_HAL_Driver/Src/stm32l0xx_hal_uart.c ****         }
3125:Drivers/STM32L0xx_HAL_Driver/Src/stm32l0xx_hal_uart.c ****         break;
 8640              		.loc 1 3125 9
 8641 0382 14E0     		b	.L366
 8642              	.L367:
3123:Drivers/STM32L0xx_HAL_Driver/Src/stm32l0xx_hal_uart.c ****         }
 8643              		.loc 1 3123 16
 8644 0384 5E4B     		ldr	r3, .L385+8
ARM GAS  C:\Users\lidka\AppData\Local\Temp\ccqOATUZ.s 			page 217


 8645 0386 FB62     		str	r3, [r7, #44]
 8646              		.loc 1 3125 9
 8647 0388 11E0     		b	.L366
 8648              	.L362:
3126:Drivers/STM32L0xx_HAL_Driver/Src/stm32l0xx_hal_uart.c ****       case UART_CLOCKSOURCE_SYSCLK:
3127:Drivers/STM32L0xx_HAL_Driver/Src/stm32l0xx_hal_uart.c ****         pclk = HAL_RCC_GetSysClockFreq();
 8649              		.loc 1 3127 16
 8650 038a FFF7FEFF 		bl	HAL_RCC_GetSysClockFreq
 8651 038e 0300     		movs	r3, r0
 8652 0390 FB62     		str	r3, [r7, #44]
3128:Drivers/STM32L0xx_HAL_Driver/Src/stm32l0xx_hal_uart.c ****         break;
 8653              		.loc 1 3128 9
 8654 0392 0CE0     		b	.L366
 8655              	.L360:
3129:Drivers/STM32L0xx_HAL_Driver/Src/stm32l0xx_hal_uart.c ****       case UART_CLOCKSOURCE_LSE:
3130:Drivers/STM32L0xx_HAL_Driver/Src/stm32l0xx_hal_uart.c ****         pclk = (uint32_t) LSE_VALUE;
 8656              		.loc 1 3130 14
 8657 0394 8023     		movs	r3, #128
 8658 0396 1B02     		lsls	r3, r3, #8
 8659 0398 FB62     		str	r3, [r7, #44]
3131:Drivers/STM32L0xx_HAL_Driver/Src/stm32l0xx_hal_uart.c ****         break;
 8660              		.loc 1 3131 9
 8661 039a 08E0     		b	.L366
 8662              	.L359:
3132:Drivers/STM32L0xx_HAL_Driver/Src/stm32l0xx_hal_uart.c ****       default:
3133:Drivers/STM32L0xx_HAL_Driver/Src/stm32l0xx_hal_uart.c ****         pclk = 0U;
 8663              		.loc 1 3133 14
 8664 039c 0023     		movs	r3, #0
 8665 039e FB62     		str	r3, [r7, #44]
3134:Drivers/STM32L0xx_HAL_Driver/Src/stm32l0xx_hal_uart.c ****         ret = HAL_ERROR;
 8666              		.loc 1 3134 13
 8667 03a0 1A23     		movs	r3, #26
 8668 03a2 1822     		movs	r2, #24
 8669 03a4 9B18     		adds	r3, r3, r2
 8670 03a6 DB19     		adds	r3, r3, r7
 8671 03a8 0122     		movs	r2, #1
 8672 03aa 1A70     		strb	r2, [r3]
3135:Drivers/STM32L0xx_HAL_Driver/Src/stm32l0xx_hal_uart.c ****         break;
 8673              		.loc 1 3135 9
 8674 03ac C046     		nop
 8675              	.L366:
3136:Drivers/STM32L0xx_HAL_Driver/Src/stm32l0xx_hal_uart.c ****     }
3137:Drivers/STM32L0xx_HAL_Driver/Src/stm32l0xx_hal_uart.c **** 
3138:Drivers/STM32L0xx_HAL_Driver/Src/stm32l0xx_hal_uart.c ****     /* USARTDIV must be greater than or equal to 0d16 */
3139:Drivers/STM32L0xx_HAL_Driver/Src/stm32l0xx_hal_uart.c ****     if (pclk != 0U)
 8676              		.loc 1 3139 8
 8677 03ae FB6A     		ldr	r3, [r7, #44]
 8678 03b0 002B     		cmp	r3, #0
 8679 03b2 00D1     		bne	.LCB6708
 8680 03b4 91E0     		b	.L357	@long jump
 8681              	.LCB6708:
3140:Drivers/STM32L0xx_HAL_Driver/Src/stm32l0xx_hal_uart.c ****     {
3141:Drivers/STM32L0xx_HAL_Driver/Src/stm32l0xx_hal_uart.c ****       usartdiv = (uint16_t)(UART_DIV_SAMPLING8(pclk, huart->Init.BaudRate));
 8682              		.loc 1 3141 29
 8683 03b6 FB6A     		ldr	r3, [r7, #44]
 8684 03b8 5A00     		lsls	r2, r3, #1
 8685 03ba FB69     		ldr	r3, [r7, #28]
ARM GAS  C:\Users\lidka\AppData\Local\Temp\ccqOATUZ.s 			page 218


 8686 03bc 5B68     		ldr	r3, [r3, #4]
 8687 03be 5B08     		lsrs	r3, r3, #1
 8688 03c0 D218     		adds	r2, r2, r3
 8689 03c2 FB69     		ldr	r3, [r7, #28]
 8690 03c4 5B68     		ldr	r3, [r3, #4]
 8691 03c6 1900     		movs	r1, r3
 8692 03c8 1000     		movs	r0, r2
 8693 03ca FFF7FEFF 		bl	__aeabi_uidiv
 8694 03ce 0300     		movs	r3, r0
 8695              		.loc 1 3141 18
 8696 03d0 9BB2     		uxth	r3, r3
 8697              		.loc 1 3141 16
 8698 03d2 BB62     		str	r3, [r7, #40]
3142:Drivers/STM32L0xx_HAL_Driver/Src/stm32l0xx_hal_uart.c ****       if ((usartdiv >= UART_BRR_MIN) && (usartdiv <= UART_BRR_MAX))
 8699              		.loc 1 3142 10
 8700 03d4 BB6A     		ldr	r3, [r7, #40]
 8701 03d6 0F2B     		cmp	r3, #15
 8702 03d8 21D9     		bls	.L370
 8703              		.loc 1 3142 38 discriminator 1
 8704 03da BA6A     		ldr	r2, [r7, #40]
 8705 03dc 8023     		movs	r3, #128
 8706 03de 5B02     		lsls	r3, r3, #9
 8707 03e0 9A42     		cmp	r2, r3
 8708 03e2 1CD2     		bcs	.L370
3143:Drivers/STM32L0xx_HAL_Driver/Src/stm32l0xx_hal_uart.c ****       {
3144:Drivers/STM32L0xx_HAL_Driver/Src/stm32l0xx_hal_uart.c ****         brrtemp = (uint16_t)(usartdiv & 0xFFF0U);
 8709              		.loc 1 3144 19
 8710 03e4 BB6A     		ldr	r3, [r7, #40]
 8711 03e6 9AB2     		uxth	r2, r3
 8712              		.loc 1 3144 17
 8713 03e8 0E20     		movs	r0, #14
 8714 03ea 1824     		movs	r4, #24
 8715 03ec 0319     		adds	r3, r0, r4
 8716 03ee DB19     		adds	r3, r3, r7
 8717 03f0 0F21     		movs	r1, #15
 8718 03f2 8A43     		bics	r2, r1
 8719 03f4 1A80     		strh	r2, [r3]
3145:Drivers/STM32L0xx_HAL_Driver/Src/stm32l0xx_hal_uart.c ****         brrtemp |= (uint16_t)((usartdiv & (uint16_t)0x000FU) >> 1U);
 8720              		.loc 1 3145 62
 8721 03f6 BB6A     		ldr	r3, [r7, #40]
 8722 03f8 5B08     		lsrs	r3, r3, #1
 8723              		.loc 1 3145 20
 8724 03fa 9BB2     		uxth	r3, r3
 8725 03fc 0722     		movs	r2, #7
 8726 03fe 1340     		ands	r3, r2
 8727 0400 99B2     		uxth	r1, r3
 8728              		.loc 1 3145 17
 8729 0402 0319     		adds	r3, r0, r4
 8730 0404 DB19     		adds	r3, r3, r7
 8731 0406 0219     		adds	r2, r0, r4
 8732 0408 D219     		adds	r2, r2, r7
 8733 040a 1288     		ldrh	r2, [r2]
 8734 040c 0A43     		orrs	r2, r1
 8735 040e 1A80     		strh	r2, [r3]
3146:Drivers/STM32L0xx_HAL_Driver/Src/stm32l0xx_hal_uart.c ****         huart->Instance->BRR = brrtemp;
 8736              		.loc 1 3146 14
 8737 0410 FB69     		ldr	r3, [r7, #28]
ARM GAS  C:\Users\lidka\AppData\Local\Temp\ccqOATUZ.s 			page 219


 8738 0412 1B68     		ldr	r3, [r3]
 8739              		.loc 1 3146 30
 8740 0414 0219     		adds	r2, r0, r4
 8741 0416 D219     		adds	r2, r2, r7
 8742 0418 1288     		ldrh	r2, [r2]
 8743 041a DA60     		str	r2, [r3, #12]
 8744 041c 5DE0     		b	.L357
 8745              	.L370:
3147:Drivers/STM32L0xx_HAL_Driver/Src/stm32l0xx_hal_uart.c ****       }
3148:Drivers/STM32L0xx_HAL_Driver/Src/stm32l0xx_hal_uart.c ****       else
3149:Drivers/STM32L0xx_HAL_Driver/Src/stm32l0xx_hal_uart.c ****       {
3150:Drivers/STM32L0xx_HAL_Driver/Src/stm32l0xx_hal_uart.c ****         ret = HAL_ERROR;
 8746              		.loc 1 3150 13
 8747 041e 1A23     		movs	r3, #26
 8748 0420 1822     		movs	r2, #24
 8749 0422 9B18     		adds	r3, r3, r2
 8750 0424 DB19     		adds	r3, r3, r7
 8751 0426 0122     		movs	r2, #1
 8752 0428 1A70     		strb	r2, [r3]
 8753 042a 56E0     		b	.L357
 8754              	.L358:
3151:Drivers/STM32L0xx_HAL_Driver/Src/stm32l0xx_hal_uart.c ****       }
3152:Drivers/STM32L0xx_HAL_Driver/Src/stm32l0xx_hal_uart.c ****     }
3153:Drivers/STM32L0xx_HAL_Driver/Src/stm32l0xx_hal_uart.c ****   }
3154:Drivers/STM32L0xx_HAL_Driver/Src/stm32l0xx_hal_uart.c ****   else
3155:Drivers/STM32L0xx_HAL_Driver/Src/stm32l0xx_hal_uart.c ****   {
3156:Drivers/STM32L0xx_HAL_Driver/Src/stm32l0xx_hal_uart.c ****     switch (clocksource)
 8755              		.loc 1 3156 5
 8756 042c 1B23     		movs	r3, #27
 8757 042e 1822     		movs	r2, #24
 8758 0430 9B18     		adds	r3, r3, r2
 8759 0432 DB19     		adds	r3, r3, r7
 8760 0434 1B78     		ldrb	r3, [r3]
 8761 0436 082B     		cmp	r3, #8
 8762 0438 22D8     		bhi	.L371
 8763 043a 9A00     		lsls	r2, r3, #2
 8764 043c 314B     		ldr	r3, .L385+12
 8765 043e D318     		adds	r3, r2, r3
 8766 0440 1B68     		ldr	r3, [r3]
 8767 0442 9F46     		mov	pc, r3
 8768              		.section	.rodata.UART_SetConfig
 8769              		.align	2
 8770              	.L373:
 8771 0024 44040000 		.word	.L377
 8772 0028 4E040000 		.word	.L376
 8773 002c 58040000 		.word	.L375
 8774 0030 80040000 		.word	.L371
 8775 0034 6E040000 		.word	.L374
 8776 0038 80040000 		.word	.L371
 8777 003c 80040000 		.word	.L371
 8778 0040 80040000 		.word	.L371
 8779 0044 78040000 		.word	.L372
 8780              		.section	.text.UART_SetConfig
 8781              	.L377:
3157:Drivers/STM32L0xx_HAL_Driver/Src/stm32l0xx_hal_uart.c ****     {
3158:Drivers/STM32L0xx_HAL_Driver/Src/stm32l0xx_hal_uart.c ****       case UART_CLOCKSOURCE_PCLK1:
3159:Drivers/STM32L0xx_HAL_Driver/Src/stm32l0xx_hal_uart.c ****         pclk = HAL_RCC_GetPCLK1Freq();
ARM GAS  C:\Users\lidka\AppData\Local\Temp\ccqOATUZ.s 			page 220


 8782              		.loc 1 3159 16
 8783 0444 FFF7FEFF 		bl	HAL_RCC_GetPCLK1Freq
 8784 0448 0300     		movs	r3, r0
 8785 044a FB62     		str	r3, [r7, #44]
3160:Drivers/STM32L0xx_HAL_Driver/Src/stm32l0xx_hal_uart.c ****         break;
 8786              		.loc 1 3160 9
 8787 044c 21E0     		b	.L378
 8788              	.L376:
3161:Drivers/STM32L0xx_HAL_Driver/Src/stm32l0xx_hal_uart.c ****       case UART_CLOCKSOURCE_PCLK2:
3162:Drivers/STM32L0xx_HAL_Driver/Src/stm32l0xx_hal_uart.c ****         pclk = HAL_RCC_GetPCLK2Freq();
 8789              		.loc 1 3162 16
 8790 044e FFF7FEFF 		bl	HAL_RCC_GetPCLK2Freq
 8791 0452 0300     		movs	r3, r0
 8792 0454 FB62     		str	r3, [r7, #44]
3163:Drivers/STM32L0xx_HAL_Driver/Src/stm32l0xx_hal_uart.c ****         break;
 8793              		.loc 1 3163 9
 8794 0456 1CE0     		b	.L378
 8795              	.L375:
3164:Drivers/STM32L0xx_HAL_Driver/Src/stm32l0xx_hal_uart.c ****       case UART_CLOCKSOURCE_HSI:
3165:Drivers/STM32L0xx_HAL_Driver/Src/stm32l0xx_hal_uart.c ****         if (__HAL_RCC_GET_FLAG(RCC_FLAG_HSIDIV) != 0U)
 8796              		.loc 1 3165 13
 8797 0458 274B     		ldr	r3, .L385
 8798 045a 1B68     		ldr	r3, [r3]
 8799 045c 1022     		movs	r2, #16
 8800 045e 1340     		ands	r3, r2
 8801              		.loc 1 3165 12
 8802 0460 02D0     		beq	.L379
3166:Drivers/STM32L0xx_HAL_Driver/Src/stm32l0xx_hal_uart.c ****         {
3167:Drivers/STM32L0xx_HAL_Driver/Src/stm32l0xx_hal_uart.c ****           pclk = (uint32_t)(HSI_VALUE >> 2U);
 8803              		.loc 1 3167 16
 8804 0462 264B     		ldr	r3, .L385+4
 8805 0464 FB62     		str	r3, [r7, #44]
3168:Drivers/STM32L0xx_HAL_Driver/Src/stm32l0xx_hal_uart.c ****         }
3169:Drivers/STM32L0xx_HAL_Driver/Src/stm32l0xx_hal_uart.c ****         else
3170:Drivers/STM32L0xx_HAL_Driver/Src/stm32l0xx_hal_uart.c ****         {
3171:Drivers/STM32L0xx_HAL_Driver/Src/stm32l0xx_hal_uart.c ****           pclk = (uint32_t) HSI_VALUE;
3172:Drivers/STM32L0xx_HAL_Driver/Src/stm32l0xx_hal_uart.c ****         }
3173:Drivers/STM32L0xx_HAL_Driver/Src/stm32l0xx_hal_uart.c ****         break;
 8806              		.loc 1 3173 9
 8807 0466 14E0     		b	.L378
 8808              	.L379:
3171:Drivers/STM32L0xx_HAL_Driver/Src/stm32l0xx_hal_uart.c ****         }
 8809              		.loc 1 3171 16
 8810 0468 254B     		ldr	r3, .L385+8
 8811 046a FB62     		str	r3, [r7, #44]
 8812              		.loc 1 3173 9
 8813 046c 11E0     		b	.L378
 8814              	.L374:
3174:Drivers/STM32L0xx_HAL_Driver/Src/stm32l0xx_hal_uart.c ****       case UART_CLOCKSOURCE_SYSCLK:
3175:Drivers/STM32L0xx_HAL_Driver/Src/stm32l0xx_hal_uart.c ****         pclk = HAL_RCC_GetSysClockFreq();
 8815              		.loc 1 3175 16
 8816 046e FFF7FEFF 		bl	HAL_RCC_GetSysClockFreq
 8817 0472 0300     		movs	r3, r0
 8818 0474 FB62     		str	r3, [r7, #44]
3176:Drivers/STM32L0xx_HAL_Driver/Src/stm32l0xx_hal_uart.c ****         break;
 8819              		.loc 1 3176 9
 8820 0476 0CE0     		b	.L378
ARM GAS  C:\Users\lidka\AppData\Local\Temp\ccqOATUZ.s 			page 221


 8821              	.L372:
3177:Drivers/STM32L0xx_HAL_Driver/Src/stm32l0xx_hal_uart.c ****       case UART_CLOCKSOURCE_LSE:
3178:Drivers/STM32L0xx_HAL_Driver/Src/stm32l0xx_hal_uart.c ****         pclk = (uint32_t) LSE_VALUE;
 8822              		.loc 1 3178 14
 8823 0478 8023     		movs	r3, #128
 8824 047a 1B02     		lsls	r3, r3, #8
 8825 047c FB62     		str	r3, [r7, #44]
3179:Drivers/STM32L0xx_HAL_Driver/Src/stm32l0xx_hal_uart.c ****         break;
 8826              		.loc 1 3179 9
 8827 047e 08E0     		b	.L378
 8828              	.L371:
3180:Drivers/STM32L0xx_HAL_Driver/Src/stm32l0xx_hal_uart.c ****       default:
3181:Drivers/STM32L0xx_HAL_Driver/Src/stm32l0xx_hal_uart.c ****         pclk = 0U;
 8829              		.loc 1 3181 14
 8830 0480 0023     		movs	r3, #0
 8831 0482 FB62     		str	r3, [r7, #44]
3182:Drivers/STM32L0xx_HAL_Driver/Src/stm32l0xx_hal_uart.c ****         ret = HAL_ERROR;
 8832              		.loc 1 3182 13
 8833 0484 1A23     		movs	r3, #26
 8834 0486 1822     		movs	r2, #24
 8835 0488 9B18     		adds	r3, r3, r2
 8836 048a DB19     		adds	r3, r3, r7
 8837 048c 0122     		movs	r2, #1
 8838 048e 1A70     		strb	r2, [r3]
3183:Drivers/STM32L0xx_HAL_Driver/Src/stm32l0xx_hal_uart.c ****         break;
 8839              		.loc 1 3183 9
 8840 0490 C046     		nop
 8841              	.L378:
3184:Drivers/STM32L0xx_HAL_Driver/Src/stm32l0xx_hal_uart.c ****     }
3185:Drivers/STM32L0xx_HAL_Driver/Src/stm32l0xx_hal_uart.c **** 
3186:Drivers/STM32L0xx_HAL_Driver/Src/stm32l0xx_hal_uart.c ****     if (pclk != 0U)
 8842              		.loc 1 3186 8
 8843 0492 FB6A     		ldr	r3, [r7, #44]
 8844 0494 002B     		cmp	r3, #0
 8845 0496 20D0     		beq	.L357
3187:Drivers/STM32L0xx_HAL_Driver/Src/stm32l0xx_hal_uart.c ****     {
3188:Drivers/STM32L0xx_HAL_Driver/Src/stm32l0xx_hal_uart.c ****       /* USARTDIV must be greater than or equal to 0d16 */
3189:Drivers/STM32L0xx_HAL_Driver/Src/stm32l0xx_hal_uart.c ****       usartdiv = (uint16_t)(UART_DIV_SAMPLING16(pclk, huart->Init.BaudRate));
 8846              		.loc 1 3189 29
 8847 0498 FB69     		ldr	r3, [r7, #28]
 8848 049a 5B68     		ldr	r3, [r3, #4]
 8849 049c 5A08     		lsrs	r2, r3, #1
 8850 049e FB6A     		ldr	r3, [r7, #44]
 8851 04a0 D218     		adds	r2, r2, r3
 8852 04a2 FB69     		ldr	r3, [r7, #28]
 8853 04a4 5B68     		ldr	r3, [r3, #4]
 8854 04a6 1900     		movs	r1, r3
 8855 04a8 1000     		movs	r0, r2
 8856 04aa FFF7FEFF 		bl	__aeabi_uidiv
 8857 04ae 0300     		movs	r3, r0
 8858              		.loc 1 3189 18
 8859 04b0 9BB2     		uxth	r3, r3
 8860              		.loc 1 3189 16
 8861 04b2 BB62     		str	r3, [r7, #40]
3190:Drivers/STM32L0xx_HAL_Driver/Src/stm32l0xx_hal_uart.c ****       if ((usartdiv >= UART_BRR_MIN) && (usartdiv <= UART_BRR_MAX))
 8862              		.loc 1 3190 10
 8863 04b4 BB6A     		ldr	r3, [r7, #40]
ARM GAS  C:\Users\lidka\AppData\Local\Temp\ccqOATUZ.s 			page 222


 8864 04b6 0F2B     		cmp	r3, #15
 8865 04b8 09D9     		bls	.L381
 8866              		.loc 1 3190 38 discriminator 1
 8867 04ba BA6A     		ldr	r2, [r7, #40]
 8868 04bc 8023     		movs	r3, #128
 8869 04be 5B02     		lsls	r3, r3, #9
 8870 04c0 9A42     		cmp	r2, r3
 8871 04c2 04D2     		bcs	.L381
3191:Drivers/STM32L0xx_HAL_Driver/Src/stm32l0xx_hal_uart.c ****       {
3192:Drivers/STM32L0xx_HAL_Driver/Src/stm32l0xx_hal_uart.c ****         huart->Instance->BRR = usartdiv;
 8872              		.loc 1 3192 14
 8873 04c4 FB69     		ldr	r3, [r7, #28]
 8874 04c6 1B68     		ldr	r3, [r3]
 8875              		.loc 1 3192 30
 8876 04c8 BA6A     		ldr	r2, [r7, #40]
 8877 04ca DA60     		str	r2, [r3, #12]
 8878 04cc 05E0     		b	.L357
 8879              	.L381:
3193:Drivers/STM32L0xx_HAL_Driver/Src/stm32l0xx_hal_uart.c ****       }
3194:Drivers/STM32L0xx_HAL_Driver/Src/stm32l0xx_hal_uart.c ****       else
3195:Drivers/STM32L0xx_HAL_Driver/Src/stm32l0xx_hal_uart.c ****       {
3196:Drivers/STM32L0xx_HAL_Driver/Src/stm32l0xx_hal_uart.c ****         ret = HAL_ERROR;
 8880              		.loc 1 3196 13
 8881 04ce 1A23     		movs	r3, #26
 8882 04d0 1822     		movs	r2, #24
 8883 04d2 9B18     		adds	r3, r3, r2
 8884 04d4 DB19     		adds	r3, r3, r7
 8885 04d6 0122     		movs	r2, #1
 8886 04d8 1A70     		strb	r2, [r3]
 8887              	.L357:
3197:Drivers/STM32L0xx_HAL_Driver/Src/stm32l0xx_hal_uart.c ****       }
3198:Drivers/STM32L0xx_HAL_Driver/Src/stm32l0xx_hal_uart.c ****     }
3199:Drivers/STM32L0xx_HAL_Driver/Src/stm32l0xx_hal_uart.c ****   }
3200:Drivers/STM32L0xx_HAL_Driver/Src/stm32l0xx_hal_uart.c **** 
3201:Drivers/STM32L0xx_HAL_Driver/Src/stm32l0xx_hal_uart.c **** 
3202:Drivers/STM32L0xx_HAL_Driver/Src/stm32l0xx_hal_uart.c ****   /* Clear ISR function pointers */
3203:Drivers/STM32L0xx_HAL_Driver/Src/stm32l0xx_hal_uart.c ****   huart->RxISR = NULL;
 8888              		.loc 1 3203 16
 8889 04da FB69     		ldr	r3, [r7, #28]
 8890 04dc 0022     		movs	r2, #0
 8891 04de 5A66     		str	r2, [r3, #100]
3204:Drivers/STM32L0xx_HAL_Driver/Src/stm32l0xx_hal_uart.c ****   huart->TxISR = NULL;
 8892              		.loc 1 3204 16
 8893 04e0 FB69     		ldr	r3, [r7, #28]
 8894 04e2 0022     		movs	r2, #0
 8895 04e4 9A66     		str	r2, [r3, #104]
3205:Drivers/STM32L0xx_HAL_Driver/Src/stm32l0xx_hal_uart.c **** 
3206:Drivers/STM32L0xx_HAL_Driver/Src/stm32l0xx_hal_uart.c ****   return ret;
 8896              		.loc 1 3206 10
 8897 04e6 1A23     		movs	r3, #26
 8898 04e8 1822     		movs	r2, #24
 8899 04ea 9B18     		adds	r3, r3, r2
 8900 04ec DB19     		adds	r3, r3, r7
 8901 04ee 1B78     		ldrb	r3, [r3]
3207:Drivers/STM32L0xx_HAL_Driver/Src/stm32l0xx_hal_uart.c **** }
 8902              		.loc 1 3207 1
 8903 04f0 1800     		movs	r0, r3
ARM GAS  C:\Users\lidka\AppData\Local\Temp\ccqOATUZ.s 			page 223


 8904 04f2 BD46     		mov	sp, r7
 8905 04f4 0EB0     		add	sp, sp, #56
 8906              		@ sp needed
 8907 04f6 B0BD     		pop	{r4, r5, r7, pc}
 8908              	.L386:
 8909              		.align	2
 8910              	.L385:
 8911 04f8 00100240 		.word	1073876992
 8912 04fc 00093D00 		.word	4000000
 8913 0500 0024F400 		.word	16000000
 8914 0504 24000000 		.word	.L373
 8915              		.cfi_endproc
 8916              	.LFE90:
 8918              		.section	.text.UART_AdvFeatureConfig,"ax",%progbits
 8919              		.align	1
 8920              		.global	UART_AdvFeatureConfig
 8921              		.syntax unified
 8922              		.code	16
 8923              		.thumb_func
 8925              	UART_AdvFeatureConfig:
 8926              	.LFB91:
3208:Drivers/STM32L0xx_HAL_Driver/Src/stm32l0xx_hal_uart.c **** 
3209:Drivers/STM32L0xx_HAL_Driver/Src/stm32l0xx_hal_uart.c **** /**
3210:Drivers/STM32L0xx_HAL_Driver/Src/stm32l0xx_hal_uart.c ****   * @brief Configure the UART peripheral advanced features.
3211:Drivers/STM32L0xx_HAL_Driver/Src/stm32l0xx_hal_uart.c ****   * @param huart UART handle.
3212:Drivers/STM32L0xx_HAL_Driver/Src/stm32l0xx_hal_uart.c ****   * @retval None
3213:Drivers/STM32L0xx_HAL_Driver/Src/stm32l0xx_hal_uart.c ****   */
3214:Drivers/STM32L0xx_HAL_Driver/Src/stm32l0xx_hal_uart.c **** void UART_AdvFeatureConfig(UART_HandleTypeDef *huart)
3215:Drivers/STM32L0xx_HAL_Driver/Src/stm32l0xx_hal_uart.c **** {
 8927              		.loc 1 3215 1
 8928              		.cfi_startproc
 8929              		@ args = 0, pretend = 0, frame = 8
 8930              		@ frame_needed = 1, uses_anonymous_args = 0
 8931 0000 80B5     		push	{r7, lr}
 8932              	.LCFI132:
 8933              		.cfi_def_cfa_offset 8
 8934              		.cfi_offset 7, -8
 8935              		.cfi_offset 14, -4
 8936 0002 82B0     		sub	sp, sp, #8
 8937              	.LCFI133:
 8938              		.cfi_def_cfa_offset 16
 8939 0004 00AF     		add	r7, sp, #0
 8940              	.LCFI134:
 8941              		.cfi_def_cfa_register 7
 8942 0006 7860     		str	r0, [r7, #4]
3216:Drivers/STM32L0xx_HAL_Driver/Src/stm32l0xx_hal_uart.c ****   /* Check whether the set of advanced features to configure is properly set */
3217:Drivers/STM32L0xx_HAL_Driver/Src/stm32l0xx_hal_uart.c ****   assert_param(IS_UART_ADVFEATURE_INIT(huart->AdvancedInit.AdvFeatureInit));
3218:Drivers/STM32L0xx_HAL_Driver/Src/stm32l0xx_hal_uart.c **** 
3219:Drivers/STM32L0xx_HAL_Driver/Src/stm32l0xx_hal_uart.c ****   /* if required, configure TX pin active level inversion */
3220:Drivers/STM32L0xx_HAL_Driver/Src/stm32l0xx_hal_uart.c ****   if (HAL_IS_BIT_SET(huart->AdvancedInit.AdvFeatureInit, UART_ADVFEATURE_TXINVERT_INIT))
 8943              		.loc 1 3220 7
 8944 0008 7B68     		ldr	r3, [r7, #4]
 8945 000a 5B6A     		ldr	r3, [r3, #36]
 8946 000c 0122     		movs	r2, #1
 8947 000e 1340     		ands	r3, r2
 8948              		.loc 1 3220 6
 8949 0010 0BD0     		beq	.L388
ARM GAS  C:\Users\lidka\AppData\Local\Temp\ccqOATUZ.s 			page 224


3221:Drivers/STM32L0xx_HAL_Driver/Src/stm32l0xx_hal_uart.c ****   {
3222:Drivers/STM32L0xx_HAL_Driver/Src/stm32l0xx_hal_uart.c ****     assert_param(IS_UART_ADVFEATURE_TXINV(huart->AdvancedInit.TxPinLevelInvert));
3223:Drivers/STM32L0xx_HAL_Driver/Src/stm32l0xx_hal_uart.c ****     MODIFY_REG(huart->Instance->CR2, USART_CR2_TXINV, huart->AdvancedInit.TxPinLevelInvert);
 8950              		.loc 1 3223 5
 8951 0012 7B68     		ldr	r3, [r7, #4]
 8952 0014 1B68     		ldr	r3, [r3]
 8953 0016 5B68     		ldr	r3, [r3, #4]
 8954 0018 4A4A     		ldr	r2, .L397
 8955 001a 1340     		ands	r3, r2
 8956 001c 1900     		movs	r1, r3
 8957 001e 7B68     		ldr	r3, [r7, #4]
 8958 0020 9A6A     		ldr	r2, [r3, #40]
 8959 0022 7B68     		ldr	r3, [r7, #4]
 8960 0024 1B68     		ldr	r3, [r3]
 8961 0026 0A43     		orrs	r2, r1
 8962 0028 5A60     		str	r2, [r3, #4]
 8963              	.L388:
3224:Drivers/STM32L0xx_HAL_Driver/Src/stm32l0xx_hal_uart.c ****   }
3225:Drivers/STM32L0xx_HAL_Driver/Src/stm32l0xx_hal_uart.c **** 
3226:Drivers/STM32L0xx_HAL_Driver/Src/stm32l0xx_hal_uart.c ****   /* if required, configure RX pin active level inversion */
3227:Drivers/STM32L0xx_HAL_Driver/Src/stm32l0xx_hal_uart.c ****   if (HAL_IS_BIT_SET(huart->AdvancedInit.AdvFeatureInit, UART_ADVFEATURE_RXINVERT_INIT))
 8964              		.loc 1 3227 7
 8965 002a 7B68     		ldr	r3, [r7, #4]
 8966 002c 5B6A     		ldr	r3, [r3, #36]
 8967 002e 0222     		movs	r2, #2
 8968 0030 1340     		ands	r3, r2
 8969              		.loc 1 3227 6
 8970 0032 0BD0     		beq	.L389
3228:Drivers/STM32L0xx_HAL_Driver/Src/stm32l0xx_hal_uart.c ****   {
3229:Drivers/STM32L0xx_HAL_Driver/Src/stm32l0xx_hal_uart.c ****     assert_param(IS_UART_ADVFEATURE_RXINV(huart->AdvancedInit.RxPinLevelInvert));
3230:Drivers/STM32L0xx_HAL_Driver/Src/stm32l0xx_hal_uart.c ****     MODIFY_REG(huart->Instance->CR2, USART_CR2_RXINV, huart->AdvancedInit.RxPinLevelInvert);
 8971              		.loc 1 3230 5
 8972 0034 7B68     		ldr	r3, [r7, #4]
 8973 0036 1B68     		ldr	r3, [r3]
 8974 0038 5B68     		ldr	r3, [r3, #4]
 8975 003a 434A     		ldr	r2, .L397+4
 8976 003c 1340     		ands	r3, r2
 8977 003e 1900     		movs	r1, r3
 8978 0040 7B68     		ldr	r3, [r7, #4]
 8979 0042 DA6A     		ldr	r2, [r3, #44]
 8980 0044 7B68     		ldr	r3, [r7, #4]
 8981 0046 1B68     		ldr	r3, [r3]
 8982 0048 0A43     		orrs	r2, r1
 8983 004a 5A60     		str	r2, [r3, #4]
 8984              	.L389:
3231:Drivers/STM32L0xx_HAL_Driver/Src/stm32l0xx_hal_uart.c ****   }
3232:Drivers/STM32L0xx_HAL_Driver/Src/stm32l0xx_hal_uart.c **** 
3233:Drivers/STM32L0xx_HAL_Driver/Src/stm32l0xx_hal_uart.c ****   /* if required, configure data inversion */
3234:Drivers/STM32L0xx_HAL_Driver/Src/stm32l0xx_hal_uart.c ****   if (HAL_IS_BIT_SET(huart->AdvancedInit.AdvFeatureInit, UART_ADVFEATURE_DATAINVERT_INIT))
 8985              		.loc 1 3234 7
 8986 004c 7B68     		ldr	r3, [r7, #4]
 8987 004e 5B6A     		ldr	r3, [r3, #36]
 8988 0050 0422     		movs	r2, #4
 8989 0052 1340     		ands	r3, r2
 8990              		.loc 1 3234 6
 8991 0054 0BD0     		beq	.L390
3235:Drivers/STM32L0xx_HAL_Driver/Src/stm32l0xx_hal_uart.c ****   {
ARM GAS  C:\Users\lidka\AppData\Local\Temp\ccqOATUZ.s 			page 225


3236:Drivers/STM32L0xx_HAL_Driver/Src/stm32l0xx_hal_uart.c ****     assert_param(IS_UART_ADVFEATURE_DATAINV(huart->AdvancedInit.DataInvert));
3237:Drivers/STM32L0xx_HAL_Driver/Src/stm32l0xx_hal_uart.c ****     MODIFY_REG(huart->Instance->CR2, USART_CR2_DATAINV, huart->AdvancedInit.DataInvert);
 8992              		.loc 1 3237 5
 8993 0056 7B68     		ldr	r3, [r7, #4]
 8994 0058 1B68     		ldr	r3, [r3]
 8995 005a 5B68     		ldr	r3, [r3, #4]
 8996 005c 3B4A     		ldr	r2, .L397+8
 8997 005e 1340     		ands	r3, r2
 8998 0060 1900     		movs	r1, r3
 8999 0062 7B68     		ldr	r3, [r7, #4]
 9000 0064 1A6B     		ldr	r2, [r3, #48]
 9001 0066 7B68     		ldr	r3, [r7, #4]
 9002 0068 1B68     		ldr	r3, [r3]
 9003 006a 0A43     		orrs	r2, r1
 9004 006c 5A60     		str	r2, [r3, #4]
 9005              	.L390:
3238:Drivers/STM32L0xx_HAL_Driver/Src/stm32l0xx_hal_uart.c ****   }
3239:Drivers/STM32L0xx_HAL_Driver/Src/stm32l0xx_hal_uart.c **** 
3240:Drivers/STM32L0xx_HAL_Driver/Src/stm32l0xx_hal_uart.c ****   /* if required, configure RX/TX pins swap */
3241:Drivers/STM32L0xx_HAL_Driver/Src/stm32l0xx_hal_uart.c ****   if (HAL_IS_BIT_SET(huart->AdvancedInit.AdvFeatureInit, UART_ADVFEATURE_SWAP_INIT))
 9006              		.loc 1 3241 7
 9007 006e 7B68     		ldr	r3, [r7, #4]
 9008 0070 5B6A     		ldr	r3, [r3, #36]
 9009 0072 0822     		movs	r2, #8
 9010 0074 1340     		ands	r3, r2
 9011              		.loc 1 3241 6
 9012 0076 0BD0     		beq	.L391
3242:Drivers/STM32L0xx_HAL_Driver/Src/stm32l0xx_hal_uart.c ****   {
3243:Drivers/STM32L0xx_HAL_Driver/Src/stm32l0xx_hal_uart.c ****     assert_param(IS_UART_ADVFEATURE_SWAP(huart->AdvancedInit.Swap));
3244:Drivers/STM32L0xx_HAL_Driver/Src/stm32l0xx_hal_uart.c ****     MODIFY_REG(huart->Instance->CR2, USART_CR2_SWAP, huart->AdvancedInit.Swap);
 9013              		.loc 1 3244 5
 9014 0078 7B68     		ldr	r3, [r7, #4]
 9015 007a 1B68     		ldr	r3, [r3]
 9016 007c 5B68     		ldr	r3, [r3, #4]
 9017 007e 344A     		ldr	r2, .L397+12
 9018 0080 1340     		ands	r3, r2
 9019 0082 1900     		movs	r1, r3
 9020 0084 7B68     		ldr	r3, [r7, #4]
 9021 0086 5A6B     		ldr	r2, [r3, #52]
 9022 0088 7B68     		ldr	r3, [r7, #4]
 9023 008a 1B68     		ldr	r3, [r3]
 9024 008c 0A43     		orrs	r2, r1
 9025 008e 5A60     		str	r2, [r3, #4]
 9026              	.L391:
3245:Drivers/STM32L0xx_HAL_Driver/Src/stm32l0xx_hal_uart.c ****   }
3246:Drivers/STM32L0xx_HAL_Driver/Src/stm32l0xx_hal_uart.c **** 
3247:Drivers/STM32L0xx_HAL_Driver/Src/stm32l0xx_hal_uart.c ****   /* if required, configure RX overrun detection disabling */
3248:Drivers/STM32L0xx_HAL_Driver/Src/stm32l0xx_hal_uart.c ****   if (HAL_IS_BIT_SET(huart->AdvancedInit.AdvFeatureInit, UART_ADVFEATURE_RXOVERRUNDISABLE_INIT))
 9027              		.loc 1 3248 7
 9028 0090 7B68     		ldr	r3, [r7, #4]
 9029 0092 5B6A     		ldr	r3, [r3, #36]
 9030 0094 1022     		movs	r2, #16
 9031 0096 1340     		ands	r3, r2
 9032              		.loc 1 3248 6
 9033 0098 0BD0     		beq	.L392
3249:Drivers/STM32L0xx_HAL_Driver/Src/stm32l0xx_hal_uart.c ****   {
3250:Drivers/STM32L0xx_HAL_Driver/Src/stm32l0xx_hal_uart.c ****     assert_param(IS_UART_OVERRUN(huart->AdvancedInit.OverrunDisable));
ARM GAS  C:\Users\lidka\AppData\Local\Temp\ccqOATUZ.s 			page 226


3251:Drivers/STM32L0xx_HAL_Driver/Src/stm32l0xx_hal_uart.c ****     MODIFY_REG(huart->Instance->CR3, USART_CR3_OVRDIS, huart->AdvancedInit.OverrunDisable);
 9034              		.loc 1 3251 5
 9035 009a 7B68     		ldr	r3, [r7, #4]
 9036 009c 1B68     		ldr	r3, [r3]
 9037 009e 9B68     		ldr	r3, [r3, #8]
 9038 00a0 2C4A     		ldr	r2, .L397+16
 9039 00a2 1340     		ands	r3, r2
 9040 00a4 1900     		movs	r1, r3
 9041 00a6 7B68     		ldr	r3, [r7, #4]
 9042 00a8 9A6B     		ldr	r2, [r3, #56]
 9043 00aa 7B68     		ldr	r3, [r7, #4]
 9044 00ac 1B68     		ldr	r3, [r3]
 9045 00ae 0A43     		orrs	r2, r1
 9046 00b0 9A60     		str	r2, [r3, #8]
 9047              	.L392:
3252:Drivers/STM32L0xx_HAL_Driver/Src/stm32l0xx_hal_uart.c ****   }
3253:Drivers/STM32L0xx_HAL_Driver/Src/stm32l0xx_hal_uart.c **** 
3254:Drivers/STM32L0xx_HAL_Driver/Src/stm32l0xx_hal_uart.c ****   /* if required, configure DMA disabling on reception error */
3255:Drivers/STM32L0xx_HAL_Driver/Src/stm32l0xx_hal_uart.c ****   if (HAL_IS_BIT_SET(huart->AdvancedInit.AdvFeatureInit, UART_ADVFEATURE_DMADISABLEONERROR_INIT))
 9048              		.loc 1 3255 7
 9049 00b2 7B68     		ldr	r3, [r7, #4]
 9050 00b4 5B6A     		ldr	r3, [r3, #36]
 9051 00b6 2022     		movs	r2, #32
 9052 00b8 1340     		ands	r3, r2
 9053              		.loc 1 3255 6
 9054 00ba 0BD0     		beq	.L393
3256:Drivers/STM32L0xx_HAL_Driver/Src/stm32l0xx_hal_uart.c ****   {
3257:Drivers/STM32L0xx_HAL_Driver/Src/stm32l0xx_hal_uart.c ****     assert_param(IS_UART_ADVFEATURE_DMAONRXERROR(huart->AdvancedInit.DMADisableonRxError));
3258:Drivers/STM32L0xx_HAL_Driver/Src/stm32l0xx_hal_uart.c ****     MODIFY_REG(huart->Instance->CR3, USART_CR3_DDRE, huart->AdvancedInit.DMADisableonRxError);
 9055              		.loc 1 3258 5
 9056 00bc 7B68     		ldr	r3, [r7, #4]
 9057 00be 1B68     		ldr	r3, [r3]
 9058 00c0 9B68     		ldr	r3, [r3, #8]
 9059 00c2 254A     		ldr	r2, .L397+20
 9060 00c4 1340     		ands	r3, r2
 9061 00c6 1900     		movs	r1, r3
 9062 00c8 7B68     		ldr	r3, [r7, #4]
 9063 00ca DA6B     		ldr	r2, [r3, #60]
 9064 00cc 7B68     		ldr	r3, [r7, #4]
 9065 00ce 1B68     		ldr	r3, [r3]
 9066 00d0 0A43     		orrs	r2, r1
 9067 00d2 9A60     		str	r2, [r3, #8]
 9068              	.L393:
3259:Drivers/STM32L0xx_HAL_Driver/Src/stm32l0xx_hal_uart.c ****   }
3260:Drivers/STM32L0xx_HAL_Driver/Src/stm32l0xx_hal_uart.c **** 
3261:Drivers/STM32L0xx_HAL_Driver/Src/stm32l0xx_hal_uart.c ****   /* if required, configure auto Baud rate detection scheme */
3262:Drivers/STM32L0xx_HAL_Driver/Src/stm32l0xx_hal_uart.c ****   if (HAL_IS_BIT_SET(huart->AdvancedInit.AdvFeatureInit, UART_ADVFEATURE_AUTOBAUDRATE_INIT))
 9069              		.loc 1 3262 7
 9070 00d4 7B68     		ldr	r3, [r7, #4]
 9071 00d6 5B6A     		ldr	r3, [r3, #36]
 9072 00d8 4022     		movs	r2, #64
 9073 00da 1340     		ands	r3, r2
 9074              		.loc 1 3262 6
 9075 00dc 1DD0     		beq	.L394
3263:Drivers/STM32L0xx_HAL_Driver/Src/stm32l0xx_hal_uart.c ****   {
3264:Drivers/STM32L0xx_HAL_Driver/Src/stm32l0xx_hal_uart.c ****     assert_param(IS_USART_AUTOBAUDRATE_DETECTION_INSTANCE(huart->Instance));
3265:Drivers/STM32L0xx_HAL_Driver/Src/stm32l0xx_hal_uart.c ****     assert_param(IS_UART_ADVFEATURE_AUTOBAUDRATE(huart->AdvancedInit.AutoBaudRateEnable));
ARM GAS  C:\Users\lidka\AppData\Local\Temp\ccqOATUZ.s 			page 227


3266:Drivers/STM32L0xx_HAL_Driver/Src/stm32l0xx_hal_uart.c ****     MODIFY_REG(huart->Instance->CR2, USART_CR2_ABREN, huart->AdvancedInit.AutoBaudRateEnable);
 9076              		.loc 1 3266 5
 9077 00de 7B68     		ldr	r3, [r7, #4]
 9078 00e0 1B68     		ldr	r3, [r3]
 9079 00e2 5B68     		ldr	r3, [r3, #4]
 9080 00e4 1D4A     		ldr	r2, .L397+24
 9081 00e6 1340     		ands	r3, r2
 9082 00e8 1900     		movs	r1, r3
 9083 00ea 7B68     		ldr	r3, [r7, #4]
 9084 00ec 1A6C     		ldr	r2, [r3, #64]
 9085 00ee 7B68     		ldr	r3, [r7, #4]
 9086 00f0 1B68     		ldr	r3, [r3]
 9087 00f2 0A43     		orrs	r2, r1
 9088 00f4 5A60     		str	r2, [r3, #4]
3267:Drivers/STM32L0xx_HAL_Driver/Src/stm32l0xx_hal_uart.c ****     /* set auto Baudrate detection parameters if detection is enabled */
3268:Drivers/STM32L0xx_HAL_Driver/Src/stm32l0xx_hal_uart.c ****     if (huart->AdvancedInit.AutoBaudRateEnable == UART_ADVFEATURE_AUTOBAUDRATE_ENABLE)
 9089              		.loc 1 3268 28
 9090 00f6 7B68     		ldr	r3, [r7, #4]
 9091 00f8 1A6C     		ldr	r2, [r3, #64]
 9092              		.loc 1 3268 8
 9093 00fa 8023     		movs	r3, #128
 9094 00fc 5B03     		lsls	r3, r3, #13
 9095 00fe 9A42     		cmp	r2, r3
 9096 0100 0BD1     		bne	.L394
3269:Drivers/STM32L0xx_HAL_Driver/Src/stm32l0xx_hal_uart.c ****     {
3270:Drivers/STM32L0xx_HAL_Driver/Src/stm32l0xx_hal_uart.c ****       assert_param(IS_UART_ADVFEATURE_AUTOBAUDRATEMODE(huart->AdvancedInit.AutoBaudRateMode));
3271:Drivers/STM32L0xx_HAL_Driver/Src/stm32l0xx_hal_uart.c ****       MODIFY_REG(huart->Instance->CR2, USART_CR2_ABRMODE, huart->AdvancedInit.AutoBaudRateMode);
 9097              		.loc 1 3271 7
 9098 0102 7B68     		ldr	r3, [r7, #4]
 9099 0104 1B68     		ldr	r3, [r3]
 9100 0106 5B68     		ldr	r3, [r3, #4]
 9101 0108 154A     		ldr	r2, .L397+28
 9102 010a 1340     		ands	r3, r2
 9103 010c 1900     		movs	r1, r3
 9104 010e 7B68     		ldr	r3, [r7, #4]
 9105 0110 5A6C     		ldr	r2, [r3, #68]
 9106 0112 7B68     		ldr	r3, [r7, #4]
 9107 0114 1B68     		ldr	r3, [r3]
 9108 0116 0A43     		orrs	r2, r1
 9109 0118 5A60     		str	r2, [r3, #4]
 9110              	.L394:
3272:Drivers/STM32L0xx_HAL_Driver/Src/stm32l0xx_hal_uart.c ****     }
3273:Drivers/STM32L0xx_HAL_Driver/Src/stm32l0xx_hal_uart.c ****   }
3274:Drivers/STM32L0xx_HAL_Driver/Src/stm32l0xx_hal_uart.c **** 
3275:Drivers/STM32L0xx_HAL_Driver/Src/stm32l0xx_hal_uart.c ****   /* if required, configure MSB first on communication line */
3276:Drivers/STM32L0xx_HAL_Driver/Src/stm32l0xx_hal_uart.c ****   if (HAL_IS_BIT_SET(huart->AdvancedInit.AdvFeatureInit, UART_ADVFEATURE_MSBFIRST_INIT))
 9111              		.loc 1 3276 7
 9112 011a 7B68     		ldr	r3, [r7, #4]
 9113 011c 5B6A     		ldr	r3, [r3, #36]
 9114 011e 8022     		movs	r2, #128
 9115 0120 1340     		ands	r3, r2
 9116              		.loc 1 3276 6
 9117 0122 0BD0     		beq	.L396
3277:Drivers/STM32L0xx_HAL_Driver/Src/stm32l0xx_hal_uart.c ****   {
3278:Drivers/STM32L0xx_HAL_Driver/Src/stm32l0xx_hal_uart.c ****     assert_param(IS_UART_ADVFEATURE_MSBFIRST(huart->AdvancedInit.MSBFirst));
3279:Drivers/STM32L0xx_HAL_Driver/Src/stm32l0xx_hal_uart.c ****     MODIFY_REG(huart->Instance->CR2, USART_CR2_MSBFIRST, huart->AdvancedInit.MSBFirst);
 9118              		.loc 1 3279 5
ARM GAS  C:\Users\lidka\AppData\Local\Temp\ccqOATUZ.s 			page 228


 9119 0124 7B68     		ldr	r3, [r7, #4]
 9120 0126 1B68     		ldr	r3, [r3]
 9121 0128 5B68     		ldr	r3, [r3, #4]
 9122 012a 0E4A     		ldr	r2, .L397+32
 9123 012c 1340     		ands	r3, r2
 9124 012e 1900     		movs	r1, r3
 9125 0130 7B68     		ldr	r3, [r7, #4]
 9126 0132 9A6C     		ldr	r2, [r3, #72]
 9127 0134 7B68     		ldr	r3, [r7, #4]
 9128 0136 1B68     		ldr	r3, [r3]
 9129 0138 0A43     		orrs	r2, r1
 9130 013a 5A60     		str	r2, [r3, #4]
 9131              	.L396:
3280:Drivers/STM32L0xx_HAL_Driver/Src/stm32l0xx_hal_uart.c ****   }
3281:Drivers/STM32L0xx_HAL_Driver/Src/stm32l0xx_hal_uart.c **** }
 9132              		.loc 1 3281 1
 9133 013c C046     		nop
 9134 013e BD46     		mov	sp, r7
 9135 0140 02B0     		add	sp, sp, #8
 9136              		@ sp needed
 9137 0142 80BD     		pop	{r7, pc}
 9138              	.L398:
 9139              		.align	2
 9140              	.L397:
 9141 0144 FFFFFDFF 		.word	-131073
 9142 0148 FFFFFEFF 		.word	-65537
 9143 014c FFFFFBFF 		.word	-262145
 9144 0150 FF7FFFFF 		.word	-32769
 9145 0154 FFEFFFFF 		.word	-4097
 9146 0158 FFDFFFFF 		.word	-8193
 9147 015c FFFFEFFF 		.word	-1048577
 9148 0160 FFFF9FFF 		.word	-6291457
 9149 0164 FFFFF7FF 		.word	-524289
 9150              		.cfi_endproc
 9151              	.LFE91:
 9153              		.section	.text.UART_CheckIdleState,"ax",%progbits
 9154              		.align	1
 9155              		.global	UART_CheckIdleState
 9156              		.syntax unified
 9157              		.code	16
 9158              		.thumb_func
 9160              	UART_CheckIdleState:
 9161              	.LFB92:
3282:Drivers/STM32L0xx_HAL_Driver/Src/stm32l0xx_hal_uart.c **** 
3283:Drivers/STM32L0xx_HAL_Driver/Src/stm32l0xx_hal_uart.c **** /**
3284:Drivers/STM32L0xx_HAL_Driver/Src/stm32l0xx_hal_uart.c ****   * @brief Check the UART Idle State.
3285:Drivers/STM32L0xx_HAL_Driver/Src/stm32l0xx_hal_uart.c ****   * @param huart UART handle.
3286:Drivers/STM32L0xx_HAL_Driver/Src/stm32l0xx_hal_uart.c ****   * @retval HAL status
3287:Drivers/STM32L0xx_HAL_Driver/Src/stm32l0xx_hal_uart.c ****   */
3288:Drivers/STM32L0xx_HAL_Driver/Src/stm32l0xx_hal_uart.c **** HAL_StatusTypeDef UART_CheckIdleState(UART_HandleTypeDef *huart)
3289:Drivers/STM32L0xx_HAL_Driver/Src/stm32l0xx_hal_uart.c **** {
 9162              		.loc 1 3289 1
 9163              		.cfi_startproc
 9164              		@ args = 0, pretend = 0, frame = 16
 9165              		@ frame_needed = 1, uses_anonymous_args = 0
 9166 0000 80B5     		push	{r7, lr}
 9167              	.LCFI135:
ARM GAS  C:\Users\lidka\AppData\Local\Temp\ccqOATUZ.s 			page 229


 9168              		.cfi_def_cfa_offset 8
 9169              		.cfi_offset 7, -8
 9170              		.cfi_offset 14, -4
 9171 0002 86B0     		sub	sp, sp, #24
 9172              	.LCFI136:
 9173              		.cfi_def_cfa_offset 32
 9174 0004 02AF     		add	r7, sp, #8
 9175              	.LCFI137:
 9176              		.cfi_def_cfa 7, 24
 9177 0006 7860     		str	r0, [r7, #4]
3290:Drivers/STM32L0xx_HAL_Driver/Src/stm32l0xx_hal_uart.c ****   uint32_t tickstart;
3291:Drivers/STM32L0xx_HAL_Driver/Src/stm32l0xx_hal_uart.c **** 
3292:Drivers/STM32L0xx_HAL_Driver/Src/stm32l0xx_hal_uart.c ****   /* Initialize the UART ErrorCode */
3293:Drivers/STM32L0xx_HAL_Driver/Src/stm32l0xx_hal_uart.c ****   huart->ErrorCode = HAL_UART_ERROR_NONE;
 9178              		.loc 1 3293 20
 9179 0008 7B68     		ldr	r3, [r7, #4]
 9180 000a 8022     		movs	r2, #128
 9181 000c 0021     		movs	r1, #0
 9182 000e 9950     		str	r1, [r3, r2]
3294:Drivers/STM32L0xx_HAL_Driver/Src/stm32l0xx_hal_uart.c **** 
3295:Drivers/STM32L0xx_HAL_Driver/Src/stm32l0xx_hal_uart.c ****   /* Init tickstart for timeout management */
3296:Drivers/STM32L0xx_HAL_Driver/Src/stm32l0xx_hal_uart.c ****   tickstart = HAL_GetTick();
 9183              		.loc 1 3296 15
 9184 0010 FFF7FEFF 		bl	HAL_GetTick
 9185 0014 0300     		movs	r3, r0
 9186 0016 FB60     		str	r3, [r7, #12]
3297:Drivers/STM32L0xx_HAL_Driver/Src/stm32l0xx_hal_uart.c **** 
3298:Drivers/STM32L0xx_HAL_Driver/Src/stm32l0xx_hal_uart.c ****   /* Check if the Transmitter is enabled */
3299:Drivers/STM32L0xx_HAL_Driver/Src/stm32l0xx_hal_uart.c ****   if ((huart->Instance->CR1 & USART_CR1_TE) == USART_CR1_TE)
 9187              		.loc 1 3299 13
 9188 0018 7B68     		ldr	r3, [r7, #4]
 9189 001a 1B68     		ldr	r3, [r3]
 9190              		.loc 1 3299 23
 9191 001c 1B68     		ldr	r3, [r3]
 9192              		.loc 1 3299 29
 9193 001e 0822     		movs	r2, #8
 9194 0020 1340     		ands	r3, r2
 9195              		.loc 1 3299 6
 9196 0022 082B     		cmp	r3, #8
 9197 0024 0CD1     		bne	.L400
3300:Drivers/STM32L0xx_HAL_Driver/Src/stm32l0xx_hal_uart.c ****   {
3301:Drivers/STM32L0xx_HAL_Driver/Src/stm32l0xx_hal_uart.c ****     /* Wait until TEACK flag is set */
3302:Drivers/STM32L0xx_HAL_Driver/Src/stm32l0xx_hal_uart.c ****     if (UART_WaitOnFlagUntilTimeout(huart, USART_ISR_TEACK, RESET, tickstart, HAL_UART_TIMEOUT_VALU
 9198              		.loc 1 3302 9
 9199 0026 FB68     		ldr	r3, [r7, #12]
 9200 0028 8022     		movs	r2, #128
 9201 002a 9103     		lsls	r1, r2, #14
 9202 002c 7868     		ldr	r0, [r7, #4]
 9203 002e 174A     		ldr	r2, .L403
 9204 0030 0092     		str	r2, [sp]
 9205 0032 0022     		movs	r2, #0
 9206 0034 FFF7FEFF 		bl	UART_WaitOnFlagUntilTimeout
 9207 0038 031E     		subs	r3, r0, #0
 9208              		.loc 1 3302 8
 9209 003a 01D0     		beq	.L400
3303:Drivers/STM32L0xx_HAL_Driver/Src/stm32l0xx_hal_uart.c ****     {
3304:Drivers/STM32L0xx_HAL_Driver/Src/stm32l0xx_hal_uart.c ****       /* Timeout occurred */
ARM GAS  C:\Users\lidka\AppData\Local\Temp\ccqOATUZ.s 			page 230


3305:Drivers/STM32L0xx_HAL_Driver/Src/stm32l0xx_hal_uart.c ****       return HAL_TIMEOUT;
 9210              		.loc 1 3305 14
 9211 003c 0323     		movs	r3, #3
 9212 003e 21E0     		b	.L401
 9213              	.L400:
3306:Drivers/STM32L0xx_HAL_Driver/Src/stm32l0xx_hal_uart.c ****     }
3307:Drivers/STM32L0xx_HAL_Driver/Src/stm32l0xx_hal_uart.c ****   }
3308:Drivers/STM32L0xx_HAL_Driver/Src/stm32l0xx_hal_uart.c **** 
3309:Drivers/STM32L0xx_HAL_Driver/Src/stm32l0xx_hal_uart.c ****   /* Check if the Receiver is enabled */
3310:Drivers/STM32L0xx_HAL_Driver/Src/stm32l0xx_hal_uart.c ****   if ((huart->Instance->CR1 & USART_CR1_RE) == USART_CR1_RE)
 9214              		.loc 1 3310 13
 9215 0040 7B68     		ldr	r3, [r7, #4]
 9216 0042 1B68     		ldr	r3, [r3]
 9217              		.loc 1 3310 23
 9218 0044 1B68     		ldr	r3, [r3]
 9219              		.loc 1 3310 29
 9220 0046 0422     		movs	r2, #4
 9221 0048 1340     		ands	r3, r2
 9222              		.loc 1 3310 6
 9223 004a 042B     		cmp	r3, #4
 9224 004c 0CD1     		bne	.L402
3311:Drivers/STM32L0xx_HAL_Driver/Src/stm32l0xx_hal_uart.c ****   {
3312:Drivers/STM32L0xx_HAL_Driver/Src/stm32l0xx_hal_uart.c ****     /* Wait until REACK flag is set */
3313:Drivers/STM32L0xx_HAL_Driver/Src/stm32l0xx_hal_uart.c ****     if (UART_WaitOnFlagUntilTimeout(huart, USART_ISR_REACK, RESET, tickstart, HAL_UART_TIMEOUT_VALU
 9225              		.loc 1 3313 9
 9226 004e FB68     		ldr	r3, [r7, #12]
 9227 0050 8022     		movs	r2, #128
 9228 0052 D103     		lsls	r1, r2, #15
 9229 0054 7868     		ldr	r0, [r7, #4]
 9230 0056 0D4A     		ldr	r2, .L403
 9231 0058 0092     		str	r2, [sp]
 9232 005a 0022     		movs	r2, #0
 9233 005c FFF7FEFF 		bl	UART_WaitOnFlagUntilTimeout
 9234 0060 031E     		subs	r3, r0, #0
 9235              		.loc 1 3313 8
 9236 0062 01D0     		beq	.L402
3314:Drivers/STM32L0xx_HAL_Driver/Src/stm32l0xx_hal_uart.c ****     {
3315:Drivers/STM32L0xx_HAL_Driver/Src/stm32l0xx_hal_uart.c ****       /* Timeout occurred */
3316:Drivers/STM32L0xx_HAL_Driver/Src/stm32l0xx_hal_uart.c ****       return HAL_TIMEOUT;
 9237              		.loc 1 3316 14
 9238 0064 0323     		movs	r3, #3
 9239 0066 0DE0     		b	.L401
 9240              	.L402:
3317:Drivers/STM32L0xx_HAL_Driver/Src/stm32l0xx_hal_uart.c ****     }
3318:Drivers/STM32L0xx_HAL_Driver/Src/stm32l0xx_hal_uart.c ****   }
3319:Drivers/STM32L0xx_HAL_Driver/Src/stm32l0xx_hal_uart.c **** 
3320:Drivers/STM32L0xx_HAL_Driver/Src/stm32l0xx_hal_uart.c ****   /* Initialize the UART State */
3321:Drivers/STM32L0xx_HAL_Driver/Src/stm32l0xx_hal_uart.c ****   huart->gState = HAL_UART_STATE_READY;
 9241              		.loc 1 3321 17
 9242 0068 7B68     		ldr	r3, [r7, #4]
 9243 006a 2022     		movs	r2, #32
 9244 006c 9A67     		str	r2, [r3, #120]
3322:Drivers/STM32L0xx_HAL_Driver/Src/stm32l0xx_hal_uart.c ****   huart->RxState = HAL_UART_STATE_READY;
 9245              		.loc 1 3322 18
 9246 006e 7B68     		ldr	r3, [r7, #4]
 9247 0070 2022     		movs	r2, #32
 9248 0072 DA67     		str	r2, [r3, #124]
ARM GAS  C:\Users\lidka\AppData\Local\Temp\ccqOATUZ.s 			page 231


3323:Drivers/STM32L0xx_HAL_Driver/Src/stm32l0xx_hal_uart.c ****   huart->ReceptionType = HAL_UART_RECEPTION_STANDARD;
 9249              		.loc 1 3323 24
 9250 0074 7B68     		ldr	r3, [r7, #4]
 9251 0076 0022     		movs	r2, #0
 9252 0078 1A66     		str	r2, [r3, #96]
3324:Drivers/STM32L0xx_HAL_Driver/Src/stm32l0xx_hal_uart.c **** 
3325:Drivers/STM32L0xx_HAL_Driver/Src/stm32l0xx_hal_uart.c ****   __HAL_UNLOCK(huart);
 9253              		.loc 1 3325 3
 9254 007a 7B68     		ldr	r3, [r7, #4]
 9255 007c 7422     		movs	r2, #116
 9256 007e 0021     		movs	r1, #0
 9257 0080 9954     		strb	r1, [r3, r2]
3326:Drivers/STM32L0xx_HAL_Driver/Src/stm32l0xx_hal_uart.c **** 
3327:Drivers/STM32L0xx_HAL_Driver/Src/stm32l0xx_hal_uart.c ****   return HAL_OK;
 9258              		.loc 1 3327 10
 9259 0082 0023     		movs	r3, #0
 9260              	.L401:
3328:Drivers/STM32L0xx_HAL_Driver/Src/stm32l0xx_hal_uart.c **** }
 9261              		.loc 1 3328 1
 9262 0084 1800     		movs	r0, r3
 9263 0086 BD46     		mov	sp, r7
 9264 0088 04B0     		add	sp, sp, #16
 9265              		@ sp needed
 9266 008a 80BD     		pop	{r7, pc}
 9267              	.L404:
 9268              		.align	2
 9269              	.L403:
 9270 008c FFFFFF01 		.word	33554431
 9271              		.cfi_endproc
 9272              	.LFE92:
 9274              		.section	.text.UART_WaitOnFlagUntilTimeout,"ax",%progbits
 9275              		.align	1
 9276              		.global	UART_WaitOnFlagUntilTimeout
 9277              		.syntax unified
 9278              		.code	16
 9279              		.thumb_func
 9281              	UART_WaitOnFlagUntilTimeout:
 9282              	.LFB93:
3329:Drivers/STM32L0xx_HAL_Driver/Src/stm32l0xx_hal_uart.c **** 
3330:Drivers/STM32L0xx_HAL_Driver/Src/stm32l0xx_hal_uart.c **** /**
3331:Drivers/STM32L0xx_HAL_Driver/Src/stm32l0xx_hal_uart.c ****   * @brief  Handle UART Communication Timeout.
3332:Drivers/STM32L0xx_HAL_Driver/Src/stm32l0xx_hal_uart.c ****   * @param huart     UART handle.
3333:Drivers/STM32L0xx_HAL_Driver/Src/stm32l0xx_hal_uart.c ****   * @param Flag      Specifies the UART flag to check
3334:Drivers/STM32L0xx_HAL_Driver/Src/stm32l0xx_hal_uart.c ****   * @param Status    Flag status (SET or RESET)
3335:Drivers/STM32L0xx_HAL_Driver/Src/stm32l0xx_hal_uart.c ****   * @param Tickstart Tick start value
3336:Drivers/STM32L0xx_HAL_Driver/Src/stm32l0xx_hal_uart.c ****   * @param Timeout   Timeout duration
3337:Drivers/STM32L0xx_HAL_Driver/Src/stm32l0xx_hal_uart.c ****   * @retval HAL status
3338:Drivers/STM32L0xx_HAL_Driver/Src/stm32l0xx_hal_uart.c ****   */
3339:Drivers/STM32L0xx_HAL_Driver/Src/stm32l0xx_hal_uart.c **** HAL_StatusTypeDef UART_WaitOnFlagUntilTimeout(UART_HandleTypeDef *huart, uint32_t Flag, FlagStatus 
3340:Drivers/STM32L0xx_HAL_Driver/Src/stm32l0xx_hal_uart.c ****                                               uint32_t Tickstart, uint32_t Timeout)
3341:Drivers/STM32L0xx_HAL_Driver/Src/stm32l0xx_hal_uart.c **** {
 9283              		.loc 1 3341 1
 9284              		.cfi_startproc
 9285              		@ args = 4, pretend = 0, frame = 80
 9286              		@ frame_needed = 1, uses_anonymous_args = 0
 9287 0000 80B5     		push	{r7, lr}
 9288              	.LCFI138:
ARM GAS  C:\Users\lidka\AppData\Local\Temp\ccqOATUZ.s 			page 232


 9289              		.cfi_def_cfa_offset 8
 9290              		.cfi_offset 7, -8
 9291              		.cfi_offset 14, -4
 9292 0002 94B0     		sub	sp, sp, #80
 9293              	.LCFI139:
 9294              		.cfi_def_cfa_offset 88
 9295 0004 00AF     		add	r7, sp, #0
 9296              	.LCFI140:
 9297              		.cfi_def_cfa_register 7
 9298 0006 F860     		str	r0, [r7, #12]
 9299 0008 B960     		str	r1, [r7, #8]
 9300 000a 3B60     		str	r3, [r7]
 9301 000c FB1D     		adds	r3, r7, #7
 9302 000e 1A70     		strb	r2, [r3]
3342:Drivers/STM32L0xx_HAL_Driver/Src/stm32l0xx_hal_uart.c ****   /* Wait until flag is set */
3343:Drivers/STM32L0xx_HAL_Driver/Src/stm32l0xx_hal_uart.c ****   while ((__HAL_UART_GET_FLAG(huart, Flag) ? SET : RESET) == Status)
 9303              		.loc 1 3343 9
 9304 0010 A3E0     		b	.L406
 9305              	.L414:
3344:Drivers/STM32L0xx_HAL_Driver/Src/stm32l0xx_hal_uart.c ****   {
3345:Drivers/STM32L0xx_HAL_Driver/Src/stm32l0xx_hal_uart.c ****     /* Check for the Timeout */
3346:Drivers/STM32L0xx_HAL_Driver/Src/stm32l0xx_hal_uart.c ****     if (Timeout != HAL_MAX_DELAY)
 9306              		.loc 1 3346 8
 9307 0012 BB6D     		ldr	r3, [r7, #88]
 9308 0014 0133     		adds	r3, r3, #1
 9309 0016 00D1     		bne	.LCB7274
 9310 0018 9FE0     		b	.L406	@long jump
 9311              	.LCB7274:
3347:Drivers/STM32L0xx_HAL_Driver/Src/stm32l0xx_hal_uart.c ****     {
3348:Drivers/STM32L0xx_HAL_Driver/Src/stm32l0xx_hal_uart.c ****       if (((HAL_GetTick() - Tickstart) > Timeout) || (Timeout == 0U))
 9312              		.loc 1 3348 13
 9313 001a FFF7FEFF 		bl	HAL_GetTick
 9314 001e 0200     		movs	r2, r0
 9315              		.loc 1 3348 27
 9316 0020 3B68     		ldr	r3, [r7]
 9317 0022 D31A     		subs	r3, r2, r3
 9318              		.loc 1 3348 10
 9319 0024 BA6D     		ldr	r2, [r7, #88]
 9320 0026 9A42     		cmp	r2, r3
 9321 0028 02D3     		bcc	.L407
 9322              		.loc 1 3348 51 discriminator 1
 9323 002a BB6D     		ldr	r3, [r7, #88]
 9324 002c 002B     		cmp	r3, #0
 9325 002e 3DD1     		bne	.L408
 9326              	.L407:
 9327              	.LBB918:
 9328              	.LBB919:
 9329              	.LBB920:
 386:Drivers/CMSIS/Include/cmsis_gcc.h ****   return(result);
 9330              		.loc 2 386 3
 9331              		.syntax divided
 9332              	@ 386 "Drivers/CMSIS/Include/cmsis_gcc.h" 1
 9333 0030 EFF31083 		MRS r3, primask
 9334              	@ 0 "" 2
 9335              		.thumb
 9336              		.syntax unified
 9337 0034 BB62     		str	r3, [r7, #40]
ARM GAS  C:\Users\lidka\AppData\Local\Temp\ccqOATUZ.s 			page 233


 387:Drivers/CMSIS/Include/cmsis_gcc.h **** }
 9338              		.loc 2 387 9
 9339 0036 BB6A     		ldr	r3, [r7, #40]
 9340              	.LBE920:
 9341              	.LBE919:
3349:Drivers/STM32L0xx_HAL_Driver/Src/stm32l0xx_hal_uart.c ****       {
3350:Drivers/STM32L0xx_HAL_Driver/Src/stm32l0xx_hal_uart.c ****         /* Disable TXE, RXNE, PE and ERR (Frame error, noise error, overrun error)
3351:Drivers/STM32L0xx_HAL_Driver/Src/stm32l0xx_hal_uart.c ****            interrupts for the interrupt process */
3352:Drivers/STM32L0xx_HAL_Driver/Src/stm32l0xx_hal_uart.c ****         ATOMIC_CLEAR_BIT(huart->Instance->CR1, (USART_CR1_RXNEIE | USART_CR1_PEIE | USART_CR1_TXEIE
 9342              		.loc 1 3352 9
 9343 0038 7B64     		str	r3, [r7, #68]
 9344 003a 0123     		movs	r3, #1
 9345 003c FB62     		str	r3, [r7, #44]
 9346              	.LBB921:
 9347              	.LBB922:
 414:Drivers/CMSIS/Include/cmsis_gcc.h **** }
 9348              		.loc 2 414 3
 9349 003e FB6A     		ldr	r3, [r7, #44]
 9350              		.syntax divided
 9351              	@ 414 "Drivers/CMSIS/Include/cmsis_gcc.h" 1
 9352 0040 83F31088 		MSR primask, r3
 9353              	@ 0 "" 2
 9354              		.loc 2 415 1
 9355              		.thumb
 9356              		.syntax unified
 9357 0044 C046     		nop
 9358              	.LBE922:
 9359              	.LBE921:
 9360              		.loc 1 3352 9
 9361 0046 FB68     		ldr	r3, [r7, #12]
 9362 0048 1B68     		ldr	r3, [r3]
 9363 004a 1A68     		ldr	r2, [r3]
 9364 004c FB68     		ldr	r3, [r7, #12]
 9365 004e 1B68     		ldr	r3, [r3]
 9366 0050 4C49     		ldr	r1, .L415
 9367 0052 0A40     		ands	r2, r1
 9368 0054 1A60     		str	r2, [r3]
 9369 0056 7B6C     		ldr	r3, [r7, #68]
 9370 0058 3B63     		str	r3, [r7, #48]
 9371              	.LBB923:
 9372              	.LBB924:
 414:Drivers/CMSIS/Include/cmsis_gcc.h **** }
 9373              		.loc 2 414 3
 9374 005a 3B6B     		ldr	r3, [r7, #48]
 9375              		.syntax divided
 9376              	@ 414 "Drivers/CMSIS/Include/cmsis_gcc.h" 1
 9377 005c 83F31088 		MSR primask, r3
 9378              	@ 0 "" 2
 9379              		.loc 2 415 1
 9380              		.thumb
 9381              		.syntax unified
 9382 0060 C046     		nop
 9383              	.LBE924:
 9384              	.LBE923:
 9385              	.LBE918:
 9386              	.LBB925:
 9387              	.LBB926:
ARM GAS  C:\Users\lidka\AppData\Local\Temp\ccqOATUZ.s 			page 234


 9388              	.LBB927:
 386:Drivers/CMSIS/Include/cmsis_gcc.h ****   return(result);
 9389              		.loc 2 386 3
 9390              		.syntax divided
 9391              	@ 386 "Drivers/CMSIS/Include/cmsis_gcc.h" 1
 9392 0062 EFF31083 		MRS r3, primask
 9393              	@ 0 "" 2
 9394              		.thumb
 9395              		.syntax unified
 9396 0066 7B63     		str	r3, [r7, #52]
 387:Drivers/CMSIS/Include/cmsis_gcc.h **** }
 9397              		.loc 2 387 9
 9398 0068 7B6B     		ldr	r3, [r7, #52]
 9399              	.LBE927:
 9400              	.LBE926:
3353:Drivers/STM32L0xx_HAL_Driver/Src/stm32l0xx_hal_uart.c ****         ATOMIC_CLEAR_BIT(huart->Instance->CR3, USART_CR3_EIE);
 9401              		.loc 1 3353 9
 9402 006a 3B64     		str	r3, [r7, #64]
 9403 006c 0123     		movs	r3, #1
 9404 006e BB63     		str	r3, [r7, #56]
 9405              	.LBB928:
 9406              	.LBB929:
 414:Drivers/CMSIS/Include/cmsis_gcc.h **** }
 9407              		.loc 2 414 3
 9408 0070 BB6B     		ldr	r3, [r7, #56]
 9409              		.syntax divided
 9410              	@ 414 "Drivers/CMSIS/Include/cmsis_gcc.h" 1
 9411 0072 83F31088 		MSR primask, r3
 9412              	@ 0 "" 2
 9413              		.loc 2 415 1
 9414              		.thumb
 9415              		.syntax unified
 9416 0076 C046     		nop
 9417              	.LBE929:
 9418              	.LBE928:
 9419              		.loc 1 3353 9
 9420 0078 FB68     		ldr	r3, [r7, #12]
 9421 007a 1B68     		ldr	r3, [r3]
 9422 007c 9A68     		ldr	r2, [r3, #8]
 9423 007e FB68     		ldr	r3, [r7, #12]
 9424 0080 1B68     		ldr	r3, [r3]
 9425 0082 0121     		movs	r1, #1
 9426 0084 8A43     		bics	r2, r1
 9427 0086 9A60     		str	r2, [r3, #8]
 9428 0088 3B6C     		ldr	r3, [r7, #64]
 9429 008a FB63     		str	r3, [r7, #60]
 9430              	.LBB930:
 9431              	.LBB931:
 414:Drivers/CMSIS/Include/cmsis_gcc.h **** }
 9432              		.loc 2 414 3
 9433 008c FB6B     		ldr	r3, [r7, #60]
 9434              		.syntax divided
 9435              	@ 414 "Drivers/CMSIS/Include/cmsis_gcc.h" 1
 9436 008e 83F31088 		MSR primask, r3
 9437              	@ 0 "" 2
 9438              		.loc 2 415 1
 9439              		.thumb
ARM GAS  C:\Users\lidka\AppData\Local\Temp\ccqOATUZ.s 			page 235


 9440              		.syntax unified
 9441 0092 C046     		nop
 9442              	.LBE931:
 9443              	.LBE930:
 9444              	.LBE925:
3354:Drivers/STM32L0xx_HAL_Driver/Src/stm32l0xx_hal_uart.c **** 
3355:Drivers/STM32L0xx_HAL_Driver/Src/stm32l0xx_hal_uart.c ****         huart->gState = HAL_UART_STATE_READY;
 9445              		.loc 1 3355 23
 9446 0094 FB68     		ldr	r3, [r7, #12]
 9447 0096 2022     		movs	r2, #32
 9448 0098 9A67     		str	r2, [r3, #120]
3356:Drivers/STM32L0xx_HAL_Driver/Src/stm32l0xx_hal_uart.c ****         huart->RxState = HAL_UART_STATE_READY;
 9449              		.loc 1 3356 24
 9450 009a FB68     		ldr	r3, [r7, #12]
 9451 009c 2022     		movs	r2, #32
 9452 009e DA67     		str	r2, [r3, #124]
3357:Drivers/STM32L0xx_HAL_Driver/Src/stm32l0xx_hal_uart.c **** 
3358:Drivers/STM32L0xx_HAL_Driver/Src/stm32l0xx_hal_uart.c ****         __HAL_UNLOCK(huart);
 9453              		.loc 1 3358 9
 9454 00a0 FB68     		ldr	r3, [r7, #12]
 9455 00a2 7422     		movs	r2, #116
 9456 00a4 0021     		movs	r1, #0
 9457 00a6 9954     		strb	r1, [r3, r2]
3359:Drivers/STM32L0xx_HAL_Driver/Src/stm32l0xx_hal_uart.c **** 
3360:Drivers/STM32L0xx_HAL_Driver/Src/stm32l0xx_hal_uart.c ****         return HAL_TIMEOUT;
 9458              		.loc 1 3360 16
 9459 00a8 0323     		movs	r3, #3
 9460 00aa 67E0     		b	.L411
 9461              	.L408:
3361:Drivers/STM32L0xx_HAL_Driver/Src/stm32l0xx_hal_uart.c ****       }
3362:Drivers/STM32L0xx_HAL_Driver/Src/stm32l0xx_hal_uart.c **** 
3363:Drivers/STM32L0xx_HAL_Driver/Src/stm32l0xx_hal_uart.c ****       if (READ_BIT(huart->Instance->CR1, USART_CR1_RE) != 0U)
 9462              		.loc 1 3363 11
 9463 00ac FB68     		ldr	r3, [r7, #12]
 9464 00ae 1B68     		ldr	r3, [r3]
 9465 00b0 1B68     		ldr	r3, [r3]
 9466 00b2 0422     		movs	r2, #4
 9467 00b4 1340     		ands	r3, r2
 9468              		.loc 1 3363 10
 9469 00b6 50D0     		beq	.L406
3364:Drivers/STM32L0xx_HAL_Driver/Src/stm32l0xx_hal_uart.c ****       {
3365:Drivers/STM32L0xx_HAL_Driver/Src/stm32l0xx_hal_uart.c ****         if (__HAL_UART_GET_FLAG(huart, UART_FLAG_RTOF) == SET)
 9470              		.loc 1 3365 13
 9471 00b8 FB68     		ldr	r3, [r7, #12]
 9472 00ba 1B68     		ldr	r3, [r3]
 9473 00bc DA69     		ldr	r2, [r3, #28]
 9474 00be 8023     		movs	r3, #128
 9475 00c0 1B01     		lsls	r3, r3, #4
 9476 00c2 1A40     		ands	r2, r3
 9477              		.loc 1 3365 12
 9478 00c4 8023     		movs	r3, #128
 9479 00c6 1B01     		lsls	r3, r3, #4
 9480 00c8 9A42     		cmp	r2, r3
 9481 00ca 46D1     		bne	.L406
3366:Drivers/STM32L0xx_HAL_Driver/Src/stm32l0xx_hal_uart.c ****         {
3367:Drivers/STM32L0xx_HAL_Driver/Src/stm32l0xx_hal_uart.c ****           /* Clear Receiver Timeout flag*/
3368:Drivers/STM32L0xx_HAL_Driver/Src/stm32l0xx_hal_uart.c ****           __HAL_UART_CLEAR_FLAG(huart, UART_CLEAR_RTOF);
ARM GAS  C:\Users\lidka\AppData\Local\Temp\ccqOATUZ.s 			page 236


 9482              		.loc 1 3368 11
 9483 00cc FB68     		ldr	r3, [r7, #12]
 9484 00ce 1B68     		ldr	r3, [r3]
 9485 00d0 8022     		movs	r2, #128
 9486 00d2 1201     		lsls	r2, r2, #4
 9487 00d4 1A62     		str	r2, [r3, #32]
 9488              	.LBB932:
 9489              	.LBB933:
 9490              	.LBB934:
 386:Drivers/CMSIS/Include/cmsis_gcc.h ****   return(result);
 9491              		.loc 2 386 3
 9492              		.syntax divided
 9493              	@ 386 "Drivers/CMSIS/Include/cmsis_gcc.h" 1
 9494 00d6 EFF31083 		MRS r3, primask
 9495              	@ 0 "" 2
 9496              		.thumb
 9497              		.syntax unified
 9498 00da 3B61     		str	r3, [r7, #16]
 387:Drivers/CMSIS/Include/cmsis_gcc.h **** }
 9499              		.loc 2 387 9
 9500 00dc 3B69     		ldr	r3, [r7, #16]
 9501              	.LBE934:
 9502              	.LBE933:
3369:Drivers/STM32L0xx_HAL_Driver/Src/stm32l0xx_hal_uart.c **** 
3370:Drivers/STM32L0xx_HAL_Driver/Src/stm32l0xx_hal_uart.c ****           /* Disable TXE, RXNE, PE and ERR (Frame error, noise error, overrun error)
3371:Drivers/STM32L0xx_HAL_Driver/Src/stm32l0xx_hal_uart.c ****              interrupts for the interrupt process */
3372:Drivers/STM32L0xx_HAL_Driver/Src/stm32l0xx_hal_uart.c ****           ATOMIC_CLEAR_BIT(huart->Instance->CR1, (USART_CR1_RXNEIE | USART_CR1_PEIE | USART_CR1_TXE
 9503              		.loc 1 3372 11
 9504 00de FB64     		str	r3, [r7, #76]
 9505 00e0 0123     		movs	r3, #1
 9506 00e2 7B61     		str	r3, [r7, #20]
 9507              	.LBB935:
 9508              	.LBB936:
 414:Drivers/CMSIS/Include/cmsis_gcc.h **** }
 9509              		.loc 2 414 3
 9510 00e4 7B69     		ldr	r3, [r7, #20]
 9511              		.syntax divided
 9512              	@ 414 "Drivers/CMSIS/Include/cmsis_gcc.h" 1
 9513 00e6 83F31088 		MSR primask, r3
 9514              	@ 0 "" 2
 9515              		.loc 2 415 1
 9516              		.thumb
 9517              		.syntax unified
 9518 00ea C046     		nop
 9519              	.LBE936:
 9520              	.LBE935:
 9521              		.loc 1 3372 11
 9522 00ec FB68     		ldr	r3, [r7, #12]
 9523 00ee 1B68     		ldr	r3, [r3]
 9524 00f0 1A68     		ldr	r2, [r3]
 9525 00f2 FB68     		ldr	r3, [r7, #12]
 9526 00f4 1B68     		ldr	r3, [r3]
 9527 00f6 2349     		ldr	r1, .L415
 9528 00f8 0A40     		ands	r2, r1
 9529 00fa 1A60     		str	r2, [r3]
 9530 00fc FB6C     		ldr	r3, [r7, #76]
 9531 00fe BB61     		str	r3, [r7, #24]
ARM GAS  C:\Users\lidka\AppData\Local\Temp\ccqOATUZ.s 			page 237


 9532              	.LBB937:
 9533              	.LBB938:
 414:Drivers/CMSIS/Include/cmsis_gcc.h **** }
 9534              		.loc 2 414 3
 9535 0100 BB69     		ldr	r3, [r7, #24]
 9536              		.syntax divided
 9537              	@ 414 "Drivers/CMSIS/Include/cmsis_gcc.h" 1
 9538 0102 83F31088 		MSR primask, r3
 9539              	@ 0 "" 2
 9540              		.loc 2 415 1
 9541              		.thumb
 9542              		.syntax unified
 9543 0106 C046     		nop
 9544              	.LBE938:
 9545              	.LBE937:
 9546              	.LBE932:
 9547              	.LBB939:
 9548              	.LBB940:
 9549              	.LBB941:
 386:Drivers/CMSIS/Include/cmsis_gcc.h ****   return(result);
 9550              		.loc 2 386 3
 9551              		.syntax divided
 9552              	@ 386 "Drivers/CMSIS/Include/cmsis_gcc.h" 1
 9553 0108 EFF31083 		MRS r3, primask
 9554              	@ 0 "" 2
 9555              		.thumb
 9556              		.syntax unified
 9557 010c FB61     		str	r3, [r7, #28]
 387:Drivers/CMSIS/Include/cmsis_gcc.h **** }
 9558              		.loc 2 387 9
 9559 010e FB69     		ldr	r3, [r7, #28]
 9560              	.LBE941:
 9561              	.LBE940:
3373:Drivers/STM32L0xx_HAL_Driver/Src/stm32l0xx_hal_uart.c ****           ATOMIC_CLEAR_BIT(huart->Instance->CR3, USART_CR3_EIE);
 9562              		.loc 1 3373 11
 9563 0110 BB64     		str	r3, [r7, #72]
 9564 0112 0123     		movs	r3, #1
 9565 0114 3B62     		str	r3, [r7, #32]
 9566              	.LBB942:
 9567              	.LBB943:
 414:Drivers/CMSIS/Include/cmsis_gcc.h **** }
 9568              		.loc 2 414 3
 9569 0116 3B6A     		ldr	r3, [r7, #32]
 9570              		.syntax divided
 9571              	@ 414 "Drivers/CMSIS/Include/cmsis_gcc.h" 1
 9572 0118 83F31088 		MSR primask, r3
 9573              	@ 0 "" 2
 9574              		.loc 2 415 1
 9575              		.thumb
 9576              		.syntax unified
 9577 011c C046     		nop
 9578              	.LBE943:
 9579              	.LBE942:
 9580              		.loc 1 3373 11
 9581 011e FB68     		ldr	r3, [r7, #12]
 9582 0120 1B68     		ldr	r3, [r3]
 9583 0122 9A68     		ldr	r2, [r3, #8]
ARM GAS  C:\Users\lidka\AppData\Local\Temp\ccqOATUZ.s 			page 238


 9584 0124 FB68     		ldr	r3, [r7, #12]
 9585 0126 1B68     		ldr	r3, [r3]
 9586 0128 0121     		movs	r1, #1
 9587 012a 8A43     		bics	r2, r1
 9588 012c 9A60     		str	r2, [r3, #8]
 9589 012e BB6C     		ldr	r3, [r7, #72]
 9590 0130 7B62     		str	r3, [r7, #36]
 9591              	.LBB944:
 9592              	.LBB945:
 414:Drivers/CMSIS/Include/cmsis_gcc.h **** }
 9593              		.loc 2 414 3
 9594 0132 7B6A     		ldr	r3, [r7, #36]
 9595              		.syntax divided
 9596              	@ 414 "Drivers/CMSIS/Include/cmsis_gcc.h" 1
 9597 0134 83F31088 		MSR primask, r3
 9598              	@ 0 "" 2
 9599              		.loc 2 415 1
 9600              		.thumb
 9601              		.syntax unified
 9602 0138 C046     		nop
 9603              	.LBE945:
 9604              	.LBE944:
 9605              	.LBE939:
3374:Drivers/STM32L0xx_HAL_Driver/Src/stm32l0xx_hal_uart.c **** 
3375:Drivers/STM32L0xx_HAL_Driver/Src/stm32l0xx_hal_uart.c ****           huart->gState = HAL_UART_STATE_READY;
 9606              		.loc 1 3375 25
 9607 013a FB68     		ldr	r3, [r7, #12]
 9608 013c 2022     		movs	r2, #32
 9609 013e 9A67     		str	r2, [r3, #120]
3376:Drivers/STM32L0xx_HAL_Driver/Src/stm32l0xx_hal_uart.c ****           huart->RxState = HAL_UART_STATE_READY;
 9610              		.loc 1 3376 26
 9611 0140 FB68     		ldr	r3, [r7, #12]
 9612 0142 2022     		movs	r2, #32
 9613 0144 DA67     		str	r2, [r3, #124]
3377:Drivers/STM32L0xx_HAL_Driver/Src/stm32l0xx_hal_uart.c ****           huart->ErrorCode = HAL_UART_ERROR_RTO;
 9614              		.loc 1 3377 28
 9615 0146 FB68     		ldr	r3, [r7, #12]
 9616 0148 8022     		movs	r2, #128
 9617 014a 2021     		movs	r1, #32
 9618 014c 9950     		str	r1, [r3, r2]
3378:Drivers/STM32L0xx_HAL_Driver/Src/stm32l0xx_hal_uart.c **** 
3379:Drivers/STM32L0xx_HAL_Driver/Src/stm32l0xx_hal_uart.c ****           /* Process Unlocked */
3380:Drivers/STM32L0xx_HAL_Driver/Src/stm32l0xx_hal_uart.c ****           __HAL_UNLOCK(huart);
 9619              		.loc 1 3380 11
 9620 014e FB68     		ldr	r3, [r7, #12]
 9621 0150 7422     		movs	r2, #116
 9622 0152 0021     		movs	r1, #0
 9623 0154 9954     		strb	r1, [r3, r2]
3381:Drivers/STM32L0xx_HAL_Driver/Src/stm32l0xx_hal_uart.c **** 
3382:Drivers/STM32L0xx_HAL_Driver/Src/stm32l0xx_hal_uart.c ****           return HAL_TIMEOUT;
 9624              		.loc 1 3382 18
 9625 0156 0323     		movs	r3, #3
 9626 0158 10E0     		b	.L411
 9627              	.L406:
3343:Drivers/STM32L0xx_HAL_Driver/Src/stm32l0xx_hal_uart.c ****   {
 9628              		.loc 1 3343 11
 9629 015a FB68     		ldr	r3, [r7, #12]
ARM GAS  C:\Users\lidka\AppData\Local\Temp\ccqOATUZ.s 			page 239


 9630 015c 1B68     		ldr	r3, [r3]
 9631 015e DB69     		ldr	r3, [r3, #28]
 9632 0160 BA68     		ldr	r2, [r7, #8]
 9633 0162 1340     		ands	r3, r2
3343:Drivers/STM32L0xx_HAL_Driver/Src/stm32l0xx_hal_uart.c ****   {
 9634              		.loc 1 3343 50
 9635 0164 BA68     		ldr	r2, [r7, #8]
 9636 0166 D31A     		subs	r3, r2, r3
 9637 0168 5A42     		rsbs	r2, r3, #0
 9638 016a 5341     		adcs	r3, r3, r2
 9639 016c DBB2     		uxtb	r3, r3
 9640 016e 1A00     		movs	r2, r3
3343:Drivers/STM32L0xx_HAL_Driver/Src/stm32l0xx_hal_uart.c ****   {
 9641              		.loc 1 3343 59
 9642 0170 FB1D     		adds	r3, r7, #7
 9643 0172 1B78     		ldrb	r3, [r3]
3343:Drivers/STM32L0xx_HAL_Driver/Src/stm32l0xx_hal_uart.c ****   {
 9644              		.loc 1 3343 9
 9645 0174 9A42     		cmp	r2, r3
 9646 0176 00D1     		bne	.LCB7499
 9647 0178 4BE7     		b	.L414	@long jump
 9648              	.LCB7499:
3383:Drivers/STM32L0xx_HAL_Driver/Src/stm32l0xx_hal_uart.c ****         }
3384:Drivers/STM32L0xx_HAL_Driver/Src/stm32l0xx_hal_uart.c ****       }
3385:Drivers/STM32L0xx_HAL_Driver/Src/stm32l0xx_hal_uart.c ****     }
3386:Drivers/STM32L0xx_HAL_Driver/Src/stm32l0xx_hal_uart.c ****   }
3387:Drivers/STM32L0xx_HAL_Driver/Src/stm32l0xx_hal_uart.c ****   return HAL_OK;
 9649              		.loc 1 3387 10
 9650 017a 0023     		movs	r3, #0
 9651              	.L411:
3388:Drivers/STM32L0xx_HAL_Driver/Src/stm32l0xx_hal_uart.c **** }
 9652              		.loc 1 3388 1
 9653 017c 1800     		movs	r0, r3
 9654 017e BD46     		mov	sp, r7
 9655 0180 14B0     		add	sp, sp, #80
 9656              		@ sp needed
 9657 0182 80BD     		pop	{r7, pc}
 9658              	.L416:
 9659              		.align	2
 9660              	.L415:
 9661 0184 5FFEFFFF 		.word	-417
 9662              		.cfi_endproc
 9663              	.LFE93:
 9665              		.section	.text.UART_Start_Receive_IT,"ax",%progbits
 9666              		.align	1
 9667              		.global	UART_Start_Receive_IT
 9668              		.syntax unified
 9669              		.code	16
 9670              		.thumb_func
 9672              	UART_Start_Receive_IT:
 9673              	.LFB94:
3389:Drivers/STM32L0xx_HAL_Driver/Src/stm32l0xx_hal_uart.c **** 
3390:Drivers/STM32L0xx_HAL_Driver/Src/stm32l0xx_hal_uart.c **** /**
3391:Drivers/STM32L0xx_HAL_Driver/Src/stm32l0xx_hal_uart.c ****   * @brief  Start Receive operation in interrupt mode.
3392:Drivers/STM32L0xx_HAL_Driver/Src/stm32l0xx_hal_uart.c ****   * @note   This function could be called by all HAL UART API providing reception in Interrupt mode
3393:Drivers/STM32L0xx_HAL_Driver/Src/stm32l0xx_hal_uart.c ****   * @note   When calling this function, parameters validity is considered as already checked,
3394:Drivers/STM32L0xx_HAL_Driver/Src/stm32l0xx_hal_uart.c ****   *         i.e. Rx State, buffer address, ...
ARM GAS  C:\Users\lidka\AppData\Local\Temp\ccqOATUZ.s 			page 240


3395:Drivers/STM32L0xx_HAL_Driver/Src/stm32l0xx_hal_uart.c ****   *         UART Handle is assumed as Locked.
3396:Drivers/STM32L0xx_HAL_Driver/Src/stm32l0xx_hal_uart.c ****   * @param  huart UART handle.
3397:Drivers/STM32L0xx_HAL_Driver/Src/stm32l0xx_hal_uart.c ****   * @param  pData Pointer to data buffer (u8 or u16 data elements).
3398:Drivers/STM32L0xx_HAL_Driver/Src/stm32l0xx_hal_uart.c ****   * @param  Size  Amount of data elements (u8 or u16) to be received.
3399:Drivers/STM32L0xx_HAL_Driver/Src/stm32l0xx_hal_uart.c ****   * @retval HAL status
3400:Drivers/STM32L0xx_HAL_Driver/Src/stm32l0xx_hal_uart.c ****   */
3401:Drivers/STM32L0xx_HAL_Driver/Src/stm32l0xx_hal_uart.c **** HAL_StatusTypeDef UART_Start_Receive_IT(UART_HandleTypeDef *huart, uint8_t *pData, uint16_t Size)
3402:Drivers/STM32L0xx_HAL_Driver/Src/stm32l0xx_hal_uart.c **** {
 9674              		.loc 1 3402 1
 9675              		.cfi_startproc
 9676              		@ args = 0, pretend = 0, frame = 48
 9677              		@ frame_needed = 1, uses_anonymous_args = 0
 9678 0000 80B5     		push	{r7, lr}
 9679              	.LCFI141:
 9680              		.cfi_def_cfa_offset 8
 9681              		.cfi_offset 7, -8
 9682              		.cfi_offset 14, -4
 9683 0002 8CB0     		sub	sp, sp, #48
 9684              	.LCFI142:
 9685              		.cfi_def_cfa_offset 56
 9686 0004 00AF     		add	r7, sp, #0
 9687              	.LCFI143:
 9688              		.cfi_def_cfa_register 7
 9689 0006 F860     		str	r0, [r7, #12]
 9690 0008 B960     		str	r1, [r7, #8]
 9691 000a BB1D     		adds	r3, r7, #6
 9692 000c 1A80     		strh	r2, [r3]
3403:Drivers/STM32L0xx_HAL_Driver/Src/stm32l0xx_hal_uart.c ****   huart->pRxBuffPtr  = pData;
 9693              		.loc 1 3403 22
 9694 000e FB68     		ldr	r3, [r7, #12]
 9695 0010 BA68     		ldr	r2, [r7, #8]
 9696 0012 5A65     		str	r2, [r3, #84]
3404:Drivers/STM32L0xx_HAL_Driver/Src/stm32l0xx_hal_uart.c ****   huart->RxXferSize  = Size;
 9697              		.loc 1 3404 22
 9698 0014 FB68     		ldr	r3, [r7, #12]
 9699 0016 BA1D     		adds	r2, r7, #6
 9700 0018 5821     		movs	r1, #88
 9701 001a 1288     		ldrh	r2, [r2]
 9702 001c 5A52     		strh	r2, [r3, r1]
3405:Drivers/STM32L0xx_HAL_Driver/Src/stm32l0xx_hal_uart.c ****   huart->RxXferCount = Size;
 9703              		.loc 1 3405 22
 9704 001e FB68     		ldr	r3, [r7, #12]
 9705 0020 BA1D     		adds	r2, r7, #6
 9706 0022 5A21     		movs	r1, #90
 9707 0024 1288     		ldrh	r2, [r2]
 9708 0026 5A52     		strh	r2, [r3, r1]
3406:Drivers/STM32L0xx_HAL_Driver/Src/stm32l0xx_hal_uart.c ****   huart->RxISR       = NULL;
 9709              		.loc 1 3406 22
 9710 0028 FB68     		ldr	r3, [r7, #12]
 9711 002a 0022     		movs	r2, #0
 9712 002c 5A66     		str	r2, [r3, #100]
3407:Drivers/STM32L0xx_HAL_Driver/Src/stm32l0xx_hal_uart.c **** 
3408:Drivers/STM32L0xx_HAL_Driver/Src/stm32l0xx_hal_uart.c ****   /* Computation of UART mask to apply to RDR register */
3409:Drivers/STM32L0xx_HAL_Driver/Src/stm32l0xx_hal_uart.c ****   UART_MASK_COMPUTATION(huart);
 9713              		.loc 1 3409 3
 9714 002e FB68     		ldr	r3, [r7, #12]
 9715 0030 9A68     		ldr	r2, [r3, #8]
ARM GAS  C:\Users\lidka\AppData\Local\Temp\ccqOATUZ.s 			page 241


 9716 0032 8023     		movs	r3, #128
 9717 0034 5B01     		lsls	r3, r3, #5
 9718 0036 9A42     		cmp	r2, r3
 9719 0038 0DD1     		bne	.L418
 9720              		.loc 1 3409 3 is_stmt 0 discriminator 1
 9721 003a FB68     		ldr	r3, [r7, #12]
 9722 003c 1B69     		ldr	r3, [r3, #16]
 9723 003e 002B     		cmp	r3, #0
 9724 0040 04D1     		bne	.L419
 9725              		.loc 1 3409 3 discriminator 3
 9726 0042 FB68     		ldr	r3, [r7, #12]
 9727 0044 5C22     		movs	r2, #92
 9728 0046 4349     		ldr	r1, .L430
 9729 0048 9952     		strh	r1, [r3, r2]
 9730 004a 2EE0     		b	.L420
 9731              	.L419:
 9732              		.loc 1 3409 3 discriminator 4
 9733 004c FB68     		ldr	r3, [r7, #12]
 9734 004e 5C22     		movs	r2, #92
 9735 0050 FF21     		movs	r1, #255
 9736 0052 9952     		strh	r1, [r3, r2]
 9737 0054 29E0     		b	.L420
 9738              	.L418:
 9739              		.loc 1 3409 3 discriminator 2
 9740 0056 FB68     		ldr	r3, [r7, #12]
 9741 0058 9B68     		ldr	r3, [r3, #8]
 9742 005a 002B     		cmp	r3, #0
 9743 005c 0DD1     		bne	.L421
 9744              		.loc 1 3409 3 discriminator 5
 9745 005e FB68     		ldr	r3, [r7, #12]
 9746 0060 1B69     		ldr	r3, [r3, #16]
 9747 0062 002B     		cmp	r3, #0
 9748 0064 04D1     		bne	.L422
 9749              		.loc 1 3409 3 discriminator 7
 9750 0066 FB68     		ldr	r3, [r7, #12]
 9751 0068 5C22     		movs	r2, #92
 9752 006a FF21     		movs	r1, #255
 9753 006c 9952     		strh	r1, [r3, r2]
 9754 006e 1CE0     		b	.L420
 9755              	.L422:
 9756              		.loc 1 3409 3 discriminator 8
 9757 0070 FB68     		ldr	r3, [r7, #12]
 9758 0072 5C22     		movs	r2, #92
 9759 0074 7F21     		movs	r1, #127
 9760 0076 9952     		strh	r1, [r3, r2]
 9761 0078 17E0     		b	.L420
 9762              	.L421:
 9763              		.loc 1 3409 3 discriminator 6
 9764 007a FB68     		ldr	r3, [r7, #12]
 9765 007c 9A68     		ldr	r2, [r3, #8]
 9766 007e 8023     		movs	r3, #128
 9767 0080 5B05     		lsls	r3, r3, #21
 9768 0082 9A42     		cmp	r2, r3
 9769 0084 0DD1     		bne	.L423
 9770              		.loc 1 3409 3 discriminator 9
 9771 0086 FB68     		ldr	r3, [r7, #12]
 9772 0088 1B69     		ldr	r3, [r3, #16]
ARM GAS  C:\Users\lidka\AppData\Local\Temp\ccqOATUZ.s 			page 242


 9773 008a 002B     		cmp	r3, #0
 9774 008c 04D1     		bne	.L424
 9775              		.loc 1 3409 3 discriminator 11
 9776 008e FB68     		ldr	r3, [r7, #12]
 9777 0090 5C22     		movs	r2, #92
 9778 0092 7F21     		movs	r1, #127
 9779 0094 9952     		strh	r1, [r3, r2]
 9780 0096 08E0     		b	.L420
 9781              	.L424:
 9782              		.loc 1 3409 3 discriminator 12
 9783 0098 FB68     		ldr	r3, [r7, #12]
 9784 009a 5C22     		movs	r2, #92
 9785 009c 3F21     		movs	r1, #63
 9786 009e 9952     		strh	r1, [r3, r2]
 9787 00a0 03E0     		b	.L420
 9788              	.L423:
 9789              		.loc 1 3409 3 discriminator 10
 9790 00a2 FB68     		ldr	r3, [r7, #12]
 9791 00a4 5C22     		movs	r2, #92
 9792 00a6 0021     		movs	r1, #0
 9793 00a8 9952     		strh	r1, [r3, r2]
 9794              	.L420:
3410:Drivers/STM32L0xx_HAL_Driver/Src/stm32l0xx_hal_uart.c **** 
3411:Drivers/STM32L0xx_HAL_Driver/Src/stm32l0xx_hal_uart.c ****   huart->ErrorCode = HAL_UART_ERROR_NONE;
 9795              		.loc 1 3411 20 is_stmt 1
 9796 00aa FB68     		ldr	r3, [r7, #12]
 9797 00ac 8022     		movs	r2, #128
 9798 00ae 0021     		movs	r1, #0
 9799 00b0 9950     		str	r1, [r3, r2]
3412:Drivers/STM32L0xx_HAL_Driver/Src/stm32l0xx_hal_uart.c ****   huart->RxState = HAL_UART_STATE_BUSY_RX;
 9800              		.loc 1 3412 18
 9801 00b2 FB68     		ldr	r3, [r7, #12]
 9802 00b4 2222     		movs	r2, #34
 9803 00b6 DA67     		str	r2, [r3, #124]
 9804              	.LBB946:
 9805              	.LBB947:
 9806              	.LBB948:
 386:Drivers/CMSIS/Include/cmsis_gcc.h ****   return(result);
 9807              		.loc 2 386 3
 9808              		.syntax divided
 9809              	@ 386 "Drivers/CMSIS/Include/cmsis_gcc.h" 1
 9810 00b8 EFF31083 		MRS r3, primask
 9811              	@ 0 "" 2
 9812              		.thumb
 9813              		.syntax unified
 9814 00bc FB61     		str	r3, [r7, #28]
 387:Drivers/CMSIS/Include/cmsis_gcc.h **** }
 9815              		.loc 2 387 9
 9816 00be FB69     		ldr	r3, [r7, #28]
 9817              	.LBE948:
 9818              	.LBE947:
3413:Drivers/STM32L0xx_HAL_Driver/Src/stm32l0xx_hal_uart.c **** 
3414:Drivers/STM32L0xx_HAL_Driver/Src/stm32l0xx_hal_uart.c ****   /* Enable the UART Error Interrupt: (Frame error, noise error, overrun error) */
3415:Drivers/STM32L0xx_HAL_Driver/Src/stm32l0xx_hal_uart.c ****   ATOMIC_SET_BIT(huart->Instance->CR3, USART_CR3_EIE);
 9819              		.loc 1 3415 3
 9820 00c0 FB62     		str	r3, [r7, #44]
 9821 00c2 0123     		movs	r3, #1
ARM GAS  C:\Users\lidka\AppData\Local\Temp\ccqOATUZ.s 			page 243


 9822 00c4 3B62     		str	r3, [r7, #32]
 9823              	.LBB949:
 9824              	.LBB950:
 414:Drivers/CMSIS/Include/cmsis_gcc.h **** }
 9825              		.loc 2 414 3
 9826 00c6 3B6A     		ldr	r3, [r7, #32]
 9827              		.syntax divided
 9828              	@ 414 "Drivers/CMSIS/Include/cmsis_gcc.h" 1
 9829 00c8 83F31088 		MSR primask, r3
 9830              	@ 0 "" 2
 9831              		.loc 2 415 1
 9832              		.thumb
 9833              		.syntax unified
 9834 00cc C046     		nop
 9835              	.LBE950:
 9836              	.LBE949:
 9837              		.loc 1 3415 3
 9838 00ce FB68     		ldr	r3, [r7, #12]
 9839 00d0 1B68     		ldr	r3, [r3]
 9840 00d2 9A68     		ldr	r2, [r3, #8]
 9841 00d4 FB68     		ldr	r3, [r7, #12]
 9842 00d6 1B68     		ldr	r3, [r3]
 9843 00d8 0121     		movs	r1, #1
 9844 00da 0A43     		orrs	r2, r1
 9845 00dc 9A60     		str	r2, [r3, #8]
 9846 00de FB6A     		ldr	r3, [r7, #44]
 9847 00e0 7B62     		str	r3, [r7, #36]
 9848              	.LBB951:
 9849              	.LBB952:
 414:Drivers/CMSIS/Include/cmsis_gcc.h **** }
 9850              		.loc 2 414 3
 9851 00e2 7B6A     		ldr	r3, [r7, #36]
 9852              		.syntax divided
 9853              	@ 414 "Drivers/CMSIS/Include/cmsis_gcc.h" 1
 9854 00e4 83F31088 		MSR primask, r3
 9855              	@ 0 "" 2
 9856              		.loc 2 415 1
 9857              		.thumb
 9858              		.syntax unified
 9859 00e8 C046     		nop
 9860              	.LBE952:
 9861              	.LBE951:
 9862              	.LBE946:
3416:Drivers/STM32L0xx_HAL_Driver/Src/stm32l0xx_hal_uart.c **** 
3417:Drivers/STM32L0xx_HAL_Driver/Src/stm32l0xx_hal_uart.c ****   /* Set the Rx ISR function pointer according to the data word length */
3418:Drivers/STM32L0xx_HAL_Driver/Src/stm32l0xx_hal_uart.c ****   if ((huart->Init.WordLength == UART_WORDLENGTH_9B) && (huart->Init.Parity == UART_PARITY_NONE))
 9863              		.loc 1 3418 19
 9864 00ea FB68     		ldr	r3, [r7, #12]
 9865 00ec 9A68     		ldr	r2, [r3, #8]
 9866              		.loc 1 3418 6
 9867 00ee 8023     		movs	r3, #128
 9868 00f0 5B01     		lsls	r3, r3, #5
 9869 00f2 9A42     		cmp	r2, r3
 9870 00f4 07D1     		bne	.L426
 9871              		.loc 1 3418 69 discriminator 1
 9872 00f6 FB68     		ldr	r3, [r7, #12]
 9873 00f8 1B69     		ldr	r3, [r3, #16]
ARM GAS  C:\Users\lidka\AppData\Local\Temp\ccqOATUZ.s 			page 244


 9874              		.loc 1 3418 54 discriminator 1
 9875 00fa 002B     		cmp	r3, #0
 9876 00fc 03D1     		bne	.L426
3419:Drivers/STM32L0xx_HAL_Driver/Src/stm32l0xx_hal_uart.c ****   {
3420:Drivers/STM32L0xx_HAL_Driver/Src/stm32l0xx_hal_uart.c ****     huart->RxISR = UART_RxISR_16BIT;
 9877              		.loc 1 3420 18
 9878 00fe FB68     		ldr	r3, [r7, #12]
 9879 0100 154A     		ldr	r2, .L430+4
 9880 0102 5A66     		str	r2, [r3, #100]
 9881 0104 02E0     		b	.L427
 9882              	.L426:
3421:Drivers/STM32L0xx_HAL_Driver/Src/stm32l0xx_hal_uart.c ****   }
3422:Drivers/STM32L0xx_HAL_Driver/Src/stm32l0xx_hal_uart.c ****   else
3423:Drivers/STM32L0xx_HAL_Driver/Src/stm32l0xx_hal_uart.c ****   {
3424:Drivers/STM32L0xx_HAL_Driver/Src/stm32l0xx_hal_uart.c ****     huart->RxISR = UART_RxISR_8BIT;
 9883              		.loc 1 3424 18
 9884 0106 FB68     		ldr	r3, [r7, #12]
 9885 0108 144A     		ldr	r2, .L430+8
 9886 010a 5A66     		str	r2, [r3, #100]
 9887              	.L427:
3425:Drivers/STM32L0xx_HAL_Driver/Src/stm32l0xx_hal_uart.c ****   }
3426:Drivers/STM32L0xx_HAL_Driver/Src/stm32l0xx_hal_uart.c **** 
3427:Drivers/STM32L0xx_HAL_Driver/Src/stm32l0xx_hal_uart.c ****   __HAL_UNLOCK(huart);
 9888              		.loc 1 3427 3
 9889 010c FB68     		ldr	r3, [r7, #12]
 9890 010e 7422     		movs	r2, #116
 9891 0110 0021     		movs	r1, #0
 9892 0112 9954     		strb	r1, [r3, r2]
 9893              	.LBB953:
 9894              	.LBB954:
 9895              	.LBB955:
 386:Drivers/CMSIS/Include/cmsis_gcc.h ****   return(result);
 9896              		.loc 2 386 3
 9897              		.syntax divided
 9898              	@ 386 "Drivers/CMSIS/Include/cmsis_gcc.h" 1
 9899 0114 EFF31083 		MRS r3, primask
 9900              	@ 0 "" 2
 9901              		.thumb
 9902              		.syntax unified
 9903 0118 3B61     		str	r3, [r7, #16]
 387:Drivers/CMSIS/Include/cmsis_gcc.h **** }
 9904              		.loc 2 387 9
 9905 011a 3B69     		ldr	r3, [r7, #16]
 9906              	.LBE955:
 9907              	.LBE954:
3428:Drivers/STM32L0xx_HAL_Driver/Src/stm32l0xx_hal_uart.c **** 
3429:Drivers/STM32L0xx_HAL_Driver/Src/stm32l0xx_hal_uart.c ****   /* Enable the UART Parity Error interrupt and Data Register Not Empty interrupt */
3430:Drivers/STM32L0xx_HAL_Driver/Src/stm32l0xx_hal_uart.c ****   ATOMIC_SET_BIT(huart->Instance->CR1, USART_CR1_PEIE | USART_CR1_RXNEIE);
 9908              		.loc 1 3430 3
 9909 011c BB62     		str	r3, [r7, #40]
 9910 011e 0123     		movs	r3, #1
 9911 0120 7B61     		str	r3, [r7, #20]
 9912              	.LBB956:
 9913              	.LBB957:
 414:Drivers/CMSIS/Include/cmsis_gcc.h **** }
 9914              		.loc 2 414 3
 9915 0122 7B69     		ldr	r3, [r7, #20]
ARM GAS  C:\Users\lidka\AppData\Local\Temp\ccqOATUZ.s 			page 245


 9916              		.syntax divided
 9917              	@ 414 "Drivers/CMSIS/Include/cmsis_gcc.h" 1
 9918 0124 83F31088 		MSR primask, r3
 9919              	@ 0 "" 2
 9920              		.loc 2 415 1
 9921              		.thumb
 9922              		.syntax unified
 9923 0128 C046     		nop
 9924              	.LBE957:
 9925              	.LBE956:
 9926              		.loc 1 3430 3
 9927 012a FB68     		ldr	r3, [r7, #12]
 9928 012c 1B68     		ldr	r3, [r3]
 9929 012e 1A68     		ldr	r2, [r3]
 9930 0130 FB68     		ldr	r3, [r7, #12]
 9931 0132 1B68     		ldr	r3, [r3]
 9932 0134 9021     		movs	r1, #144
 9933 0136 4900     		lsls	r1, r1, #1
 9934 0138 0A43     		orrs	r2, r1
 9935 013a 1A60     		str	r2, [r3]
 9936 013c BB6A     		ldr	r3, [r7, #40]
 9937 013e BB61     		str	r3, [r7, #24]
 9938              	.LBB958:
 9939              	.LBB959:
 414:Drivers/CMSIS/Include/cmsis_gcc.h **** }
 9940              		.loc 2 414 3
 9941 0140 BB69     		ldr	r3, [r7, #24]
 9942              		.syntax divided
 9943              	@ 414 "Drivers/CMSIS/Include/cmsis_gcc.h" 1
 9944 0142 83F31088 		MSR primask, r3
 9945              	@ 0 "" 2
 9946              		.loc 2 415 1
 9947              		.thumb
 9948              		.syntax unified
 9949 0146 C046     		nop
 9950              	.LBE959:
 9951              	.LBE958:
 9952              	.LBE953:
3431:Drivers/STM32L0xx_HAL_Driver/Src/stm32l0xx_hal_uart.c ****   return HAL_OK;
 9953              		.loc 1 3431 10
 9954 0148 0023     		movs	r3, #0
3432:Drivers/STM32L0xx_HAL_Driver/Src/stm32l0xx_hal_uart.c **** }
 9955              		.loc 1 3432 1
 9956 014a 1800     		movs	r0, r3
 9957 014c BD46     		mov	sp, r7
 9958 014e 0CB0     		add	sp, sp, #48
 9959              		@ sp needed
 9960 0150 80BD     		pop	{r7, pc}
 9961              	.L431:
 9962 0152 C046     		.align	2
 9963              	.L430:
 9964 0154 FF010000 		.word	511
 9965 0158 00000000 		.word	UART_RxISR_16BIT
 9966 015c 00000000 		.word	UART_RxISR_8BIT
 9967              		.cfi_endproc
 9968              	.LFE94:
 9970              		.section	.text.UART_Start_Receive_DMA,"ax",%progbits
ARM GAS  C:\Users\lidka\AppData\Local\Temp\ccqOATUZ.s 			page 246


 9971              		.align	1
 9972              		.global	UART_Start_Receive_DMA
 9973              		.syntax unified
 9974              		.code	16
 9975              		.thumb_func
 9977              	UART_Start_Receive_DMA:
 9978              	.LFB95:
3433:Drivers/STM32L0xx_HAL_Driver/Src/stm32l0xx_hal_uart.c **** 
3434:Drivers/STM32L0xx_HAL_Driver/Src/stm32l0xx_hal_uart.c **** /**
3435:Drivers/STM32L0xx_HAL_Driver/Src/stm32l0xx_hal_uart.c ****   * @brief  Start Receive operation in DMA mode.
3436:Drivers/STM32L0xx_HAL_Driver/Src/stm32l0xx_hal_uart.c ****   * @note   This function could be called by all HAL UART API providing reception in DMA mode.
3437:Drivers/STM32L0xx_HAL_Driver/Src/stm32l0xx_hal_uart.c ****   * @note   When calling this function, parameters validity is considered as already checked,
3438:Drivers/STM32L0xx_HAL_Driver/Src/stm32l0xx_hal_uart.c ****   *         i.e. Rx State, buffer address, ...
3439:Drivers/STM32L0xx_HAL_Driver/Src/stm32l0xx_hal_uart.c ****   *         UART Handle is assumed as Locked.
3440:Drivers/STM32L0xx_HAL_Driver/Src/stm32l0xx_hal_uart.c ****   * @param  huart UART handle.
3441:Drivers/STM32L0xx_HAL_Driver/Src/stm32l0xx_hal_uart.c ****   * @param  pData Pointer to data buffer (u8 or u16 data elements).
3442:Drivers/STM32L0xx_HAL_Driver/Src/stm32l0xx_hal_uart.c ****   * @param  Size  Amount of data elements (u8 or u16) to be received.
3443:Drivers/STM32L0xx_HAL_Driver/Src/stm32l0xx_hal_uart.c ****   * @retval HAL status
3444:Drivers/STM32L0xx_HAL_Driver/Src/stm32l0xx_hal_uart.c ****   */
3445:Drivers/STM32L0xx_HAL_Driver/Src/stm32l0xx_hal_uart.c **** HAL_StatusTypeDef UART_Start_Receive_DMA(UART_HandleTypeDef *huart, uint8_t *pData, uint16_t Size)
3446:Drivers/STM32L0xx_HAL_Driver/Src/stm32l0xx_hal_uart.c **** {
 9979              		.loc 1 3446 1
 9980              		.cfi_startproc
 9981              		@ args = 0, pretend = 0, frame = 64
 9982              		@ frame_needed = 1, uses_anonymous_args = 0
 9983 0000 80B5     		push	{r7, lr}
 9984              	.LCFI144:
 9985              		.cfi_def_cfa_offset 8
 9986              		.cfi_offset 7, -8
 9987              		.cfi_offset 14, -4
 9988 0002 90B0     		sub	sp, sp, #64
 9989              	.LCFI145:
 9990              		.cfi_def_cfa_offset 72
 9991 0004 00AF     		add	r7, sp, #0
 9992              	.LCFI146:
 9993              		.cfi_def_cfa_register 7
 9994 0006 F860     		str	r0, [r7, #12]
 9995 0008 B960     		str	r1, [r7, #8]
 9996 000a BB1D     		adds	r3, r7, #6
 9997 000c 1A80     		strh	r2, [r3]
3447:Drivers/STM32L0xx_HAL_Driver/Src/stm32l0xx_hal_uart.c ****   huart->pRxBuffPtr = pData;
 9998              		.loc 1 3447 21
 9999 000e FB68     		ldr	r3, [r7, #12]
 10000 0010 BA68     		ldr	r2, [r7, #8]
 10001 0012 5A65     		str	r2, [r3, #84]
3448:Drivers/STM32L0xx_HAL_Driver/Src/stm32l0xx_hal_uart.c ****   huart->RxXferSize = Size;
 10002              		.loc 1 3448 21
 10003 0014 FB68     		ldr	r3, [r7, #12]
 10004 0016 BA1D     		adds	r2, r7, #6
 10005 0018 5821     		movs	r1, #88
 10006 001a 1288     		ldrh	r2, [r2]
 10007 001c 5A52     		strh	r2, [r3, r1]
3449:Drivers/STM32L0xx_HAL_Driver/Src/stm32l0xx_hal_uart.c **** 
3450:Drivers/STM32L0xx_HAL_Driver/Src/stm32l0xx_hal_uart.c ****   huart->ErrorCode = HAL_UART_ERROR_NONE;
 10008              		.loc 1 3450 20
 10009 001e FB68     		ldr	r3, [r7, #12]
 10010 0020 8022     		movs	r2, #128
ARM GAS  C:\Users\lidka\AppData\Local\Temp\ccqOATUZ.s 			page 247


 10011 0022 0021     		movs	r1, #0
 10012 0024 9950     		str	r1, [r3, r2]
3451:Drivers/STM32L0xx_HAL_Driver/Src/stm32l0xx_hal_uart.c ****   huart->RxState = HAL_UART_STATE_BUSY_RX;
 10013              		.loc 1 3451 18
 10014 0026 FB68     		ldr	r3, [r7, #12]
 10015 0028 2222     		movs	r2, #34
 10016 002a DA67     		str	r2, [r3, #124]
3452:Drivers/STM32L0xx_HAL_Driver/Src/stm32l0xx_hal_uart.c **** 
3453:Drivers/STM32L0xx_HAL_Driver/Src/stm32l0xx_hal_uart.c ****   if (huart->hdmarx != NULL)
 10017              		.loc 1 3453 12
 10018 002c FB68     		ldr	r3, [r7, #12]
 10019 002e 1B6F     		ldr	r3, [r3, #112]
 10020              		.loc 1 3453 6
 10021 0030 002B     		cmp	r3, #0
 10022 0032 2BD0     		beq	.L433
3454:Drivers/STM32L0xx_HAL_Driver/Src/stm32l0xx_hal_uart.c ****   {
3455:Drivers/STM32L0xx_HAL_Driver/Src/stm32l0xx_hal_uart.c ****     /* Set the UART DMA transfer complete callback */
3456:Drivers/STM32L0xx_HAL_Driver/Src/stm32l0xx_hal_uart.c ****     huart->hdmarx->XferCpltCallback = UART_DMAReceiveCplt;
 10023              		.loc 1 3456 10
 10024 0034 FB68     		ldr	r3, [r7, #12]
 10025 0036 1B6F     		ldr	r3, [r3, #112]
 10026              		.loc 1 3456 37
 10027 0038 3F4A     		ldr	r2, .L438
 10028 003a DA62     		str	r2, [r3, #44]
3457:Drivers/STM32L0xx_HAL_Driver/Src/stm32l0xx_hal_uart.c **** 
3458:Drivers/STM32L0xx_HAL_Driver/Src/stm32l0xx_hal_uart.c ****     /* Set the UART DMA Half transfer complete callback */
3459:Drivers/STM32L0xx_HAL_Driver/Src/stm32l0xx_hal_uart.c ****     huart->hdmarx->XferHalfCpltCallback = UART_DMARxHalfCplt;
 10029              		.loc 1 3459 10
 10030 003c FB68     		ldr	r3, [r7, #12]
 10031 003e 1B6F     		ldr	r3, [r3, #112]
 10032              		.loc 1 3459 41
 10033 0040 3E4A     		ldr	r2, .L438+4
 10034 0042 1A63     		str	r2, [r3, #48]
3460:Drivers/STM32L0xx_HAL_Driver/Src/stm32l0xx_hal_uart.c **** 
3461:Drivers/STM32L0xx_HAL_Driver/Src/stm32l0xx_hal_uart.c ****     /* Set the DMA error callback */
3462:Drivers/STM32L0xx_HAL_Driver/Src/stm32l0xx_hal_uart.c ****     huart->hdmarx->XferErrorCallback = UART_DMAError;
 10035              		.loc 1 3462 10
 10036 0044 FB68     		ldr	r3, [r7, #12]
 10037 0046 1B6F     		ldr	r3, [r3, #112]
 10038              		.loc 1 3462 38
 10039 0048 3D4A     		ldr	r2, .L438+8
 10040 004a 5A63     		str	r2, [r3, #52]
3463:Drivers/STM32L0xx_HAL_Driver/Src/stm32l0xx_hal_uart.c **** 
3464:Drivers/STM32L0xx_HAL_Driver/Src/stm32l0xx_hal_uart.c ****     /* Set the DMA abort callback */
3465:Drivers/STM32L0xx_HAL_Driver/Src/stm32l0xx_hal_uart.c ****     huart->hdmarx->XferAbortCallback = NULL;
 10041              		.loc 1 3465 10
 10042 004c FB68     		ldr	r3, [r7, #12]
 10043 004e 1B6F     		ldr	r3, [r3, #112]
 10044              		.loc 1 3465 38
 10045 0050 0022     		movs	r2, #0
 10046 0052 9A63     		str	r2, [r3, #56]
3466:Drivers/STM32L0xx_HAL_Driver/Src/stm32l0xx_hal_uart.c **** 
3467:Drivers/STM32L0xx_HAL_Driver/Src/stm32l0xx_hal_uart.c ****     /* Enable the DMA channel */
3468:Drivers/STM32L0xx_HAL_Driver/Src/stm32l0xx_hal_uart.c ****     if (HAL_DMA_Start_IT(huart->hdmarx, (uint32_t)&huart->Instance->RDR, (uint32_t)huart->pRxBuffPt
 10047              		.loc 1 3468 9
 10048 0054 FB68     		ldr	r3, [r7, #12]
 10049 0056 186F     		ldr	r0, [r3, #112]
ARM GAS  C:\Users\lidka\AppData\Local\Temp\ccqOATUZ.s 			page 248


 10050              		.loc 1 3468 57
 10051 0058 FB68     		ldr	r3, [r7, #12]
 10052 005a 1B68     		ldr	r3, [r3]
 10053              		.loc 1 3468 51
 10054 005c 2433     		adds	r3, r3, #36
 10055              		.loc 1 3468 9
 10056 005e 1900     		movs	r1, r3
 10057              		.loc 1 3468 89
 10058 0060 FB68     		ldr	r3, [r7, #12]
 10059 0062 5B6D     		ldr	r3, [r3, #84]
 10060              		.loc 1 3468 9
 10061 0064 1A00     		movs	r2, r3
 10062 0066 BB1D     		adds	r3, r7, #6
 10063 0068 1B88     		ldrh	r3, [r3]
 10064 006a FFF7FEFF 		bl	HAL_DMA_Start_IT
 10065 006e 031E     		subs	r3, r0, #0
 10066              		.loc 1 3468 8
 10067 0070 0CD0     		beq	.L433
3469:Drivers/STM32L0xx_HAL_Driver/Src/stm32l0xx_hal_uart.c ****     {
3470:Drivers/STM32L0xx_HAL_Driver/Src/stm32l0xx_hal_uart.c ****       /* Set error code to DMA */
3471:Drivers/STM32L0xx_HAL_Driver/Src/stm32l0xx_hal_uart.c ****       huart->ErrorCode = HAL_UART_ERROR_DMA;
 10068              		.loc 1 3471 24
 10069 0072 FB68     		ldr	r3, [r7, #12]
 10070 0074 8022     		movs	r2, #128
 10071 0076 1021     		movs	r1, #16
 10072 0078 9950     		str	r1, [r3, r2]
3472:Drivers/STM32L0xx_HAL_Driver/Src/stm32l0xx_hal_uart.c **** 
3473:Drivers/STM32L0xx_HAL_Driver/Src/stm32l0xx_hal_uart.c ****       __HAL_UNLOCK(huart);
 10073              		.loc 1 3473 7
 10074 007a FB68     		ldr	r3, [r7, #12]
 10075 007c 7422     		movs	r2, #116
 10076 007e 0021     		movs	r1, #0
 10077 0080 9954     		strb	r1, [r3, r2]
3474:Drivers/STM32L0xx_HAL_Driver/Src/stm32l0xx_hal_uart.c **** 
3475:Drivers/STM32L0xx_HAL_Driver/Src/stm32l0xx_hal_uart.c ****       /* Restore huart->RxState to ready */
3476:Drivers/STM32L0xx_HAL_Driver/Src/stm32l0xx_hal_uart.c ****       huart->RxState = HAL_UART_STATE_READY;
 10078              		.loc 1 3476 22
 10079 0082 FB68     		ldr	r3, [r7, #12]
 10080 0084 2022     		movs	r2, #32
 10081 0086 DA67     		str	r2, [r3, #124]
3477:Drivers/STM32L0xx_HAL_Driver/Src/stm32l0xx_hal_uart.c **** 
3478:Drivers/STM32L0xx_HAL_Driver/Src/stm32l0xx_hal_uart.c ****       return HAL_ERROR;
 10082              		.loc 1 3478 14
 10083 0088 0123     		movs	r3, #1
 10084 008a 50E0     		b	.L434
 10085              	.L433:
3479:Drivers/STM32L0xx_HAL_Driver/Src/stm32l0xx_hal_uart.c ****     }
3480:Drivers/STM32L0xx_HAL_Driver/Src/stm32l0xx_hal_uart.c ****   }
3481:Drivers/STM32L0xx_HAL_Driver/Src/stm32l0xx_hal_uart.c ****   __HAL_UNLOCK(huart);
 10086              		.loc 1 3481 3
 10087 008c FB68     		ldr	r3, [r7, #12]
 10088 008e 7422     		movs	r2, #116
 10089 0090 0021     		movs	r1, #0
 10090 0092 9954     		strb	r1, [r3, r2]
 10091              	.LBB960:
 10092              	.LBB961:
 10093              	.LBB962:
ARM GAS  C:\Users\lidka\AppData\Local\Temp\ccqOATUZ.s 			page 249


 386:Drivers/CMSIS/Include/cmsis_gcc.h ****   return(result);
 10094              		.loc 2 386 3
 10095              		.syntax divided
 10096              	@ 386 "Drivers/CMSIS/Include/cmsis_gcc.h" 1
 10097 0094 EFF31083 		MRS r3, primask
 10098              	@ 0 "" 2
 10099              		.thumb
 10100              		.syntax unified
 10101 0098 3B61     		str	r3, [r7, #16]
 387:Drivers/CMSIS/Include/cmsis_gcc.h **** }
 10102              		.loc 2 387 9
 10103 009a 3B69     		ldr	r3, [r7, #16]
 10104              	.LBE962:
 10105              	.LBE961:
3482:Drivers/STM32L0xx_HAL_Driver/Src/stm32l0xx_hal_uart.c **** 
3483:Drivers/STM32L0xx_HAL_Driver/Src/stm32l0xx_hal_uart.c ****   /* Enable the UART Parity Error Interrupt */
3484:Drivers/STM32L0xx_HAL_Driver/Src/stm32l0xx_hal_uart.c ****   ATOMIC_SET_BIT(huart->Instance->CR1, USART_CR1_PEIE);
 10106              		.loc 1 3484 3
 10107 009c FB63     		str	r3, [r7, #60]
 10108 009e 0123     		movs	r3, #1
 10109 00a0 7B61     		str	r3, [r7, #20]
 10110              	.LBB963:
 10111              	.LBB964:
 414:Drivers/CMSIS/Include/cmsis_gcc.h **** }
 10112              		.loc 2 414 3
 10113 00a2 7B69     		ldr	r3, [r7, #20]
 10114              		.syntax divided
 10115              	@ 414 "Drivers/CMSIS/Include/cmsis_gcc.h" 1
 10116 00a4 83F31088 		MSR primask, r3
 10117              	@ 0 "" 2
 10118              		.loc 2 415 1
 10119              		.thumb
 10120              		.syntax unified
 10121 00a8 C046     		nop
 10122              	.LBE964:
 10123              	.LBE963:
 10124              		.loc 1 3484 3
 10125 00aa FB68     		ldr	r3, [r7, #12]
 10126 00ac 1B68     		ldr	r3, [r3]
 10127 00ae 1A68     		ldr	r2, [r3]
 10128 00b0 FB68     		ldr	r3, [r7, #12]
 10129 00b2 1B68     		ldr	r3, [r3]
 10130 00b4 8021     		movs	r1, #128
 10131 00b6 4900     		lsls	r1, r1, #1
 10132 00b8 0A43     		orrs	r2, r1
 10133 00ba 1A60     		str	r2, [r3]
 10134 00bc FB6B     		ldr	r3, [r7, #60]
 10135 00be BB61     		str	r3, [r7, #24]
 10136              	.LBB965:
 10137              	.LBB966:
 414:Drivers/CMSIS/Include/cmsis_gcc.h **** }
 10138              		.loc 2 414 3
 10139 00c0 BB69     		ldr	r3, [r7, #24]
 10140              		.syntax divided
 10141              	@ 414 "Drivers/CMSIS/Include/cmsis_gcc.h" 1
 10142 00c2 83F31088 		MSR primask, r3
 10143              	@ 0 "" 2
ARM GAS  C:\Users\lidka\AppData\Local\Temp\ccqOATUZ.s 			page 250


 10144              		.loc 2 415 1
 10145              		.thumb
 10146              		.syntax unified
 10147 00c6 C046     		nop
 10148              	.LBE966:
 10149              	.LBE965:
 10150              	.LBE960:
 10151              	.LBB967:
 10152              	.LBB968:
 10153              	.LBB969:
 386:Drivers/CMSIS/Include/cmsis_gcc.h ****   return(result);
 10154              		.loc 2 386 3
 10155              		.syntax divided
 10156              	@ 386 "Drivers/CMSIS/Include/cmsis_gcc.h" 1
 10157 00c8 EFF31083 		MRS r3, primask
 10158              	@ 0 "" 2
 10159              		.thumb
 10160              		.syntax unified
 10161 00cc FB61     		str	r3, [r7, #28]
 387:Drivers/CMSIS/Include/cmsis_gcc.h **** }
 10162              		.loc 2 387 9
 10163 00ce FB69     		ldr	r3, [r7, #28]
 10164              	.LBE969:
 10165              	.LBE968:
3485:Drivers/STM32L0xx_HAL_Driver/Src/stm32l0xx_hal_uart.c **** 
3486:Drivers/STM32L0xx_HAL_Driver/Src/stm32l0xx_hal_uart.c ****   /* Enable the UART Error Interrupt: (Frame error, noise error, overrun error) */
3487:Drivers/STM32L0xx_HAL_Driver/Src/stm32l0xx_hal_uart.c ****   ATOMIC_SET_BIT(huart->Instance->CR3, USART_CR3_EIE);
 10166              		.loc 1 3487 3
 10167 00d0 BB63     		str	r3, [r7, #56]
 10168 00d2 0123     		movs	r3, #1
 10169 00d4 3B62     		str	r3, [r7, #32]
 10170              	.LBB970:
 10171              	.LBB971:
 414:Drivers/CMSIS/Include/cmsis_gcc.h **** }
 10172              		.loc 2 414 3
 10173 00d6 3B6A     		ldr	r3, [r7, #32]
 10174              		.syntax divided
 10175              	@ 414 "Drivers/CMSIS/Include/cmsis_gcc.h" 1
 10176 00d8 83F31088 		MSR primask, r3
 10177              	@ 0 "" 2
 10178              		.loc 2 415 1
 10179              		.thumb
 10180              		.syntax unified
 10181 00dc C046     		nop
 10182              	.LBE971:
 10183              	.LBE970:
 10184              		.loc 1 3487 3
 10185 00de FB68     		ldr	r3, [r7, #12]
 10186 00e0 1B68     		ldr	r3, [r3]
 10187 00e2 9A68     		ldr	r2, [r3, #8]
 10188 00e4 FB68     		ldr	r3, [r7, #12]
 10189 00e6 1B68     		ldr	r3, [r3]
 10190 00e8 0121     		movs	r1, #1
 10191 00ea 0A43     		orrs	r2, r1
 10192 00ec 9A60     		str	r2, [r3, #8]
 10193 00ee BB6B     		ldr	r3, [r7, #56]
 10194 00f0 7B62     		str	r3, [r7, #36]
ARM GAS  C:\Users\lidka\AppData\Local\Temp\ccqOATUZ.s 			page 251


 10195              	.LBB972:
 10196              	.LBB973:
 414:Drivers/CMSIS/Include/cmsis_gcc.h **** }
 10197              		.loc 2 414 3
 10198 00f2 7B6A     		ldr	r3, [r7, #36]
 10199              		.syntax divided
 10200              	@ 414 "Drivers/CMSIS/Include/cmsis_gcc.h" 1
 10201 00f4 83F31088 		MSR primask, r3
 10202              	@ 0 "" 2
 10203              		.loc 2 415 1
 10204              		.thumb
 10205              		.syntax unified
 10206 00f8 C046     		nop
 10207              	.LBE973:
 10208              	.LBE972:
 10209              	.LBE967:
 10210              	.LBB974:
 10211              	.LBB975:
 10212              	.LBB976:
 386:Drivers/CMSIS/Include/cmsis_gcc.h ****   return(result);
 10213              		.loc 2 386 3
 10214              		.syntax divided
 10215              	@ 386 "Drivers/CMSIS/Include/cmsis_gcc.h" 1
 10216 00fa EFF31083 		MRS r3, primask
 10217              	@ 0 "" 2
 10218              		.thumb
 10219              		.syntax unified
 10220 00fe BB62     		str	r3, [r7, #40]
 387:Drivers/CMSIS/Include/cmsis_gcc.h **** }
 10221              		.loc 2 387 9
 10222 0100 BB6A     		ldr	r3, [r7, #40]
 10223              	.LBE976:
 10224              	.LBE975:
3488:Drivers/STM32L0xx_HAL_Driver/Src/stm32l0xx_hal_uart.c **** 
3489:Drivers/STM32L0xx_HAL_Driver/Src/stm32l0xx_hal_uart.c ****   /* Enable the DMA transfer for the receiver request by setting the DMAR bit
3490:Drivers/STM32L0xx_HAL_Driver/Src/stm32l0xx_hal_uart.c ****   in the UART CR3 register */
3491:Drivers/STM32L0xx_HAL_Driver/Src/stm32l0xx_hal_uart.c ****   ATOMIC_SET_BIT(huart->Instance->CR3, USART_CR3_DMAR);
 10225              		.loc 1 3491 3
 10226 0102 7B63     		str	r3, [r7, #52]
 10227 0104 0123     		movs	r3, #1
 10228 0106 FB62     		str	r3, [r7, #44]
 10229              	.LBB977:
 10230              	.LBB978:
 414:Drivers/CMSIS/Include/cmsis_gcc.h **** }
 10231              		.loc 2 414 3
 10232 0108 FB6A     		ldr	r3, [r7, #44]
 10233              		.syntax divided
 10234              	@ 414 "Drivers/CMSIS/Include/cmsis_gcc.h" 1
 10235 010a 83F31088 		MSR primask, r3
 10236              	@ 0 "" 2
 10237              		.loc 2 415 1
 10238              		.thumb
 10239              		.syntax unified
 10240 010e C046     		nop
 10241              	.LBE978:
 10242              	.LBE977:
 10243              		.loc 1 3491 3
ARM GAS  C:\Users\lidka\AppData\Local\Temp\ccqOATUZ.s 			page 252


 10244 0110 FB68     		ldr	r3, [r7, #12]
 10245 0112 1B68     		ldr	r3, [r3]
 10246 0114 9A68     		ldr	r2, [r3, #8]
 10247 0116 FB68     		ldr	r3, [r7, #12]
 10248 0118 1B68     		ldr	r3, [r3]
 10249 011a 4021     		movs	r1, #64
 10250 011c 0A43     		orrs	r2, r1
 10251 011e 9A60     		str	r2, [r3, #8]
 10252 0120 7B6B     		ldr	r3, [r7, #52]
 10253 0122 3B63     		str	r3, [r7, #48]
 10254              	.LBB979:
 10255              	.LBB980:
 414:Drivers/CMSIS/Include/cmsis_gcc.h **** }
 10256              		.loc 2 414 3
 10257 0124 3B6B     		ldr	r3, [r7, #48]
 10258              		.syntax divided
 10259              	@ 414 "Drivers/CMSIS/Include/cmsis_gcc.h" 1
 10260 0126 83F31088 		MSR primask, r3
 10261              	@ 0 "" 2
 10262              		.loc 2 415 1
 10263              		.thumb
 10264              		.syntax unified
 10265 012a C046     		nop
 10266              	.LBE980:
 10267              	.LBE979:
 10268              	.LBE974:
3492:Drivers/STM32L0xx_HAL_Driver/Src/stm32l0xx_hal_uart.c **** 
3493:Drivers/STM32L0xx_HAL_Driver/Src/stm32l0xx_hal_uart.c ****   return HAL_OK;
 10269              		.loc 1 3493 10
 10270 012c 0023     		movs	r3, #0
 10271              	.L434:
3494:Drivers/STM32L0xx_HAL_Driver/Src/stm32l0xx_hal_uart.c **** }
 10272              		.loc 1 3494 1
 10273 012e 1800     		movs	r0, r3
 10274 0130 BD46     		mov	sp, r7
 10275 0132 10B0     		add	sp, sp, #64
 10276              		@ sp needed
 10277 0134 80BD     		pop	{r7, pc}
 10278              	.L439:
 10279 0136 C046     		.align	2
 10280              	.L438:
 10281 0138 00000000 		.word	UART_DMAReceiveCplt
 10282 013c 00000000 		.word	UART_DMARxHalfCplt
 10283 0140 00000000 		.word	UART_DMAError
 10284              		.cfi_endproc
 10285              	.LFE95:
 10287              		.section	.text.UART_EndTxTransfer,"ax",%progbits
 10288              		.align	1
 10289              		.syntax unified
 10290              		.code	16
 10291              		.thumb_func
 10293              	UART_EndTxTransfer:
 10294              	.LFB96:
3495:Drivers/STM32L0xx_HAL_Driver/Src/stm32l0xx_hal_uart.c **** 
3496:Drivers/STM32L0xx_HAL_Driver/Src/stm32l0xx_hal_uart.c **** 
3497:Drivers/STM32L0xx_HAL_Driver/Src/stm32l0xx_hal_uart.c **** /**
3498:Drivers/STM32L0xx_HAL_Driver/Src/stm32l0xx_hal_uart.c ****   * @brief  End ongoing Tx transfer on UART peripheral (following error detection or Transmit compl
ARM GAS  C:\Users\lidka\AppData\Local\Temp\ccqOATUZ.s 			page 253


3499:Drivers/STM32L0xx_HAL_Driver/Src/stm32l0xx_hal_uart.c ****   * @param  huart UART handle.
3500:Drivers/STM32L0xx_HAL_Driver/Src/stm32l0xx_hal_uart.c ****   * @retval None
3501:Drivers/STM32L0xx_HAL_Driver/Src/stm32l0xx_hal_uart.c ****   */
3502:Drivers/STM32L0xx_HAL_Driver/Src/stm32l0xx_hal_uart.c **** static void UART_EndTxTransfer(UART_HandleTypeDef *huart)
3503:Drivers/STM32L0xx_HAL_Driver/Src/stm32l0xx_hal_uart.c **** {
 10295              		.loc 1 3503 1
 10296              		.cfi_startproc
 10297              		@ args = 0, pretend = 0, frame = 24
 10298              		@ frame_needed = 1, uses_anonymous_args = 0
 10299 0000 80B5     		push	{r7, lr}
 10300              	.LCFI147:
 10301              		.cfi_def_cfa_offset 8
 10302              		.cfi_offset 7, -8
 10303              		.cfi_offset 14, -4
 10304 0002 86B0     		sub	sp, sp, #24
 10305              	.LCFI148:
 10306              		.cfi_def_cfa_offset 32
 10307 0004 00AF     		add	r7, sp, #0
 10308              	.LCFI149:
 10309              		.cfi_def_cfa_register 7
 10310 0006 7860     		str	r0, [r7, #4]
 10311              	.LBB981:
 10312              	.LBB982:
 10313              	.LBB983:
 386:Drivers/CMSIS/Include/cmsis_gcc.h ****   return(result);
 10314              		.loc 2 386 3
 10315              		.syntax divided
 10316              	@ 386 "Drivers/CMSIS/Include/cmsis_gcc.h" 1
 10317 0008 EFF31083 		MRS r3, primask
 10318              	@ 0 "" 2
 10319              		.thumb
 10320              		.syntax unified
 10321 000c BB60     		str	r3, [r7, #8]
 387:Drivers/CMSIS/Include/cmsis_gcc.h **** }
 10322              		.loc 2 387 9
 10323 000e BB68     		ldr	r3, [r7, #8]
 10324              	.LBE983:
 10325              	.LBE982:
3504:Drivers/STM32L0xx_HAL_Driver/Src/stm32l0xx_hal_uart.c ****   /* Disable TXEIE and TCIE interrupts */
3505:Drivers/STM32L0xx_HAL_Driver/Src/stm32l0xx_hal_uart.c ****   ATOMIC_CLEAR_BIT(huart->Instance->CR1, (USART_CR1_TXEIE | USART_CR1_TCIE));
 10326              		.loc 1 3505 3
 10327 0010 7B61     		str	r3, [r7, #20]
 10328 0012 0123     		movs	r3, #1
 10329 0014 FB60     		str	r3, [r7, #12]
 10330              	.LBB984:
 10331              	.LBB985:
 414:Drivers/CMSIS/Include/cmsis_gcc.h **** }
 10332              		.loc 2 414 3
 10333 0016 FB68     		ldr	r3, [r7, #12]
 10334              		.syntax divided
 10335              	@ 414 "Drivers/CMSIS/Include/cmsis_gcc.h" 1
 10336 0018 83F31088 		MSR primask, r3
 10337              	@ 0 "" 2
 10338              		.loc 2 415 1
 10339              		.thumb
 10340              		.syntax unified
 10341 001c C046     		nop
ARM GAS  C:\Users\lidka\AppData\Local\Temp\ccqOATUZ.s 			page 254


 10342              	.LBE985:
 10343              	.LBE984:
 10344              		.loc 1 3505 3
 10345 001e 7B68     		ldr	r3, [r7, #4]
 10346 0020 1B68     		ldr	r3, [r3]
 10347 0022 1A68     		ldr	r2, [r3]
 10348 0024 7B68     		ldr	r3, [r7, #4]
 10349 0026 1B68     		ldr	r3, [r3]
 10350 0028 C021     		movs	r1, #192
 10351 002a 8A43     		bics	r2, r1
 10352 002c 1A60     		str	r2, [r3]
 10353 002e 7B69     		ldr	r3, [r7, #20]
 10354 0030 3B61     		str	r3, [r7, #16]
 10355              	.LBB986:
 10356              	.LBB987:
 414:Drivers/CMSIS/Include/cmsis_gcc.h **** }
 10357              		.loc 2 414 3
 10358 0032 3B69     		ldr	r3, [r7, #16]
 10359              		.syntax divided
 10360              	@ 414 "Drivers/CMSIS/Include/cmsis_gcc.h" 1
 10361 0034 83F31088 		MSR primask, r3
 10362              	@ 0 "" 2
 10363              		.loc 2 415 1
 10364              		.thumb
 10365              		.syntax unified
 10366 0038 C046     		nop
 10367              	.LBE987:
 10368              	.LBE986:
 10369              	.LBE981:
3506:Drivers/STM32L0xx_HAL_Driver/Src/stm32l0xx_hal_uart.c **** 
3507:Drivers/STM32L0xx_HAL_Driver/Src/stm32l0xx_hal_uart.c ****   /* At end of Tx process, restore huart->gState to Ready */
3508:Drivers/STM32L0xx_HAL_Driver/Src/stm32l0xx_hal_uart.c ****   huart->gState = HAL_UART_STATE_READY;
 10370              		.loc 1 3508 17
 10371 003a 7B68     		ldr	r3, [r7, #4]
 10372 003c 2022     		movs	r2, #32
 10373 003e 9A67     		str	r2, [r3, #120]
3509:Drivers/STM32L0xx_HAL_Driver/Src/stm32l0xx_hal_uart.c **** }
 10374              		.loc 1 3509 1
 10375 0040 C046     		nop
 10376 0042 BD46     		mov	sp, r7
 10377 0044 06B0     		add	sp, sp, #24
 10378              		@ sp needed
 10379 0046 80BD     		pop	{r7, pc}
 10380              		.cfi_endproc
 10381              	.LFE96:
 10383              		.section	.text.UART_EndRxTransfer,"ax",%progbits
 10384              		.align	1
 10385              		.syntax unified
 10386              		.code	16
 10387              		.thumb_func
 10389              	UART_EndRxTransfer:
 10390              	.LFB97:
3510:Drivers/STM32L0xx_HAL_Driver/Src/stm32l0xx_hal_uart.c **** 
3511:Drivers/STM32L0xx_HAL_Driver/Src/stm32l0xx_hal_uart.c **** 
3512:Drivers/STM32L0xx_HAL_Driver/Src/stm32l0xx_hal_uart.c **** /**
3513:Drivers/STM32L0xx_HAL_Driver/Src/stm32l0xx_hal_uart.c ****   * @brief  End ongoing Rx transfer on UART peripheral (following error detection or Reception comp
3514:Drivers/STM32L0xx_HAL_Driver/Src/stm32l0xx_hal_uart.c ****   * @param  huart UART handle.
ARM GAS  C:\Users\lidka\AppData\Local\Temp\ccqOATUZ.s 			page 255


3515:Drivers/STM32L0xx_HAL_Driver/Src/stm32l0xx_hal_uart.c ****   * @retval None
3516:Drivers/STM32L0xx_HAL_Driver/Src/stm32l0xx_hal_uart.c ****   */
3517:Drivers/STM32L0xx_HAL_Driver/Src/stm32l0xx_hal_uart.c **** static void UART_EndRxTransfer(UART_HandleTypeDef *huart)
3518:Drivers/STM32L0xx_HAL_Driver/Src/stm32l0xx_hal_uart.c **** {
 10391              		.loc 1 3518 1
 10392              		.cfi_startproc
 10393              		@ args = 0, pretend = 0, frame = 56
 10394              		@ frame_needed = 1, uses_anonymous_args = 0
 10395 0000 80B5     		push	{r7, lr}
 10396              	.LCFI150:
 10397              		.cfi_def_cfa_offset 8
 10398              		.cfi_offset 7, -8
 10399              		.cfi_offset 14, -4
 10400 0002 8EB0     		sub	sp, sp, #56
 10401              	.LCFI151:
 10402              		.cfi_def_cfa_offset 64
 10403 0004 00AF     		add	r7, sp, #0
 10404              	.LCFI152:
 10405              		.cfi_def_cfa_register 7
 10406 0006 7860     		str	r0, [r7, #4]
 10407              	.LBB988:
 10408              	.LBB989:
 10409              	.LBB990:
 386:Drivers/CMSIS/Include/cmsis_gcc.h ****   return(result);
 10410              		.loc 2 386 3
 10411              		.syntax divided
 10412              	@ 386 "Drivers/CMSIS/Include/cmsis_gcc.h" 1
 10413 0008 EFF31083 		MRS r3, primask
 10414              	@ 0 "" 2
 10415              		.thumb
 10416              		.syntax unified
 10417 000c 7B61     		str	r3, [r7, #20]
 387:Drivers/CMSIS/Include/cmsis_gcc.h **** }
 10418              		.loc 2 387 9
 10419 000e 7B69     		ldr	r3, [r7, #20]
 10420              	.LBE990:
 10421              	.LBE989:
3519:Drivers/STM32L0xx_HAL_Driver/Src/stm32l0xx_hal_uart.c ****   /* Disable RXNE, PE and ERR (Frame error, noise error, overrun error) interrupts */
3520:Drivers/STM32L0xx_HAL_Driver/Src/stm32l0xx_hal_uart.c ****   ATOMIC_CLEAR_BIT(huart->Instance->CR1, (USART_CR1_RXNEIE | USART_CR1_PEIE));
 10422              		.loc 1 3520 3
 10423 0010 7B63     		str	r3, [r7, #52]
 10424 0012 0123     		movs	r3, #1
 10425 0014 BB61     		str	r3, [r7, #24]
 10426              	.LBB991:
 10427              	.LBB992:
 414:Drivers/CMSIS/Include/cmsis_gcc.h **** }
 10428              		.loc 2 414 3
 10429 0016 BB69     		ldr	r3, [r7, #24]
 10430              		.syntax divided
 10431              	@ 414 "Drivers/CMSIS/Include/cmsis_gcc.h" 1
 10432 0018 83F31088 		MSR primask, r3
 10433              	@ 0 "" 2
 10434              		.loc 2 415 1
 10435              		.thumb
 10436              		.syntax unified
 10437 001c C046     		nop
 10438              	.LBE992:
ARM GAS  C:\Users\lidka\AppData\Local\Temp\ccqOATUZ.s 			page 256


 10439              	.LBE991:
 10440              		.loc 1 3520 3
 10441 001e 7B68     		ldr	r3, [r7, #4]
 10442 0020 1B68     		ldr	r3, [r3]
 10443 0022 1A68     		ldr	r2, [r3]
 10444 0024 7B68     		ldr	r3, [r7, #4]
 10445 0026 1B68     		ldr	r3, [r3]
 10446 0028 2549     		ldr	r1, .L447
 10447 002a 0A40     		ands	r2, r1
 10448 002c 1A60     		str	r2, [r3]
 10449 002e 7B6B     		ldr	r3, [r7, #52]
 10450 0030 FB61     		str	r3, [r7, #28]
 10451              	.LBB993:
 10452              	.LBB994:
 414:Drivers/CMSIS/Include/cmsis_gcc.h **** }
 10453              		.loc 2 414 3
 10454 0032 FB69     		ldr	r3, [r7, #28]
 10455              		.syntax divided
 10456              	@ 414 "Drivers/CMSIS/Include/cmsis_gcc.h" 1
 10457 0034 83F31088 		MSR primask, r3
 10458              	@ 0 "" 2
 10459              		.loc 2 415 1
 10460              		.thumb
 10461              		.syntax unified
 10462 0038 C046     		nop
 10463              	.LBE994:
 10464              	.LBE993:
 10465              	.LBE988:
 10466              	.LBB995:
 10467              	.LBB996:
 10468              	.LBB997:
 386:Drivers/CMSIS/Include/cmsis_gcc.h ****   return(result);
 10469              		.loc 2 386 3
 10470              		.syntax divided
 10471              	@ 386 "Drivers/CMSIS/Include/cmsis_gcc.h" 1
 10472 003a EFF31083 		MRS r3, primask
 10473              	@ 0 "" 2
 10474              		.thumb
 10475              		.syntax unified
 10476 003e 3B62     		str	r3, [r7, #32]
 387:Drivers/CMSIS/Include/cmsis_gcc.h **** }
 10477              		.loc 2 387 9
 10478 0040 3B6A     		ldr	r3, [r7, #32]
 10479              	.LBE997:
 10480              	.LBE996:
3521:Drivers/STM32L0xx_HAL_Driver/Src/stm32l0xx_hal_uart.c ****   ATOMIC_CLEAR_BIT(huart->Instance->CR3, USART_CR3_EIE);
 10481              		.loc 1 3521 3
 10482 0042 3B63     		str	r3, [r7, #48]
 10483 0044 0123     		movs	r3, #1
 10484 0046 7B62     		str	r3, [r7, #36]
 10485              	.LBB998:
 10486              	.LBB999:
 414:Drivers/CMSIS/Include/cmsis_gcc.h **** }
 10487              		.loc 2 414 3
 10488 0048 7B6A     		ldr	r3, [r7, #36]
 10489              		.syntax divided
 10490              	@ 414 "Drivers/CMSIS/Include/cmsis_gcc.h" 1
ARM GAS  C:\Users\lidka\AppData\Local\Temp\ccqOATUZ.s 			page 257


 10491 004a 83F31088 		MSR primask, r3
 10492              	@ 0 "" 2
 10493              		.loc 2 415 1
 10494              		.thumb
 10495              		.syntax unified
 10496 004e C046     		nop
 10497              	.LBE999:
 10498              	.LBE998:
 10499              		.loc 1 3521 3
 10500 0050 7B68     		ldr	r3, [r7, #4]
 10501 0052 1B68     		ldr	r3, [r3]
 10502 0054 9A68     		ldr	r2, [r3, #8]
 10503 0056 7B68     		ldr	r3, [r7, #4]
 10504 0058 1B68     		ldr	r3, [r3]
 10505 005a 0121     		movs	r1, #1
 10506 005c 8A43     		bics	r2, r1
 10507 005e 9A60     		str	r2, [r3, #8]
 10508 0060 3B6B     		ldr	r3, [r7, #48]
 10509 0062 BB62     		str	r3, [r7, #40]
 10510              	.LBB1000:
 10511              	.LBB1001:
 414:Drivers/CMSIS/Include/cmsis_gcc.h **** }
 10512              		.loc 2 414 3
 10513 0064 BB6A     		ldr	r3, [r7, #40]
 10514              		.syntax divided
 10515              	@ 414 "Drivers/CMSIS/Include/cmsis_gcc.h" 1
 10516 0066 83F31088 		MSR primask, r3
 10517              	@ 0 "" 2
 10518              		.loc 2 415 1
 10519              		.thumb
 10520              		.syntax unified
 10521 006a C046     		nop
 10522              	.LBE1001:
 10523              	.LBE1000:
 10524              	.LBE995:
3522:Drivers/STM32L0xx_HAL_Driver/Src/stm32l0xx_hal_uart.c **** 
3523:Drivers/STM32L0xx_HAL_Driver/Src/stm32l0xx_hal_uart.c ****   /* In case of reception waiting for IDLE event, disable also the IDLE IE interrupt source */
3524:Drivers/STM32L0xx_HAL_Driver/Src/stm32l0xx_hal_uart.c ****   if (huart->ReceptionType == HAL_UART_RECEPTION_TOIDLE)
 10525              		.loc 1 3524 12
 10526 006c 7B68     		ldr	r3, [r7, #4]
 10527 006e 1B6E     		ldr	r3, [r3, #96]
 10528              		.loc 1 3524 6
 10529 0070 012B     		cmp	r3, #1
 10530 0072 18D1     		bne	.L445
 10531              	.LBB1002:
 10532              	.LBB1003:
 10533              	.LBB1004:
 386:Drivers/CMSIS/Include/cmsis_gcc.h ****   return(result);
 10534              		.loc 2 386 3
 10535              		.syntax divided
 10536              	@ 386 "Drivers/CMSIS/Include/cmsis_gcc.h" 1
 10537 0074 EFF31083 		MRS r3, primask
 10538              	@ 0 "" 2
 10539              		.thumb
 10540              		.syntax unified
 10541 0078 BB60     		str	r3, [r7, #8]
 387:Drivers/CMSIS/Include/cmsis_gcc.h **** }
ARM GAS  C:\Users\lidka\AppData\Local\Temp\ccqOATUZ.s 			page 258


 10542              		.loc 2 387 9
 10543 007a BB68     		ldr	r3, [r7, #8]
 10544              	.LBE1004:
 10545              	.LBE1003:
3525:Drivers/STM32L0xx_HAL_Driver/Src/stm32l0xx_hal_uart.c ****   {
3526:Drivers/STM32L0xx_HAL_Driver/Src/stm32l0xx_hal_uart.c ****     ATOMIC_CLEAR_BIT(huart->Instance->CR1, USART_CR1_IDLEIE);
 10546              		.loc 1 3526 5
 10547 007c FB62     		str	r3, [r7, #44]
 10548 007e 0123     		movs	r3, #1
 10549 0080 FB60     		str	r3, [r7, #12]
 10550              	.LBB1005:
 10551              	.LBB1006:
 414:Drivers/CMSIS/Include/cmsis_gcc.h **** }
 10552              		.loc 2 414 3
 10553 0082 FB68     		ldr	r3, [r7, #12]
 10554              		.syntax divided
 10555              	@ 414 "Drivers/CMSIS/Include/cmsis_gcc.h" 1
 10556 0084 83F31088 		MSR primask, r3
 10557              	@ 0 "" 2
 10558              		.loc 2 415 1
 10559              		.thumb
 10560              		.syntax unified
 10561 0088 C046     		nop
 10562              	.LBE1006:
 10563              	.LBE1005:
 10564              		.loc 1 3526 5
 10565 008a 7B68     		ldr	r3, [r7, #4]
 10566 008c 1B68     		ldr	r3, [r3]
 10567 008e 1A68     		ldr	r2, [r3]
 10568 0090 7B68     		ldr	r3, [r7, #4]
 10569 0092 1B68     		ldr	r3, [r3]
 10570 0094 1021     		movs	r1, #16
 10571 0096 8A43     		bics	r2, r1
 10572 0098 1A60     		str	r2, [r3]
 10573 009a FB6A     		ldr	r3, [r7, #44]
 10574 009c 3B61     		str	r3, [r7, #16]
 10575              	.LBB1007:
 10576              	.LBB1008:
 414:Drivers/CMSIS/Include/cmsis_gcc.h **** }
 10577              		.loc 2 414 3
 10578 009e 3B69     		ldr	r3, [r7, #16]
 10579              		.syntax divided
 10580              	@ 414 "Drivers/CMSIS/Include/cmsis_gcc.h" 1
 10581 00a0 83F31088 		MSR primask, r3
 10582              	@ 0 "" 2
 10583              		.loc 2 415 1
 10584              		.thumb
 10585              		.syntax unified
 10586 00a4 C046     		nop
 10587              	.L445:
 10588              	.LBE1008:
 10589              	.LBE1007:
 10590              	.LBE1002:
3527:Drivers/STM32L0xx_HAL_Driver/Src/stm32l0xx_hal_uart.c ****   }
3528:Drivers/STM32L0xx_HAL_Driver/Src/stm32l0xx_hal_uart.c **** 
3529:Drivers/STM32L0xx_HAL_Driver/Src/stm32l0xx_hal_uart.c ****   /* At end of Rx process, restore huart->RxState to Ready */
3530:Drivers/STM32L0xx_HAL_Driver/Src/stm32l0xx_hal_uart.c ****   huart->RxState = HAL_UART_STATE_READY;
ARM GAS  C:\Users\lidka\AppData\Local\Temp\ccqOATUZ.s 			page 259


 10591              		.loc 1 3530 18
 10592 00a6 7B68     		ldr	r3, [r7, #4]
 10593 00a8 2022     		movs	r2, #32
 10594 00aa DA67     		str	r2, [r3, #124]
3531:Drivers/STM32L0xx_HAL_Driver/Src/stm32l0xx_hal_uart.c ****   huart->ReceptionType = HAL_UART_RECEPTION_STANDARD;
 10595              		.loc 1 3531 24
 10596 00ac 7B68     		ldr	r3, [r7, #4]
 10597 00ae 0022     		movs	r2, #0
 10598 00b0 1A66     		str	r2, [r3, #96]
3532:Drivers/STM32L0xx_HAL_Driver/Src/stm32l0xx_hal_uart.c **** 
3533:Drivers/STM32L0xx_HAL_Driver/Src/stm32l0xx_hal_uart.c ****   /* Reset RxIsr function pointer */
3534:Drivers/STM32L0xx_HAL_Driver/Src/stm32l0xx_hal_uart.c ****   huart->RxISR = NULL;
 10599              		.loc 1 3534 16
 10600 00b2 7B68     		ldr	r3, [r7, #4]
 10601 00b4 0022     		movs	r2, #0
 10602 00b6 5A66     		str	r2, [r3, #100]
3535:Drivers/STM32L0xx_HAL_Driver/Src/stm32l0xx_hal_uart.c **** }
 10603              		.loc 1 3535 1
 10604 00b8 C046     		nop
 10605 00ba BD46     		mov	sp, r7
 10606 00bc 0EB0     		add	sp, sp, #56
 10607              		@ sp needed
 10608 00be 80BD     		pop	{r7, pc}
 10609              	.L448:
 10610              		.align	2
 10611              	.L447:
 10612 00c0 DFFEFFFF 		.word	-289
 10613              		.cfi_endproc
 10614              	.LFE97:
 10616              		.section	.text.UART_DMATransmitCplt,"ax",%progbits
 10617              		.align	1
 10618              		.syntax unified
 10619              		.code	16
 10620              		.thumb_func
 10622              	UART_DMATransmitCplt:
 10623              	.LFB98:
3536:Drivers/STM32L0xx_HAL_Driver/Src/stm32l0xx_hal_uart.c **** 
3537:Drivers/STM32L0xx_HAL_Driver/Src/stm32l0xx_hal_uart.c **** 
3538:Drivers/STM32L0xx_HAL_Driver/Src/stm32l0xx_hal_uart.c **** /**
3539:Drivers/STM32L0xx_HAL_Driver/Src/stm32l0xx_hal_uart.c ****   * @brief DMA UART transmit process complete callback.
3540:Drivers/STM32L0xx_HAL_Driver/Src/stm32l0xx_hal_uart.c ****   * @param hdma DMA handle.
3541:Drivers/STM32L0xx_HAL_Driver/Src/stm32l0xx_hal_uart.c ****   * @retval None
3542:Drivers/STM32L0xx_HAL_Driver/Src/stm32l0xx_hal_uart.c ****   */
3543:Drivers/STM32L0xx_HAL_Driver/Src/stm32l0xx_hal_uart.c **** static void UART_DMATransmitCplt(DMA_HandleTypeDef *hdma)
3544:Drivers/STM32L0xx_HAL_Driver/Src/stm32l0xx_hal_uart.c **** {
 10624              		.loc 1 3544 1
 10625              		.cfi_startproc
 10626              		@ args = 0, pretend = 0, frame = 48
 10627              		@ frame_needed = 1, uses_anonymous_args = 0
 10628 0000 80B5     		push	{r7, lr}
 10629              	.LCFI153:
 10630              		.cfi_def_cfa_offset 8
 10631              		.cfi_offset 7, -8
 10632              		.cfi_offset 14, -4
 10633 0002 8CB0     		sub	sp, sp, #48
 10634              	.LCFI154:
 10635              		.cfi_def_cfa_offset 56
ARM GAS  C:\Users\lidka\AppData\Local\Temp\ccqOATUZ.s 			page 260


 10636 0004 00AF     		add	r7, sp, #0
 10637              	.LCFI155:
 10638              		.cfi_def_cfa_register 7
 10639 0006 7860     		str	r0, [r7, #4]
3545:Drivers/STM32L0xx_HAL_Driver/Src/stm32l0xx_hal_uart.c ****   UART_HandleTypeDef *huart = (UART_HandleTypeDef *)(hdma->Parent);
 10640              		.loc 1 3545 23
 10641 0008 7B68     		ldr	r3, [r7, #4]
 10642 000a 9B6A     		ldr	r3, [r3, #40]
 10643 000c FB62     		str	r3, [r7, #44]
3546:Drivers/STM32L0xx_HAL_Driver/Src/stm32l0xx_hal_uart.c **** 
3547:Drivers/STM32L0xx_HAL_Driver/Src/stm32l0xx_hal_uart.c ****   /* DMA Normal mode */
3548:Drivers/STM32L0xx_HAL_Driver/Src/stm32l0xx_hal_uart.c ****   if (HAL_IS_BIT_CLR(hdma->Instance->CCR, DMA_CCR_CIRC))
 10644              		.loc 1 3548 7
 10645 000e 7B68     		ldr	r3, [r7, #4]
 10646 0010 1B68     		ldr	r3, [r3]
 10647 0012 1B68     		ldr	r3, [r3]
 10648 0014 2022     		movs	r2, #32
 10649 0016 1340     		ands	r3, r2
 10650              		.loc 1 3548 6
 10651 0018 35D1     		bne	.L450
3549:Drivers/STM32L0xx_HAL_Driver/Src/stm32l0xx_hal_uart.c ****   {
3550:Drivers/STM32L0xx_HAL_Driver/Src/stm32l0xx_hal_uart.c ****     huart->TxXferCount = 0U;
 10652              		.loc 1 3550 24
 10653 001a FB6A     		ldr	r3, [r7, #44]
 10654 001c 5222     		movs	r2, #82
 10655 001e 0021     		movs	r1, #0
 10656 0020 9952     		strh	r1, [r3, r2]
 10657              	.LBB1009:
 10658              	.LBB1010:
 10659              	.LBB1011:
 386:Drivers/CMSIS/Include/cmsis_gcc.h ****   return(result);
 10660              		.loc 2 386 3
 10661              		.syntax divided
 10662              	@ 386 "Drivers/CMSIS/Include/cmsis_gcc.h" 1
 10663 0022 EFF31083 		MRS r3, primask
 10664              	@ 0 "" 2
 10665              		.thumb
 10666              		.syntax unified
 10667 0026 FB60     		str	r3, [r7, #12]
 387:Drivers/CMSIS/Include/cmsis_gcc.h **** }
 10668              		.loc 2 387 9
 10669 0028 FB68     		ldr	r3, [r7, #12]
 10670              	.LBE1011:
 10671              	.LBE1010:
3551:Drivers/STM32L0xx_HAL_Driver/Src/stm32l0xx_hal_uart.c **** 
3552:Drivers/STM32L0xx_HAL_Driver/Src/stm32l0xx_hal_uart.c ****     /* Disable the DMA transfer for transmit request by resetting the DMAT bit
3553:Drivers/STM32L0xx_HAL_Driver/Src/stm32l0xx_hal_uart.c ****        in the UART CR3 register */
3554:Drivers/STM32L0xx_HAL_Driver/Src/stm32l0xx_hal_uart.c ****     ATOMIC_CLEAR_BIT(huart->Instance->CR3, USART_CR3_DMAT);
 10672              		.loc 1 3554 5
 10673 002a BB62     		str	r3, [r7, #40]
 10674 002c 0123     		movs	r3, #1
 10675 002e 3B61     		str	r3, [r7, #16]
 10676              	.LBB1012:
 10677              	.LBB1013:
 414:Drivers/CMSIS/Include/cmsis_gcc.h **** }
 10678              		.loc 2 414 3
 10679 0030 3B69     		ldr	r3, [r7, #16]
ARM GAS  C:\Users\lidka\AppData\Local\Temp\ccqOATUZ.s 			page 261


 10680              		.syntax divided
 10681              	@ 414 "Drivers/CMSIS/Include/cmsis_gcc.h" 1
 10682 0032 83F31088 		MSR primask, r3
 10683              	@ 0 "" 2
 10684              		.loc 2 415 1
 10685              		.thumb
 10686              		.syntax unified
 10687 0036 C046     		nop
 10688              	.LBE1013:
 10689              	.LBE1012:
 10690              		.loc 1 3554 5
 10691 0038 FB6A     		ldr	r3, [r7, #44]
 10692 003a 1B68     		ldr	r3, [r3]
 10693 003c 9A68     		ldr	r2, [r3, #8]
 10694 003e FB6A     		ldr	r3, [r7, #44]
 10695 0040 1B68     		ldr	r3, [r3]
 10696 0042 8021     		movs	r1, #128
 10697 0044 8A43     		bics	r2, r1
 10698 0046 9A60     		str	r2, [r3, #8]
 10699 0048 BB6A     		ldr	r3, [r7, #40]
 10700 004a 7B61     		str	r3, [r7, #20]
 10701              	.LBB1014:
 10702              	.LBB1015:
 414:Drivers/CMSIS/Include/cmsis_gcc.h **** }
 10703              		.loc 2 414 3
 10704 004c 7B69     		ldr	r3, [r7, #20]
 10705              		.syntax divided
 10706              	@ 414 "Drivers/CMSIS/Include/cmsis_gcc.h" 1
 10707 004e 83F31088 		MSR primask, r3
 10708              	@ 0 "" 2
 10709              		.loc 2 415 1
 10710              		.thumb
 10711              		.syntax unified
 10712 0052 C046     		nop
 10713              	.LBE1015:
 10714              	.LBE1014:
 10715              	.LBE1009:
 10716              	.LBB1016:
 10717              	.LBB1017:
 10718              	.LBB1018:
 386:Drivers/CMSIS/Include/cmsis_gcc.h ****   return(result);
 10719              		.loc 2 386 3
 10720              		.syntax divided
 10721              	@ 386 "Drivers/CMSIS/Include/cmsis_gcc.h" 1
 10722 0054 EFF31083 		MRS r3, primask
 10723              	@ 0 "" 2
 10724              		.thumb
 10725              		.syntax unified
 10726 0058 BB61     		str	r3, [r7, #24]
 387:Drivers/CMSIS/Include/cmsis_gcc.h **** }
 10727              		.loc 2 387 9
 10728 005a BB69     		ldr	r3, [r7, #24]
 10729              	.LBE1018:
 10730              	.LBE1017:
3555:Drivers/STM32L0xx_HAL_Driver/Src/stm32l0xx_hal_uart.c **** 
3556:Drivers/STM32L0xx_HAL_Driver/Src/stm32l0xx_hal_uart.c ****     /* Enable the UART Transmit Complete Interrupt */
3557:Drivers/STM32L0xx_HAL_Driver/Src/stm32l0xx_hal_uart.c ****     ATOMIC_SET_BIT(huart->Instance->CR1, USART_CR1_TCIE);
ARM GAS  C:\Users\lidka\AppData\Local\Temp\ccqOATUZ.s 			page 262


 10731              		.loc 1 3557 5
 10732 005c 7B62     		str	r3, [r7, #36]
 10733 005e 0123     		movs	r3, #1
 10734 0060 FB61     		str	r3, [r7, #28]
 10735              	.LBB1019:
 10736              	.LBB1020:
 414:Drivers/CMSIS/Include/cmsis_gcc.h **** }
 10737              		.loc 2 414 3
 10738 0062 FB69     		ldr	r3, [r7, #28]
 10739              		.syntax divided
 10740              	@ 414 "Drivers/CMSIS/Include/cmsis_gcc.h" 1
 10741 0064 83F31088 		MSR primask, r3
 10742              	@ 0 "" 2
 10743              		.loc 2 415 1
 10744              		.thumb
 10745              		.syntax unified
 10746 0068 C046     		nop
 10747              	.LBE1020:
 10748              	.LBE1019:
 10749              		.loc 1 3557 5
 10750 006a FB6A     		ldr	r3, [r7, #44]
 10751 006c 1B68     		ldr	r3, [r3]
 10752 006e 1A68     		ldr	r2, [r3]
 10753 0070 FB6A     		ldr	r3, [r7, #44]
 10754 0072 1B68     		ldr	r3, [r3]
 10755 0074 4021     		movs	r1, #64
 10756 0076 0A43     		orrs	r2, r1
 10757 0078 1A60     		str	r2, [r3]
 10758 007a 7B6A     		ldr	r3, [r7, #36]
 10759 007c 3B62     		str	r3, [r7, #32]
 10760              	.LBB1021:
 10761              	.LBB1022:
 414:Drivers/CMSIS/Include/cmsis_gcc.h **** }
 10762              		.loc 2 414 3
 10763 007e 3B6A     		ldr	r3, [r7, #32]
 10764              		.syntax divided
 10765              	@ 414 "Drivers/CMSIS/Include/cmsis_gcc.h" 1
 10766 0080 83F31088 		MSR primask, r3
 10767              	@ 0 "" 2
 10768              		.loc 2 415 1
 10769              		.thumb
 10770              		.syntax unified
 10771 0084 04E0     		b	.L453
 10772              	.L450:
 10773              	.LBE1022:
 10774              	.LBE1021:
 10775              	.LBE1016:
3558:Drivers/STM32L0xx_HAL_Driver/Src/stm32l0xx_hal_uart.c ****   }
3559:Drivers/STM32L0xx_HAL_Driver/Src/stm32l0xx_hal_uart.c ****   /* DMA Circular mode */
3560:Drivers/STM32L0xx_HAL_Driver/Src/stm32l0xx_hal_uart.c ****   else
3561:Drivers/STM32L0xx_HAL_Driver/Src/stm32l0xx_hal_uart.c ****   {
3562:Drivers/STM32L0xx_HAL_Driver/Src/stm32l0xx_hal_uart.c **** #if (USE_HAL_UART_REGISTER_CALLBACKS == 1)
3563:Drivers/STM32L0xx_HAL_Driver/Src/stm32l0xx_hal_uart.c ****     /*Call registered Tx complete callback*/
3564:Drivers/STM32L0xx_HAL_Driver/Src/stm32l0xx_hal_uart.c ****     huart->TxCpltCallback(huart);
3565:Drivers/STM32L0xx_HAL_Driver/Src/stm32l0xx_hal_uart.c **** #else
3566:Drivers/STM32L0xx_HAL_Driver/Src/stm32l0xx_hal_uart.c ****     /*Call legacy weak Tx complete callback*/
3567:Drivers/STM32L0xx_HAL_Driver/Src/stm32l0xx_hal_uart.c ****     HAL_UART_TxCpltCallback(huart);
ARM GAS  C:\Users\lidka\AppData\Local\Temp\ccqOATUZ.s 			page 263


 10776              		.loc 1 3567 5
 10777 0086 FB6A     		ldr	r3, [r7, #44]
 10778 0088 1800     		movs	r0, r3
 10779 008a FFF7FEFF 		bl	HAL_UART_TxCpltCallback
3568:Drivers/STM32L0xx_HAL_Driver/Src/stm32l0xx_hal_uart.c **** #endif /* USE_HAL_UART_REGISTER_CALLBACKS */
3569:Drivers/STM32L0xx_HAL_Driver/Src/stm32l0xx_hal_uart.c ****   }
3570:Drivers/STM32L0xx_HAL_Driver/Src/stm32l0xx_hal_uart.c **** }
 10780              		.loc 1 3570 1
 10781 008e C046     		nop
 10782              	.L453:
 10783 0090 C046     		nop
 10784 0092 BD46     		mov	sp, r7
 10785 0094 0CB0     		add	sp, sp, #48
 10786              		@ sp needed
 10787 0096 80BD     		pop	{r7, pc}
 10788              		.cfi_endproc
 10789              	.LFE98:
 10791              		.section	.text.UART_DMATxHalfCplt,"ax",%progbits
 10792              		.align	1
 10793              		.syntax unified
 10794              		.code	16
 10795              		.thumb_func
 10797              	UART_DMATxHalfCplt:
 10798              	.LFB99:
3571:Drivers/STM32L0xx_HAL_Driver/Src/stm32l0xx_hal_uart.c **** 
3572:Drivers/STM32L0xx_HAL_Driver/Src/stm32l0xx_hal_uart.c **** /**
3573:Drivers/STM32L0xx_HAL_Driver/Src/stm32l0xx_hal_uart.c ****   * @brief DMA UART transmit process half complete callback.
3574:Drivers/STM32L0xx_HAL_Driver/Src/stm32l0xx_hal_uart.c ****   * @param hdma DMA handle.
3575:Drivers/STM32L0xx_HAL_Driver/Src/stm32l0xx_hal_uart.c ****   * @retval None
3576:Drivers/STM32L0xx_HAL_Driver/Src/stm32l0xx_hal_uart.c ****   */
3577:Drivers/STM32L0xx_HAL_Driver/Src/stm32l0xx_hal_uart.c **** static void UART_DMATxHalfCplt(DMA_HandleTypeDef *hdma)
3578:Drivers/STM32L0xx_HAL_Driver/Src/stm32l0xx_hal_uart.c **** {
 10799              		.loc 1 3578 1
 10800              		.cfi_startproc
 10801              		@ args = 0, pretend = 0, frame = 16
 10802              		@ frame_needed = 1, uses_anonymous_args = 0
 10803 0000 80B5     		push	{r7, lr}
 10804              	.LCFI156:
 10805              		.cfi_def_cfa_offset 8
 10806              		.cfi_offset 7, -8
 10807              		.cfi_offset 14, -4
 10808 0002 84B0     		sub	sp, sp, #16
 10809              	.LCFI157:
 10810              		.cfi_def_cfa_offset 24
 10811 0004 00AF     		add	r7, sp, #0
 10812              	.LCFI158:
 10813              		.cfi_def_cfa_register 7
 10814 0006 7860     		str	r0, [r7, #4]
3579:Drivers/STM32L0xx_HAL_Driver/Src/stm32l0xx_hal_uart.c ****   UART_HandleTypeDef *huart = (UART_HandleTypeDef *)(hdma->Parent);
 10815              		.loc 1 3579 23
 10816 0008 7B68     		ldr	r3, [r7, #4]
 10817 000a 9B6A     		ldr	r3, [r3, #40]
 10818 000c FB60     		str	r3, [r7, #12]
3580:Drivers/STM32L0xx_HAL_Driver/Src/stm32l0xx_hal_uart.c **** 
3581:Drivers/STM32L0xx_HAL_Driver/Src/stm32l0xx_hal_uart.c **** #if (USE_HAL_UART_REGISTER_CALLBACKS == 1)
3582:Drivers/STM32L0xx_HAL_Driver/Src/stm32l0xx_hal_uart.c ****   /*Call registered Tx Half complete callback*/
3583:Drivers/STM32L0xx_HAL_Driver/Src/stm32l0xx_hal_uart.c ****   huart->TxHalfCpltCallback(huart);
ARM GAS  C:\Users\lidka\AppData\Local\Temp\ccqOATUZ.s 			page 264


3584:Drivers/STM32L0xx_HAL_Driver/Src/stm32l0xx_hal_uart.c **** #else
3585:Drivers/STM32L0xx_HAL_Driver/Src/stm32l0xx_hal_uart.c ****   /*Call legacy weak Tx Half complete callback*/
3586:Drivers/STM32L0xx_HAL_Driver/Src/stm32l0xx_hal_uart.c ****   HAL_UART_TxHalfCpltCallback(huart);
 10819              		.loc 1 3586 3
 10820 000e FB68     		ldr	r3, [r7, #12]
 10821 0010 1800     		movs	r0, r3
 10822 0012 FFF7FEFF 		bl	HAL_UART_TxHalfCpltCallback
3587:Drivers/STM32L0xx_HAL_Driver/Src/stm32l0xx_hal_uart.c **** #endif /* USE_HAL_UART_REGISTER_CALLBACKS */
3588:Drivers/STM32L0xx_HAL_Driver/Src/stm32l0xx_hal_uart.c **** }
 10823              		.loc 1 3588 1
 10824 0016 C046     		nop
 10825 0018 BD46     		mov	sp, r7
 10826 001a 04B0     		add	sp, sp, #16
 10827              		@ sp needed
 10828 001c 80BD     		pop	{r7, pc}
 10829              		.cfi_endproc
 10830              	.LFE99:
 10832              		.section	.text.UART_DMAReceiveCplt,"ax",%progbits
 10833              		.align	1
 10834              		.syntax unified
 10835              		.code	16
 10836              		.thumb_func
 10838              	UART_DMAReceiveCplt:
 10839              	.LFB100:
3589:Drivers/STM32L0xx_HAL_Driver/Src/stm32l0xx_hal_uart.c **** 
3590:Drivers/STM32L0xx_HAL_Driver/Src/stm32l0xx_hal_uart.c **** /**
3591:Drivers/STM32L0xx_HAL_Driver/Src/stm32l0xx_hal_uart.c ****   * @brief DMA UART receive process complete callback.
3592:Drivers/STM32L0xx_HAL_Driver/Src/stm32l0xx_hal_uart.c ****   * @param hdma DMA handle.
3593:Drivers/STM32L0xx_HAL_Driver/Src/stm32l0xx_hal_uart.c ****   * @retval None
3594:Drivers/STM32L0xx_HAL_Driver/Src/stm32l0xx_hal_uart.c ****   */
3595:Drivers/STM32L0xx_HAL_Driver/Src/stm32l0xx_hal_uart.c **** static void UART_DMAReceiveCplt(DMA_HandleTypeDef *hdma)
3596:Drivers/STM32L0xx_HAL_Driver/Src/stm32l0xx_hal_uart.c **** {
 10840              		.loc 1 3596 1
 10841              		.cfi_startproc
 10842              		@ args = 0, pretend = 0, frame = 80
 10843              		@ frame_needed = 1, uses_anonymous_args = 0
 10844 0000 80B5     		push	{r7, lr}
 10845              	.LCFI159:
 10846              		.cfi_def_cfa_offset 8
 10847              		.cfi_offset 7, -8
 10848              		.cfi_offset 14, -4
 10849 0002 94B0     		sub	sp, sp, #80
 10850              	.LCFI160:
 10851              		.cfi_def_cfa_offset 88
 10852 0004 00AF     		add	r7, sp, #0
 10853              	.LCFI161:
 10854              		.cfi_def_cfa_register 7
 10855 0006 7860     		str	r0, [r7, #4]
3597:Drivers/STM32L0xx_HAL_Driver/Src/stm32l0xx_hal_uart.c ****   UART_HandleTypeDef *huart = (UART_HandleTypeDef *)(hdma->Parent);
 10856              		.loc 1 3597 23
 10857 0008 7B68     		ldr	r3, [r7, #4]
 10858 000a 9B6A     		ldr	r3, [r3, #40]
 10859 000c FB64     		str	r3, [r7, #76]
3598:Drivers/STM32L0xx_HAL_Driver/Src/stm32l0xx_hal_uart.c **** 
3599:Drivers/STM32L0xx_HAL_Driver/Src/stm32l0xx_hal_uart.c ****   /* DMA Normal mode */
3600:Drivers/STM32L0xx_HAL_Driver/Src/stm32l0xx_hal_uart.c ****   if (HAL_IS_BIT_CLR(hdma->Instance->CCR, DMA_CCR_CIRC))
 10860              		.loc 1 3600 7
ARM GAS  C:\Users\lidka\AppData\Local\Temp\ccqOATUZ.s 			page 265


 10861 000e 7B68     		ldr	r3, [r7, #4]
 10862 0010 1B68     		ldr	r3, [r3]
 10863 0012 1B68     		ldr	r3, [r3]
 10864 0014 2022     		movs	r2, #32
 10865 0016 1340     		ands	r3, r2
 10866              		.loc 1 3600 6
 10867 0018 6ED1     		bne	.L456
3601:Drivers/STM32L0xx_HAL_Driver/Src/stm32l0xx_hal_uart.c ****   {
3602:Drivers/STM32L0xx_HAL_Driver/Src/stm32l0xx_hal_uart.c ****     huart->RxXferCount = 0U;
 10868              		.loc 1 3602 24
 10869 001a FB6C     		ldr	r3, [r7, #76]
 10870 001c 5A22     		movs	r2, #90
 10871 001e 0021     		movs	r1, #0
 10872 0020 9952     		strh	r1, [r3, r2]
 10873              	.LBB1023:
 10874              	.LBB1024:
 10875              	.LBB1025:
 386:Drivers/CMSIS/Include/cmsis_gcc.h ****   return(result);
 10876              		.loc 2 386 3
 10877              		.syntax divided
 10878              	@ 386 "Drivers/CMSIS/Include/cmsis_gcc.h" 1
 10879 0022 EFF31083 		MRS r3, primask
 10880              	@ 0 "" 2
 10881              		.thumb
 10882              		.syntax unified
 10883 0026 BB61     		str	r3, [r7, #24]
 387:Drivers/CMSIS/Include/cmsis_gcc.h **** }
 10884              		.loc 2 387 9
 10885 0028 BB69     		ldr	r3, [r7, #24]
 10886              	.LBE1025:
 10887              	.LBE1024:
3603:Drivers/STM32L0xx_HAL_Driver/Src/stm32l0xx_hal_uart.c **** 
3604:Drivers/STM32L0xx_HAL_Driver/Src/stm32l0xx_hal_uart.c ****     /* Disable PE and ERR (Frame error, noise error, overrun error) interrupts */
3605:Drivers/STM32L0xx_HAL_Driver/Src/stm32l0xx_hal_uart.c ****     ATOMIC_CLEAR_BIT(huart->Instance->CR1, USART_CR1_PEIE);
 10888              		.loc 1 3605 5
 10889 002a BB64     		str	r3, [r7, #72]
 10890 002c 0123     		movs	r3, #1
 10891 002e FB61     		str	r3, [r7, #28]
 10892              	.LBB1026:
 10893              	.LBB1027:
 414:Drivers/CMSIS/Include/cmsis_gcc.h **** }
 10894              		.loc 2 414 3
 10895 0030 FB69     		ldr	r3, [r7, #28]
 10896              		.syntax divided
 10897              	@ 414 "Drivers/CMSIS/Include/cmsis_gcc.h" 1
 10898 0032 83F31088 		MSR primask, r3
 10899              	@ 0 "" 2
 10900              		.loc 2 415 1
 10901              		.thumb
 10902              		.syntax unified
 10903 0036 C046     		nop
 10904              	.LBE1027:
 10905              	.LBE1026:
 10906              		.loc 1 3605 5
 10907 0038 FB6C     		ldr	r3, [r7, #76]
 10908 003a 1B68     		ldr	r3, [r3]
 10909 003c 1A68     		ldr	r2, [r3]
ARM GAS  C:\Users\lidka\AppData\Local\Temp\ccqOATUZ.s 			page 266


 10910 003e FB6C     		ldr	r3, [r7, #76]
 10911 0040 1B68     		ldr	r3, [r3]
 10912 0042 3849     		ldr	r1, .L464
 10913 0044 0A40     		ands	r2, r1
 10914 0046 1A60     		str	r2, [r3]
 10915 0048 BB6C     		ldr	r3, [r7, #72]
 10916 004a 3B62     		str	r3, [r7, #32]
 10917              	.LBB1028:
 10918              	.LBB1029:
 414:Drivers/CMSIS/Include/cmsis_gcc.h **** }
 10919              		.loc 2 414 3
 10920 004c 3B6A     		ldr	r3, [r7, #32]
 10921              		.syntax divided
 10922              	@ 414 "Drivers/CMSIS/Include/cmsis_gcc.h" 1
 10923 004e 83F31088 		MSR primask, r3
 10924              	@ 0 "" 2
 10925              		.loc 2 415 1
 10926              		.thumb
 10927              		.syntax unified
 10928 0052 C046     		nop
 10929              	.LBE1029:
 10930              	.LBE1028:
 10931              	.LBE1023:
 10932              	.LBB1030:
 10933              	.LBB1031:
 10934              	.LBB1032:
 386:Drivers/CMSIS/Include/cmsis_gcc.h ****   return(result);
 10935              		.loc 2 386 3
 10936              		.syntax divided
 10937              	@ 386 "Drivers/CMSIS/Include/cmsis_gcc.h" 1
 10938 0054 EFF31083 		MRS r3, primask
 10939              	@ 0 "" 2
 10940              		.thumb
 10941              		.syntax unified
 10942 0058 7B62     		str	r3, [r7, #36]
 387:Drivers/CMSIS/Include/cmsis_gcc.h **** }
 10943              		.loc 2 387 9
 10944 005a 7B6A     		ldr	r3, [r7, #36]
 10945              	.LBE1032:
 10946              	.LBE1031:
3606:Drivers/STM32L0xx_HAL_Driver/Src/stm32l0xx_hal_uart.c ****     ATOMIC_CLEAR_BIT(huart->Instance->CR3, USART_CR3_EIE);
 10947              		.loc 1 3606 5
 10948 005c 7B64     		str	r3, [r7, #68]
 10949 005e 0123     		movs	r3, #1
 10950 0060 BB62     		str	r3, [r7, #40]
 10951              	.LBB1033:
 10952              	.LBB1034:
 414:Drivers/CMSIS/Include/cmsis_gcc.h **** }
 10953              		.loc 2 414 3
 10954 0062 BB6A     		ldr	r3, [r7, #40]
 10955              		.syntax divided
 10956              	@ 414 "Drivers/CMSIS/Include/cmsis_gcc.h" 1
 10957 0064 83F31088 		MSR primask, r3
 10958              	@ 0 "" 2
 10959              		.loc 2 415 1
 10960              		.thumb
 10961              		.syntax unified
ARM GAS  C:\Users\lidka\AppData\Local\Temp\ccqOATUZ.s 			page 267


 10962 0068 C046     		nop
 10963              	.LBE1034:
 10964              	.LBE1033:
 10965              		.loc 1 3606 5
 10966 006a FB6C     		ldr	r3, [r7, #76]
 10967 006c 1B68     		ldr	r3, [r3]
 10968 006e 9A68     		ldr	r2, [r3, #8]
 10969 0070 FB6C     		ldr	r3, [r7, #76]
 10970 0072 1B68     		ldr	r3, [r3]
 10971 0074 0121     		movs	r1, #1
 10972 0076 8A43     		bics	r2, r1
 10973 0078 9A60     		str	r2, [r3, #8]
 10974 007a 7B6C     		ldr	r3, [r7, #68]
 10975 007c FB62     		str	r3, [r7, #44]
 10976              	.LBB1035:
 10977              	.LBB1036:
 414:Drivers/CMSIS/Include/cmsis_gcc.h **** }
 10978              		.loc 2 414 3
 10979 007e FB6A     		ldr	r3, [r7, #44]
 10980              		.syntax divided
 10981              	@ 414 "Drivers/CMSIS/Include/cmsis_gcc.h" 1
 10982 0080 83F31088 		MSR primask, r3
 10983              	@ 0 "" 2
 10984              		.loc 2 415 1
 10985              		.thumb
 10986              		.syntax unified
 10987 0084 C046     		nop
 10988              	.LBE1036:
 10989              	.LBE1035:
 10990              	.LBE1030:
 10991              	.LBB1037:
 10992              	.LBB1038:
 10993              	.LBB1039:
 386:Drivers/CMSIS/Include/cmsis_gcc.h ****   return(result);
 10994              		.loc 2 386 3
 10995              		.syntax divided
 10996              	@ 386 "Drivers/CMSIS/Include/cmsis_gcc.h" 1
 10997 0086 EFF31083 		MRS r3, primask
 10998              	@ 0 "" 2
 10999              		.thumb
 11000              		.syntax unified
 11001 008a 3B63     		str	r3, [r7, #48]
 387:Drivers/CMSIS/Include/cmsis_gcc.h **** }
 11002              		.loc 2 387 9
 11003 008c 3B6B     		ldr	r3, [r7, #48]
 11004              	.LBE1039:
 11005              	.LBE1038:
3607:Drivers/STM32L0xx_HAL_Driver/Src/stm32l0xx_hal_uart.c **** 
3608:Drivers/STM32L0xx_HAL_Driver/Src/stm32l0xx_hal_uart.c ****     /* Disable the DMA transfer for the receiver request by resetting the DMAR bit
3609:Drivers/STM32L0xx_HAL_Driver/Src/stm32l0xx_hal_uart.c ****        in the UART CR3 register */
3610:Drivers/STM32L0xx_HAL_Driver/Src/stm32l0xx_hal_uart.c ****     ATOMIC_CLEAR_BIT(huart->Instance->CR3, USART_CR3_DMAR);
 11006              		.loc 1 3610 5
 11007 008e 3B64     		str	r3, [r7, #64]
 11008 0090 0123     		movs	r3, #1
 11009 0092 7B63     		str	r3, [r7, #52]
 11010              	.LBB1040:
 11011              	.LBB1041:
ARM GAS  C:\Users\lidka\AppData\Local\Temp\ccqOATUZ.s 			page 268


 414:Drivers/CMSIS/Include/cmsis_gcc.h **** }
 11012              		.loc 2 414 3
 11013 0094 7B6B     		ldr	r3, [r7, #52]
 11014              		.syntax divided
 11015              	@ 414 "Drivers/CMSIS/Include/cmsis_gcc.h" 1
 11016 0096 83F31088 		MSR primask, r3
 11017              	@ 0 "" 2
 11018              		.loc 2 415 1
 11019              		.thumb
 11020              		.syntax unified
 11021 009a C046     		nop
 11022              	.LBE1041:
 11023              	.LBE1040:
 11024              		.loc 1 3610 5
 11025 009c FB6C     		ldr	r3, [r7, #76]
 11026 009e 1B68     		ldr	r3, [r3]
 11027 00a0 9A68     		ldr	r2, [r3, #8]
 11028 00a2 FB6C     		ldr	r3, [r7, #76]
 11029 00a4 1B68     		ldr	r3, [r3]
 11030 00a6 4021     		movs	r1, #64
 11031 00a8 8A43     		bics	r2, r1
 11032 00aa 9A60     		str	r2, [r3, #8]
 11033 00ac 3B6C     		ldr	r3, [r7, #64]
 11034 00ae BB63     		str	r3, [r7, #56]
 11035              	.LBB1042:
 11036              	.LBB1043:
 414:Drivers/CMSIS/Include/cmsis_gcc.h **** }
 11037              		.loc 2 414 3
 11038 00b0 BB6B     		ldr	r3, [r7, #56]
 11039              		.syntax divided
 11040              	@ 414 "Drivers/CMSIS/Include/cmsis_gcc.h" 1
 11041 00b2 83F31088 		MSR primask, r3
 11042              	@ 0 "" 2
 11043              		.loc 2 415 1
 11044              		.thumb
 11045              		.syntax unified
 11046 00b6 C046     		nop
 11047              	.LBE1043:
 11048              	.LBE1042:
 11049              	.LBE1037:
3611:Drivers/STM32L0xx_HAL_Driver/Src/stm32l0xx_hal_uart.c **** 
3612:Drivers/STM32L0xx_HAL_Driver/Src/stm32l0xx_hal_uart.c ****     /* At end of Rx process, restore huart->RxState to Ready */
3613:Drivers/STM32L0xx_HAL_Driver/Src/stm32l0xx_hal_uart.c ****     huart->RxState = HAL_UART_STATE_READY;
 11050              		.loc 1 3613 20
 11051 00b8 FB6C     		ldr	r3, [r7, #76]
 11052 00ba 2022     		movs	r2, #32
 11053 00bc DA67     		str	r2, [r3, #124]
3614:Drivers/STM32L0xx_HAL_Driver/Src/stm32l0xx_hal_uart.c **** 
3615:Drivers/STM32L0xx_HAL_Driver/Src/stm32l0xx_hal_uart.c ****     /* If Reception till IDLE event has been selected, Disable IDLE Interrupt */
3616:Drivers/STM32L0xx_HAL_Driver/Src/stm32l0xx_hal_uart.c ****     if (huart->ReceptionType == HAL_UART_RECEPTION_TOIDLE)
 11054              		.loc 1 3616 14
 11055 00be FB6C     		ldr	r3, [r7, #76]
 11056 00c0 1B6E     		ldr	r3, [r3, #96]
 11057              		.loc 1 3616 8
 11058 00c2 012B     		cmp	r3, #1
 11059 00c4 18D1     		bne	.L456
 11060              	.LBB1044:
ARM GAS  C:\Users\lidka\AppData\Local\Temp\ccqOATUZ.s 			page 269


 11061              	.LBB1045:
 11062              	.LBB1046:
 386:Drivers/CMSIS/Include/cmsis_gcc.h ****   return(result);
 11063              		.loc 2 386 3
 11064              		.syntax divided
 11065              	@ 386 "Drivers/CMSIS/Include/cmsis_gcc.h" 1
 11066 00c6 EFF31083 		MRS r3, primask
 11067              	@ 0 "" 2
 11068              		.thumb
 11069              		.syntax unified
 11070 00ca FB60     		str	r3, [r7, #12]
 387:Drivers/CMSIS/Include/cmsis_gcc.h **** }
 11071              		.loc 2 387 9
 11072 00cc FB68     		ldr	r3, [r7, #12]
 11073              	.LBE1046:
 11074              	.LBE1045:
3617:Drivers/STM32L0xx_HAL_Driver/Src/stm32l0xx_hal_uart.c ****     {
3618:Drivers/STM32L0xx_HAL_Driver/Src/stm32l0xx_hal_uart.c ****       ATOMIC_CLEAR_BIT(huart->Instance->CR1, USART_CR1_IDLEIE);
 11075              		.loc 1 3618 7
 11076 00ce FB63     		str	r3, [r7, #60]
 11077 00d0 0123     		movs	r3, #1
 11078 00d2 3B61     		str	r3, [r7, #16]
 11079              	.LBB1047:
 11080              	.LBB1048:
 414:Drivers/CMSIS/Include/cmsis_gcc.h **** }
 11081              		.loc 2 414 3
 11082 00d4 3B69     		ldr	r3, [r7, #16]
 11083              		.syntax divided
 11084              	@ 414 "Drivers/CMSIS/Include/cmsis_gcc.h" 1
 11085 00d6 83F31088 		MSR primask, r3
 11086              	@ 0 "" 2
 11087              		.loc 2 415 1
 11088              		.thumb
 11089              		.syntax unified
 11090 00da C046     		nop
 11091              	.LBE1048:
 11092              	.LBE1047:
 11093              		.loc 1 3618 7
 11094 00dc FB6C     		ldr	r3, [r7, #76]
 11095 00de 1B68     		ldr	r3, [r3]
 11096 00e0 1A68     		ldr	r2, [r3]
 11097 00e2 FB6C     		ldr	r3, [r7, #76]
 11098 00e4 1B68     		ldr	r3, [r3]
 11099 00e6 1021     		movs	r1, #16
 11100 00e8 8A43     		bics	r2, r1
 11101 00ea 1A60     		str	r2, [r3]
 11102 00ec FB6B     		ldr	r3, [r7, #60]
 11103 00ee 7B61     		str	r3, [r7, #20]
 11104              	.LBB1049:
 11105              	.LBB1050:
 414:Drivers/CMSIS/Include/cmsis_gcc.h **** }
 11106              		.loc 2 414 3
 11107 00f0 7B69     		ldr	r3, [r7, #20]
 11108              		.syntax divided
 11109              	@ 414 "Drivers/CMSIS/Include/cmsis_gcc.h" 1
 11110 00f2 83F31088 		MSR primask, r3
 11111              	@ 0 "" 2
ARM GAS  C:\Users\lidka\AppData\Local\Temp\ccqOATUZ.s 			page 270


 11112              		.loc 2 415 1
 11113              		.thumb
 11114              		.syntax unified
 11115 00f6 C046     		nop
 11116              	.L456:
 11117              	.LBE1050:
 11118              	.LBE1049:
 11119              	.LBE1044:
3619:Drivers/STM32L0xx_HAL_Driver/Src/stm32l0xx_hal_uart.c ****     }
3620:Drivers/STM32L0xx_HAL_Driver/Src/stm32l0xx_hal_uart.c ****   }
3621:Drivers/STM32L0xx_HAL_Driver/Src/stm32l0xx_hal_uart.c **** 
3622:Drivers/STM32L0xx_HAL_Driver/Src/stm32l0xx_hal_uart.c ****   /* Check current reception Mode :
3623:Drivers/STM32L0xx_HAL_Driver/Src/stm32l0xx_hal_uart.c ****      If Reception till IDLE event has been selected : use Rx Event callback */
3624:Drivers/STM32L0xx_HAL_Driver/Src/stm32l0xx_hal_uart.c ****   if (huart->ReceptionType == HAL_UART_RECEPTION_TOIDLE)
 11120              		.loc 1 3624 12
 11121 00f8 FB6C     		ldr	r3, [r7, #76]
 11122 00fa 1B6E     		ldr	r3, [r3, #96]
 11123              		.loc 1 3624 6
 11124 00fc 012B     		cmp	r3, #1
 11125 00fe 08D1     		bne	.L461
3625:Drivers/STM32L0xx_HAL_Driver/Src/stm32l0xx_hal_uart.c ****   {
3626:Drivers/STM32L0xx_HAL_Driver/Src/stm32l0xx_hal_uart.c **** #if (USE_HAL_UART_REGISTER_CALLBACKS == 1)
3627:Drivers/STM32L0xx_HAL_Driver/Src/stm32l0xx_hal_uart.c ****     /*Call registered Rx Event callback*/
3628:Drivers/STM32L0xx_HAL_Driver/Src/stm32l0xx_hal_uart.c ****     huart->RxEventCallback(huart, huart->RxXferSize);
3629:Drivers/STM32L0xx_HAL_Driver/Src/stm32l0xx_hal_uart.c **** #else
3630:Drivers/STM32L0xx_HAL_Driver/Src/stm32l0xx_hal_uart.c ****     /*Call legacy weak Rx Event callback*/
3631:Drivers/STM32L0xx_HAL_Driver/Src/stm32l0xx_hal_uart.c ****     HAL_UARTEx_RxEventCallback(huart, huart->RxXferSize);
 11126              		.loc 1 3631 5
 11127 0100 FB6C     		ldr	r3, [r7, #76]
 11128 0102 5822     		movs	r2, #88
 11129 0104 9A5A     		ldrh	r2, [r3, r2]
 11130 0106 FB6C     		ldr	r3, [r7, #76]
 11131 0108 1100     		movs	r1, r2
 11132 010a 1800     		movs	r0, r3
 11133 010c FFF7FEFF 		bl	HAL_UARTEx_RxEventCallback
3632:Drivers/STM32L0xx_HAL_Driver/Src/stm32l0xx_hal_uart.c **** #endif /* USE_HAL_UART_REGISTER_CALLBACKS */
3633:Drivers/STM32L0xx_HAL_Driver/Src/stm32l0xx_hal_uart.c ****   }
3634:Drivers/STM32L0xx_HAL_Driver/Src/stm32l0xx_hal_uart.c ****   else
3635:Drivers/STM32L0xx_HAL_Driver/Src/stm32l0xx_hal_uart.c ****   {
3636:Drivers/STM32L0xx_HAL_Driver/Src/stm32l0xx_hal_uart.c ****     /* In other cases : use Rx Complete callback */
3637:Drivers/STM32L0xx_HAL_Driver/Src/stm32l0xx_hal_uart.c **** #if (USE_HAL_UART_REGISTER_CALLBACKS == 1)
3638:Drivers/STM32L0xx_HAL_Driver/Src/stm32l0xx_hal_uart.c ****     /*Call registered Rx complete callback*/
3639:Drivers/STM32L0xx_HAL_Driver/Src/stm32l0xx_hal_uart.c ****     huart->RxCpltCallback(huart);
3640:Drivers/STM32L0xx_HAL_Driver/Src/stm32l0xx_hal_uart.c **** #else
3641:Drivers/STM32L0xx_HAL_Driver/Src/stm32l0xx_hal_uart.c ****     /*Call legacy weak Rx complete callback*/
3642:Drivers/STM32L0xx_HAL_Driver/Src/stm32l0xx_hal_uart.c ****     HAL_UART_RxCpltCallback(huart);
3643:Drivers/STM32L0xx_HAL_Driver/Src/stm32l0xx_hal_uart.c **** #endif /* USE_HAL_UART_REGISTER_CALLBACKS */
3644:Drivers/STM32L0xx_HAL_Driver/Src/stm32l0xx_hal_uart.c ****   }
3645:Drivers/STM32L0xx_HAL_Driver/Src/stm32l0xx_hal_uart.c **** }
 11134              		.loc 1 3645 1
 11135 0110 03E0     		b	.L463
 11136              	.L461:
3642:Drivers/STM32L0xx_HAL_Driver/Src/stm32l0xx_hal_uart.c **** #endif /* USE_HAL_UART_REGISTER_CALLBACKS */
 11137              		.loc 1 3642 5
 11138 0112 FB6C     		ldr	r3, [r7, #76]
 11139 0114 1800     		movs	r0, r3
 11140 0116 FFF7FEFF 		bl	HAL_UART_RxCpltCallback
ARM GAS  C:\Users\lidka\AppData\Local\Temp\ccqOATUZ.s 			page 271


 11141              	.L463:
 11142              		.loc 1 3645 1
 11143 011a C046     		nop
 11144 011c BD46     		mov	sp, r7
 11145 011e 14B0     		add	sp, sp, #80
 11146              		@ sp needed
 11147 0120 80BD     		pop	{r7, pc}
 11148              	.L465:
 11149 0122 C046     		.align	2
 11150              	.L464:
 11151 0124 FFFEFFFF 		.word	-257
 11152              		.cfi_endproc
 11153              	.LFE100:
 11155              		.section	.text.UART_DMARxHalfCplt,"ax",%progbits
 11156              		.align	1
 11157              		.syntax unified
 11158              		.code	16
 11159              		.thumb_func
 11161              	UART_DMARxHalfCplt:
 11162              	.LFB101:
3646:Drivers/STM32L0xx_HAL_Driver/Src/stm32l0xx_hal_uart.c **** 
3647:Drivers/STM32L0xx_HAL_Driver/Src/stm32l0xx_hal_uart.c **** /**
3648:Drivers/STM32L0xx_HAL_Driver/Src/stm32l0xx_hal_uart.c ****   * @brief DMA UART receive process half complete callback.
3649:Drivers/STM32L0xx_HAL_Driver/Src/stm32l0xx_hal_uart.c ****   * @param hdma DMA handle.
3650:Drivers/STM32L0xx_HAL_Driver/Src/stm32l0xx_hal_uart.c ****   * @retval None
3651:Drivers/STM32L0xx_HAL_Driver/Src/stm32l0xx_hal_uart.c ****   */
3652:Drivers/STM32L0xx_HAL_Driver/Src/stm32l0xx_hal_uart.c **** static void UART_DMARxHalfCplt(DMA_HandleTypeDef *hdma)
3653:Drivers/STM32L0xx_HAL_Driver/Src/stm32l0xx_hal_uart.c **** {
 11163              		.loc 1 3653 1
 11164              		.cfi_startproc
 11165              		@ args = 0, pretend = 0, frame = 16
 11166              		@ frame_needed = 1, uses_anonymous_args = 0
 11167 0000 80B5     		push	{r7, lr}
 11168              	.LCFI162:
 11169              		.cfi_def_cfa_offset 8
 11170              		.cfi_offset 7, -8
 11171              		.cfi_offset 14, -4
 11172 0002 84B0     		sub	sp, sp, #16
 11173              	.LCFI163:
 11174              		.cfi_def_cfa_offset 24
 11175 0004 00AF     		add	r7, sp, #0
 11176              	.LCFI164:
 11177              		.cfi_def_cfa_register 7
 11178 0006 7860     		str	r0, [r7, #4]
3654:Drivers/STM32L0xx_HAL_Driver/Src/stm32l0xx_hal_uart.c ****   UART_HandleTypeDef *huart = (UART_HandleTypeDef *)(hdma->Parent);
 11179              		.loc 1 3654 23
 11180 0008 7B68     		ldr	r3, [r7, #4]
 11181 000a 9B6A     		ldr	r3, [r3, #40]
 11182 000c FB60     		str	r3, [r7, #12]
3655:Drivers/STM32L0xx_HAL_Driver/Src/stm32l0xx_hal_uart.c **** 
3656:Drivers/STM32L0xx_HAL_Driver/Src/stm32l0xx_hal_uart.c ****   /* Check current reception Mode :
3657:Drivers/STM32L0xx_HAL_Driver/Src/stm32l0xx_hal_uart.c ****      If Reception till IDLE event has been selected : use Rx Event callback */
3658:Drivers/STM32L0xx_HAL_Driver/Src/stm32l0xx_hal_uart.c ****   if (huart->ReceptionType == HAL_UART_RECEPTION_TOIDLE)
 11183              		.loc 1 3658 12
 11184 000e FB68     		ldr	r3, [r7, #12]
 11185 0010 1B6E     		ldr	r3, [r3, #96]
 11186              		.loc 1 3658 6
ARM GAS  C:\Users\lidka\AppData\Local\Temp\ccqOATUZ.s 			page 272


 11187 0012 012B     		cmp	r3, #1
 11188 0014 0AD1     		bne	.L467
3659:Drivers/STM32L0xx_HAL_Driver/Src/stm32l0xx_hal_uart.c ****   {
3660:Drivers/STM32L0xx_HAL_Driver/Src/stm32l0xx_hal_uart.c **** #if (USE_HAL_UART_REGISTER_CALLBACKS == 1)
3661:Drivers/STM32L0xx_HAL_Driver/Src/stm32l0xx_hal_uart.c ****     /*Call registered Rx Event callback*/
3662:Drivers/STM32L0xx_HAL_Driver/Src/stm32l0xx_hal_uart.c ****     huart->RxEventCallback(huart, huart->RxXferSize / 2U);
3663:Drivers/STM32L0xx_HAL_Driver/Src/stm32l0xx_hal_uart.c **** #else
3664:Drivers/STM32L0xx_HAL_Driver/Src/stm32l0xx_hal_uart.c ****     /*Call legacy weak Rx Event callback*/
3665:Drivers/STM32L0xx_HAL_Driver/Src/stm32l0xx_hal_uart.c ****     HAL_UARTEx_RxEventCallback(huart, huart->RxXferSize / 2U);
 11189              		.loc 1 3665 44
 11190 0016 FB68     		ldr	r3, [r7, #12]
 11191 0018 5822     		movs	r2, #88
 11192 001a 9B5A     		ldrh	r3, [r3, r2]
 11193              		.loc 1 3665 5
 11194 001c 5B08     		lsrs	r3, r3, #1
 11195 001e 9AB2     		uxth	r2, r3
 11196 0020 FB68     		ldr	r3, [r7, #12]
 11197 0022 1100     		movs	r1, r2
 11198 0024 1800     		movs	r0, r3
 11199 0026 FFF7FEFF 		bl	HAL_UARTEx_RxEventCallback
3666:Drivers/STM32L0xx_HAL_Driver/Src/stm32l0xx_hal_uart.c **** #endif /* USE_HAL_UART_REGISTER_CALLBACKS */
3667:Drivers/STM32L0xx_HAL_Driver/Src/stm32l0xx_hal_uart.c ****   }
3668:Drivers/STM32L0xx_HAL_Driver/Src/stm32l0xx_hal_uart.c ****   else
3669:Drivers/STM32L0xx_HAL_Driver/Src/stm32l0xx_hal_uart.c ****   {
3670:Drivers/STM32L0xx_HAL_Driver/Src/stm32l0xx_hal_uart.c ****     /* In other cases : use Rx Half Complete callback */
3671:Drivers/STM32L0xx_HAL_Driver/Src/stm32l0xx_hal_uart.c **** #if (USE_HAL_UART_REGISTER_CALLBACKS == 1)
3672:Drivers/STM32L0xx_HAL_Driver/Src/stm32l0xx_hal_uart.c ****     /*Call registered Rx Half complete callback*/
3673:Drivers/STM32L0xx_HAL_Driver/Src/stm32l0xx_hal_uart.c ****     huart->RxHalfCpltCallback(huart);
3674:Drivers/STM32L0xx_HAL_Driver/Src/stm32l0xx_hal_uart.c **** #else
3675:Drivers/STM32L0xx_HAL_Driver/Src/stm32l0xx_hal_uart.c ****     /*Call legacy weak Rx Half complete callback*/
3676:Drivers/STM32L0xx_HAL_Driver/Src/stm32l0xx_hal_uart.c ****     HAL_UART_RxHalfCpltCallback(huart);
3677:Drivers/STM32L0xx_HAL_Driver/Src/stm32l0xx_hal_uart.c **** #endif /* USE_HAL_UART_REGISTER_CALLBACKS */
3678:Drivers/STM32L0xx_HAL_Driver/Src/stm32l0xx_hal_uart.c ****   }
3679:Drivers/STM32L0xx_HAL_Driver/Src/stm32l0xx_hal_uart.c **** }
 11200              		.loc 1 3679 1
 11201 002a 03E0     		b	.L469
 11202              	.L467:
3676:Drivers/STM32L0xx_HAL_Driver/Src/stm32l0xx_hal_uart.c **** #endif /* USE_HAL_UART_REGISTER_CALLBACKS */
 11203              		.loc 1 3676 5
 11204 002c FB68     		ldr	r3, [r7, #12]
 11205 002e 1800     		movs	r0, r3
 11206 0030 FFF7FEFF 		bl	HAL_UART_RxHalfCpltCallback
 11207              	.L469:
 11208              		.loc 1 3679 1
 11209 0034 C046     		nop
 11210 0036 BD46     		mov	sp, r7
 11211 0038 04B0     		add	sp, sp, #16
 11212              		@ sp needed
 11213 003a 80BD     		pop	{r7, pc}
 11214              		.cfi_endproc
 11215              	.LFE101:
 11217              		.section	.text.UART_DMAError,"ax",%progbits
 11218              		.align	1
 11219              		.syntax unified
 11220              		.code	16
 11221              		.thumb_func
 11223              	UART_DMAError:
ARM GAS  C:\Users\lidka\AppData\Local\Temp\ccqOATUZ.s 			page 273


 11224              	.LFB102:
3680:Drivers/STM32L0xx_HAL_Driver/Src/stm32l0xx_hal_uart.c **** 
3681:Drivers/STM32L0xx_HAL_Driver/Src/stm32l0xx_hal_uart.c **** /**
3682:Drivers/STM32L0xx_HAL_Driver/Src/stm32l0xx_hal_uart.c ****   * @brief DMA UART communication error callback.
3683:Drivers/STM32L0xx_HAL_Driver/Src/stm32l0xx_hal_uart.c ****   * @param hdma DMA handle.
3684:Drivers/STM32L0xx_HAL_Driver/Src/stm32l0xx_hal_uart.c ****   * @retval None
3685:Drivers/STM32L0xx_HAL_Driver/Src/stm32l0xx_hal_uart.c ****   */
3686:Drivers/STM32L0xx_HAL_Driver/Src/stm32l0xx_hal_uart.c **** static void UART_DMAError(DMA_HandleTypeDef *hdma)
3687:Drivers/STM32L0xx_HAL_Driver/Src/stm32l0xx_hal_uart.c **** {
 11225              		.loc 1 3687 1
 11226              		.cfi_startproc
 11227              		@ args = 0, pretend = 0, frame = 24
 11228              		@ frame_needed = 1, uses_anonymous_args = 0
 11229 0000 80B5     		push	{r7, lr}
 11230              	.LCFI165:
 11231              		.cfi_def_cfa_offset 8
 11232              		.cfi_offset 7, -8
 11233              		.cfi_offset 14, -4
 11234 0002 86B0     		sub	sp, sp, #24
 11235              	.LCFI166:
 11236              		.cfi_def_cfa_offset 32
 11237 0004 00AF     		add	r7, sp, #0
 11238              	.LCFI167:
 11239              		.cfi_def_cfa_register 7
 11240 0006 7860     		str	r0, [r7, #4]
3688:Drivers/STM32L0xx_HAL_Driver/Src/stm32l0xx_hal_uart.c ****   UART_HandleTypeDef *huart = (UART_HandleTypeDef *)(hdma->Parent);
 11241              		.loc 1 3688 23
 11242 0008 7B68     		ldr	r3, [r7, #4]
 11243 000a 9B6A     		ldr	r3, [r3, #40]
 11244 000c 7B61     		str	r3, [r7, #20]
3689:Drivers/STM32L0xx_HAL_Driver/Src/stm32l0xx_hal_uart.c **** 
3690:Drivers/STM32L0xx_HAL_Driver/Src/stm32l0xx_hal_uart.c ****   const HAL_UART_StateTypeDef gstate = huart->gState;
 11245              		.loc 1 3690 31
 11246 000e 7B69     		ldr	r3, [r7, #20]
 11247 0010 9B6F     		ldr	r3, [r3, #120]
 11248 0012 3B61     		str	r3, [r7, #16]
3691:Drivers/STM32L0xx_HAL_Driver/Src/stm32l0xx_hal_uart.c ****   const HAL_UART_StateTypeDef rxstate = huart->RxState;
 11249              		.loc 1 3691 31
 11250 0014 7B69     		ldr	r3, [r7, #20]
 11251 0016 DB6F     		ldr	r3, [r3, #124]
 11252 0018 FB60     		str	r3, [r7, #12]
3692:Drivers/STM32L0xx_HAL_Driver/Src/stm32l0xx_hal_uart.c **** 
3693:Drivers/STM32L0xx_HAL_Driver/Src/stm32l0xx_hal_uart.c ****   /* Stop UART DMA Tx request if ongoing */
3694:Drivers/STM32L0xx_HAL_Driver/Src/stm32l0xx_hal_uart.c ****   if ((HAL_IS_BIT_SET(huart->Instance->CR3, USART_CR3_DMAT)) &&
 11253              		.loc 1 3694 8
 11254 001a 7B69     		ldr	r3, [r7, #20]
 11255 001c 1B68     		ldr	r3, [r3]
 11256 001e 9B68     		ldr	r3, [r3, #8]
 11257 0020 8022     		movs	r2, #128
 11258 0022 1340     		ands	r3, r2
 11259              		.loc 1 3694 6
 11260 0024 802B     		cmp	r3, #128
 11261 0026 0AD1     		bne	.L471
 11262              		.loc 1 3694 62 discriminator 1
 11263 0028 3B69     		ldr	r3, [r7, #16]
 11264 002a 212B     		cmp	r3, #33
 11265 002c 07D1     		bne	.L471
ARM GAS  C:\Users\lidka\AppData\Local\Temp\ccqOATUZ.s 			page 274


3695:Drivers/STM32L0xx_HAL_Driver/Src/stm32l0xx_hal_uart.c ****       (gstate == HAL_UART_STATE_BUSY_TX))
3696:Drivers/STM32L0xx_HAL_Driver/Src/stm32l0xx_hal_uart.c ****   {
3697:Drivers/STM32L0xx_HAL_Driver/Src/stm32l0xx_hal_uart.c ****     huart->TxXferCount = 0U;
 11266              		.loc 1 3697 24
 11267 002e 7B69     		ldr	r3, [r7, #20]
 11268 0030 5222     		movs	r2, #82
 11269 0032 0021     		movs	r1, #0
 11270 0034 9952     		strh	r1, [r3, r2]
3698:Drivers/STM32L0xx_HAL_Driver/Src/stm32l0xx_hal_uart.c ****     UART_EndTxTransfer(huart);
 11271              		.loc 1 3698 5
 11272 0036 7B69     		ldr	r3, [r7, #20]
 11273 0038 1800     		movs	r0, r3
 11274 003a FFF7FEFF 		bl	UART_EndTxTransfer
 11275              	.L471:
3699:Drivers/STM32L0xx_HAL_Driver/Src/stm32l0xx_hal_uart.c ****   }
3700:Drivers/STM32L0xx_HAL_Driver/Src/stm32l0xx_hal_uart.c **** 
3701:Drivers/STM32L0xx_HAL_Driver/Src/stm32l0xx_hal_uart.c ****   /* Stop UART DMA Rx request if ongoing */
3702:Drivers/STM32L0xx_HAL_Driver/Src/stm32l0xx_hal_uart.c ****   if ((HAL_IS_BIT_SET(huart->Instance->CR3, USART_CR3_DMAR)) &&
 11276              		.loc 1 3702 8
 11277 003e 7B69     		ldr	r3, [r7, #20]
 11278 0040 1B68     		ldr	r3, [r3]
 11279 0042 9B68     		ldr	r3, [r3, #8]
 11280 0044 4022     		movs	r2, #64
 11281 0046 1340     		ands	r3, r2
 11282              		.loc 1 3702 6
 11283 0048 402B     		cmp	r3, #64
 11284 004a 0AD1     		bne	.L472
 11285              		.loc 1 3702 62 discriminator 1
 11286 004c FB68     		ldr	r3, [r7, #12]
 11287 004e 222B     		cmp	r3, #34
 11288 0050 07D1     		bne	.L472
3703:Drivers/STM32L0xx_HAL_Driver/Src/stm32l0xx_hal_uart.c ****       (rxstate == HAL_UART_STATE_BUSY_RX))
3704:Drivers/STM32L0xx_HAL_Driver/Src/stm32l0xx_hal_uart.c ****   {
3705:Drivers/STM32L0xx_HAL_Driver/Src/stm32l0xx_hal_uart.c ****     huart->RxXferCount = 0U;
 11289              		.loc 1 3705 24
 11290 0052 7B69     		ldr	r3, [r7, #20]
 11291 0054 5A22     		movs	r2, #90
 11292 0056 0021     		movs	r1, #0
 11293 0058 9952     		strh	r1, [r3, r2]
3706:Drivers/STM32L0xx_HAL_Driver/Src/stm32l0xx_hal_uart.c ****     UART_EndRxTransfer(huart);
 11294              		.loc 1 3706 5
 11295 005a 7B69     		ldr	r3, [r7, #20]
 11296 005c 1800     		movs	r0, r3
 11297 005e FFF7FEFF 		bl	UART_EndRxTransfer
 11298              	.L472:
3707:Drivers/STM32L0xx_HAL_Driver/Src/stm32l0xx_hal_uart.c ****   }
3708:Drivers/STM32L0xx_HAL_Driver/Src/stm32l0xx_hal_uart.c **** 
3709:Drivers/STM32L0xx_HAL_Driver/Src/stm32l0xx_hal_uart.c ****   huart->ErrorCode |= HAL_UART_ERROR_DMA;
 11299              		.loc 1 3709 20
 11300 0062 7B69     		ldr	r3, [r7, #20]
 11301 0064 8022     		movs	r2, #128
 11302 0066 9B58     		ldr	r3, [r3, r2]
 11303 0068 1022     		movs	r2, #16
 11304 006a 1A43     		orrs	r2, r3
 11305 006c 7B69     		ldr	r3, [r7, #20]
 11306 006e 8021     		movs	r1, #128
 11307 0070 5A50     		str	r2, [r3, r1]
ARM GAS  C:\Users\lidka\AppData\Local\Temp\ccqOATUZ.s 			page 275


3710:Drivers/STM32L0xx_HAL_Driver/Src/stm32l0xx_hal_uart.c **** 
3711:Drivers/STM32L0xx_HAL_Driver/Src/stm32l0xx_hal_uart.c **** #if (USE_HAL_UART_REGISTER_CALLBACKS == 1)
3712:Drivers/STM32L0xx_HAL_Driver/Src/stm32l0xx_hal_uart.c ****   /*Call registered error callback*/
3713:Drivers/STM32L0xx_HAL_Driver/Src/stm32l0xx_hal_uart.c ****   huart->ErrorCallback(huart);
3714:Drivers/STM32L0xx_HAL_Driver/Src/stm32l0xx_hal_uart.c **** #else
3715:Drivers/STM32L0xx_HAL_Driver/Src/stm32l0xx_hal_uart.c ****   /*Call legacy weak error callback*/
3716:Drivers/STM32L0xx_HAL_Driver/Src/stm32l0xx_hal_uart.c ****   HAL_UART_ErrorCallback(huart);
 11308              		.loc 1 3716 3
 11309 0072 7B69     		ldr	r3, [r7, #20]
 11310 0074 1800     		movs	r0, r3
 11311 0076 FFF7FEFF 		bl	HAL_UART_ErrorCallback
3717:Drivers/STM32L0xx_HAL_Driver/Src/stm32l0xx_hal_uart.c **** #endif /* USE_HAL_UART_REGISTER_CALLBACKS */
3718:Drivers/STM32L0xx_HAL_Driver/Src/stm32l0xx_hal_uart.c **** }
 11312              		.loc 1 3718 1
 11313 007a C046     		nop
 11314 007c BD46     		mov	sp, r7
 11315 007e 06B0     		add	sp, sp, #24
 11316              		@ sp needed
 11317 0080 80BD     		pop	{r7, pc}
 11318              		.cfi_endproc
 11319              	.LFE102:
 11321              		.section	.text.UART_DMAAbortOnError,"ax",%progbits
 11322              		.align	1
 11323              		.syntax unified
 11324              		.code	16
 11325              		.thumb_func
 11327              	UART_DMAAbortOnError:
 11328              	.LFB103:
3719:Drivers/STM32L0xx_HAL_Driver/Src/stm32l0xx_hal_uart.c **** 
3720:Drivers/STM32L0xx_HAL_Driver/Src/stm32l0xx_hal_uart.c **** /**
3721:Drivers/STM32L0xx_HAL_Driver/Src/stm32l0xx_hal_uart.c ****   * @brief  DMA UART communication abort callback, when initiated by HAL services on Error
3722:Drivers/STM32L0xx_HAL_Driver/Src/stm32l0xx_hal_uart.c ****   *         (To be called at end of DMA Abort procedure following error occurrence).
3723:Drivers/STM32L0xx_HAL_Driver/Src/stm32l0xx_hal_uart.c ****   * @param  hdma DMA handle.
3724:Drivers/STM32L0xx_HAL_Driver/Src/stm32l0xx_hal_uart.c ****   * @retval None
3725:Drivers/STM32L0xx_HAL_Driver/Src/stm32l0xx_hal_uart.c ****   */
3726:Drivers/STM32L0xx_HAL_Driver/Src/stm32l0xx_hal_uart.c **** static void UART_DMAAbortOnError(DMA_HandleTypeDef *hdma)
3727:Drivers/STM32L0xx_HAL_Driver/Src/stm32l0xx_hal_uart.c **** {
 11329              		.loc 1 3727 1
 11330              		.cfi_startproc
 11331              		@ args = 0, pretend = 0, frame = 16
 11332              		@ frame_needed = 1, uses_anonymous_args = 0
 11333 0000 80B5     		push	{r7, lr}
 11334              	.LCFI168:
 11335              		.cfi_def_cfa_offset 8
 11336              		.cfi_offset 7, -8
 11337              		.cfi_offset 14, -4
 11338 0002 84B0     		sub	sp, sp, #16
 11339              	.LCFI169:
 11340              		.cfi_def_cfa_offset 24
 11341 0004 00AF     		add	r7, sp, #0
 11342              	.LCFI170:
 11343              		.cfi_def_cfa_register 7
 11344 0006 7860     		str	r0, [r7, #4]
3728:Drivers/STM32L0xx_HAL_Driver/Src/stm32l0xx_hal_uart.c ****   UART_HandleTypeDef *huart = (UART_HandleTypeDef *)(hdma->Parent);
 11345              		.loc 1 3728 23
 11346 0008 7B68     		ldr	r3, [r7, #4]
 11347 000a 9B6A     		ldr	r3, [r3, #40]
ARM GAS  C:\Users\lidka\AppData\Local\Temp\ccqOATUZ.s 			page 276


 11348 000c FB60     		str	r3, [r7, #12]
3729:Drivers/STM32L0xx_HAL_Driver/Src/stm32l0xx_hal_uart.c ****   huart->RxXferCount = 0U;
 11349              		.loc 1 3729 22
 11350 000e FB68     		ldr	r3, [r7, #12]
 11351 0010 5A22     		movs	r2, #90
 11352 0012 0021     		movs	r1, #0
 11353 0014 9952     		strh	r1, [r3, r2]
3730:Drivers/STM32L0xx_HAL_Driver/Src/stm32l0xx_hal_uart.c ****   huart->TxXferCount = 0U;
 11354              		.loc 1 3730 22
 11355 0016 FB68     		ldr	r3, [r7, #12]
 11356 0018 5222     		movs	r2, #82
 11357 001a 0021     		movs	r1, #0
 11358 001c 9952     		strh	r1, [r3, r2]
3731:Drivers/STM32L0xx_HAL_Driver/Src/stm32l0xx_hal_uart.c **** 
3732:Drivers/STM32L0xx_HAL_Driver/Src/stm32l0xx_hal_uart.c **** #if (USE_HAL_UART_REGISTER_CALLBACKS == 1)
3733:Drivers/STM32L0xx_HAL_Driver/Src/stm32l0xx_hal_uart.c ****   /*Call registered error callback*/
3734:Drivers/STM32L0xx_HAL_Driver/Src/stm32l0xx_hal_uart.c ****   huart->ErrorCallback(huart);
3735:Drivers/STM32L0xx_HAL_Driver/Src/stm32l0xx_hal_uart.c **** #else
3736:Drivers/STM32L0xx_HAL_Driver/Src/stm32l0xx_hal_uart.c ****   /*Call legacy weak error callback*/
3737:Drivers/STM32L0xx_HAL_Driver/Src/stm32l0xx_hal_uart.c ****   HAL_UART_ErrorCallback(huart);
 11359              		.loc 1 3737 3
 11360 001e FB68     		ldr	r3, [r7, #12]
 11361 0020 1800     		movs	r0, r3
 11362 0022 FFF7FEFF 		bl	HAL_UART_ErrorCallback
3738:Drivers/STM32L0xx_HAL_Driver/Src/stm32l0xx_hal_uart.c **** #endif /* USE_HAL_UART_REGISTER_CALLBACKS */
3739:Drivers/STM32L0xx_HAL_Driver/Src/stm32l0xx_hal_uart.c **** }
 11363              		.loc 1 3739 1
 11364 0026 C046     		nop
 11365 0028 BD46     		mov	sp, r7
 11366 002a 04B0     		add	sp, sp, #16
 11367              		@ sp needed
 11368 002c 80BD     		pop	{r7, pc}
 11369              		.cfi_endproc
 11370              	.LFE103:
 11372              		.section	.text.UART_DMATxAbortCallback,"ax",%progbits
 11373              		.align	1
 11374              		.syntax unified
 11375              		.code	16
 11376              		.thumb_func
 11378              	UART_DMATxAbortCallback:
 11379              	.LFB104:
3740:Drivers/STM32L0xx_HAL_Driver/Src/stm32l0xx_hal_uart.c **** 
3741:Drivers/STM32L0xx_HAL_Driver/Src/stm32l0xx_hal_uart.c **** /**
3742:Drivers/STM32L0xx_HAL_Driver/Src/stm32l0xx_hal_uart.c ****   * @brief  DMA UART Tx communication abort callback, when initiated by user
3743:Drivers/STM32L0xx_HAL_Driver/Src/stm32l0xx_hal_uart.c ****   *         (To be called at end of DMA Tx Abort procedure following user abort request).
3744:Drivers/STM32L0xx_HAL_Driver/Src/stm32l0xx_hal_uart.c ****   * @note   When this callback is executed, User Abort complete call back is called only if no
3745:Drivers/STM32L0xx_HAL_Driver/Src/stm32l0xx_hal_uart.c ****   *         Abort still ongoing for Rx DMA Handle.
3746:Drivers/STM32L0xx_HAL_Driver/Src/stm32l0xx_hal_uart.c ****   * @param  hdma DMA handle.
3747:Drivers/STM32L0xx_HAL_Driver/Src/stm32l0xx_hal_uart.c ****   * @retval None
3748:Drivers/STM32L0xx_HAL_Driver/Src/stm32l0xx_hal_uart.c ****   */
3749:Drivers/STM32L0xx_HAL_Driver/Src/stm32l0xx_hal_uart.c **** static void UART_DMATxAbortCallback(DMA_HandleTypeDef *hdma)
3750:Drivers/STM32L0xx_HAL_Driver/Src/stm32l0xx_hal_uart.c **** {
 11380              		.loc 1 3750 1
 11381              		.cfi_startproc
 11382              		@ args = 0, pretend = 0, frame = 16
 11383              		@ frame_needed = 1, uses_anonymous_args = 0
 11384 0000 80B5     		push	{r7, lr}
ARM GAS  C:\Users\lidka\AppData\Local\Temp\ccqOATUZ.s 			page 277


 11385              	.LCFI171:
 11386              		.cfi_def_cfa_offset 8
 11387              		.cfi_offset 7, -8
 11388              		.cfi_offset 14, -4
 11389 0002 84B0     		sub	sp, sp, #16
 11390              	.LCFI172:
 11391              		.cfi_def_cfa_offset 24
 11392 0004 00AF     		add	r7, sp, #0
 11393              	.LCFI173:
 11394              		.cfi_def_cfa_register 7
 11395 0006 7860     		str	r0, [r7, #4]
3751:Drivers/STM32L0xx_HAL_Driver/Src/stm32l0xx_hal_uart.c ****   UART_HandleTypeDef *huart = (UART_HandleTypeDef *)(hdma->Parent);
 11396              		.loc 1 3751 23
 11397 0008 7B68     		ldr	r3, [r7, #4]
 11398 000a 9B6A     		ldr	r3, [r3, #40]
 11399 000c FB60     		str	r3, [r7, #12]
3752:Drivers/STM32L0xx_HAL_Driver/Src/stm32l0xx_hal_uart.c **** 
3753:Drivers/STM32L0xx_HAL_Driver/Src/stm32l0xx_hal_uart.c ****   huart->hdmatx->XferAbortCallback = NULL;
 11400              		.loc 1 3753 8
 11401 000e FB68     		ldr	r3, [r7, #12]
 11402 0010 DB6E     		ldr	r3, [r3, #108]
 11403              		.loc 1 3753 36
 11404 0012 0022     		movs	r2, #0
 11405 0014 9A63     		str	r2, [r3, #56]
3754:Drivers/STM32L0xx_HAL_Driver/Src/stm32l0xx_hal_uart.c **** 
3755:Drivers/STM32L0xx_HAL_Driver/Src/stm32l0xx_hal_uart.c ****   /* Check if an Abort process is still ongoing */
3756:Drivers/STM32L0xx_HAL_Driver/Src/stm32l0xx_hal_uart.c ****   if (huart->hdmarx != NULL)
 11406              		.loc 1 3756 12
 11407 0016 FB68     		ldr	r3, [r7, #12]
 11408 0018 1B6F     		ldr	r3, [r3, #112]
 11409              		.loc 1 3756 6
 11410 001a 002B     		cmp	r3, #0
 11411 001c 04D0     		beq	.L475
3757:Drivers/STM32L0xx_HAL_Driver/Src/stm32l0xx_hal_uart.c ****   {
3758:Drivers/STM32L0xx_HAL_Driver/Src/stm32l0xx_hal_uart.c ****     if (huart->hdmarx->XferAbortCallback != NULL)
 11412              		.loc 1 3758 14
 11413 001e FB68     		ldr	r3, [r7, #12]
 11414 0020 1B6F     		ldr	r3, [r3, #112]
 11415              		.loc 1 3758 22
 11416 0022 9B6B     		ldr	r3, [r3, #56]
 11417              		.loc 1 3758 8
 11418 0024 002B     		cmp	r3, #0
 11419 0026 1DD1     		bne	.L477
 11420              	.L475:
3759:Drivers/STM32L0xx_HAL_Driver/Src/stm32l0xx_hal_uart.c ****     {
3760:Drivers/STM32L0xx_HAL_Driver/Src/stm32l0xx_hal_uart.c ****       return;
3761:Drivers/STM32L0xx_HAL_Driver/Src/stm32l0xx_hal_uart.c ****     }
3762:Drivers/STM32L0xx_HAL_Driver/Src/stm32l0xx_hal_uart.c ****   }
3763:Drivers/STM32L0xx_HAL_Driver/Src/stm32l0xx_hal_uart.c **** 
3764:Drivers/STM32L0xx_HAL_Driver/Src/stm32l0xx_hal_uart.c ****   /* No Abort process still ongoing : All DMA channels are aborted, call user Abort Complete callba
3765:Drivers/STM32L0xx_HAL_Driver/Src/stm32l0xx_hal_uart.c ****   huart->TxXferCount = 0U;
 11421              		.loc 1 3765 22
 11422 0028 FB68     		ldr	r3, [r7, #12]
 11423 002a 5222     		movs	r2, #82
 11424 002c 0021     		movs	r1, #0
 11425 002e 9952     		strh	r1, [r3, r2]
3766:Drivers/STM32L0xx_HAL_Driver/Src/stm32l0xx_hal_uart.c ****   huart->RxXferCount = 0U;
ARM GAS  C:\Users\lidka\AppData\Local\Temp\ccqOATUZ.s 			page 278


 11426              		.loc 1 3766 22
 11427 0030 FB68     		ldr	r3, [r7, #12]
 11428 0032 5A22     		movs	r2, #90
 11429 0034 0021     		movs	r1, #0
 11430 0036 9952     		strh	r1, [r3, r2]
3767:Drivers/STM32L0xx_HAL_Driver/Src/stm32l0xx_hal_uart.c **** 
3768:Drivers/STM32L0xx_HAL_Driver/Src/stm32l0xx_hal_uart.c ****   /* Reset errorCode */
3769:Drivers/STM32L0xx_HAL_Driver/Src/stm32l0xx_hal_uart.c ****   huart->ErrorCode = HAL_UART_ERROR_NONE;
 11431              		.loc 1 3769 20
 11432 0038 FB68     		ldr	r3, [r7, #12]
 11433 003a 8022     		movs	r2, #128
 11434 003c 0021     		movs	r1, #0
 11435 003e 9950     		str	r1, [r3, r2]
3770:Drivers/STM32L0xx_HAL_Driver/Src/stm32l0xx_hal_uart.c **** 
3771:Drivers/STM32L0xx_HAL_Driver/Src/stm32l0xx_hal_uart.c ****   /* Clear the Error flags in the ICR register */
3772:Drivers/STM32L0xx_HAL_Driver/Src/stm32l0xx_hal_uart.c ****   __HAL_UART_CLEAR_FLAG(huart, UART_CLEAR_OREF | UART_CLEAR_NEF | UART_CLEAR_PEF | UART_CLEAR_FEF);
 11436              		.loc 1 3772 3
 11437 0040 FB68     		ldr	r3, [r7, #12]
 11438 0042 1B68     		ldr	r3, [r3]
 11439 0044 0F22     		movs	r2, #15
 11440 0046 1A62     		str	r2, [r3, #32]
3773:Drivers/STM32L0xx_HAL_Driver/Src/stm32l0xx_hal_uart.c **** 
3774:Drivers/STM32L0xx_HAL_Driver/Src/stm32l0xx_hal_uart.c **** 
3775:Drivers/STM32L0xx_HAL_Driver/Src/stm32l0xx_hal_uart.c ****   /* Restore huart->gState and huart->RxState to Ready */
3776:Drivers/STM32L0xx_HAL_Driver/Src/stm32l0xx_hal_uart.c ****   huart->gState  = HAL_UART_STATE_READY;
 11441              		.loc 1 3776 18
 11442 0048 FB68     		ldr	r3, [r7, #12]
 11443 004a 2022     		movs	r2, #32
 11444 004c 9A67     		str	r2, [r3, #120]
3777:Drivers/STM32L0xx_HAL_Driver/Src/stm32l0xx_hal_uart.c ****   huart->RxState = HAL_UART_STATE_READY;
 11445              		.loc 1 3777 18
 11446 004e FB68     		ldr	r3, [r7, #12]
 11447 0050 2022     		movs	r2, #32
 11448 0052 DA67     		str	r2, [r3, #124]
3778:Drivers/STM32L0xx_HAL_Driver/Src/stm32l0xx_hal_uart.c ****   huart->ReceptionType = HAL_UART_RECEPTION_STANDARD;
 11449              		.loc 1 3778 24
 11450 0054 FB68     		ldr	r3, [r7, #12]
 11451 0056 0022     		movs	r2, #0
 11452 0058 1A66     		str	r2, [r3, #96]
3779:Drivers/STM32L0xx_HAL_Driver/Src/stm32l0xx_hal_uart.c **** 
3780:Drivers/STM32L0xx_HAL_Driver/Src/stm32l0xx_hal_uart.c ****   /* Call user Abort complete callback */
3781:Drivers/STM32L0xx_HAL_Driver/Src/stm32l0xx_hal_uart.c **** #if (USE_HAL_UART_REGISTER_CALLBACKS == 1)
3782:Drivers/STM32L0xx_HAL_Driver/Src/stm32l0xx_hal_uart.c ****   /* Call registered Abort complete callback */
3783:Drivers/STM32L0xx_HAL_Driver/Src/stm32l0xx_hal_uart.c ****   huart->AbortCpltCallback(huart);
3784:Drivers/STM32L0xx_HAL_Driver/Src/stm32l0xx_hal_uart.c **** #else
3785:Drivers/STM32L0xx_HAL_Driver/Src/stm32l0xx_hal_uart.c ****   /* Call legacy weak Abort complete callback */
3786:Drivers/STM32L0xx_HAL_Driver/Src/stm32l0xx_hal_uart.c ****   HAL_UART_AbortCpltCallback(huart);
 11453              		.loc 1 3786 3
 11454 005a FB68     		ldr	r3, [r7, #12]
 11455 005c 1800     		movs	r0, r3
 11456 005e FFF7FEFF 		bl	HAL_UART_AbortCpltCallback
 11457 0062 00E0     		b	.L474
 11458              	.L477:
3760:Drivers/STM32L0xx_HAL_Driver/Src/stm32l0xx_hal_uart.c ****     }
 11459              		.loc 1 3760 7
 11460 0064 C046     		nop
 11461              	.L474:
ARM GAS  C:\Users\lidka\AppData\Local\Temp\ccqOATUZ.s 			page 279


3787:Drivers/STM32L0xx_HAL_Driver/Src/stm32l0xx_hal_uart.c **** #endif /* USE_HAL_UART_REGISTER_CALLBACKS */
3788:Drivers/STM32L0xx_HAL_Driver/Src/stm32l0xx_hal_uart.c **** }
 11462              		.loc 1 3788 1
 11463 0066 BD46     		mov	sp, r7
 11464 0068 04B0     		add	sp, sp, #16
 11465              		@ sp needed
 11466 006a 80BD     		pop	{r7, pc}
 11467              		.cfi_endproc
 11468              	.LFE104:
 11470              		.section	.text.UART_DMARxAbortCallback,"ax",%progbits
 11471              		.align	1
 11472              		.syntax unified
 11473              		.code	16
 11474              		.thumb_func
 11476              	UART_DMARxAbortCallback:
 11477              	.LFB105:
3789:Drivers/STM32L0xx_HAL_Driver/Src/stm32l0xx_hal_uart.c **** 
3790:Drivers/STM32L0xx_HAL_Driver/Src/stm32l0xx_hal_uart.c **** 
3791:Drivers/STM32L0xx_HAL_Driver/Src/stm32l0xx_hal_uart.c **** /**
3792:Drivers/STM32L0xx_HAL_Driver/Src/stm32l0xx_hal_uart.c ****   * @brief  DMA UART Rx communication abort callback, when initiated by user
3793:Drivers/STM32L0xx_HAL_Driver/Src/stm32l0xx_hal_uart.c ****   *         (To be called at end of DMA Rx Abort procedure following user abort request).
3794:Drivers/STM32L0xx_HAL_Driver/Src/stm32l0xx_hal_uart.c ****   * @note   When this callback is executed, User Abort complete call back is called only if no
3795:Drivers/STM32L0xx_HAL_Driver/Src/stm32l0xx_hal_uart.c ****   *         Abort still ongoing for Tx DMA Handle.
3796:Drivers/STM32L0xx_HAL_Driver/Src/stm32l0xx_hal_uart.c ****   * @param  hdma DMA handle.
3797:Drivers/STM32L0xx_HAL_Driver/Src/stm32l0xx_hal_uart.c ****   * @retval None
3798:Drivers/STM32L0xx_HAL_Driver/Src/stm32l0xx_hal_uart.c ****   */
3799:Drivers/STM32L0xx_HAL_Driver/Src/stm32l0xx_hal_uart.c **** static void UART_DMARxAbortCallback(DMA_HandleTypeDef *hdma)
3800:Drivers/STM32L0xx_HAL_Driver/Src/stm32l0xx_hal_uart.c **** {
 11478              		.loc 1 3800 1
 11479              		.cfi_startproc
 11480              		@ args = 0, pretend = 0, frame = 16
 11481              		@ frame_needed = 1, uses_anonymous_args = 0
 11482 0000 80B5     		push	{r7, lr}
 11483              	.LCFI174:
 11484              		.cfi_def_cfa_offset 8
 11485              		.cfi_offset 7, -8
 11486              		.cfi_offset 14, -4
 11487 0002 84B0     		sub	sp, sp, #16
 11488              	.LCFI175:
 11489              		.cfi_def_cfa_offset 24
 11490 0004 00AF     		add	r7, sp, #0
 11491              	.LCFI176:
 11492              		.cfi_def_cfa_register 7
 11493 0006 7860     		str	r0, [r7, #4]
3801:Drivers/STM32L0xx_HAL_Driver/Src/stm32l0xx_hal_uart.c ****   UART_HandleTypeDef *huart = (UART_HandleTypeDef *)(hdma->Parent);
 11494              		.loc 1 3801 23
 11495 0008 7B68     		ldr	r3, [r7, #4]
 11496 000a 9B6A     		ldr	r3, [r3, #40]
 11497 000c FB60     		str	r3, [r7, #12]
3802:Drivers/STM32L0xx_HAL_Driver/Src/stm32l0xx_hal_uart.c **** 
3803:Drivers/STM32L0xx_HAL_Driver/Src/stm32l0xx_hal_uart.c ****   huart->hdmarx->XferAbortCallback = NULL;
 11498              		.loc 1 3803 8
 11499 000e FB68     		ldr	r3, [r7, #12]
 11500 0010 1B6F     		ldr	r3, [r3, #112]
 11501              		.loc 1 3803 36
 11502 0012 0022     		movs	r2, #0
 11503 0014 9A63     		str	r2, [r3, #56]
ARM GAS  C:\Users\lidka\AppData\Local\Temp\ccqOATUZ.s 			page 280


3804:Drivers/STM32L0xx_HAL_Driver/Src/stm32l0xx_hal_uart.c **** 
3805:Drivers/STM32L0xx_HAL_Driver/Src/stm32l0xx_hal_uart.c ****   /* Check if an Abort process is still ongoing */
3806:Drivers/STM32L0xx_HAL_Driver/Src/stm32l0xx_hal_uart.c ****   if (huart->hdmatx != NULL)
 11504              		.loc 1 3806 12
 11505 0016 FB68     		ldr	r3, [r7, #12]
 11506 0018 DB6E     		ldr	r3, [r3, #108]
 11507              		.loc 1 3806 6
 11508 001a 002B     		cmp	r3, #0
 11509 001c 04D0     		beq	.L479
3807:Drivers/STM32L0xx_HAL_Driver/Src/stm32l0xx_hal_uart.c ****   {
3808:Drivers/STM32L0xx_HAL_Driver/Src/stm32l0xx_hal_uart.c ****     if (huart->hdmatx->XferAbortCallback != NULL)
 11510              		.loc 1 3808 14
 11511 001e FB68     		ldr	r3, [r7, #12]
 11512 0020 DB6E     		ldr	r3, [r3, #108]
 11513              		.loc 1 3808 22
 11514 0022 9B6B     		ldr	r3, [r3, #56]
 11515              		.loc 1 3808 8
 11516 0024 002B     		cmp	r3, #0
 11517 0026 25D1     		bne	.L481
 11518              	.L479:
3809:Drivers/STM32L0xx_HAL_Driver/Src/stm32l0xx_hal_uart.c ****     {
3810:Drivers/STM32L0xx_HAL_Driver/Src/stm32l0xx_hal_uart.c ****       return;
3811:Drivers/STM32L0xx_HAL_Driver/Src/stm32l0xx_hal_uart.c ****     }
3812:Drivers/STM32L0xx_HAL_Driver/Src/stm32l0xx_hal_uart.c ****   }
3813:Drivers/STM32L0xx_HAL_Driver/Src/stm32l0xx_hal_uart.c **** 
3814:Drivers/STM32L0xx_HAL_Driver/Src/stm32l0xx_hal_uart.c ****   /* No Abort process still ongoing : All DMA channels are aborted, call user Abort Complete callba
3815:Drivers/STM32L0xx_HAL_Driver/Src/stm32l0xx_hal_uart.c ****   huart->TxXferCount = 0U;
 11519              		.loc 1 3815 22
 11520 0028 FB68     		ldr	r3, [r7, #12]
 11521 002a 5222     		movs	r2, #82
 11522 002c 0021     		movs	r1, #0
 11523 002e 9952     		strh	r1, [r3, r2]
3816:Drivers/STM32L0xx_HAL_Driver/Src/stm32l0xx_hal_uart.c ****   huart->RxXferCount = 0U;
 11524              		.loc 1 3816 22
 11525 0030 FB68     		ldr	r3, [r7, #12]
 11526 0032 5A22     		movs	r2, #90
 11527 0034 0021     		movs	r1, #0
 11528 0036 9952     		strh	r1, [r3, r2]
3817:Drivers/STM32L0xx_HAL_Driver/Src/stm32l0xx_hal_uart.c **** 
3818:Drivers/STM32L0xx_HAL_Driver/Src/stm32l0xx_hal_uart.c ****   /* Reset errorCode */
3819:Drivers/STM32L0xx_HAL_Driver/Src/stm32l0xx_hal_uart.c ****   huart->ErrorCode = HAL_UART_ERROR_NONE;
 11529              		.loc 1 3819 20
 11530 0038 FB68     		ldr	r3, [r7, #12]
 11531 003a 8022     		movs	r2, #128
 11532 003c 0021     		movs	r1, #0
 11533 003e 9950     		str	r1, [r3, r2]
3820:Drivers/STM32L0xx_HAL_Driver/Src/stm32l0xx_hal_uart.c **** 
3821:Drivers/STM32L0xx_HAL_Driver/Src/stm32l0xx_hal_uart.c ****   /* Clear the Error flags in the ICR register */
3822:Drivers/STM32L0xx_HAL_Driver/Src/stm32l0xx_hal_uart.c ****   __HAL_UART_CLEAR_FLAG(huart, UART_CLEAR_OREF | UART_CLEAR_NEF | UART_CLEAR_PEF | UART_CLEAR_FEF);
 11534              		.loc 1 3822 3
 11535 0040 FB68     		ldr	r3, [r7, #12]
 11536 0042 1B68     		ldr	r3, [r3]
 11537 0044 0F22     		movs	r2, #15
 11538 0046 1A62     		str	r2, [r3, #32]
3823:Drivers/STM32L0xx_HAL_Driver/Src/stm32l0xx_hal_uart.c **** 
3824:Drivers/STM32L0xx_HAL_Driver/Src/stm32l0xx_hal_uart.c ****   /* Discard the received data */
3825:Drivers/STM32L0xx_HAL_Driver/Src/stm32l0xx_hal_uart.c ****   __HAL_UART_SEND_REQ(huart, UART_RXDATA_FLUSH_REQUEST);
ARM GAS  C:\Users\lidka\AppData\Local\Temp\ccqOATUZ.s 			page 281


 11539              		.loc 1 3825 3
 11540 0048 FB68     		ldr	r3, [r7, #12]
 11541 004a 1B68     		ldr	r3, [r3]
 11542 004c 9A69     		ldr	r2, [r3, #24]
 11543 004e FB68     		ldr	r3, [r7, #12]
 11544 0050 1B68     		ldr	r3, [r3]
 11545 0052 0821     		movs	r1, #8
 11546 0054 0A43     		orrs	r2, r1
 11547 0056 9A61     		str	r2, [r3, #24]
3826:Drivers/STM32L0xx_HAL_Driver/Src/stm32l0xx_hal_uart.c **** 
3827:Drivers/STM32L0xx_HAL_Driver/Src/stm32l0xx_hal_uart.c ****   /* Restore huart->gState and huart->RxState to Ready */
3828:Drivers/STM32L0xx_HAL_Driver/Src/stm32l0xx_hal_uart.c ****   huart->gState  = HAL_UART_STATE_READY;
 11548              		.loc 1 3828 18
 11549 0058 FB68     		ldr	r3, [r7, #12]
 11550 005a 2022     		movs	r2, #32
 11551 005c 9A67     		str	r2, [r3, #120]
3829:Drivers/STM32L0xx_HAL_Driver/Src/stm32l0xx_hal_uart.c ****   huart->RxState = HAL_UART_STATE_READY;
 11552              		.loc 1 3829 18
 11553 005e FB68     		ldr	r3, [r7, #12]
 11554 0060 2022     		movs	r2, #32
 11555 0062 DA67     		str	r2, [r3, #124]
3830:Drivers/STM32L0xx_HAL_Driver/Src/stm32l0xx_hal_uart.c ****   huart->ReceptionType = HAL_UART_RECEPTION_STANDARD;
 11556              		.loc 1 3830 24
 11557 0064 FB68     		ldr	r3, [r7, #12]
 11558 0066 0022     		movs	r2, #0
 11559 0068 1A66     		str	r2, [r3, #96]
3831:Drivers/STM32L0xx_HAL_Driver/Src/stm32l0xx_hal_uart.c **** 
3832:Drivers/STM32L0xx_HAL_Driver/Src/stm32l0xx_hal_uart.c ****   /* Call user Abort complete callback */
3833:Drivers/STM32L0xx_HAL_Driver/Src/stm32l0xx_hal_uart.c **** #if (USE_HAL_UART_REGISTER_CALLBACKS == 1)
3834:Drivers/STM32L0xx_HAL_Driver/Src/stm32l0xx_hal_uart.c ****   /* Call registered Abort complete callback */
3835:Drivers/STM32L0xx_HAL_Driver/Src/stm32l0xx_hal_uart.c ****   huart->AbortCpltCallback(huart);
3836:Drivers/STM32L0xx_HAL_Driver/Src/stm32l0xx_hal_uart.c **** #else
3837:Drivers/STM32L0xx_HAL_Driver/Src/stm32l0xx_hal_uart.c ****   /* Call legacy weak Abort complete callback */
3838:Drivers/STM32L0xx_HAL_Driver/Src/stm32l0xx_hal_uart.c ****   HAL_UART_AbortCpltCallback(huart);
 11560              		.loc 1 3838 3
 11561 006a FB68     		ldr	r3, [r7, #12]
 11562 006c 1800     		movs	r0, r3
 11563 006e FFF7FEFF 		bl	HAL_UART_AbortCpltCallback
 11564 0072 00E0     		b	.L478
 11565              	.L481:
3810:Drivers/STM32L0xx_HAL_Driver/Src/stm32l0xx_hal_uart.c ****     }
 11566              		.loc 1 3810 7
 11567 0074 C046     		nop
 11568              	.L478:
3839:Drivers/STM32L0xx_HAL_Driver/Src/stm32l0xx_hal_uart.c **** #endif /* USE_HAL_UART_REGISTER_CALLBACKS */
3840:Drivers/STM32L0xx_HAL_Driver/Src/stm32l0xx_hal_uart.c **** }
 11569              		.loc 1 3840 1
 11570 0076 BD46     		mov	sp, r7
 11571 0078 04B0     		add	sp, sp, #16
 11572              		@ sp needed
 11573 007a 80BD     		pop	{r7, pc}
 11574              		.cfi_endproc
 11575              	.LFE105:
 11577              		.section	.text.UART_DMATxOnlyAbortCallback,"ax",%progbits
 11578              		.align	1
 11579              		.syntax unified
 11580              		.code	16
ARM GAS  C:\Users\lidka\AppData\Local\Temp\ccqOATUZ.s 			page 282


 11581              		.thumb_func
 11583              	UART_DMATxOnlyAbortCallback:
 11584              	.LFB106:
3841:Drivers/STM32L0xx_HAL_Driver/Src/stm32l0xx_hal_uart.c **** 
3842:Drivers/STM32L0xx_HAL_Driver/Src/stm32l0xx_hal_uart.c **** 
3843:Drivers/STM32L0xx_HAL_Driver/Src/stm32l0xx_hal_uart.c **** /**
3844:Drivers/STM32L0xx_HAL_Driver/Src/stm32l0xx_hal_uart.c ****   * @brief  DMA UART Tx communication abort callback, when initiated by user by a call to
3845:Drivers/STM32L0xx_HAL_Driver/Src/stm32l0xx_hal_uart.c ****   *         HAL_UART_AbortTransmit_IT API (Abort only Tx transfer)
3846:Drivers/STM32L0xx_HAL_Driver/Src/stm32l0xx_hal_uart.c ****   *         (This callback is executed at end of DMA Tx Abort procedure following user abort reques
3847:Drivers/STM32L0xx_HAL_Driver/Src/stm32l0xx_hal_uart.c ****   *         and leads to user Tx Abort Complete callback execution).
3848:Drivers/STM32L0xx_HAL_Driver/Src/stm32l0xx_hal_uart.c ****   * @param  hdma DMA handle.
3849:Drivers/STM32L0xx_HAL_Driver/Src/stm32l0xx_hal_uart.c ****   * @retval None
3850:Drivers/STM32L0xx_HAL_Driver/Src/stm32l0xx_hal_uart.c ****   */
3851:Drivers/STM32L0xx_HAL_Driver/Src/stm32l0xx_hal_uart.c **** static void UART_DMATxOnlyAbortCallback(DMA_HandleTypeDef *hdma)
3852:Drivers/STM32L0xx_HAL_Driver/Src/stm32l0xx_hal_uart.c **** {
 11585              		.loc 1 3852 1
 11586              		.cfi_startproc
 11587              		@ args = 0, pretend = 0, frame = 16
 11588              		@ frame_needed = 1, uses_anonymous_args = 0
 11589 0000 80B5     		push	{r7, lr}
 11590              	.LCFI177:
 11591              		.cfi_def_cfa_offset 8
 11592              		.cfi_offset 7, -8
 11593              		.cfi_offset 14, -4
 11594 0002 84B0     		sub	sp, sp, #16
 11595              	.LCFI178:
 11596              		.cfi_def_cfa_offset 24
 11597 0004 00AF     		add	r7, sp, #0
 11598              	.LCFI179:
 11599              		.cfi_def_cfa_register 7
 11600 0006 7860     		str	r0, [r7, #4]
3853:Drivers/STM32L0xx_HAL_Driver/Src/stm32l0xx_hal_uart.c ****   UART_HandleTypeDef *huart = (UART_HandleTypeDef *)(hdma->Parent);
 11601              		.loc 1 3853 23
 11602 0008 7B68     		ldr	r3, [r7, #4]
 11603 000a 9B6A     		ldr	r3, [r3, #40]
 11604 000c FB60     		str	r3, [r7, #12]
3854:Drivers/STM32L0xx_HAL_Driver/Src/stm32l0xx_hal_uart.c **** 
3855:Drivers/STM32L0xx_HAL_Driver/Src/stm32l0xx_hal_uart.c ****   huart->TxXferCount = 0U;
 11605              		.loc 1 3855 22
 11606 000e FB68     		ldr	r3, [r7, #12]
 11607 0010 5222     		movs	r2, #82
 11608 0012 0021     		movs	r1, #0
 11609 0014 9952     		strh	r1, [r3, r2]
3856:Drivers/STM32L0xx_HAL_Driver/Src/stm32l0xx_hal_uart.c **** 
3857:Drivers/STM32L0xx_HAL_Driver/Src/stm32l0xx_hal_uart.c **** 
3858:Drivers/STM32L0xx_HAL_Driver/Src/stm32l0xx_hal_uart.c ****   /* Restore huart->gState to Ready */
3859:Drivers/STM32L0xx_HAL_Driver/Src/stm32l0xx_hal_uart.c ****   huart->gState = HAL_UART_STATE_READY;
 11610              		.loc 1 3859 17
 11611 0016 FB68     		ldr	r3, [r7, #12]
 11612 0018 2022     		movs	r2, #32
 11613 001a 9A67     		str	r2, [r3, #120]
3860:Drivers/STM32L0xx_HAL_Driver/Src/stm32l0xx_hal_uart.c **** 
3861:Drivers/STM32L0xx_HAL_Driver/Src/stm32l0xx_hal_uart.c ****   /* Call user Abort complete callback */
3862:Drivers/STM32L0xx_HAL_Driver/Src/stm32l0xx_hal_uart.c **** #if (USE_HAL_UART_REGISTER_CALLBACKS == 1)
3863:Drivers/STM32L0xx_HAL_Driver/Src/stm32l0xx_hal_uart.c ****   /* Call registered Abort Transmit Complete Callback */
3864:Drivers/STM32L0xx_HAL_Driver/Src/stm32l0xx_hal_uart.c ****   huart->AbortTransmitCpltCallback(huart);
3865:Drivers/STM32L0xx_HAL_Driver/Src/stm32l0xx_hal_uart.c **** #else
ARM GAS  C:\Users\lidka\AppData\Local\Temp\ccqOATUZ.s 			page 283


3866:Drivers/STM32L0xx_HAL_Driver/Src/stm32l0xx_hal_uart.c ****   /* Call legacy weak Abort Transmit Complete Callback */
3867:Drivers/STM32L0xx_HAL_Driver/Src/stm32l0xx_hal_uart.c ****   HAL_UART_AbortTransmitCpltCallback(huart);
 11614              		.loc 1 3867 3
 11615 001c FB68     		ldr	r3, [r7, #12]
 11616 001e 1800     		movs	r0, r3
 11617 0020 FFF7FEFF 		bl	HAL_UART_AbortTransmitCpltCallback
3868:Drivers/STM32L0xx_HAL_Driver/Src/stm32l0xx_hal_uart.c **** #endif /* USE_HAL_UART_REGISTER_CALLBACKS */
3869:Drivers/STM32L0xx_HAL_Driver/Src/stm32l0xx_hal_uart.c **** }
 11618              		.loc 1 3869 1
 11619 0024 C046     		nop
 11620 0026 BD46     		mov	sp, r7
 11621 0028 04B0     		add	sp, sp, #16
 11622              		@ sp needed
 11623 002a 80BD     		pop	{r7, pc}
 11624              		.cfi_endproc
 11625              	.LFE106:
 11627              		.section	.text.UART_DMARxOnlyAbortCallback,"ax",%progbits
 11628              		.align	1
 11629              		.syntax unified
 11630              		.code	16
 11631              		.thumb_func
 11633              	UART_DMARxOnlyAbortCallback:
 11634              	.LFB107:
3870:Drivers/STM32L0xx_HAL_Driver/Src/stm32l0xx_hal_uart.c **** 
3871:Drivers/STM32L0xx_HAL_Driver/Src/stm32l0xx_hal_uart.c **** /**
3872:Drivers/STM32L0xx_HAL_Driver/Src/stm32l0xx_hal_uart.c ****   * @brief  DMA UART Rx communication abort callback, when initiated by user by a call to
3873:Drivers/STM32L0xx_HAL_Driver/Src/stm32l0xx_hal_uart.c ****   *         HAL_UART_AbortReceive_IT API (Abort only Rx transfer)
3874:Drivers/STM32L0xx_HAL_Driver/Src/stm32l0xx_hal_uart.c ****   *         (This callback is executed at end of DMA Rx Abort procedure following user abort reques
3875:Drivers/STM32L0xx_HAL_Driver/Src/stm32l0xx_hal_uart.c ****   *         and leads to user Rx Abort Complete callback execution).
3876:Drivers/STM32L0xx_HAL_Driver/Src/stm32l0xx_hal_uart.c ****   * @param  hdma DMA handle.
3877:Drivers/STM32L0xx_HAL_Driver/Src/stm32l0xx_hal_uart.c ****   * @retval None
3878:Drivers/STM32L0xx_HAL_Driver/Src/stm32l0xx_hal_uart.c ****   */
3879:Drivers/STM32L0xx_HAL_Driver/Src/stm32l0xx_hal_uart.c **** static void UART_DMARxOnlyAbortCallback(DMA_HandleTypeDef *hdma)
3880:Drivers/STM32L0xx_HAL_Driver/Src/stm32l0xx_hal_uart.c **** {
 11635              		.loc 1 3880 1
 11636              		.cfi_startproc
 11637              		@ args = 0, pretend = 0, frame = 16
 11638              		@ frame_needed = 1, uses_anonymous_args = 0
 11639 0000 80B5     		push	{r7, lr}
 11640              	.LCFI180:
 11641              		.cfi_def_cfa_offset 8
 11642              		.cfi_offset 7, -8
 11643              		.cfi_offset 14, -4
 11644 0002 84B0     		sub	sp, sp, #16
 11645              	.LCFI181:
 11646              		.cfi_def_cfa_offset 24
 11647 0004 00AF     		add	r7, sp, #0
 11648              	.LCFI182:
 11649              		.cfi_def_cfa_register 7
 11650 0006 7860     		str	r0, [r7, #4]
3881:Drivers/STM32L0xx_HAL_Driver/Src/stm32l0xx_hal_uart.c ****   UART_HandleTypeDef *huart = (UART_HandleTypeDef *)((DMA_HandleTypeDef *)hdma)->Parent;
 11651              		.loc 1 3881 23
 11652 0008 7B68     		ldr	r3, [r7, #4]
 11653 000a 9B6A     		ldr	r3, [r3, #40]
 11654 000c FB60     		str	r3, [r7, #12]
3882:Drivers/STM32L0xx_HAL_Driver/Src/stm32l0xx_hal_uart.c **** 
3883:Drivers/STM32L0xx_HAL_Driver/Src/stm32l0xx_hal_uart.c ****   huart->RxXferCount = 0U;
ARM GAS  C:\Users\lidka\AppData\Local\Temp\ccqOATUZ.s 			page 284


 11655              		.loc 1 3883 22
 11656 000e FB68     		ldr	r3, [r7, #12]
 11657 0010 5A22     		movs	r2, #90
 11658 0012 0021     		movs	r1, #0
 11659 0014 9952     		strh	r1, [r3, r2]
3884:Drivers/STM32L0xx_HAL_Driver/Src/stm32l0xx_hal_uart.c **** 
3885:Drivers/STM32L0xx_HAL_Driver/Src/stm32l0xx_hal_uart.c ****   /* Clear the Error flags in the ICR register */
3886:Drivers/STM32L0xx_HAL_Driver/Src/stm32l0xx_hal_uart.c ****   __HAL_UART_CLEAR_FLAG(huart, UART_CLEAR_OREF | UART_CLEAR_NEF | UART_CLEAR_PEF | UART_CLEAR_FEF);
 11660              		.loc 1 3886 3
 11661 0016 FB68     		ldr	r3, [r7, #12]
 11662 0018 1B68     		ldr	r3, [r3]
 11663 001a 0F22     		movs	r2, #15
 11664 001c 1A62     		str	r2, [r3, #32]
3887:Drivers/STM32L0xx_HAL_Driver/Src/stm32l0xx_hal_uart.c **** 
3888:Drivers/STM32L0xx_HAL_Driver/Src/stm32l0xx_hal_uart.c ****   /* Discard the received data */
3889:Drivers/STM32L0xx_HAL_Driver/Src/stm32l0xx_hal_uart.c ****   __HAL_UART_SEND_REQ(huart, UART_RXDATA_FLUSH_REQUEST);
 11665              		.loc 1 3889 3
 11666 001e FB68     		ldr	r3, [r7, #12]
 11667 0020 1B68     		ldr	r3, [r3]
 11668 0022 9A69     		ldr	r2, [r3, #24]
 11669 0024 FB68     		ldr	r3, [r7, #12]
 11670 0026 1B68     		ldr	r3, [r3]
 11671 0028 0821     		movs	r1, #8
 11672 002a 0A43     		orrs	r2, r1
 11673 002c 9A61     		str	r2, [r3, #24]
3890:Drivers/STM32L0xx_HAL_Driver/Src/stm32l0xx_hal_uart.c **** 
3891:Drivers/STM32L0xx_HAL_Driver/Src/stm32l0xx_hal_uart.c ****   /* Restore huart->RxState to Ready */
3892:Drivers/STM32L0xx_HAL_Driver/Src/stm32l0xx_hal_uart.c ****   huart->RxState = HAL_UART_STATE_READY;
 11674              		.loc 1 3892 18
 11675 002e FB68     		ldr	r3, [r7, #12]
 11676 0030 2022     		movs	r2, #32
 11677 0032 DA67     		str	r2, [r3, #124]
3893:Drivers/STM32L0xx_HAL_Driver/Src/stm32l0xx_hal_uart.c ****   huart->ReceptionType = HAL_UART_RECEPTION_STANDARD;
 11678              		.loc 1 3893 24
 11679 0034 FB68     		ldr	r3, [r7, #12]
 11680 0036 0022     		movs	r2, #0
 11681 0038 1A66     		str	r2, [r3, #96]
3894:Drivers/STM32L0xx_HAL_Driver/Src/stm32l0xx_hal_uart.c **** 
3895:Drivers/STM32L0xx_HAL_Driver/Src/stm32l0xx_hal_uart.c ****   /* Call user Abort complete callback */
3896:Drivers/STM32L0xx_HAL_Driver/Src/stm32l0xx_hal_uart.c **** #if (USE_HAL_UART_REGISTER_CALLBACKS == 1)
3897:Drivers/STM32L0xx_HAL_Driver/Src/stm32l0xx_hal_uart.c ****   /* Call registered Abort Receive Complete Callback */
3898:Drivers/STM32L0xx_HAL_Driver/Src/stm32l0xx_hal_uart.c ****   huart->AbortReceiveCpltCallback(huart);
3899:Drivers/STM32L0xx_HAL_Driver/Src/stm32l0xx_hal_uart.c **** #else
3900:Drivers/STM32L0xx_HAL_Driver/Src/stm32l0xx_hal_uart.c ****   /* Call legacy weak Abort Receive Complete Callback */
3901:Drivers/STM32L0xx_HAL_Driver/Src/stm32l0xx_hal_uart.c ****   HAL_UART_AbortReceiveCpltCallback(huart);
 11682              		.loc 1 3901 3
 11683 003a FB68     		ldr	r3, [r7, #12]
 11684 003c 1800     		movs	r0, r3
 11685 003e FFF7FEFF 		bl	HAL_UART_AbortReceiveCpltCallback
3902:Drivers/STM32L0xx_HAL_Driver/Src/stm32l0xx_hal_uart.c **** #endif /* USE_HAL_UART_REGISTER_CALLBACKS */
3903:Drivers/STM32L0xx_HAL_Driver/Src/stm32l0xx_hal_uart.c **** }
 11686              		.loc 1 3903 1
 11687 0042 C046     		nop
 11688 0044 BD46     		mov	sp, r7
 11689 0046 04B0     		add	sp, sp, #16
 11690              		@ sp needed
 11691 0048 80BD     		pop	{r7, pc}
ARM GAS  C:\Users\lidka\AppData\Local\Temp\ccqOATUZ.s 			page 285


 11692              		.cfi_endproc
 11693              	.LFE107:
 11695              		.section	.text.UART_TxISR_8BIT,"ax",%progbits
 11696              		.align	1
 11697              		.syntax unified
 11698              		.code	16
 11699              		.thumb_func
 11701              	UART_TxISR_8BIT:
 11702              	.LFB108:
3904:Drivers/STM32L0xx_HAL_Driver/Src/stm32l0xx_hal_uart.c **** 
3905:Drivers/STM32L0xx_HAL_Driver/Src/stm32l0xx_hal_uart.c **** /**
3906:Drivers/STM32L0xx_HAL_Driver/Src/stm32l0xx_hal_uart.c ****   * @brief TX interrupt handler for 7 or 8 bits data word length .
3907:Drivers/STM32L0xx_HAL_Driver/Src/stm32l0xx_hal_uart.c ****   * @note   Function is called under interruption only, once
3908:Drivers/STM32L0xx_HAL_Driver/Src/stm32l0xx_hal_uart.c ****   *         interruptions have been enabled by HAL_UART_Transmit_IT().
3909:Drivers/STM32L0xx_HAL_Driver/Src/stm32l0xx_hal_uart.c ****   * @param huart UART handle.
3910:Drivers/STM32L0xx_HAL_Driver/Src/stm32l0xx_hal_uart.c ****   * @retval None
3911:Drivers/STM32L0xx_HAL_Driver/Src/stm32l0xx_hal_uart.c ****   */
3912:Drivers/STM32L0xx_HAL_Driver/Src/stm32l0xx_hal_uart.c **** static void UART_TxISR_8BIT(UART_HandleTypeDef *huart)
3913:Drivers/STM32L0xx_HAL_Driver/Src/stm32l0xx_hal_uart.c **** {
 11703              		.loc 1 3913 1
 11704              		.cfi_startproc
 11705              		@ args = 0, pretend = 0, frame = 40
 11706              		@ frame_needed = 1, uses_anonymous_args = 0
 11707 0000 80B5     		push	{r7, lr}
 11708              	.LCFI183:
 11709              		.cfi_def_cfa_offset 8
 11710              		.cfi_offset 7, -8
 11711              		.cfi_offset 14, -4
 11712 0002 8AB0     		sub	sp, sp, #40
 11713              	.LCFI184:
 11714              		.cfi_def_cfa_offset 48
 11715 0004 00AF     		add	r7, sp, #0
 11716              	.LCFI185:
 11717              		.cfi_def_cfa_register 7
 11718 0006 7860     		str	r0, [r7, #4]
3914:Drivers/STM32L0xx_HAL_Driver/Src/stm32l0xx_hal_uart.c ****   /* Check that a Tx process is ongoing */
3915:Drivers/STM32L0xx_HAL_Driver/Src/stm32l0xx_hal_uart.c ****   if (huart->gState == HAL_UART_STATE_BUSY_TX)
 11719              		.loc 1 3915 12
 11720 0008 7B68     		ldr	r3, [r7, #4]
 11721 000a 9B6F     		ldr	r3, [r3, #120]
 11722              		.loc 1 3915 6
 11723 000c 212B     		cmp	r3, #33
 11724 000e 4CD1     		bne	.L489
3916:Drivers/STM32L0xx_HAL_Driver/Src/stm32l0xx_hal_uart.c ****   {
3917:Drivers/STM32L0xx_HAL_Driver/Src/stm32l0xx_hal_uart.c ****     if (huart->TxXferCount == 0U)
 11725              		.loc 1 3917 14
 11726 0010 7B68     		ldr	r3, [r7, #4]
 11727 0012 5222     		movs	r2, #82
 11728 0014 9B5A     		ldrh	r3, [r3, r2]
 11729 0016 9BB2     		uxth	r3, r3
 11730              		.loc 1 3917 8
 11731 0018 002B     		cmp	r3, #0
 11732 001a 32D1     		bne	.L486
 11733              	.LBB1051:
 11734              	.LBB1052:
 11735              	.LBB1053:
 386:Drivers/CMSIS/Include/cmsis_gcc.h ****   return(result);
ARM GAS  C:\Users\lidka\AppData\Local\Temp\ccqOATUZ.s 			page 286


 11736              		.loc 2 386 3
 11737              		.syntax divided
 11738              	@ 386 "Drivers/CMSIS/Include/cmsis_gcc.h" 1
 11739 001c EFF31083 		MRS r3, primask
 11740              	@ 0 "" 2
 11741              		.thumb
 11742              		.syntax unified
 11743 0020 BB60     		str	r3, [r7, #8]
 387:Drivers/CMSIS/Include/cmsis_gcc.h **** }
 11744              		.loc 2 387 9
 11745 0022 BB68     		ldr	r3, [r7, #8]
 11746              	.LBE1053:
 11747              	.LBE1052:
3918:Drivers/STM32L0xx_HAL_Driver/Src/stm32l0xx_hal_uart.c ****     {
3919:Drivers/STM32L0xx_HAL_Driver/Src/stm32l0xx_hal_uart.c ****       /* Disable the UART Transmit Data Register Empty Interrupt */
3920:Drivers/STM32L0xx_HAL_Driver/Src/stm32l0xx_hal_uart.c ****       ATOMIC_CLEAR_BIT(huart->Instance->CR1, USART_CR1_TXEIE);
 11748              		.loc 1 3920 7
 11749 0024 7B62     		str	r3, [r7, #36]
 11750 0026 0123     		movs	r3, #1
 11751 0028 FB60     		str	r3, [r7, #12]
 11752              	.LBB1054:
 11753              	.LBB1055:
 414:Drivers/CMSIS/Include/cmsis_gcc.h **** }
 11754              		.loc 2 414 3
 11755 002a FB68     		ldr	r3, [r7, #12]
 11756              		.syntax divided
 11757              	@ 414 "Drivers/CMSIS/Include/cmsis_gcc.h" 1
 11758 002c 83F31088 		MSR primask, r3
 11759              	@ 0 "" 2
 11760              		.loc 2 415 1
 11761              		.thumb
 11762              		.syntax unified
 11763 0030 C046     		nop
 11764              	.LBE1055:
 11765              	.LBE1054:
 11766              		.loc 1 3920 7
 11767 0032 7B68     		ldr	r3, [r7, #4]
 11768 0034 1B68     		ldr	r3, [r3]
 11769 0036 1A68     		ldr	r2, [r3]
 11770 0038 7B68     		ldr	r3, [r7, #4]
 11771 003a 1B68     		ldr	r3, [r3]
 11772 003c 8021     		movs	r1, #128
 11773 003e 8A43     		bics	r2, r1
 11774 0040 1A60     		str	r2, [r3]
 11775 0042 7B6A     		ldr	r3, [r7, #36]
 11776 0044 3B61     		str	r3, [r7, #16]
 11777              	.LBB1056:
 11778              	.LBB1057:
 414:Drivers/CMSIS/Include/cmsis_gcc.h **** }
 11779              		.loc 2 414 3
 11780 0046 3B69     		ldr	r3, [r7, #16]
 11781              		.syntax divided
 11782              	@ 414 "Drivers/CMSIS/Include/cmsis_gcc.h" 1
 11783 0048 83F31088 		MSR primask, r3
 11784              	@ 0 "" 2
 11785              		.loc 2 415 1
 11786              		.thumb
ARM GAS  C:\Users\lidka\AppData\Local\Temp\ccqOATUZ.s 			page 287


 11787              		.syntax unified
 11788 004c C046     		nop
 11789              	.LBE1057:
 11790              	.LBE1056:
 11791              	.LBE1051:
 11792              	.LBB1058:
 11793              	.LBB1059:
 11794              	.LBB1060:
 386:Drivers/CMSIS/Include/cmsis_gcc.h ****   return(result);
 11795              		.loc 2 386 3
 11796              		.syntax divided
 11797              	@ 386 "Drivers/CMSIS/Include/cmsis_gcc.h" 1
 11798 004e EFF31083 		MRS r3, primask
 11799              	@ 0 "" 2
 11800              		.thumb
 11801              		.syntax unified
 11802 0052 7B61     		str	r3, [r7, #20]
 387:Drivers/CMSIS/Include/cmsis_gcc.h **** }
 11803              		.loc 2 387 9
 11804 0054 7B69     		ldr	r3, [r7, #20]
 11805              	.LBE1060:
 11806              	.LBE1059:
3921:Drivers/STM32L0xx_HAL_Driver/Src/stm32l0xx_hal_uart.c **** 
3922:Drivers/STM32L0xx_HAL_Driver/Src/stm32l0xx_hal_uart.c ****       /* Enable the UART Transmit Complete Interrupt */
3923:Drivers/STM32L0xx_HAL_Driver/Src/stm32l0xx_hal_uart.c ****       ATOMIC_SET_BIT(huart->Instance->CR1, USART_CR1_TCIE);
 11807              		.loc 1 3923 7
 11808 0056 3B62     		str	r3, [r7, #32]
 11809 0058 0123     		movs	r3, #1
 11810 005a BB61     		str	r3, [r7, #24]
 11811              	.LBB1061:
 11812              	.LBB1062:
 414:Drivers/CMSIS/Include/cmsis_gcc.h **** }
 11813              		.loc 2 414 3
 11814 005c BB69     		ldr	r3, [r7, #24]
 11815              		.syntax divided
 11816              	@ 414 "Drivers/CMSIS/Include/cmsis_gcc.h" 1
 11817 005e 83F31088 		MSR primask, r3
 11818              	@ 0 "" 2
 11819              		.loc 2 415 1
 11820              		.thumb
 11821              		.syntax unified
 11822 0062 C046     		nop
 11823              	.LBE1062:
 11824              	.LBE1061:
 11825              		.loc 1 3923 7
 11826 0064 7B68     		ldr	r3, [r7, #4]
 11827 0066 1B68     		ldr	r3, [r3]
 11828 0068 1A68     		ldr	r2, [r3]
 11829 006a 7B68     		ldr	r3, [r7, #4]
 11830 006c 1B68     		ldr	r3, [r3]
 11831 006e 4021     		movs	r1, #64
 11832 0070 0A43     		orrs	r2, r1
 11833 0072 1A60     		str	r2, [r3]
 11834 0074 3B6A     		ldr	r3, [r7, #32]
 11835 0076 FB61     		str	r3, [r7, #28]
 11836              	.LBB1063:
 11837              	.LBB1064:
ARM GAS  C:\Users\lidka\AppData\Local\Temp\ccqOATUZ.s 			page 288


 414:Drivers/CMSIS/Include/cmsis_gcc.h **** }
 11838              		.loc 2 414 3
 11839 0078 FB69     		ldr	r3, [r7, #28]
 11840              		.syntax divided
 11841              	@ 414 "Drivers/CMSIS/Include/cmsis_gcc.h" 1
 11842 007a 83F31088 		MSR primask, r3
 11843              	@ 0 "" 2
 11844              		.loc 2 415 1
 11845              		.thumb
 11846              		.syntax unified
 11847 007e C046     		nop
 11848              	.LBE1064:
 11849              	.LBE1063:
 11850              	.LBE1058:
3924:Drivers/STM32L0xx_HAL_Driver/Src/stm32l0xx_hal_uart.c ****     }
3925:Drivers/STM32L0xx_HAL_Driver/Src/stm32l0xx_hal_uart.c ****     else
3926:Drivers/STM32L0xx_HAL_Driver/Src/stm32l0xx_hal_uart.c ****     {
3927:Drivers/STM32L0xx_HAL_Driver/Src/stm32l0xx_hal_uart.c ****       huart->Instance->TDR = (uint8_t)(*huart->pTxBuffPtr & (uint8_t)0xFF);
3928:Drivers/STM32L0xx_HAL_Driver/Src/stm32l0xx_hal_uart.c ****       huart->pTxBuffPtr++;
3929:Drivers/STM32L0xx_HAL_Driver/Src/stm32l0xx_hal_uart.c ****       huart->TxXferCount--;
3930:Drivers/STM32L0xx_HAL_Driver/Src/stm32l0xx_hal_uart.c ****     }
3931:Drivers/STM32L0xx_HAL_Driver/Src/stm32l0xx_hal_uart.c ****   }
3932:Drivers/STM32L0xx_HAL_Driver/Src/stm32l0xx_hal_uart.c **** }
 11851              		.loc 1 3932 1
 11852 0080 13E0     		b	.L489
 11853              	.L486:
3927:Drivers/STM32L0xx_HAL_Driver/Src/stm32l0xx_hal_uart.c ****       huart->pTxBuffPtr++;
 11854              		.loc 1 3927 46
 11855 0082 7B68     		ldr	r3, [r7, #4]
 11856 0084 DB6C     		ldr	r3, [r3, #76]
3927:Drivers/STM32L0xx_HAL_Driver/Src/stm32l0xx_hal_uart.c ****       huart->pTxBuffPtr++;
 11857              		.loc 1 3927 40
 11858 0086 1A78     		ldrb	r2, [r3]
3927:Drivers/STM32L0xx_HAL_Driver/Src/stm32l0xx_hal_uart.c ****       huart->pTxBuffPtr++;
 11859              		.loc 1 3927 12
 11860 0088 7B68     		ldr	r3, [r7, #4]
 11861 008a 1B68     		ldr	r3, [r3]
3927:Drivers/STM32L0xx_HAL_Driver/Src/stm32l0xx_hal_uart.c ****       huart->pTxBuffPtr++;
 11862              		.loc 1 3927 28
 11863 008c 9A62     		str	r2, [r3, #40]
3928:Drivers/STM32L0xx_HAL_Driver/Src/stm32l0xx_hal_uart.c ****       huart->TxXferCount--;
 11864              		.loc 1 3928 12
 11865 008e 7B68     		ldr	r3, [r7, #4]
 11866 0090 DB6C     		ldr	r3, [r3, #76]
3928:Drivers/STM32L0xx_HAL_Driver/Src/stm32l0xx_hal_uart.c ****       huart->TxXferCount--;
 11867              		.loc 1 3928 24
 11868 0092 5A1C     		adds	r2, r3, #1
 11869 0094 7B68     		ldr	r3, [r7, #4]
 11870 0096 DA64     		str	r2, [r3, #76]
3929:Drivers/STM32L0xx_HAL_Driver/Src/stm32l0xx_hal_uart.c ****     }
 11871              		.loc 1 3929 12
 11872 0098 7B68     		ldr	r3, [r7, #4]
 11873 009a 5222     		movs	r2, #82
 11874 009c 9B5A     		ldrh	r3, [r3, r2]
 11875 009e 9BB2     		uxth	r3, r3
3929:Drivers/STM32L0xx_HAL_Driver/Src/stm32l0xx_hal_uart.c ****     }
 11876              		.loc 1 3929 25
ARM GAS  C:\Users\lidka\AppData\Local\Temp\ccqOATUZ.s 			page 289


 11877 00a0 013B     		subs	r3, r3, #1
 11878 00a2 99B2     		uxth	r1, r3
 11879 00a4 7B68     		ldr	r3, [r7, #4]
 11880 00a6 5222     		movs	r2, #82
 11881 00a8 9952     		strh	r1, [r3, r2]
 11882              	.L489:
 11883              		.loc 1 3932 1
 11884 00aa C046     		nop
 11885 00ac BD46     		mov	sp, r7
 11886 00ae 0AB0     		add	sp, sp, #40
 11887              		@ sp needed
 11888 00b0 80BD     		pop	{r7, pc}
 11889              		.cfi_endproc
 11890              	.LFE108:
 11892              		.section	.text.UART_TxISR_16BIT,"ax",%progbits
 11893              		.align	1
 11894              		.syntax unified
 11895              		.code	16
 11896              		.thumb_func
 11898              	UART_TxISR_16BIT:
 11899              	.LFB109:
3933:Drivers/STM32L0xx_HAL_Driver/Src/stm32l0xx_hal_uart.c **** 
3934:Drivers/STM32L0xx_HAL_Driver/Src/stm32l0xx_hal_uart.c **** /**
3935:Drivers/STM32L0xx_HAL_Driver/Src/stm32l0xx_hal_uart.c ****   * @brief TX interrupt handler for 9 bits data word length.
3936:Drivers/STM32L0xx_HAL_Driver/Src/stm32l0xx_hal_uart.c ****   * @note   Function is called under interruption only, once
3937:Drivers/STM32L0xx_HAL_Driver/Src/stm32l0xx_hal_uart.c ****   *         interruptions have been enabled by HAL_UART_Transmit_IT().
3938:Drivers/STM32L0xx_HAL_Driver/Src/stm32l0xx_hal_uart.c ****   * @param huart UART handle.
3939:Drivers/STM32L0xx_HAL_Driver/Src/stm32l0xx_hal_uart.c ****   * @retval None
3940:Drivers/STM32L0xx_HAL_Driver/Src/stm32l0xx_hal_uart.c ****   */
3941:Drivers/STM32L0xx_HAL_Driver/Src/stm32l0xx_hal_uart.c **** static void UART_TxISR_16BIT(UART_HandleTypeDef *huart)
3942:Drivers/STM32L0xx_HAL_Driver/Src/stm32l0xx_hal_uart.c **** {
 11900              		.loc 1 3942 1
 11901              		.cfi_startproc
 11902              		@ args = 0, pretend = 0, frame = 48
 11903              		@ frame_needed = 1, uses_anonymous_args = 0
 11904 0000 80B5     		push	{r7, lr}
 11905              	.LCFI186:
 11906              		.cfi_def_cfa_offset 8
 11907              		.cfi_offset 7, -8
 11908              		.cfi_offset 14, -4
 11909 0002 8CB0     		sub	sp, sp, #48
 11910              	.LCFI187:
 11911              		.cfi_def_cfa_offset 56
 11912 0004 00AF     		add	r7, sp, #0
 11913              	.LCFI188:
 11914              		.cfi_def_cfa_register 7
 11915 0006 7860     		str	r0, [r7, #4]
3943:Drivers/STM32L0xx_HAL_Driver/Src/stm32l0xx_hal_uart.c ****   uint16_t *tmp;
3944:Drivers/STM32L0xx_HAL_Driver/Src/stm32l0xx_hal_uart.c **** 
3945:Drivers/STM32L0xx_HAL_Driver/Src/stm32l0xx_hal_uart.c ****   /* Check that a Tx process is ongoing */
3946:Drivers/STM32L0xx_HAL_Driver/Src/stm32l0xx_hal_uart.c ****   if (huart->gState == HAL_UART_STATE_BUSY_TX)
 11916              		.loc 1 3946 12
 11917 0008 7B68     		ldr	r3, [r7, #4]
 11918 000a 9B6F     		ldr	r3, [r3, #120]
 11919              		.loc 1 3946 6
 11920 000c 212B     		cmp	r3, #33
 11921 000e 51D1     		bne	.L495
ARM GAS  C:\Users\lidka\AppData\Local\Temp\ccqOATUZ.s 			page 290


3947:Drivers/STM32L0xx_HAL_Driver/Src/stm32l0xx_hal_uart.c ****   {
3948:Drivers/STM32L0xx_HAL_Driver/Src/stm32l0xx_hal_uart.c ****     if (huart->TxXferCount == 0U)
 11922              		.loc 1 3948 14
 11923 0010 7B68     		ldr	r3, [r7, #4]
 11924 0012 5222     		movs	r2, #82
 11925 0014 9B5A     		ldrh	r3, [r3, r2]
 11926 0016 9BB2     		uxth	r3, r3
 11927              		.loc 1 3948 8
 11928 0018 002B     		cmp	r3, #0
 11929 001a 32D1     		bne	.L492
 11930              	.LBB1065:
 11931              	.LBB1066:
 11932              	.LBB1067:
 386:Drivers/CMSIS/Include/cmsis_gcc.h ****   return(result);
 11933              		.loc 2 386 3
 11934              		.syntax divided
 11935              	@ 386 "Drivers/CMSIS/Include/cmsis_gcc.h" 1
 11936 001c EFF31083 		MRS r3, primask
 11937              	@ 0 "" 2
 11938              		.thumb
 11939              		.syntax unified
 11940 0020 FB60     		str	r3, [r7, #12]
 387:Drivers/CMSIS/Include/cmsis_gcc.h **** }
 11941              		.loc 2 387 9
 11942 0022 FB68     		ldr	r3, [r7, #12]
 11943              	.LBE1067:
 11944              	.LBE1066:
3949:Drivers/STM32L0xx_HAL_Driver/Src/stm32l0xx_hal_uart.c ****     {
3950:Drivers/STM32L0xx_HAL_Driver/Src/stm32l0xx_hal_uart.c ****       /* Disable the UART Transmit Data Register Empty Interrupt */
3951:Drivers/STM32L0xx_HAL_Driver/Src/stm32l0xx_hal_uart.c ****       ATOMIC_CLEAR_BIT(huart->Instance->CR1, USART_CR1_TXEIE);
 11945              		.loc 1 3951 7
 11946 0024 BB62     		str	r3, [r7, #40]
 11947 0026 0123     		movs	r3, #1
 11948 0028 3B61     		str	r3, [r7, #16]
 11949              	.LBB1068:
 11950              	.LBB1069:
 414:Drivers/CMSIS/Include/cmsis_gcc.h **** }
 11951              		.loc 2 414 3
 11952 002a 3B69     		ldr	r3, [r7, #16]
 11953              		.syntax divided
 11954              	@ 414 "Drivers/CMSIS/Include/cmsis_gcc.h" 1
 11955 002c 83F31088 		MSR primask, r3
 11956              	@ 0 "" 2
 11957              		.loc 2 415 1
 11958              		.thumb
 11959              		.syntax unified
 11960 0030 C046     		nop
 11961              	.LBE1069:
 11962              	.LBE1068:
 11963              		.loc 1 3951 7
 11964 0032 7B68     		ldr	r3, [r7, #4]
 11965 0034 1B68     		ldr	r3, [r3]
 11966 0036 1A68     		ldr	r2, [r3]
 11967 0038 7B68     		ldr	r3, [r7, #4]
 11968 003a 1B68     		ldr	r3, [r3]
 11969 003c 8021     		movs	r1, #128
 11970 003e 8A43     		bics	r2, r1
ARM GAS  C:\Users\lidka\AppData\Local\Temp\ccqOATUZ.s 			page 291


 11971 0040 1A60     		str	r2, [r3]
 11972 0042 BB6A     		ldr	r3, [r7, #40]
 11973 0044 7B61     		str	r3, [r7, #20]
 11974              	.LBB1070:
 11975              	.LBB1071:
 414:Drivers/CMSIS/Include/cmsis_gcc.h **** }
 11976              		.loc 2 414 3
 11977 0046 7B69     		ldr	r3, [r7, #20]
 11978              		.syntax divided
 11979              	@ 414 "Drivers/CMSIS/Include/cmsis_gcc.h" 1
 11980 0048 83F31088 		MSR primask, r3
 11981              	@ 0 "" 2
 11982              		.loc 2 415 1
 11983              		.thumb
 11984              		.syntax unified
 11985 004c C046     		nop
 11986              	.LBE1071:
 11987              	.LBE1070:
 11988              	.LBE1065:
 11989              	.LBB1072:
 11990              	.LBB1073:
 11991              	.LBB1074:
 386:Drivers/CMSIS/Include/cmsis_gcc.h ****   return(result);
 11992              		.loc 2 386 3
 11993              		.syntax divided
 11994              	@ 386 "Drivers/CMSIS/Include/cmsis_gcc.h" 1
 11995 004e EFF31083 		MRS r3, primask
 11996              	@ 0 "" 2
 11997              		.thumb
 11998              		.syntax unified
 11999 0052 BB61     		str	r3, [r7, #24]
 387:Drivers/CMSIS/Include/cmsis_gcc.h **** }
 12000              		.loc 2 387 9
 12001 0054 BB69     		ldr	r3, [r7, #24]
 12002              	.LBE1074:
 12003              	.LBE1073:
3952:Drivers/STM32L0xx_HAL_Driver/Src/stm32l0xx_hal_uart.c **** 
3953:Drivers/STM32L0xx_HAL_Driver/Src/stm32l0xx_hal_uart.c ****       /* Enable the UART Transmit Complete Interrupt */
3954:Drivers/STM32L0xx_HAL_Driver/Src/stm32l0xx_hal_uart.c ****       ATOMIC_SET_BIT(huart->Instance->CR1, USART_CR1_TCIE);
 12004              		.loc 1 3954 7
 12005 0056 7B62     		str	r3, [r7, #36]
 12006 0058 0123     		movs	r3, #1
 12007 005a FB61     		str	r3, [r7, #28]
 12008              	.LBB1075:
 12009              	.LBB1076:
 414:Drivers/CMSIS/Include/cmsis_gcc.h **** }
 12010              		.loc 2 414 3
 12011 005c FB69     		ldr	r3, [r7, #28]
 12012              		.syntax divided
 12013              	@ 414 "Drivers/CMSIS/Include/cmsis_gcc.h" 1
 12014 005e 83F31088 		MSR primask, r3
 12015              	@ 0 "" 2
 12016              		.loc 2 415 1
 12017              		.thumb
 12018              		.syntax unified
 12019 0062 C046     		nop
 12020              	.LBE1076:
ARM GAS  C:\Users\lidka\AppData\Local\Temp\ccqOATUZ.s 			page 292


 12021              	.LBE1075:
 12022              		.loc 1 3954 7
 12023 0064 7B68     		ldr	r3, [r7, #4]
 12024 0066 1B68     		ldr	r3, [r3]
 12025 0068 1A68     		ldr	r2, [r3]
 12026 006a 7B68     		ldr	r3, [r7, #4]
 12027 006c 1B68     		ldr	r3, [r3]
 12028 006e 4021     		movs	r1, #64
 12029 0070 0A43     		orrs	r2, r1
 12030 0072 1A60     		str	r2, [r3]
 12031 0074 7B6A     		ldr	r3, [r7, #36]
 12032 0076 3B62     		str	r3, [r7, #32]
 12033              	.LBB1077:
 12034              	.LBB1078:
 414:Drivers/CMSIS/Include/cmsis_gcc.h **** }
 12035              		.loc 2 414 3
 12036 0078 3B6A     		ldr	r3, [r7, #32]
 12037              		.syntax divided
 12038              	@ 414 "Drivers/CMSIS/Include/cmsis_gcc.h" 1
 12039 007a 83F31088 		MSR primask, r3
 12040              	@ 0 "" 2
 12041              		.loc 2 415 1
 12042              		.thumb
 12043              		.syntax unified
 12044 007e C046     		nop
 12045              	.LBE1078:
 12046              	.LBE1077:
 12047              	.LBE1072:
3955:Drivers/STM32L0xx_HAL_Driver/Src/stm32l0xx_hal_uart.c ****     }
3956:Drivers/STM32L0xx_HAL_Driver/Src/stm32l0xx_hal_uart.c ****     else
3957:Drivers/STM32L0xx_HAL_Driver/Src/stm32l0xx_hal_uart.c ****     {
3958:Drivers/STM32L0xx_HAL_Driver/Src/stm32l0xx_hal_uart.c ****       tmp = (uint16_t *) huart->pTxBuffPtr;
3959:Drivers/STM32L0xx_HAL_Driver/Src/stm32l0xx_hal_uart.c ****       huart->Instance->TDR = (((uint32_t)(*tmp)) & 0x01FFUL);
3960:Drivers/STM32L0xx_HAL_Driver/Src/stm32l0xx_hal_uart.c ****       huart->pTxBuffPtr += 2U;
3961:Drivers/STM32L0xx_HAL_Driver/Src/stm32l0xx_hal_uart.c ****       huart->TxXferCount--;
3962:Drivers/STM32L0xx_HAL_Driver/Src/stm32l0xx_hal_uart.c ****     }
3963:Drivers/STM32L0xx_HAL_Driver/Src/stm32l0xx_hal_uart.c ****   }
3964:Drivers/STM32L0xx_HAL_Driver/Src/stm32l0xx_hal_uart.c **** }
 12048              		.loc 1 3964 1
 12049 0080 18E0     		b	.L495
 12050              	.L492:
3958:Drivers/STM32L0xx_HAL_Driver/Src/stm32l0xx_hal_uart.c ****       huart->Instance->TDR = (((uint32_t)(*tmp)) & 0x01FFUL);
 12051              		.loc 1 3958 11
 12052 0082 7B68     		ldr	r3, [r7, #4]
 12053 0084 DB6C     		ldr	r3, [r3, #76]
 12054 0086 FB62     		str	r3, [r7, #44]
3959:Drivers/STM32L0xx_HAL_Driver/Src/stm32l0xx_hal_uart.c ****       huart->pTxBuffPtr += 2U;
 12055              		.loc 1 3959 43
 12056 0088 FB6A     		ldr	r3, [r7, #44]
 12057 008a 1B88     		ldrh	r3, [r3]
3959:Drivers/STM32L0xx_HAL_Driver/Src/stm32l0xx_hal_uart.c ****       huart->pTxBuffPtr += 2U;
 12058              		.loc 1 3959 50
 12059 008c 1A00     		movs	r2, r3
3959:Drivers/STM32L0xx_HAL_Driver/Src/stm32l0xx_hal_uart.c ****       huart->pTxBuffPtr += 2U;
 12060              		.loc 1 3959 12
 12061 008e 7B68     		ldr	r3, [r7, #4]
 12062 0090 1B68     		ldr	r3, [r3]
ARM GAS  C:\Users\lidka\AppData\Local\Temp\ccqOATUZ.s 			page 293


3959:Drivers/STM32L0xx_HAL_Driver/Src/stm32l0xx_hal_uart.c ****       huart->pTxBuffPtr += 2U;
 12063              		.loc 1 3959 50
 12064 0092 D205     		lsls	r2, r2, #23
 12065 0094 D20D     		lsrs	r2, r2, #23
3959:Drivers/STM32L0xx_HAL_Driver/Src/stm32l0xx_hal_uart.c ****       huart->pTxBuffPtr += 2U;
 12066              		.loc 1 3959 28
 12067 0096 9A62     		str	r2, [r3, #40]
3960:Drivers/STM32L0xx_HAL_Driver/Src/stm32l0xx_hal_uart.c ****       huart->TxXferCount--;
 12068              		.loc 1 3960 25
 12069 0098 7B68     		ldr	r3, [r7, #4]
 12070 009a DB6C     		ldr	r3, [r3, #76]
 12071 009c 9A1C     		adds	r2, r3, #2
 12072 009e 7B68     		ldr	r3, [r7, #4]
 12073 00a0 DA64     		str	r2, [r3, #76]
3961:Drivers/STM32L0xx_HAL_Driver/Src/stm32l0xx_hal_uart.c ****     }
 12074              		.loc 1 3961 12
 12075 00a2 7B68     		ldr	r3, [r7, #4]
 12076 00a4 5222     		movs	r2, #82
 12077 00a6 9B5A     		ldrh	r3, [r3, r2]
 12078 00a8 9BB2     		uxth	r3, r3
3961:Drivers/STM32L0xx_HAL_Driver/Src/stm32l0xx_hal_uart.c ****     }
 12079              		.loc 1 3961 25
 12080 00aa 013B     		subs	r3, r3, #1
 12081 00ac 99B2     		uxth	r1, r3
 12082 00ae 7B68     		ldr	r3, [r7, #4]
 12083 00b0 5222     		movs	r2, #82
 12084 00b2 9952     		strh	r1, [r3, r2]
 12085              	.L495:
 12086              		.loc 1 3964 1
 12087 00b4 C046     		nop
 12088 00b6 BD46     		mov	sp, r7
 12089 00b8 0CB0     		add	sp, sp, #48
 12090              		@ sp needed
 12091 00ba 80BD     		pop	{r7, pc}
 12092              		.cfi_endproc
 12093              	.LFE109:
 12095              		.section	.text.UART_EndTransmit_IT,"ax",%progbits
 12096              		.align	1
 12097              		.syntax unified
 12098              		.code	16
 12099              		.thumb_func
 12101              	UART_EndTransmit_IT:
 12102              	.LFB110:
3965:Drivers/STM32L0xx_HAL_Driver/Src/stm32l0xx_hal_uart.c **** 
3966:Drivers/STM32L0xx_HAL_Driver/Src/stm32l0xx_hal_uart.c **** 
3967:Drivers/STM32L0xx_HAL_Driver/Src/stm32l0xx_hal_uart.c **** /**
3968:Drivers/STM32L0xx_HAL_Driver/Src/stm32l0xx_hal_uart.c ****   * @brief  Wrap up transmission in non-blocking mode.
3969:Drivers/STM32L0xx_HAL_Driver/Src/stm32l0xx_hal_uart.c ****   * @param  huart pointer to a UART_HandleTypeDef structure that contains
3970:Drivers/STM32L0xx_HAL_Driver/Src/stm32l0xx_hal_uart.c ****   *                the configuration information for the specified UART module.
3971:Drivers/STM32L0xx_HAL_Driver/Src/stm32l0xx_hal_uart.c ****   * @retval None
3972:Drivers/STM32L0xx_HAL_Driver/Src/stm32l0xx_hal_uart.c ****   */
3973:Drivers/STM32L0xx_HAL_Driver/Src/stm32l0xx_hal_uart.c **** static void UART_EndTransmit_IT(UART_HandleTypeDef *huart)
3974:Drivers/STM32L0xx_HAL_Driver/Src/stm32l0xx_hal_uart.c **** {
 12103              		.loc 1 3974 1
 12104              		.cfi_startproc
 12105              		@ args = 0, pretend = 0, frame = 24
 12106              		@ frame_needed = 1, uses_anonymous_args = 0
ARM GAS  C:\Users\lidka\AppData\Local\Temp\ccqOATUZ.s 			page 294


 12107 0000 80B5     		push	{r7, lr}
 12108              	.LCFI189:
 12109              		.cfi_def_cfa_offset 8
 12110              		.cfi_offset 7, -8
 12111              		.cfi_offset 14, -4
 12112 0002 86B0     		sub	sp, sp, #24
 12113              	.LCFI190:
 12114              		.cfi_def_cfa_offset 32
 12115 0004 00AF     		add	r7, sp, #0
 12116              	.LCFI191:
 12117              		.cfi_def_cfa_register 7
 12118 0006 7860     		str	r0, [r7, #4]
 12119              	.LBB1079:
 12120              	.LBB1080:
 12121              	.LBB1081:
 386:Drivers/CMSIS/Include/cmsis_gcc.h ****   return(result);
 12122              		.loc 2 386 3
 12123              		.syntax divided
 12124              	@ 386 "Drivers/CMSIS/Include/cmsis_gcc.h" 1
 12125 0008 EFF31083 		MRS r3, primask
 12126              	@ 0 "" 2
 12127              		.thumb
 12128              		.syntax unified
 12129 000c BB60     		str	r3, [r7, #8]
 387:Drivers/CMSIS/Include/cmsis_gcc.h **** }
 12130              		.loc 2 387 9
 12131 000e BB68     		ldr	r3, [r7, #8]
 12132              	.LBE1081:
 12133              	.LBE1080:
3975:Drivers/STM32L0xx_HAL_Driver/Src/stm32l0xx_hal_uart.c ****   /* Disable the UART Transmit Complete Interrupt */
3976:Drivers/STM32L0xx_HAL_Driver/Src/stm32l0xx_hal_uart.c ****   ATOMIC_CLEAR_BIT(huart->Instance->CR1, USART_CR1_TCIE);
 12134              		.loc 1 3976 3
 12135 0010 7B61     		str	r3, [r7, #20]
 12136 0012 0123     		movs	r3, #1
 12137 0014 FB60     		str	r3, [r7, #12]
 12138              	.LBB1082:
 12139              	.LBB1083:
 414:Drivers/CMSIS/Include/cmsis_gcc.h **** }
 12140              		.loc 2 414 3
 12141 0016 FB68     		ldr	r3, [r7, #12]
 12142              		.syntax divided
 12143              	@ 414 "Drivers/CMSIS/Include/cmsis_gcc.h" 1
 12144 0018 83F31088 		MSR primask, r3
 12145              	@ 0 "" 2
 12146              		.loc 2 415 1
 12147              		.thumb
 12148              		.syntax unified
 12149 001c C046     		nop
 12150              	.LBE1083:
 12151              	.LBE1082:
 12152              		.loc 1 3976 3
 12153 001e 7B68     		ldr	r3, [r7, #4]
 12154 0020 1B68     		ldr	r3, [r3]
 12155 0022 1A68     		ldr	r2, [r3]
 12156 0024 7B68     		ldr	r3, [r7, #4]
 12157 0026 1B68     		ldr	r3, [r3]
 12158 0028 4021     		movs	r1, #64
ARM GAS  C:\Users\lidka\AppData\Local\Temp\ccqOATUZ.s 			page 295


 12159 002a 8A43     		bics	r2, r1
 12160 002c 1A60     		str	r2, [r3]
 12161 002e 7B69     		ldr	r3, [r7, #20]
 12162 0030 3B61     		str	r3, [r7, #16]
 12163              	.LBB1084:
 12164              	.LBB1085:
 414:Drivers/CMSIS/Include/cmsis_gcc.h **** }
 12165              		.loc 2 414 3
 12166 0032 3B69     		ldr	r3, [r7, #16]
 12167              		.syntax divided
 12168              	@ 414 "Drivers/CMSIS/Include/cmsis_gcc.h" 1
 12169 0034 83F31088 		MSR primask, r3
 12170              	@ 0 "" 2
 12171              		.loc 2 415 1
 12172              		.thumb
 12173              		.syntax unified
 12174 0038 C046     		nop
 12175              	.LBE1085:
 12176              	.LBE1084:
 12177              	.LBE1079:
3977:Drivers/STM32L0xx_HAL_Driver/Src/stm32l0xx_hal_uart.c **** 
3978:Drivers/STM32L0xx_HAL_Driver/Src/stm32l0xx_hal_uart.c ****   /* Tx process is ended, restore huart->gState to Ready */
3979:Drivers/STM32L0xx_HAL_Driver/Src/stm32l0xx_hal_uart.c ****   huart->gState = HAL_UART_STATE_READY;
 12178              		.loc 1 3979 17
 12179 003a 7B68     		ldr	r3, [r7, #4]
 12180 003c 2022     		movs	r2, #32
 12181 003e 9A67     		str	r2, [r3, #120]
3980:Drivers/STM32L0xx_HAL_Driver/Src/stm32l0xx_hal_uart.c **** 
3981:Drivers/STM32L0xx_HAL_Driver/Src/stm32l0xx_hal_uart.c ****   /* Cleat TxISR function pointer */
3982:Drivers/STM32L0xx_HAL_Driver/Src/stm32l0xx_hal_uart.c ****   huart->TxISR = NULL;
 12182              		.loc 1 3982 16
 12183 0040 7B68     		ldr	r3, [r7, #4]
 12184 0042 0022     		movs	r2, #0
 12185 0044 9A66     		str	r2, [r3, #104]
3983:Drivers/STM32L0xx_HAL_Driver/Src/stm32l0xx_hal_uart.c **** 
3984:Drivers/STM32L0xx_HAL_Driver/Src/stm32l0xx_hal_uart.c **** #if (USE_HAL_UART_REGISTER_CALLBACKS == 1)
3985:Drivers/STM32L0xx_HAL_Driver/Src/stm32l0xx_hal_uart.c ****   /*Call registered Tx complete callback*/
3986:Drivers/STM32L0xx_HAL_Driver/Src/stm32l0xx_hal_uart.c ****   huart->TxCpltCallback(huart);
3987:Drivers/STM32L0xx_HAL_Driver/Src/stm32l0xx_hal_uart.c **** #else
3988:Drivers/STM32L0xx_HAL_Driver/Src/stm32l0xx_hal_uart.c ****   /*Call legacy weak Tx complete callback*/
3989:Drivers/STM32L0xx_HAL_Driver/Src/stm32l0xx_hal_uart.c ****   HAL_UART_TxCpltCallback(huart);
 12186              		.loc 1 3989 3
 12187 0046 7B68     		ldr	r3, [r7, #4]
 12188 0048 1800     		movs	r0, r3
 12189 004a FFF7FEFF 		bl	HAL_UART_TxCpltCallback
3990:Drivers/STM32L0xx_HAL_Driver/Src/stm32l0xx_hal_uart.c **** #endif /* USE_HAL_UART_REGISTER_CALLBACKS */
3991:Drivers/STM32L0xx_HAL_Driver/Src/stm32l0xx_hal_uart.c **** }
 12190              		.loc 1 3991 1
 12191 004e C046     		nop
 12192 0050 BD46     		mov	sp, r7
 12193 0052 06B0     		add	sp, sp, #24
 12194              		@ sp needed
 12195 0054 80BD     		pop	{r7, pc}
 12196              		.cfi_endproc
 12197              	.LFE110:
 12199              		.section	.text.UART_RxISR_8BIT,"ax",%progbits
 12200              		.align	1
ARM GAS  C:\Users\lidka\AppData\Local\Temp\ccqOATUZ.s 			page 296


 12201              		.syntax unified
 12202              		.code	16
 12203              		.thumb_func
 12205              	UART_RxISR_8BIT:
 12206              	.LFB111:
3992:Drivers/STM32L0xx_HAL_Driver/Src/stm32l0xx_hal_uart.c **** 
3993:Drivers/STM32L0xx_HAL_Driver/Src/stm32l0xx_hal_uart.c **** /**
3994:Drivers/STM32L0xx_HAL_Driver/Src/stm32l0xx_hal_uart.c ****   * @brief RX interrupt handler for 7 or 8 bits data word length .
3995:Drivers/STM32L0xx_HAL_Driver/Src/stm32l0xx_hal_uart.c ****   * @param huart UART handle.
3996:Drivers/STM32L0xx_HAL_Driver/Src/stm32l0xx_hal_uart.c ****   * @retval None
3997:Drivers/STM32L0xx_HAL_Driver/Src/stm32l0xx_hal_uart.c ****   */
3998:Drivers/STM32L0xx_HAL_Driver/Src/stm32l0xx_hal_uart.c **** static void UART_RxISR_8BIT(UART_HandleTypeDef *huart)
3999:Drivers/STM32L0xx_HAL_Driver/Src/stm32l0xx_hal_uart.c **** {
 12207              		.loc 1 3999 1
 12208              		.cfi_startproc
 12209              		@ args = 0, pretend = 0, frame = 64
 12210              		@ frame_needed = 1, uses_anonymous_args = 0
 12211 0000 80B5     		push	{r7, lr}
 12212              	.LCFI192:
 12213              		.cfi_def_cfa_offset 8
 12214              		.cfi_offset 7, -8
 12215              		.cfi_offset 14, -4
 12216 0002 90B0     		sub	sp, sp, #64
 12217              	.LCFI193:
 12218              		.cfi_def_cfa_offset 72
 12219 0004 00AF     		add	r7, sp, #0
 12220              	.LCFI194:
 12221              		.cfi_def_cfa_register 7
 12222 0006 7860     		str	r0, [r7, #4]
4000:Drivers/STM32L0xx_HAL_Driver/Src/stm32l0xx_hal_uart.c ****   uint16_t uhMask = huart->Mask;
 12223              		.loc 1 4000 12
 12224 0008 3E20     		movs	r0, #62
 12225 000a 3B18     		adds	r3, r7, r0
 12226 000c 7A68     		ldr	r2, [r7, #4]
 12227 000e 5C21     		movs	r1, #92
 12228 0010 525A     		ldrh	r2, [r2, r1]
 12229 0012 1A80     		strh	r2, [r3]
4001:Drivers/STM32L0xx_HAL_Driver/Src/stm32l0xx_hal_uart.c ****   uint16_t  uhdata;
4002:Drivers/STM32L0xx_HAL_Driver/Src/stm32l0xx_hal_uart.c **** 
4003:Drivers/STM32L0xx_HAL_Driver/Src/stm32l0xx_hal_uart.c ****   /* Check that a Rx process is ongoing */
4004:Drivers/STM32L0xx_HAL_Driver/Src/stm32l0xx_hal_uart.c ****   if (huart->RxState == HAL_UART_STATE_BUSY_RX)
 12230              		.loc 1 4004 12
 12231 0014 7B68     		ldr	r3, [r7, #4]
 12232 0016 DB6F     		ldr	r3, [r3, #124]
 12233              		.loc 1 4004 6
 12234 0018 222B     		cmp	r3, #34
 12235 001a 00D0     		beq	.LCB9379
 12236 001c 95E0     		b	.L499	@long jump
 12237              	.LCB9379:
4005:Drivers/STM32L0xx_HAL_Driver/Src/stm32l0xx_hal_uart.c ****   {
4006:Drivers/STM32L0xx_HAL_Driver/Src/stm32l0xx_hal_uart.c ****     uhdata = (uint16_t) READ_REG(huart->Instance->RDR);
 12238              		.loc 1 4006 25
 12239 001e 7B68     		ldr	r3, [r7, #4]
 12240 0020 1B68     		ldr	r3, [r3]
 12241 0022 5A6A     		ldr	r2, [r3, #36]
 12242              		.loc 1 4006 12
 12243 0024 3C21     		movs	r1, #60
ARM GAS  C:\Users\lidka\AppData\Local\Temp\ccqOATUZ.s 			page 297


 12244 0026 7B18     		adds	r3, r7, r1
 12245 0028 1A80     		strh	r2, [r3]
4007:Drivers/STM32L0xx_HAL_Driver/Src/stm32l0xx_hal_uart.c ****     *huart->pRxBuffPtr = (uint8_t)(uhdata & (uint8_t)uhMask);
 12246              		.loc 1 4007 26
 12247 002a 7B18     		adds	r3, r7, r1
 12248 002c 1B88     		ldrh	r3, [r3]
 12249 002e DAB2     		uxtb	r2, r3
 12250              		.loc 1 4007 45
 12251 0030 3B18     		adds	r3, r7, r0
 12252 0032 1B88     		ldrh	r3, [r3]
 12253 0034 D9B2     		uxtb	r1, r3
 12254              		.loc 1 4007 11
 12255 0036 7B68     		ldr	r3, [r7, #4]
 12256 0038 5B6D     		ldr	r3, [r3, #84]
 12257              		.loc 1 4007 26
 12258 003a 0A40     		ands	r2, r1
 12259 003c D2B2     		uxtb	r2, r2
 12260              		.loc 1 4007 24
 12261 003e 1A70     		strb	r2, [r3]
4008:Drivers/STM32L0xx_HAL_Driver/Src/stm32l0xx_hal_uart.c ****     huart->pRxBuffPtr++;
 12262              		.loc 1 4008 10
 12263 0040 7B68     		ldr	r3, [r7, #4]
 12264 0042 5B6D     		ldr	r3, [r3, #84]
 12265              		.loc 1 4008 22
 12266 0044 5A1C     		adds	r2, r3, #1
 12267 0046 7B68     		ldr	r3, [r7, #4]
 12268 0048 5A65     		str	r2, [r3, #84]
4009:Drivers/STM32L0xx_HAL_Driver/Src/stm32l0xx_hal_uart.c ****     huart->RxXferCount--;
 12269              		.loc 1 4009 10
 12270 004a 7B68     		ldr	r3, [r7, #4]
 12271 004c 5A22     		movs	r2, #90
 12272 004e 9B5A     		ldrh	r3, [r3, r2]
 12273 0050 9BB2     		uxth	r3, r3
 12274              		.loc 1 4009 23
 12275 0052 013B     		subs	r3, r3, #1
 12276 0054 99B2     		uxth	r1, r3
 12277 0056 7B68     		ldr	r3, [r7, #4]
 12278 0058 5A22     		movs	r2, #90
 12279 005a 9952     		strh	r1, [r3, r2]
4010:Drivers/STM32L0xx_HAL_Driver/Src/stm32l0xx_hal_uart.c **** 
4011:Drivers/STM32L0xx_HAL_Driver/Src/stm32l0xx_hal_uart.c ****     if (huart->RxXferCount == 0U)
 12280              		.loc 1 4011 14
 12281 005c 7B68     		ldr	r3, [r7, #4]
 12282 005e 5A22     		movs	r2, #90
 12283 0060 9B5A     		ldrh	r3, [r3, r2]
 12284 0062 9BB2     		uxth	r3, r3
 12285              		.loc 1 4011 8
 12286 0064 002B     		cmp	r3, #0
 12287 0066 78D1     		bne	.L506
 12288              	.LBB1086:
 12289              	.LBB1087:
 12290              	.LBB1088:
 386:Drivers/CMSIS/Include/cmsis_gcc.h ****   return(result);
 12291              		.loc 2 386 3
 12292              		.syntax divided
 12293              	@ 386 "Drivers/CMSIS/Include/cmsis_gcc.h" 1
 12294 0068 EFF31083 		MRS r3, primask
ARM GAS  C:\Users\lidka\AppData\Local\Temp\ccqOATUZ.s 			page 298


 12295              	@ 0 "" 2
 12296              		.thumb
 12297              		.syntax unified
 12298 006c BB61     		str	r3, [r7, #24]
 387:Drivers/CMSIS/Include/cmsis_gcc.h **** }
 12299              		.loc 2 387 9
 12300 006e BB69     		ldr	r3, [r7, #24]
 12301              	.LBE1088:
 12302              	.LBE1087:
4012:Drivers/STM32L0xx_HAL_Driver/Src/stm32l0xx_hal_uart.c ****     {
4013:Drivers/STM32L0xx_HAL_Driver/Src/stm32l0xx_hal_uart.c ****       /* Disable the UART Parity Error Interrupt and RXNE interrupts */
4014:Drivers/STM32L0xx_HAL_Driver/Src/stm32l0xx_hal_uart.c ****       ATOMIC_CLEAR_BIT(huart->Instance->CR1, (USART_CR1_RXNEIE | USART_CR1_PEIE));
 12303              		.loc 1 4014 7
 12304 0070 BB63     		str	r3, [r7, #56]
 12305 0072 0123     		movs	r3, #1
 12306 0074 FB61     		str	r3, [r7, #28]
 12307              	.LBB1089:
 12308              	.LBB1090:
 414:Drivers/CMSIS/Include/cmsis_gcc.h **** }
 12309              		.loc 2 414 3
 12310 0076 FB69     		ldr	r3, [r7, #28]
 12311              		.syntax divided
 12312              	@ 414 "Drivers/CMSIS/Include/cmsis_gcc.h" 1
 12313 0078 83F31088 		MSR primask, r3
 12314              	@ 0 "" 2
 12315              		.loc 2 415 1
 12316              		.thumb
 12317              		.syntax unified
 12318 007c C046     		nop
 12319              	.LBE1090:
 12320              	.LBE1089:
 12321              		.loc 1 4014 7
 12322 007e 7B68     		ldr	r3, [r7, #4]
 12323 0080 1B68     		ldr	r3, [r3]
 12324 0082 1A68     		ldr	r2, [r3]
 12325 0084 7B68     		ldr	r3, [r7, #4]
 12326 0086 1B68     		ldr	r3, [r3]
 12327 0088 3649     		ldr	r1, .L507
 12328 008a 0A40     		ands	r2, r1
 12329 008c 1A60     		str	r2, [r3]
 12330 008e BB6B     		ldr	r3, [r7, #56]
 12331 0090 3B62     		str	r3, [r7, #32]
 12332              	.LBB1091:
 12333              	.LBB1092:
 414:Drivers/CMSIS/Include/cmsis_gcc.h **** }
 12334              		.loc 2 414 3
 12335 0092 3B6A     		ldr	r3, [r7, #32]
 12336              		.syntax divided
 12337              	@ 414 "Drivers/CMSIS/Include/cmsis_gcc.h" 1
 12338 0094 83F31088 		MSR primask, r3
 12339              	@ 0 "" 2
 12340              		.loc 2 415 1
 12341              		.thumb
 12342              		.syntax unified
 12343 0098 C046     		nop
 12344              	.LBE1092:
 12345              	.LBE1091:
ARM GAS  C:\Users\lidka\AppData\Local\Temp\ccqOATUZ.s 			page 299


 12346              	.LBE1086:
 12347              	.LBB1093:
 12348              	.LBB1094:
 12349              	.LBB1095:
 386:Drivers/CMSIS/Include/cmsis_gcc.h ****   return(result);
 12350              		.loc 2 386 3
 12351              		.syntax divided
 12352              	@ 386 "Drivers/CMSIS/Include/cmsis_gcc.h" 1
 12353 009a EFF31083 		MRS r3, primask
 12354              	@ 0 "" 2
 12355              		.thumb
 12356              		.syntax unified
 12357 009e 7B62     		str	r3, [r7, #36]
 387:Drivers/CMSIS/Include/cmsis_gcc.h **** }
 12358              		.loc 2 387 9
 12359 00a0 7B6A     		ldr	r3, [r7, #36]
 12360              	.LBE1095:
 12361              	.LBE1094:
4015:Drivers/STM32L0xx_HAL_Driver/Src/stm32l0xx_hal_uart.c **** 
4016:Drivers/STM32L0xx_HAL_Driver/Src/stm32l0xx_hal_uart.c ****       /* Disable the UART Error Interrupt: (Frame error, noise error, overrun error) */
4017:Drivers/STM32L0xx_HAL_Driver/Src/stm32l0xx_hal_uart.c ****       ATOMIC_CLEAR_BIT(huart->Instance->CR3, USART_CR3_EIE);
 12362              		.loc 1 4017 7
 12363 00a2 7B63     		str	r3, [r7, #52]
 12364 00a4 0123     		movs	r3, #1
 12365 00a6 BB62     		str	r3, [r7, #40]
 12366              	.LBB1096:
 12367              	.LBB1097:
 414:Drivers/CMSIS/Include/cmsis_gcc.h **** }
 12368              		.loc 2 414 3
 12369 00a8 BB6A     		ldr	r3, [r7, #40]
 12370              		.syntax divided
 12371              	@ 414 "Drivers/CMSIS/Include/cmsis_gcc.h" 1
 12372 00aa 83F31088 		MSR primask, r3
 12373              	@ 0 "" 2
 12374              		.loc 2 415 1
 12375              		.thumb
 12376              		.syntax unified
 12377 00ae C046     		nop
 12378              	.LBE1097:
 12379              	.LBE1096:
 12380              		.loc 1 4017 7
 12381 00b0 7B68     		ldr	r3, [r7, #4]
 12382 00b2 1B68     		ldr	r3, [r3]
 12383 00b4 9A68     		ldr	r2, [r3, #8]
 12384 00b6 7B68     		ldr	r3, [r7, #4]
 12385 00b8 1B68     		ldr	r3, [r3]
 12386 00ba 0121     		movs	r1, #1
 12387 00bc 8A43     		bics	r2, r1
 12388 00be 9A60     		str	r2, [r3, #8]
 12389 00c0 7B6B     		ldr	r3, [r7, #52]
 12390 00c2 FB62     		str	r3, [r7, #44]
 12391              	.LBB1098:
 12392              	.LBB1099:
 414:Drivers/CMSIS/Include/cmsis_gcc.h **** }
 12393              		.loc 2 414 3
 12394 00c4 FB6A     		ldr	r3, [r7, #44]
 12395              		.syntax divided
ARM GAS  C:\Users\lidka\AppData\Local\Temp\ccqOATUZ.s 			page 300


 12396              	@ 414 "Drivers/CMSIS/Include/cmsis_gcc.h" 1
 12397 00c6 83F31088 		MSR primask, r3
 12398              	@ 0 "" 2
 12399              		.loc 2 415 1
 12400              		.thumb
 12401              		.syntax unified
 12402 00ca C046     		nop
 12403              	.LBE1099:
 12404              	.LBE1098:
 12405              	.LBE1093:
4018:Drivers/STM32L0xx_HAL_Driver/Src/stm32l0xx_hal_uart.c **** 
4019:Drivers/STM32L0xx_HAL_Driver/Src/stm32l0xx_hal_uart.c ****       /* Rx process is completed, restore huart->RxState to Ready */
4020:Drivers/STM32L0xx_HAL_Driver/Src/stm32l0xx_hal_uart.c ****       huart->RxState = HAL_UART_STATE_READY;
 12406              		.loc 1 4020 22
 12407 00cc 7B68     		ldr	r3, [r7, #4]
 12408 00ce 2022     		movs	r2, #32
 12409 00d0 DA67     		str	r2, [r3, #124]
4021:Drivers/STM32L0xx_HAL_Driver/Src/stm32l0xx_hal_uart.c **** 
4022:Drivers/STM32L0xx_HAL_Driver/Src/stm32l0xx_hal_uart.c ****       /* Clear RxISR function pointer */
4023:Drivers/STM32L0xx_HAL_Driver/Src/stm32l0xx_hal_uart.c ****       huart->RxISR = NULL;
 12410              		.loc 1 4023 20
 12411 00d2 7B68     		ldr	r3, [r7, #4]
 12412 00d4 0022     		movs	r2, #0
 12413 00d6 5A66     		str	r2, [r3, #100]
4024:Drivers/STM32L0xx_HAL_Driver/Src/stm32l0xx_hal_uart.c **** 
4025:Drivers/STM32L0xx_HAL_Driver/Src/stm32l0xx_hal_uart.c ****       /* Check current reception Mode :
4026:Drivers/STM32L0xx_HAL_Driver/Src/stm32l0xx_hal_uart.c ****          If Reception till IDLE event has been selected : */
4027:Drivers/STM32L0xx_HAL_Driver/Src/stm32l0xx_hal_uart.c ****       if (huart->ReceptionType == HAL_UART_RECEPTION_TOIDLE)
 12414              		.loc 1 4027 16
 12415 00d8 7B68     		ldr	r3, [r7, #4]
 12416 00da 1B6E     		ldr	r3, [r3, #96]
 12417              		.loc 1 4027 10
 12418 00dc 012B     		cmp	r3, #1
 12419 00de 2FD1     		bne	.L503
4028:Drivers/STM32L0xx_HAL_Driver/Src/stm32l0xx_hal_uart.c ****       {
4029:Drivers/STM32L0xx_HAL_Driver/Src/stm32l0xx_hal_uart.c ****         /* Set reception type to Standard */
4030:Drivers/STM32L0xx_HAL_Driver/Src/stm32l0xx_hal_uart.c ****         huart->ReceptionType = HAL_UART_RECEPTION_STANDARD;
 12420              		.loc 1 4030 30
 12421 00e0 7B68     		ldr	r3, [r7, #4]
 12422 00e2 0022     		movs	r2, #0
 12423 00e4 1A66     		str	r2, [r3, #96]
 12424              	.LBB1100:
 12425              	.LBB1101:
 12426              	.LBB1102:
 386:Drivers/CMSIS/Include/cmsis_gcc.h ****   return(result);
 12427              		.loc 2 386 3
 12428              		.syntax divided
 12429              	@ 386 "Drivers/CMSIS/Include/cmsis_gcc.h" 1
 12430 00e6 EFF31083 		MRS r3, primask
 12431              	@ 0 "" 2
 12432              		.thumb
 12433              		.syntax unified
 12434 00ea FB60     		str	r3, [r7, #12]
 387:Drivers/CMSIS/Include/cmsis_gcc.h **** }
 12435              		.loc 2 387 9
 12436 00ec FB68     		ldr	r3, [r7, #12]
 12437              	.LBE1102:
ARM GAS  C:\Users\lidka\AppData\Local\Temp\ccqOATUZ.s 			page 301


 12438              	.LBE1101:
4031:Drivers/STM32L0xx_HAL_Driver/Src/stm32l0xx_hal_uart.c **** 
4032:Drivers/STM32L0xx_HAL_Driver/Src/stm32l0xx_hal_uart.c ****         /* Disable IDLE interrupt */
4033:Drivers/STM32L0xx_HAL_Driver/Src/stm32l0xx_hal_uart.c ****         ATOMIC_CLEAR_BIT(huart->Instance->CR1, USART_CR1_IDLEIE);
 12439              		.loc 1 4033 9
 12440 00ee 3B63     		str	r3, [r7, #48]
 12441 00f0 0123     		movs	r3, #1
 12442 00f2 3B61     		str	r3, [r7, #16]
 12443              	.LBB1103:
 12444              	.LBB1104:
 414:Drivers/CMSIS/Include/cmsis_gcc.h **** }
 12445              		.loc 2 414 3
 12446 00f4 3B69     		ldr	r3, [r7, #16]
 12447              		.syntax divided
 12448              	@ 414 "Drivers/CMSIS/Include/cmsis_gcc.h" 1
 12449 00f6 83F31088 		MSR primask, r3
 12450              	@ 0 "" 2
 12451              		.loc 2 415 1
 12452              		.thumb
 12453              		.syntax unified
 12454 00fa C046     		nop
 12455              	.LBE1104:
 12456              	.LBE1103:
 12457              		.loc 1 4033 9
 12458 00fc 7B68     		ldr	r3, [r7, #4]
 12459 00fe 1B68     		ldr	r3, [r3]
 12460 0100 1A68     		ldr	r2, [r3]
 12461 0102 7B68     		ldr	r3, [r7, #4]
 12462 0104 1B68     		ldr	r3, [r3]
 12463 0106 1021     		movs	r1, #16
 12464 0108 8A43     		bics	r2, r1
 12465 010a 1A60     		str	r2, [r3]
 12466 010c 3B6B     		ldr	r3, [r7, #48]
 12467 010e 7B61     		str	r3, [r7, #20]
 12468              	.LBB1105:
 12469              	.LBB1106:
 414:Drivers/CMSIS/Include/cmsis_gcc.h **** }
 12470              		.loc 2 414 3
 12471 0110 7B69     		ldr	r3, [r7, #20]
 12472              		.syntax divided
 12473              	@ 414 "Drivers/CMSIS/Include/cmsis_gcc.h" 1
 12474 0112 83F31088 		MSR primask, r3
 12475              	@ 0 "" 2
 12476              		.loc 2 415 1
 12477              		.thumb
 12478              		.syntax unified
 12479 0116 C046     		nop
 12480              	.LBE1106:
 12481              	.LBE1105:
 12482              	.LBE1100:
4034:Drivers/STM32L0xx_HAL_Driver/Src/stm32l0xx_hal_uart.c **** 
4035:Drivers/STM32L0xx_HAL_Driver/Src/stm32l0xx_hal_uart.c ****         if (__HAL_UART_GET_FLAG(huart, UART_FLAG_IDLE) == SET)
 12483              		.loc 1 4035 13
 12484 0118 7B68     		ldr	r3, [r7, #4]
 12485 011a 1B68     		ldr	r3, [r3]
 12486 011c DB69     		ldr	r3, [r3, #28]
 12487 011e 1022     		movs	r2, #16
ARM GAS  C:\Users\lidka\AppData\Local\Temp\ccqOATUZ.s 			page 302


 12488 0120 1340     		ands	r3, r2
 12489              		.loc 1 4035 12
 12490 0122 102B     		cmp	r3, #16
 12491 0124 03D1     		bne	.L505
4036:Drivers/STM32L0xx_HAL_Driver/Src/stm32l0xx_hal_uart.c ****         {
4037:Drivers/STM32L0xx_HAL_Driver/Src/stm32l0xx_hal_uart.c ****           /* Clear IDLE Flag */
4038:Drivers/STM32L0xx_HAL_Driver/Src/stm32l0xx_hal_uart.c ****           __HAL_UART_CLEAR_FLAG(huart, UART_CLEAR_IDLEF);
 12492              		.loc 1 4038 11
 12493 0126 7B68     		ldr	r3, [r7, #4]
 12494 0128 1B68     		ldr	r3, [r3]
 12495 012a 1022     		movs	r2, #16
 12496 012c 1A62     		str	r2, [r3, #32]
 12497              	.L505:
4039:Drivers/STM32L0xx_HAL_Driver/Src/stm32l0xx_hal_uart.c ****         }
4040:Drivers/STM32L0xx_HAL_Driver/Src/stm32l0xx_hal_uart.c **** #if (USE_HAL_UART_REGISTER_CALLBACKS == 1)
4041:Drivers/STM32L0xx_HAL_Driver/Src/stm32l0xx_hal_uart.c ****         /*Call registered Rx Event callback*/
4042:Drivers/STM32L0xx_HAL_Driver/Src/stm32l0xx_hal_uart.c ****         huart->RxEventCallback(huart, huart->RxXferSize);
4043:Drivers/STM32L0xx_HAL_Driver/Src/stm32l0xx_hal_uart.c **** #else
4044:Drivers/STM32L0xx_HAL_Driver/Src/stm32l0xx_hal_uart.c ****         /*Call legacy weak Rx Event callback*/
4045:Drivers/STM32L0xx_HAL_Driver/Src/stm32l0xx_hal_uart.c ****         HAL_UARTEx_RxEventCallback(huart, huart->RxXferSize);
 12498              		.loc 1 4045 9
 12499 012e 7B68     		ldr	r3, [r7, #4]
 12500 0130 5822     		movs	r2, #88
 12501 0132 9A5A     		ldrh	r2, [r3, r2]
 12502 0134 7B68     		ldr	r3, [r7, #4]
 12503 0136 1100     		movs	r1, r2
 12504 0138 1800     		movs	r0, r3
 12505 013a FFF7FEFF 		bl	HAL_UARTEx_RxEventCallback
4046:Drivers/STM32L0xx_HAL_Driver/Src/stm32l0xx_hal_uart.c **** #endif /* (USE_HAL_UART_REGISTER_CALLBACKS) */
4047:Drivers/STM32L0xx_HAL_Driver/Src/stm32l0xx_hal_uart.c ****       }
4048:Drivers/STM32L0xx_HAL_Driver/Src/stm32l0xx_hal_uart.c ****       else
4049:Drivers/STM32L0xx_HAL_Driver/Src/stm32l0xx_hal_uart.c ****       {
4050:Drivers/STM32L0xx_HAL_Driver/Src/stm32l0xx_hal_uart.c ****         /* Standard reception API called */
4051:Drivers/STM32L0xx_HAL_Driver/Src/stm32l0xx_hal_uart.c **** #if (USE_HAL_UART_REGISTER_CALLBACKS == 1)
4052:Drivers/STM32L0xx_HAL_Driver/Src/stm32l0xx_hal_uart.c ****         /*Call registered Rx complete callback*/
4053:Drivers/STM32L0xx_HAL_Driver/Src/stm32l0xx_hal_uart.c ****         huart->RxCpltCallback(huart);
4054:Drivers/STM32L0xx_HAL_Driver/Src/stm32l0xx_hal_uart.c **** #else
4055:Drivers/STM32L0xx_HAL_Driver/Src/stm32l0xx_hal_uart.c ****         /*Call legacy weak Rx complete callback*/
4056:Drivers/STM32L0xx_HAL_Driver/Src/stm32l0xx_hal_uart.c ****         HAL_UART_RxCpltCallback(huart);
4057:Drivers/STM32L0xx_HAL_Driver/Src/stm32l0xx_hal_uart.c **** #endif /* USE_HAL_UART_REGISTER_CALLBACKS */
4058:Drivers/STM32L0xx_HAL_Driver/Src/stm32l0xx_hal_uart.c ****       }
4059:Drivers/STM32L0xx_HAL_Driver/Src/stm32l0xx_hal_uart.c ****     }
4060:Drivers/STM32L0xx_HAL_Driver/Src/stm32l0xx_hal_uart.c ****   }
4061:Drivers/STM32L0xx_HAL_Driver/Src/stm32l0xx_hal_uart.c ****   else
4062:Drivers/STM32L0xx_HAL_Driver/Src/stm32l0xx_hal_uart.c ****   {
4063:Drivers/STM32L0xx_HAL_Driver/Src/stm32l0xx_hal_uart.c ****     /* Clear RXNE interrupt flag */
4064:Drivers/STM32L0xx_HAL_Driver/Src/stm32l0xx_hal_uart.c ****     __HAL_UART_SEND_REQ(huart, UART_RXDATA_FLUSH_REQUEST);
4065:Drivers/STM32L0xx_HAL_Driver/Src/stm32l0xx_hal_uart.c ****   }
4066:Drivers/STM32L0xx_HAL_Driver/Src/stm32l0xx_hal_uart.c **** }
 12506              		.loc 1 4066 1
 12507 013e 0CE0     		b	.L506
 12508              	.L503:
4056:Drivers/STM32L0xx_HAL_Driver/Src/stm32l0xx_hal_uart.c **** #endif /* USE_HAL_UART_REGISTER_CALLBACKS */
 12509              		.loc 1 4056 9
 12510 0140 7B68     		ldr	r3, [r7, #4]
 12511 0142 1800     		movs	r0, r3
 12512 0144 FFF7FEFF 		bl	HAL_UART_RxCpltCallback
ARM GAS  C:\Users\lidka\AppData\Local\Temp\ccqOATUZ.s 			page 303


 12513              		.loc 1 4066 1
 12514 0148 07E0     		b	.L506
 12515              	.L499:
4064:Drivers/STM32L0xx_HAL_Driver/Src/stm32l0xx_hal_uart.c ****   }
 12516              		.loc 1 4064 5
 12517 014a 7B68     		ldr	r3, [r7, #4]
 12518 014c 1B68     		ldr	r3, [r3]
 12519 014e 9A69     		ldr	r2, [r3, #24]
 12520 0150 7B68     		ldr	r3, [r7, #4]
 12521 0152 1B68     		ldr	r3, [r3]
 12522 0154 0821     		movs	r1, #8
 12523 0156 0A43     		orrs	r2, r1
 12524 0158 9A61     		str	r2, [r3, #24]
 12525              	.L506:
 12526              		.loc 1 4066 1
 12527 015a C046     		nop
 12528 015c BD46     		mov	sp, r7
 12529 015e 10B0     		add	sp, sp, #64
 12530              		@ sp needed
 12531 0160 80BD     		pop	{r7, pc}
 12532              	.L508:
 12533 0162 C046     		.align	2
 12534              	.L507:
 12535 0164 DFFEFFFF 		.word	-289
 12536              		.cfi_endproc
 12537              	.LFE111:
 12539              		.section	.text.UART_RxISR_16BIT,"ax",%progbits
 12540              		.align	1
 12541              		.syntax unified
 12542              		.code	16
 12543              		.thumb_func
 12545              	UART_RxISR_16BIT:
 12546              	.LFB112:
4067:Drivers/STM32L0xx_HAL_Driver/Src/stm32l0xx_hal_uart.c **** 
4068:Drivers/STM32L0xx_HAL_Driver/Src/stm32l0xx_hal_uart.c **** /**
4069:Drivers/STM32L0xx_HAL_Driver/Src/stm32l0xx_hal_uart.c ****   * @brief RX interrupt handler for 9 bits data word length .
4070:Drivers/STM32L0xx_HAL_Driver/Src/stm32l0xx_hal_uart.c ****   * @note   Function is called under interruption only, once
4071:Drivers/STM32L0xx_HAL_Driver/Src/stm32l0xx_hal_uart.c ****   *         interruptions have been enabled by HAL_UART_Receive_IT()
4072:Drivers/STM32L0xx_HAL_Driver/Src/stm32l0xx_hal_uart.c ****   * @param huart UART handle.
4073:Drivers/STM32L0xx_HAL_Driver/Src/stm32l0xx_hal_uart.c ****   * @retval None
4074:Drivers/STM32L0xx_HAL_Driver/Src/stm32l0xx_hal_uart.c ****   */
4075:Drivers/STM32L0xx_HAL_Driver/Src/stm32l0xx_hal_uart.c **** static void UART_RxISR_16BIT(UART_HandleTypeDef *huart)
4076:Drivers/STM32L0xx_HAL_Driver/Src/stm32l0xx_hal_uart.c **** {
 12547              		.loc 1 4076 1
 12548              		.cfi_startproc
 12549              		@ args = 0, pretend = 0, frame = 64
 12550              		@ frame_needed = 1, uses_anonymous_args = 0
 12551 0000 80B5     		push	{r7, lr}
 12552              	.LCFI195:
 12553              		.cfi_def_cfa_offset 8
 12554              		.cfi_offset 7, -8
 12555              		.cfi_offset 14, -4
 12556 0002 90B0     		sub	sp, sp, #64
 12557              	.LCFI196:
 12558              		.cfi_def_cfa_offset 72
 12559 0004 00AF     		add	r7, sp, #0
 12560              	.LCFI197:
ARM GAS  C:\Users\lidka\AppData\Local\Temp\ccqOATUZ.s 			page 304


 12561              		.cfi_def_cfa_register 7
 12562 0006 7860     		str	r0, [r7, #4]
4077:Drivers/STM32L0xx_HAL_Driver/Src/stm32l0xx_hal_uart.c ****   uint16_t *tmp;
4078:Drivers/STM32L0xx_HAL_Driver/Src/stm32l0xx_hal_uart.c ****   uint16_t uhMask = huart->Mask;
 12563              		.loc 1 4078 12
 12564 0008 3E20     		movs	r0, #62
 12565 000a 3B18     		adds	r3, r7, r0
 12566 000c 7A68     		ldr	r2, [r7, #4]
 12567 000e 5C21     		movs	r1, #92
 12568 0010 525A     		ldrh	r2, [r2, r1]
 12569 0012 1A80     		strh	r2, [r3]
4079:Drivers/STM32L0xx_HAL_Driver/Src/stm32l0xx_hal_uart.c ****   uint16_t  uhdata;
4080:Drivers/STM32L0xx_HAL_Driver/Src/stm32l0xx_hal_uart.c **** 
4081:Drivers/STM32L0xx_HAL_Driver/Src/stm32l0xx_hal_uart.c ****   /* Check that a Rx process is ongoing */
4082:Drivers/STM32L0xx_HAL_Driver/Src/stm32l0xx_hal_uart.c ****   if (huart->RxState == HAL_UART_STATE_BUSY_RX)
 12570              		.loc 1 4082 12
 12571 0014 7B68     		ldr	r3, [r7, #4]
 12572 0016 DB6F     		ldr	r3, [r3, #124]
 12573              		.loc 1 4082 6
 12574 0018 222B     		cmp	r3, #34
 12575 001a 00D0     		beq	.LCB9622
 12576 001c 95E0     		b	.L510	@long jump
 12577              	.LCB9622:
4083:Drivers/STM32L0xx_HAL_Driver/Src/stm32l0xx_hal_uart.c ****   {
4084:Drivers/STM32L0xx_HAL_Driver/Src/stm32l0xx_hal_uart.c ****     uhdata = (uint16_t) READ_REG(huart->Instance->RDR);
 12578              		.loc 1 4084 25
 12579 001e 7B68     		ldr	r3, [r7, #4]
 12580 0020 1B68     		ldr	r3, [r3]
 12581 0022 5A6A     		ldr	r2, [r3, #36]
 12582              		.loc 1 4084 12
 12583 0024 3C21     		movs	r1, #60
 12584 0026 7B18     		adds	r3, r7, r1
 12585 0028 1A80     		strh	r2, [r3]
4085:Drivers/STM32L0xx_HAL_Driver/Src/stm32l0xx_hal_uart.c ****     tmp = (uint16_t *) huart->pRxBuffPtr ;
 12586              		.loc 1 4085 9
 12587 002a 7B68     		ldr	r3, [r7, #4]
 12588 002c 5B6D     		ldr	r3, [r3, #84]
 12589 002e BB63     		str	r3, [r7, #56]
4086:Drivers/STM32L0xx_HAL_Driver/Src/stm32l0xx_hal_uart.c ****     *tmp = (uint16_t)(uhdata & uhMask);
 12590              		.loc 1 4086 12
 12591 0030 7B18     		adds	r3, r7, r1
 12592 0032 3A18     		adds	r2, r7, r0
 12593 0034 1B88     		ldrh	r3, [r3]
 12594 0036 1288     		ldrh	r2, [r2]
 12595 0038 1340     		ands	r3, r2
 12596 003a 9AB2     		uxth	r2, r3
 12597              		.loc 1 4086 10
 12598 003c BB6B     		ldr	r3, [r7, #56]
 12599 003e 1A80     		strh	r2, [r3]
4087:Drivers/STM32L0xx_HAL_Driver/Src/stm32l0xx_hal_uart.c ****     huart->pRxBuffPtr += 2U;
 12600              		.loc 1 4087 23
 12601 0040 7B68     		ldr	r3, [r7, #4]
 12602 0042 5B6D     		ldr	r3, [r3, #84]
 12603 0044 9A1C     		adds	r2, r3, #2
 12604 0046 7B68     		ldr	r3, [r7, #4]
 12605 0048 5A65     		str	r2, [r3, #84]
4088:Drivers/STM32L0xx_HAL_Driver/Src/stm32l0xx_hal_uart.c ****     huart->RxXferCount--;
ARM GAS  C:\Users\lidka\AppData\Local\Temp\ccqOATUZ.s 			page 305


 12606              		.loc 1 4088 10
 12607 004a 7B68     		ldr	r3, [r7, #4]
 12608 004c 5A22     		movs	r2, #90
 12609 004e 9B5A     		ldrh	r3, [r3, r2]
 12610 0050 9BB2     		uxth	r3, r3
 12611              		.loc 1 4088 23
 12612 0052 013B     		subs	r3, r3, #1
 12613 0054 99B2     		uxth	r1, r3
 12614 0056 7B68     		ldr	r3, [r7, #4]
 12615 0058 5A22     		movs	r2, #90
 12616 005a 9952     		strh	r1, [r3, r2]
4089:Drivers/STM32L0xx_HAL_Driver/Src/stm32l0xx_hal_uart.c **** 
4090:Drivers/STM32L0xx_HAL_Driver/Src/stm32l0xx_hal_uart.c ****     if (huart->RxXferCount == 0U)
 12617              		.loc 1 4090 14
 12618 005c 7B68     		ldr	r3, [r7, #4]
 12619 005e 5A22     		movs	r2, #90
 12620 0060 9B5A     		ldrh	r3, [r3, r2]
 12621 0062 9BB2     		uxth	r3, r3
 12622              		.loc 1 4090 8
 12623 0064 002B     		cmp	r3, #0
 12624 0066 78D1     		bne	.L517
 12625              	.LBB1107:
 12626              	.LBB1108:
 12627              	.LBB1109:
 386:Drivers/CMSIS/Include/cmsis_gcc.h ****   return(result);
 12628              		.loc 2 386 3
 12629              		.syntax divided
 12630              	@ 386 "Drivers/CMSIS/Include/cmsis_gcc.h" 1
 12631 0068 EFF31083 		MRS r3, primask
 12632              	@ 0 "" 2
 12633              		.thumb
 12634              		.syntax unified
 12635 006c 7B61     		str	r3, [r7, #20]
 387:Drivers/CMSIS/Include/cmsis_gcc.h **** }
 12636              		.loc 2 387 9
 12637 006e 7B69     		ldr	r3, [r7, #20]
 12638              	.LBE1109:
 12639              	.LBE1108:
4091:Drivers/STM32L0xx_HAL_Driver/Src/stm32l0xx_hal_uart.c ****     {
4092:Drivers/STM32L0xx_HAL_Driver/Src/stm32l0xx_hal_uart.c ****       /* Disable the UART Parity Error Interrupt and RXNE interrupt*/
4093:Drivers/STM32L0xx_HAL_Driver/Src/stm32l0xx_hal_uart.c ****       ATOMIC_CLEAR_BIT(huart->Instance->CR1, (USART_CR1_RXNEIE | USART_CR1_PEIE));
 12640              		.loc 1 4093 7
 12641 0070 7B63     		str	r3, [r7, #52]
 12642 0072 0123     		movs	r3, #1
 12643 0074 BB61     		str	r3, [r7, #24]
 12644              	.LBB1110:
 12645              	.LBB1111:
 414:Drivers/CMSIS/Include/cmsis_gcc.h **** }
 12646              		.loc 2 414 3
 12647 0076 BB69     		ldr	r3, [r7, #24]
 12648              		.syntax divided
 12649              	@ 414 "Drivers/CMSIS/Include/cmsis_gcc.h" 1
 12650 0078 83F31088 		MSR primask, r3
 12651              	@ 0 "" 2
 12652              		.loc 2 415 1
 12653              		.thumb
 12654              		.syntax unified
ARM GAS  C:\Users\lidka\AppData\Local\Temp\ccqOATUZ.s 			page 306


 12655 007c C046     		nop
 12656              	.LBE1111:
 12657              	.LBE1110:
 12658              		.loc 1 4093 7
 12659 007e 7B68     		ldr	r3, [r7, #4]
 12660 0080 1B68     		ldr	r3, [r3]
 12661 0082 1A68     		ldr	r2, [r3]
 12662 0084 7B68     		ldr	r3, [r7, #4]
 12663 0086 1B68     		ldr	r3, [r3]
 12664 0088 3649     		ldr	r1, .L518
 12665 008a 0A40     		ands	r2, r1
 12666 008c 1A60     		str	r2, [r3]
 12667 008e 7B6B     		ldr	r3, [r7, #52]
 12668 0090 FB61     		str	r3, [r7, #28]
 12669              	.LBB1112:
 12670              	.LBB1113:
 414:Drivers/CMSIS/Include/cmsis_gcc.h **** }
 12671              		.loc 2 414 3
 12672 0092 FB69     		ldr	r3, [r7, #28]
 12673              		.syntax divided
 12674              	@ 414 "Drivers/CMSIS/Include/cmsis_gcc.h" 1
 12675 0094 83F31088 		MSR primask, r3
 12676              	@ 0 "" 2
 12677              		.loc 2 415 1
 12678              		.thumb
 12679              		.syntax unified
 12680 0098 C046     		nop
 12681              	.LBE1113:
 12682              	.LBE1112:
 12683              	.LBE1107:
 12684              	.LBB1114:
 12685              	.LBB1115:
 12686              	.LBB1116:
 386:Drivers/CMSIS/Include/cmsis_gcc.h ****   return(result);
 12687              		.loc 2 386 3
 12688              		.syntax divided
 12689              	@ 386 "Drivers/CMSIS/Include/cmsis_gcc.h" 1
 12690 009a EFF31083 		MRS r3, primask
 12691              	@ 0 "" 2
 12692              		.thumb
 12693              		.syntax unified
 12694 009e 3B62     		str	r3, [r7, #32]
 387:Drivers/CMSIS/Include/cmsis_gcc.h **** }
 12695              		.loc 2 387 9
 12696 00a0 3B6A     		ldr	r3, [r7, #32]
 12697              	.LBE1116:
 12698              	.LBE1115:
4094:Drivers/STM32L0xx_HAL_Driver/Src/stm32l0xx_hal_uart.c **** 
4095:Drivers/STM32L0xx_HAL_Driver/Src/stm32l0xx_hal_uart.c ****       /* Disable the UART Error Interrupt: (Frame error, noise error, overrun error) */
4096:Drivers/STM32L0xx_HAL_Driver/Src/stm32l0xx_hal_uart.c ****       ATOMIC_CLEAR_BIT(huart->Instance->CR3, USART_CR3_EIE);
 12699              		.loc 1 4096 7
 12700 00a2 3B63     		str	r3, [r7, #48]
 12701 00a4 0123     		movs	r3, #1
 12702 00a6 7B62     		str	r3, [r7, #36]
 12703              	.LBB1117:
 12704              	.LBB1118:
 414:Drivers/CMSIS/Include/cmsis_gcc.h **** }
ARM GAS  C:\Users\lidka\AppData\Local\Temp\ccqOATUZ.s 			page 307


 12705              		.loc 2 414 3
 12706 00a8 7B6A     		ldr	r3, [r7, #36]
 12707              		.syntax divided
 12708              	@ 414 "Drivers/CMSIS/Include/cmsis_gcc.h" 1
 12709 00aa 83F31088 		MSR primask, r3
 12710              	@ 0 "" 2
 12711              		.loc 2 415 1
 12712              		.thumb
 12713              		.syntax unified
 12714 00ae C046     		nop
 12715              	.LBE1118:
 12716              	.LBE1117:
 12717              		.loc 1 4096 7
 12718 00b0 7B68     		ldr	r3, [r7, #4]
 12719 00b2 1B68     		ldr	r3, [r3]
 12720 00b4 9A68     		ldr	r2, [r3, #8]
 12721 00b6 7B68     		ldr	r3, [r7, #4]
 12722 00b8 1B68     		ldr	r3, [r3]
 12723 00ba 0121     		movs	r1, #1
 12724 00bc 8A43     		bics	r2, r1
 12725 00be 9A60     		str	r2, [r3, #8]
 12726 00c0 3B6B     		ldr	r3, [r7, #48]
 12727 00c2 BB62     		str	r3, [r7, #40]
 12728              	.LBB1119:
 12729              	.LBB1120:
 414:Drivers/CMSIS/Include/cmsis_gcc.h **** }
 12730              		.loc 2 414 3
 12731 00c4 BB6A     		ldr	r3, [r7, #40]
 12732              		.syntax divided
 12733              	@ 414 "Drivers/CMSIS/Include/cmsis_gcc.h" 1
 12734 00c6 83F31088 		MSR primask, r3
 12735              	@ 0 "" 2
 12736              		.loc 2 415 1
 12737              		.thumb
 12738              		.syntax unified
 12739 00ca C046     		nop
 12740              	.LBE1120:
 12741              	.LBE1119:
 12742              	.LBE1114:
4097:Drivers/STM32L0xx_HAL_Driver/Src/stm32l0xx_hal_uart.c **** 
4098:Drivers/STM32L0xx_HAL_Driver/Src/stm32l0xx_hal_uart.c ****       /* Rx process is completed, restore huart->RxState to Ready */
4099:Drivers/STM32L0xx_HAL_Driver/Src/stm32l0xx_hal_uart.c ****       huart->RxState = HAL_UART_STATE_READY;
 12743              		.loc 1 4099 22
 12744 00cc 7B68     		ldr	r3, [r7, #4]
 12745 00ce 2022     		movs	r2, #32
 12746 00d0 DA67     		str	r2, [r3, #124]
4100:Drivers/STM32L0xx_HAL_Driver/Src/stm32l0xx_hal_uart.c **** 
4101:Drivers/STM32L0xx_HAL_Driver/Src/stm32l0xx_hal_uart.c ****       /* Clear RxISR function pointer */
4102:Drivers/STM32L0xx_HAL_Driver/Src/stm32l0xx_hal_uart.c ****       huart->RxISR = NULL;
 12747              		.loc 1 4102 20
 12748 00d2 7B68     		ldr	r3, [r7, #4]
 12749 00d4 0022     		movs	r2, #0
 12750 00d6 5A66     		str	r2, [r3, #100]
4103:Drivers/STM32L0xx_HAL_Driver/Src/stm32l0xx_hal_uart.c **** 
4104:Drivers/STM32L0xx_HAL_Driver/Src/stm32l0xx_hal_uart.c ****       /* Check current reception Mode :
4105:Drivers/STM32L0xx_HAL_Driver/Src/stm32l0xx_hal_uart.c ****          If Reception till IDLE event has been selected : */
4106:Drivers/STM32L0xx_HAL_Driver/Src/stm32l0xx_hal_uart.c ****       if (huart->ReceptionType == HAL_UART_RECEPTION_TOIDLE)
ARM GAS  C:\Users\lidka\AppData\Local\Temp\ccqOATUZ.s 			page 308


 12751              		.loc 1 4106 16
 12752 00d8 7B68     		ldr	r3, [r7, #4]
 12753 00da 1B6E     		ldr	r3, [r3, #96]
 12754              		.loc 1 4106 10
 12755 00dc 012B     		cmp	r3, #1
 12756 00de 2FD1     		bne	.L514
4107:Drivers/STM32L0xx_HAL_Driver/Src/stm32l0xx_hal_uart.c ****       {
4108:Drivers/STM32L0xx_HAL_Driver/Src/stm32l0xx_hal_uart.c ****         /* Set reception type to Standard */
4109:Drivers/STM32L0xx_HAL_Driver/Src/stm32l0xx_hal_uart.c ****         huart->ReceptionType = HAL_UART_RECEPTION_STANDARD;
 12757              		.loc 1 4109 30
 12758 00e0 7B68     		ldr	r3, [r7, #4]
 12759 00e2 0022     		movs	r2, #0
 12760 00e4 1A66     		str	r2, [r3, #96]
 12761              	.LBB1121:
 12762              	.LBB1122:
 12763              	.LBB1123:
 386:Drivers/CMSIS/Include/cmsis_gcc.h ****   return(result);
 12764              		.loc 2 386 3
 12765              		.syntax divided
 12766              	@ 386 "Drivers/CMSIS/Include/cmsis_gcc.h" 1
 12767 00e6 EFF31083 		MRS r3, primask
 12768              	@ 0 "" 2
 12769              		.thumb
 12770              		.syntax unified
 12771 00ea BB60     		str	r3, [r7, #8]
 387:Drivers/CMSIS/Include/cmsis_gcc.h **** }
 12772              		.loc 2 387 9
 12773 00ec BB68     		ldr	r3, [r7, #8]
 12774              	.LBE1123:
 12775              	.LBE1122:
4110:Drivers/STM32L0xx_HAL_Driver/Src/stm32l0xx_hal_uart.c **** 
4111:Drivers/STM32L0xx_HAL_Driver/Src/stm32l0xx_hal_uart.c ****         /* Disable IDLE interrupt */
4112:Drivers/STM32L0xx_HAL_Driver/Src/stm32l0xx_hal_uart.c ****         ATOMIC_CLEAR_BIT(huart->Instance->CR1, USART_CR1_IDLEIE);
 12776              		.loc 1 4112 9
 12777 00ee FB62     		str	r3, [r7, #44]
 12778 00f0 0123     		movs	r3, #1
 12779 00f2 FB60     		str	r3, [r7, #12]
 12780              	.LBB1124:
 12781              	.LBB1125:
 414:Drivers/CMSIS/Include/cmsis_gcc.h **** }
 12782              		.loc 2 414 3
 12783 00f4 FB68     		ldr	r3, [r7, #12]
 12784              		.syntax divided
 12785              	@ 414 "Drivers/CMSIS/Include/cmsis_gcc.h" 1
 12786 00f6 83F31088 		MSR primask, r3
 12787              	@ 0 "" 2
 12788              		.loc 2 415 1
 12789              		.thumb
 12790              		.syntax unified
 12791 00fa C046     		nop
 12792              	.LBE1125:
 12793              	.LBE1124:
 12794              		.loc 1 4112 9
 12795 00fc 7B68     		ldr	r3, [r7, #4]
 12796 00fe 1B68     		ldr	r3, [r3]
 12797 0100 1A68     		ldr	r2, [r3]
 12798 0102 7B68     		ldr	r3, [r7, #4]
ARM GAS  C:\Users\lidka\AppData\Local\Temp\ccqOATUZ.s 			page 309


 12799 0104 1B68     		ldr	r3, [r3]
 12800 0106 1021     		movs	r1, #16
 12801 0108 8A43     		bics	r2, r1
 12802 010a 1A60     		str	r2, [r3]
 12803 010c FB6A     		ldr	r3, [r7, #44]
 12804 010e 3B61     		str	r3, [r7, #16]
 12805              	.LBB1126:
 12806              	.LBB1127:
 414:Drivers/CMSIS/Include/cmsis_gcc.h **** }
 12807              		.loc 2 414 3
 12808 0110 3B69     		ldr	r3, [r7, #16]
 12809              		.syntax divided
 12810              	@ 414 "Drivers/CMSIS/Include/cmsis_gcc.h" 1
 12811 0112 83F31088 		MSR primask, r3
 12812              	@ 0 "" 2
 12813              		.loc 2 415 1
 12814              		.thumb
 12815              		.syntax unified
 12816 0116 C046     		nop
 12817              	.LBE1127:
 12818              	.LBE1126:
 12819              	.LBE1121:
4113:Drivers/STM32L0xx_HAL_Driver/Src/stm32l0xx_hal_uart.c **** 
4114:Drivers/STM32L0xx_HAL_Driver/Src/stm32l0xx_hal_uart.c ****         if (__HAL_UART_GET_FLAG(huart, UART_FLAG_IDLE) == SET)
 12820              		.loc 1 4114 13
 12821 0118 7B68     		ldr	r3, [r7, #4]
 12822 011a 1B68     		ldr	r3, [r3]
 12823 011c DB69     		ldr	r3, [r3, #28]
 12824 011e 1022     		movs	r2, #16
 12825 0120 1340     		ands	r3, r2
 12826              		.loc 1 4114 12
 12827 0122 102B     		cmp	r3, #16
 12828 0124 03D1     		bne	.L516
4115:Drivers/STM32L0xx_HAL_Driver/Src/stm32l0xx_hal_uart.c ****         {
4116:Drivers/STM32L0xx_HAL_Driver/Src/stm32l0xx_hal_uart.c ****           /* Clear IDLE Flag */
4117:Drivers/STM32L0xx_HAL_Driver/Src/stm32l0xx_hal_uart.c ****           __HAL_UART_CLEAR_FLAG(huart, UART_CLEAR_IDLEF);
 12829              		.loc 1 4117 11
 12830 0126 7B68     		ldr	r3, [r7, #4]
 12831 0128 1B68     		ldr	r3, [r3]
 12832 012a 1022     		movs	r2, #16
 12833 012c 1A62     		str	r2, [r3, #32]
 12834              	.L516:
4118:Drivers/STM32L0xx_HAL_Driver/Src/stm32l0xx_hal_uart.c ****         }
4119:Drivers/STM32L0xx_HAL_Driver/Src/stm32l0xx_hal_uart.c **** #if (USE_HAL_UART_REGISTER_CALLBACKS == 1)
4120:Drivers/STM32L0xx_HAL_Driver/Src/stm32l0xx_hal_uart.c ****         /*Call registered Rx Event callback*/
4121:Drivers/STM32L0xx_HAL_Driver/Src/stm32l0xx_hal_uart.c ****         huart->RxEventCallback(huart, huart->RxXferSize);
4122:Drivers/STM32L0xx_HAL_Driver/Src/stm32l0xx_hal_uart.c **** #else
4123:Drivers/STM32L0xx_HAL_Driver/Src/stm32l0xx_hal_uart.c ****         /*Call legacy weak Rx Event callback*/
4124:Drivers/STM32L0xx_HAL_Driver/Src/stm32l0xx_hal_uart.c ****         HAL_UARTEx_RxEventCallback(huart, huart->RxXferSize);
 12835              		.loc 1 4124 9
 12836 012e 7B68     		ldr	r3, [r7, #4]
 12837 0130 5822     		movs	r2, #88
 12838 0132 9A5A     		ldrh	r2, [r3, r2]
 12839 0134 7B68     		ldr	r3, [r7, #4]
 12840 0136 1100     		movs	r1, r2
 12841 0138 1800     		movs	r0, r3
 12842 013a FFF7FEFF 		bl	HAL_UARTEx_RxEventCallback
ARM GAS  C:\Users\lidka\AppData\Local\Temp\ccqOATUZ.s 			page 310


4125:Drivers/STM32L0xx_HAL_Driver/Src/stm32l0xx_hal_uart.c **** #endif /* (USE_HAL_UART_REGISTER_CALLBACKS) */
4126:Drivers/STM32L0xx_HAL_Driver/Src/stm32l0xx_hal_uart.c ****       }
4127:Drivers/STM32L0xx_HAL_Driver/Src/stm32l0xx_hal_uart.c ****       else
4128:Drivers/STM32L0xx_HAL_Driver/Src/stm32l0xx_hal_uart.c ****       {
4129:Drivers/STM32L0xx_HAL_Driver/Src/stm32l0xx_hal_uart.c ****         /* Standard reception API called */
4130:Drivers/STM32L0xx_HAL_Driver/Src/stm32l0xx_hal_uart.c **** #if (USE_HAL_UART_REGISTER_CALLBACKS == 1)
4131:Drivers/STM32L0xx_HAL_Driver/Src/stm32l0xx_hal_uart.c ****         /*Call registered Rx complete callback*/
4132:Drivers/STM32L0xx_HAL_Driver/Src/stm32l0xx_hal_uart.c ****         huart->RxCpltCallback(huart);
4133:Drivers/STM32L0xx_HAL_Driver/Src/stm32l0xx_hal_uart.c **** #else
4134:Drivers/STM32L0xx_HAL_Driver/Src/stm32l0xx_hal_uart.c ****         /*Call legacy weak Rx complete callback*/
4135:Drivers/STM32L0xx_HAL_Driver/Src/stm32l0xx_hal_uart.c ****         HAL_UART_RxCpltCallback(huart);
4136:Drivers/STM32L0xx_HAL_Driver/Src/stm32l0xx_hal_uart.c **** #endif /* USE_HAL_UART_REGISTER_CALLBACKS */
4137:Drivers/STM32L0xx_HAL_Driver/Src/stm32l0xx_hal_uart.c ****       }
4138:Drivers/STM32L0xx_HAL_Driver/Src/stm32l0xx_hal_uart.c ****     }
4139:Drivers/STM32L0xx_HAL_Driver/Src/stm32l0xx_hal_uart.c ****   }
4140:Drivers/STM32L0xx_HAL_Driver/Src/stm32l0xx_hal_uart.c ****   else
4141:Drivers/STM32L0xx_HAL_Driver/Src/stm32l0xx_hal_uart.c ****   {
4142:Drivers/STM32L0xx_HAL_Driver/Src/stm32l0xx_hal_uart.c ****     /* Clear RXNE interrupt flag */
4143:Drivers/STM32L0xx_HAL_Driver/Src/stm32l0xx_hal_uart.c ****     __HAL_UART_SEND_REQ(huart, UART_RXDATA_FLUSH_REQUEST);
4144:Drivers/STM32L0xx_HAL_Driver/Src/stm32l0xx_hal_uart.c ****   }
4145:Drivers/STM32L0xx_HAL_Driver/Src/stm32l0xx_hal_uart.c **** }
 12843              		.loc 1 4145 1
 12844 013e 0CE0     		b	.L517
 12845              	.L514:
4135:Drivers/STM32L0xx_HAL_Driver/Src/stm32l0xx_hal_uart.c **** #endif /* USE_HAL_UART_REGISTER_CALLBACKS */
 12846              		.loc 1 4135 9
 12847 0140 7B68     		ldr	r3, [r7, #4]
 12848 0142 1800     		movs	r0, r3
 12849 0144 FFF7FEFF 		bl	HAL_UART_RxCpltCallback
 12850              		.loc 1 4145 1
 12851 0148 07E0     		b	.L517
 12852              	.L510:
4143:Drivers/STM32L0xx_HAL_Driver/Src/stm32l0xx_hal_uart.c ****   }
 12853              		.loc 1 4143 5
 12854 014a 7B68     		ldr	r3, [r7, #4]
 12855 014c 1B68     		ldr	r3, [r3]
 12856 014e 9A69     		ldr	r2, [r3, #24]
 12857 0150 7B68     		ldr	r3, [r7, #4]
 12858 0152 1B68     		ldr	r3, [r3]
 12859 0154 0821     		movs	r1, #8
 12860 0156 0A43     		orrs	r2, r1
 12861 0158 9A61     		str	r2, [r3, #24]
 12862              	.L517:
 12863              		.loc 1 4145 1
 12864 015a C046     		nop
 12865 015c BD46     		mov	sp, r7
 12866 015e 10B0     		add	sp, sp, #64
 12867              		@ sp needed
 12868 0160 80BD     		pop	{r7, pc}
 12869              	.L519:
 12870 0162 C046     		.align	2
 12871              	.L518:
 12872 0164 DFFEFFFF 		.word	-289
 12873              		.cfi_endproc
 12874              	.LFE112:
 12876              		.text
 12877              	.Letext0:
ARM GAS  C:\Users\lidka\AppData\Local\Temp\ccqOATUZ.s 			page 311


 12878              		.file 3 "d:\\program files (x86)\\gnu arm embedded toolchain\\10 2021.10\\arm-none-eabi\\include\\
 12879              		.file 4 "d:\\program files (x86)\\gnu arm embedded toolchain\\10 2021.10\\arm-none-eabi\\include\\
 12880              		.file 5 "Drivers/CMSIS/Device/ST/STM32L0xx/Include/stm32l053xx.h"
 12881              		.file 6 "Drivers/CMSIS/Device/ST/STM32L0xx/Include/stm32l0xx.h"
 12882              		.file 7 "Drivers/STM32L0xx_HAL_Driver/Inc/stm32l0xx_hal_def.h"
 12883              		.file 8 "Drivers/STM32L0xx_HAL_Driver/Inc/stm32l0xx_hal_dma.h"
 12884              		.file 9 "Drivers/STM32L0xx_HAL_Driver/Inc/stm32l0xx_hal_uart.h"
ARM GAS  C:\Users\lidka\AppData\Local\Temp\ccqOATUZ.s 			page 312


DEFINED SYMBOLS
                            *ABS*:00000000 stm32l0xx_hal_uart.c
C:\Users\lidka\AppData\Local\Temp\ccqOATUZ.s:18     .text.HAL_UART_Init:00000000 $t
C:\Users\lidka\AppData\Local\Temp\ccqOATUZ.s:24     .text.HAL_UART_Init:00000000 HAL_UART_Init
C:\Users\lidka\AppData\Local\Temp\ccqOATUZ.s:744    .text.HAL_UART_MspInit:00000000 HAL_UART_MspInit
C:\Users\lidka\AppData\Local\Temp\ccqOATUZ.s:8054   .text.UART_SetConfig:00000000 UART_SetConfig
C:\Users\lidka\AppData\Local\Temp\ccqOATUZ.s:8925   .text.UART_AdvFeatureConfig:00000000 UART_AdvFeatureConfig
C:\Users\lidka\AppData\Local\Temp\ccqOATUZ.s:9160   .text.UART_CheckIdleState:00000000 UART_CheckIdleState
C:\Users\lidka\AppData\Local\Temp\ccqOATUZ.s:145    .text.HAL_UART_Init:000000a4 $d
C:\Users\lidka\AppData\Local\Temp\ccqOATUZ.s:150    .text.HAL_HalfDuplex_Init:00000000 $t
C:\Users\lidka\AppData\Local\Temp\ccqOATUZ.s:156    .text.HAL_HalfDuplex_Init:00000000 HAL_HalfDuplex_Init
C:\Users\lidka\AppData\Local\Temp\ccqOATUZ.s:285    .text.HAL_HalfDuplex_Init:000000b4 $d
C:\Users\lidka\AppData\Local\Temp\ccqOATUZ.s:290    .text.HAL_LIN_Init:00000000 $t
C:\Users\lidka\AppData\Local\Temp\ccqOATUZ.s:296    .text.HAL_LIN_Init:00000000 HAL_LIN_Init
C:\Users\lidka\AppData\Local\Temp\ccqOATUZ.s:461    .text.HAL_LIN_Init:000000ec $d
C:\Users\lidka\AppData\Local\Temp\ccqOATUZ.s:466    .text.HAL_MultiProcessor_Init:00000000 $t
C:\Users\lidka\AppData\Local\Temp\ccqOATUZ.s:472    .text.HAL_MultiProcessor_Init:00000000 HAL_MultiProcessor_Init
C:\Users\lidka\AppData\Local\Temp\ccqOATUZ.s:630    .text.HAL_MultiProcessor_Init:000000e8 $d
C:\Users\lidka\AppData\Local\Temp\ccqOATUZ.s:636    .text.HAL_UART_DeInit:00000000 $t
C:\Users\lidka\AppData\Local\Temp\ccqOATUZ.s:642    .text.HAL_UART_DeInit:00000000 HAL_UART_DeInit
C:\Users\lidka\AppData\Local\Temp\ccqOATUZ.s:778    .text.HAL_UART_MspDeInit:00000000 HAL_UART_MspDeInit
C:\Users\lidka\AppData\Local\Temp\ccqOATUZ.s:738    .text.HAL_UART_MspInit:00000000 $t
C:\Users\lidka\AppData\Local\Temp\ccqOATUZ.s:772    .text.HAL_UART_MspDeInit:00000000 $t
C:\Users\lidka\AppData\Local\Temp\ccqOATUZ.s:806    .text.HAL_UART_Transmit:00000000 $t
C:\Users\lidka\AppData\Local\Temp\ccqOATUZ.s:812    .text.HAL_UART_Transmit:00000000 HAL_UART_Transmit
C:\Users\lidka\AppData\Local\Temp\ccqOATUZ.s:9281   .text.UART_WaitOnFlagUntilTimeout:00000000 UART_WaitOnFlagUntilTimeout
C:\Users\lidka\AppData\Local\Temp\ccqOATUZ.s:1067   .text.HAL_UART_Receive:00000000 $t
C:\Users\lidka\AppData\Local\Temp\ccqOATUZ.s:1073   .text.HAL_UART_Receive:00000000 HAL_UART_Receive
C:\Users\lidka\AppData\Local\Temp\ccqOATUZ.s:1416   .text.HAL_UART_Receive:000001d8 $d
C:\Users\lidka\AppData\Local\Temp\ccqOATUZ.s:1421   .text.HAL_UART_Transmit_IT:00000000 $t
C:\Users\lidka\AppData\Local\Temp\ccqOATUZ.s:1427   .text.HAL_UART_Transmit_IT:00000000 HAL_UART_Transmit_IT
C:\Users\lidka\AppData\Local\Temp\ccqOATUZ.s:1645   .text.HAL_UART_Transmit_IT:000000f8 $d
C:\Users\lidka\AppData\Local\Temp\ccqOATUZ.s:11898  .text.UART_TxISR_16BIT:00000000 UART_TxISR_16BIT
C:\Users\lidka\AppData\Local\Temp\ccqOATUZ.s:11701  .text.UART_TxISR_8BIT:00000000 UART_TxISR_8BIT
C:\Users\lidka\AppData\Local\Temp\ccqOATUZ.s:1651   .text.HAL_UART_Receive_IT:00000000 $t
C:\Users\lidka\AppData\Local\Temp\ccqOATUZ.s:1657   .text.HAL_UART_Receive_IT:00000000 HAL_UART_Receive_IT
C:\Users\lidka\AppData\Local\Temp\ccqOATUZ.s:9672   .text.UART_Start_Receive_IT:00000000 UART_Start_Receive_IT
C:\Users\lidka\AppData\Local\Temp\ccqOATUZ.s:1841   .text.HAL_UART_Receive_IT:000000cc $d
C:\Users\lidka\AppData\Local\Temp\ccqOATUZ.s:1846   .text.HAL_UART_Transmit_DMA:00000000 $t
C:\Users\lidka\AppData\Local\Temp\ccqOATUZ.s:1852   .text.HAL_UART_Transmit_DMA:00000000 HAL_UART_Transmit_DMA
C:\Users\lidka\AppData\Local\Temp\ccqOATUZ.s:2114   .text.HAL_UART_Transmit_DMA:00000138 $d
C:\Users\lidka\AppData\Local\Temp\ccqOATUZ.s:10622  .text.UART_DMATransmitCplt:00000000 UART_DMATransmitCplt
C:\Users\lidka\AppData\Local\Temp\ccqOATUZ.s:10797  .text.UART_DMATxHalfCplt:00000000 UART_DMATxHalfCplt
C:\Users\lidka\AppData\Local\Temp\ccqOATUZ.s:11223  .text.UART_DMAError:00000000 UART_DMAError
C:\Users\lidka\AppData\Local\Temp\ccqOATUZ.s:2121   .text.HAL_UART_Receive_DMA:00000000 $t
C:\Users\lidka\AppData\Local\Temp\ccqOATUZ.s:2127   .text.HAL_UART_Receive_DMA:00000000 HAL_UART_Receive_DMA
C:\Users\lidka\AppData\Local\Temp\ccqOATUZ.s:9977   .text.UART_Start_Receive_DMA:00000000 UART_Start_Receive_DMA
C:\Users\lidka\AppData\Local\Temp\ccqOATUZ.s:2311   .text.HAL_UART_Receive_DMA:000000cc $d
C:\Users\lidka\AppData\Local\Temp\ccqOATUZ.s:2316   .text.HAL_UART_DMAPause:00000000 $t
C:\Users\lidka\AppData\Local\Temp\ccqOATUZ.s:2322   .text.HAL_UART_DMAPause:00000000 HAL_UART_DMAPause
C:\Users\lidka\AppData\Local\Temp\ccqOATUZ.s:2644   .text.HAL_UART_DMAPause:0000012c $d
C:\Users\lidka\AppData\Local\Temp\ccqOATUZ.s:2649   .text.HAL_UART_DMAResume:00000000 $t
C:\Users\lidka\AppData\Local\Temp\ccqOATUZ.s:2655   .text.HAL_UART_DMAResume:00000000 HAL_UART_DMAResume
C:\Users\lidka\AppData\Local\Temp\ccqOATUZ.s:2962   .text.HAL_UART_DMAStop:00000000 $t
C:\Users\lidka\AppData\Local\Temp\ccqOATUZ.s:2968   .text.HAL_UART_DMAStop:00000000 HAL_UART_DMAStop
C:\Users\lidka\AppData\Local\Temp\ccqOATUZ.s:10293  .text.UART_EndTxTransfer:00000000 UART_EndTxTransfer
C:\Users\lidka\AppData\Local\Temp\ccqOATUZ.s:10389  .text.UART_EndRxTransfer:00000000 UART_EndRxTransfer
ARM GAS  C:\Users\lidka\AppData\Local\Temp\ccqOATUZ.s 			page 313


C:\Users\lidka\AppData\Local\Temp\ccqOATUZ.s:3225   .text.HAL_UART_Abort:00000000 $t
C:\Users\lidka\AppData\Local\Temp\ccqOATUZ.s:3231   .text.HAL_UART_Abort:00000000 HAL_UART_Abort
C:\Users\lidka\AppData\Local\Temp\ccqOATUZ.s:3698   .text.HAL_UART_Abort:000001e8 $d
C:\Users\lidka\AppData\Local\Temp\ccqOATUZ.s:3703   .text.HAL_UART_AbortTransmit:00000000 $t
C:\Users\lidka\AppData\Local\Temp\ccqOATUZ.s:3709   .text.HAL_UART_AbortTransmit:00000000 HAL_UART_AbortTransmit
C:\Users\lidka\AppData\Local\Temp\ccqOATUZ.s:3914   .text.HAL_UART_AbortReceive:00000000 $t
C:\Users\lidka\AppData\Local\Temp\ccqOATUZ.s:3920   .text.HAL_UART_AbortReceive:00000000 HAL_UART_AbortReceive
C:\Users\lidka\AppData\Local\Temp\ccqOATUZ.s:4267   .text.HAL_UART_AbortReceive:00000158 $d
C:\Users\lidka\AppData\Local\Temp\ccqOATUZ.s:4272   .text.HAL_UART_Abort_IT:00000000 $t
C:\Users\lidka\AppData\Local\Temp\ccqOATUZ.s:4278   .text.HAL_UART_Abort_IT:00000000 HAL_UART_Abort_IT
C:\Users\lidka\AppData\Local\Temp\ccqOATUZ.s:6839   .text.HAL_UART_AbortCpltCallback:00000000 HAL_UART_AbortCpltCallback
C:\Users\lidka\AppData\Local\Temp\ccqOATUZ.s:4803   .text.HAL_UART_Abort_IT:0000022c $d
C:\Users\lidka\AppData\Local\Temp\ccqOATUZ.s:11378  .text.UART_DMATxAbortCallback:00000000 UART_DMATxAbortCallback
C:\Users\lidka\AppData\Local\Temp\ccqOATUZ.s:11476  .text.UART_DMARxAbortCallback:00000000 UART_DMARxAbortCallback
C:\Users\lidka\AppData\Local\Temp\ccqOATUZ.s:4810   .text.HAL_UART_AbortTransmit_IT:00000000 $t
C:\Users\lidka\AppData\Local\Temp\ccqOATUZ.s:4816   .text.HAL_UART_AbortTransmit_IT:00000000 HAL_UART_AbortTransmit_IT
C:\Users\lidka\AppData\Local\Temp\ccqOATUZ.s:6873   .text.HAL_UART_AbortTransmitCpltCallback:00000000 HAL_UART_AbortTransmitCpltCallback
C:\Users\lidka\AppData\Local\Temp\ccqOATUZ.s:5043   .text.HAL_UART_AbortTransmit_IT:000000ec $d
C:\Users\lidka\AppData\Local\Temp\ccqOATUZ.s:11583  .text.UART_DMATxOnlyAbortCallback:00000000 UART_DMATxOnlyAbortCallback
C:\Users\lidka\AppData\Local\Temp\ccqOATUZ.s:5048   .text.HAL_UART_AbortReceive_IT:00000000 $t
C:\Users\lidka\AppData\Local\Temp\ccqOATUZ.s:5054   .text.HAL_UART_AbortReceive_IT:00000000 HAL_UART_AbortReceive_IT
C:\Users\lidka\AppData\Local\Temp\ccqOATUZ.s:6907   .text.HAL_UART_AbortReceiveCpltCallback:00000000 HAL_UART_AbortReceiveCpltCallback
C:\Users\lidka\AppData\Local\Temp\ccqOATUZ.s:5433   .text.HAL_UART_AbortReceive_IT:00000184 $d
C:\Users\lidka\AppData\Local\Temp\ccqOATUZ.s:11633  .text.UART_DMARxOnlyAbortCallback:00000000 UART_DMARxOnlyAbortCallback
C:\Users\lidka\AppData\Local\Temp\ccqOATUZ.s:5439   .text.HAL_UART_IRQHandler:00000000 $t
C:\Users\lidka\AppData\Local\Temp\ccqOATUZ.s:5445   .text.HAL_UART_IRQHandler:00000000 HAL_UART_IRQHandler
C:\Users\lidka\AppData\Local\Temp\ccqOATUZ.s:6805   .text.HAL_UART_ErrorCallback:00000000 HAL_UART_ErrorCallback
C:\Users\lidka\AppData\Local\Temp\ccqOATUZ.s:5937   .text.HAL_UART_IRQHandler:00000298 $d
C:\Users\lidka\AppData\Local\Temp\ccqOATUZ.s:11327  .text.UART_DMAAbortOnError:00000000 UART_DMAAbortOnError
C:\Users\lidka\AppData\Local\Temp\ccqOATUZ.s:5942   .text.HAL_UART_IRQHandler:000002a4 $t
C:\Users\lidka\AppData\Local\Temp\ccqOATUZ.s:6941   .text.HAL_UARTEx_RxEventCallback:00000000 HAL_UARTEx_RxEventCallback
C:\Users\lidka\AppData\Local\Temp\ccqOATUZ.s:12101  .text.UART_EndTransmit_IT:00000000 UART_EndTransmit_IT
C:\Users\lidka\AppData\Local\Temp\ccqOATUZ.s:6657   .text.HAL_UART_IRQHandler:000005ac $d
C:\Users\lidka\AppData\Local\Temp\ccqOATUZ.s:6663   .text.HAL_UART_TxCpltCallback:00000000 $t
C:\Users\lidka\AppData\Local\Temp\ccqOATUZ.s:6669   .text.HAL_UART_TxCpltCallback:00000000 HAL_UART_TxCpltCallback
C:\Users\lidka\AppData\Local\Temp\ccqOATUZ.s:6697   .text.HAL_UART_TxHalfCpltCallback:00000000 $t
C:\Users\lidka\AppData\Local\Temp\ccqOATUZ.s:6703   .text.HAL_UART_TxHalfCpltCallback:00000000 HAL_UART_TxHalfCpltCallback
C:\Users\lidka\AppData\Local\Temp\ccqOATUZ.s:6731   .text.HAL_UART_RxCpltCallback:00000000 $t
C:\Users\lidka\AppData\Local\Temp\ccqOATUZ.s:6737   .text.HAL_UART_RxCpltCallback:00000000 HAL_UART_RxCpltCallback
C:\Users\lidka\AppData\Local\Temp\ccqOATUZ.s:6765   .text.HAL_UART_RxHalfCpltCallback:00000000 $t
C:\Users\lidka\AppData\Local\Temp\ccqOATUZ.s:6771   .text.HAL_UART_RxHalfCpltCallback:00000000 HAL_UART_RxHalfCpltCallback
C:\Users\lidka\AppData\Local\Temp\ccqOATUZ.s:6799   .text.HAL_UART_ErrorCallback:00000000 $t
C:\Users\lidka\AppData\Local\Temp\ccqOATUZ.s:6833   .text.HAL_UART_AbortCpltCallback:00000000 $t
C:\Users\lidka\AppData\Local\Temp\ccqOATUZ.s:6867   .text.HAL_UART_AbortTransmitCpltCallback:00000000 $t
C:\Users\lidka\AppData\Local\Temp\ccqOATUZ.s:6901   .text.HAL_UART_AbortReceiveCpltCallback:00000000 $t
C:\Users\lidka\AppData\Local\Temp\ccqOATUZ.s:6935   .text.HAL_UARTEx_RxEventCallback:00000000 $t
C:\Users\lidka\AppData\Local\Temp\ccqOATUZ.s:6972   .text.HAL_UART_ReceiverTimeout_Config:00000000 $t
C:\Users\lidka\AppData\Local\Temp\ccqOATUZ.s:6978   .text.HAL_UART_ReceiverTimeout_Config:00000000 HAL_UART_ReceiverTimeout_Config
C:\Users\lidka\AppData\Local\Temp\ccqOATUZ.s:7025   .text.HAL_UART_ReceiverTimeout_Config:00000030 $d
C:\Users\lidka\AppData\Local\Temp\ccqOATUZ.s:7030   .text.HAL_UART_EnableReceiverTimeout:00000000 $t
C:\Users\lidka\AppData\Local\Temp\ccqOATUZ.s:7036   .text.HAL_UART_EnableReceiverTimeout:00000000 HAL_UART_EnableReceiverTimeout
C:\Users\lidka\AppData\Local\Temp\ccqOATUZ.s:7125   .text.HAL_UART_EnableReceiverTimeout:00000068 $d
C:\Users\lidka\AppData\Local\Temp\ccqOATUZ.s:7130   .text.HAL_UART_DisableReceiverTimeout:00000000 $t
C:\Users\lidka\AppData\Local\Temp\ccqOATUZ.s:7136   .text.HAL_UART_DisableReceiverTimeout:00000000 HAL_UART_DisableReceiverTimeout
C:\Users\lidka\AppData\Local\Temp\ccqOATUZ.s:7224   .text.HAL_UART_DisableReceiverTimeout:00000068 $d
C:\Users\lidka\AppData\Local\Temp\ccqOATUZ.s:7230   .text.HAL_MultiProcessor_EnableMuteMode:00000000 $t
C:\Users\lidka\AppData\Local\Temp\ccqOATUZ.s:7236   .text.HAL_MultiProcessor_EnableMuteMode:00000000 HAL_MultiProcessor_EnableMuteMode
ARM GAS  C:\Users\lidka\AppData\Local\Temp\ccqOATUZ.s 			page 314


C:\Users\lidka\AppData\Local\Temp\ccqOATUZ.s:7353   .text.HAL_MultiProcessor_DisableMuteMode:00000000 $t
C:\Users\lidka\AppData\Local\Temp\ccqOATUZ.s:7359   .text.HAL_MultiProcessor_DisableMuteMode:00000000 HAL_MultiProcessor_DisableMuteMode
C:\Users\lidka\AppData\Local\Temp\ccqOATUZ.s:7474   .text.HAL_MultiProcessor_DisableMuteMode:00000070 $d
C:\Users\lidka\AppData\Local\Temp\ccqOATUZ.s:7479   .text.HAL_MultiProcessor_EnterMuteMode:00000000 $t
C:\Users\lidka\AppData\Local\Temp\ccqOATUZ.s:7485   .text.HAL_MultiProcessor_EnterMuteMode:00000000 HAL_MultiProcessor_EnterMuteMode
C:\Users\lidka\AppData\Local\Temp\ccqOATUZ.s:7522   .text.HAL_HalfDuplex_EnableTransmitter:00000000 $t
C:\Users\lidka\AppData\Local\Temp\ccqOATUZ.s:7528   .text.HAL_HalfDuplex_EnableTransmitter:00000000 HAL_HalfDuplex_EnableTransmitter
C:\Users\lidka\AppData\Local\Temp\ccqOATUZ.s:7705   .text.HAL_HalfDuplex_EnableReceiver:00000000 $t
C:\Users\lidka\AppData\Local\Temp\ccqOATUZ.s:7711   .text.HAL_HalfDuplex_EnableReceiver:00000000 HAL_HalfDuplex_EnableReceiver
C:\Users\lidka\AppData\Local\Temp\ccqOATUZ.s:7888   .text.HAL_LIN_SendBreak:00000000 $t
C:\Users\lidka\AppData\Local\Temp\ccqOATUZ.s:7894   .text.HAL_LIN_SendBreak:00000000 HAL_LIN_SendBreak
C:\Users\lidka\AppData\Local\Temp\ccqOATUZ.s:7962   .text.HAL_UART_GetState:00000000 $t
C:\Users\lidka\AppData\Local\Temp\ccqOATUZ.s:7968   .text.HAL_UART_GetState:00000000 HAL_UART_GetState
C:\Users\lidka\AppData\Local\Temp\ccqOATUZ.s:8008   .text.HAL_UART_GetError:00000000 $t
C:\Users\lidka\AppData\Local\Temp\ccqOATUZ.s:8014   .text.HAL_UART_GetError:00000000 HAL_UART_GetError
C:\Users\lidka\AppData\Local\Temp\ccqOATUZ.s:8048   .text.UART_SetConfig:00000000 $t
C:\Users\lidka\AppData\Local\Temp\ccqOATUZ.s:8590   .rodata.UART_SetConfig:00000000 $d
C:\Users\lidka\AppData\Local\Temp\ccqOATUZ.s:8619   .text.UART_SetConfig:0000034c $d
C:\Users\lidka\AppData\Local\Temp\ccqOATUZ.s:8631   .text.UART_SetConfig:00000374 $t
C:\Users\lidka\AppData\Local\Temp\ccqOATUZ.s:8911   .text.UART_SetConfig:000004f8 $d
C:\Users\lidka\AppData\Local\Temp\ccqOATUZ.s:8919   .text.UART_AdvFeatureConfig:00000000 $t
C:\Users\lidka\AppData\Local\Temp\ccqOATUZ.s:9141   .text.UART_AdvFeatureConfig:00000144 $d
C:\Users\lidka\AppData\Local\Temp\ccqOATUZ.s:9154   .text.UART_CheckIdleState:00000000 $t
C:\Users\lidka\AppData\Local\Temp\ccqOATUZ.s:9270   .text.UART_CheckIdleState:0000008c $d
C:\Users\lidka\AppData\Local\Temp\ccqOATUZ.s:9275   .text.UART_WaitOnFlagUntilTimeout:00000000 $t
C:\Users\lidka\AppData\Local\Temp\ccqOATUZ.s:9661   .text.UART_WaitOnFlagUntilTimeout:00000184 $d
C:\Users\lidka\AppData\Local\Temp\ccqOATUZ.s:9666   .text.UART_Start_Receive_IT:00000000 $t
C:\Users\lidka\AppData\Local\Temp\ccqOATUZ.s:9964   .text.UART_Start_Receive_IT:00000154 $d
C:\Users\lidka\AppData\Local\Temp\ccqOATUZ.s:12545  .text.UART_RxISR_16BIT:00000000 UART_RxISR_16BIT
C:\Users\lidka\AppData\Local\Temp\ccqOATUZ.s:12205  .text.UART_RxISR_8BIT:00000000 UART_RxISR_8BIT
C:\Users\lidka\AppData\Local\Temp\ccqOATUZ.s:9971   .text.UART_Start_Receive_DMA:00000000 $t
C:\Users\lidka\AppData\Local\Temp\ccqOATUZ.s:10281  .text.UART_Start_Receive_DMA:00000138 $d
C:\Users\lidka\AppData\Local\Temp\ccqOATUZ.s:10838  .text.UART_DMAReceiveCplt:00000000 UART_DMAReceiveCplt
C:\Users\lidka\AppData\Local\Temp\ccqOATUZ.s:11161  .text.UART_DMARxHalfCplt:00000000 UART_DMARxHalfCplt
C:\Users\lidka\AppData\Local\Temp\ccqOATUZ.s:10288  .text.UART_EndTxTransfer:00000000 $t
C:\Users\lidka\AppData\Local\Temp\ccqOATUZ.s:10384  .text.UART_EndRxTransfer:00000000 $t
C:\Users\lidka\AppData\Local\Temp\ccqOATUZ.s:10612  .text.UART_EndRxTransfer:000000c0 $d
C:\Users\lidka\AppData\Local\Temp\ccqOATUZ.s:10617  .text.UART_DMATransmitCplt:00000000 $t
C:\Users\lidka\AppData\Local\Temp\ccqOATUZ.s:10792  .text.UART_DMATxHalfCplt:00000000 $t
C:\Users\lidka\AppData\Local\Temp\ccqOATUZ.s:10833  .text.UART_DMAReceiveCplt:00000000 $t
C:\Users\lidka\AppData\Local\Temp\ccqOATUZ.s:11151  .text.UART_DMAReceiveCplt:00000124 $d
C:\Users\lidka\AppData\Local\Temp\ccqOATUZ.s:11156  .text.UART_DMARxHalfCplt:00000000 $t
C:\Users\lidka\AppData\Local\Temp\ccqOATUZ.s:11218  .text.UART_DMAError:00000000 $t
C:\Users\lidka\AppData\Local\Temp\ccqOATUZ.s:11322  .text.UART_DMAAbortOnError:00000000 $t
C:\Users\lidka\AppData\Local\Temp\ccqOATUZ.s:11373  .text.UART_DMATxAbortCallback:00000000 $t
C:\Users\lidka\AppData\Local\Temp\ccqOATUZ.s:11471  .text.UART_DMARxAbortCallback:00000000 $t
C:\Users\lidka\AppData\Local\Temp\ccqOATUZ.s:11578  .text.UART_DMATxOnlyAbortCallback:00000000 $t
C:\Users\lidka\AppData\Local\Temp\ccqOATUZ.s:11628  .text.UART_DMARxOnlyAbortCallback:00000000 $t
C:\Users\lidka\AppData\Local\Temp\ccqOATUZ.s:11696  .text.UART_TxISR_8BIT:00000000 $t
C:\Users\lidka\AppData\Local\Temp\ccqOATUZ.s:11893  .text.UART_TxISR_16BIT:00000000 $t
C:\Users\lidka\AppData\Local\Temp\ccqOATUZ.s:12096  .text.UART_EndTransmit_IT:00000000 $t
C:\Users\lidka\AppData\Local\Temp\ccqOATUZ.s:12200  .text.UART_RxISR_8BIT:00000000 $t
C:\Users\lidka\AppData\Local\Temp\ccqOATUZ.s:12535  .text.UART_RxISR_8BIT:00000164 $d
C:\Users\lidka\AppData\Local\Temp\ccqOATUZ.s:12540  .text.UART_RxISR_16BIT:00000000 $t
C:\Users\lidka\AppData\Local\Temp\ccqOATUZ.s:12872  .text.UART_RxISR_16BIT:00000164 $d

UNDEFINED SYMBOLS
ARM GAS  C:\Users\lidka\AppData\Local\Temp\ccqOATUZ.s 			page 315


HAL_GetTick
HAL_DMA_Start_IT
HAL_DMA_Abort
HAL_DMA_GetError
HAL_DMA_Abort_IT
HAL_UARTEx_WakeupCallback
__aeabi_uldivmod
__aeabi_uidiv
HAL_RCC_GetPCLK1Freq
HAL_RCC_GetSysClockFreq
HAL_RCC_GetPCLK2Freq
