ARM GAS  C:\Users\lidka\AppData\Local\Temp\ccqOATUZ.s 			page 1


   1              		.cpu cortex-m0plus
   2              		.arch armv6s-m
   3              		.fpu softvfp
   4              		.eabi_attribute 20, 1
   5              		.eabi_attribute 21, 1
   6              		.eabi_attribute 23, 3
   7              		.eabi_attribute 24, 1
   8              		.eabi_attribute 25, 1
   9              		.eabi_attribute 26, 1
  10              		.eabi_attribute 30, 6
  11              		.eabi_attribute 34, 0
  12              		.eabi_attribute 18, 4
  13              		.file	"stm32l0xx_hal_uart.c"
  14              		.text
  15              	.Ltext0:
  16              		.cfi_sections	.debug_frame
  17              		.section	.text.HAL_UART_Init,"ax",%progbits
  18              		.align	1
  19              		.global	HAL_UART_Init
  20              		.syntax unified
  21              		.code	16
  22              		.thumb_func
  24              	HAL_UART_Init:
  25              	.LFB47:
  26              		.file 1 "Drivers/STM32L0xx_HAL_Driver/Src/stm32l0xx_hal_uart.c"
   1:Drivers/STM32L0xx_HAL_Driver/Src/stm32l0xx_hal_uart.c **** /**
   2:Drivers/STM32L0xx_HAL_Driver/Src/stm32l0xx_hal_uart.c ****   ******************************************************************************
   3:Drivers/STM32L0xx_HAL_Driver/Src/stm32l0xx_hal_uart.c ****   * @file    stm32l0xx_hal_uart.c
   4:Drivers/STM32L0xx_HAL_Driver/Src/stm32l0xx_hal_uart.c ****   * @author  MCD Application Team
   5:Drivers/STM32L0xx_HAL_Driver/Src/stm32l0xx_hal_uart.c ****   * @brief   UART HAL module driver.
   6:Drivers/STM32L0xx_HAL_Driver/Src/stm32l0xx_hal_uart.c ****   *          This file provides firmware functions to manage the following
   7:Drivers/STM32L0xx_HAL_Driver/Src/stm32l0xx_hal_uart.c ****   *          functionalities of the Universal Asynchronous Receiver Transmitter Peripheral (UART).
   8:Drivers/STM32L0xx_HAL_Driver/Src/stm32l0xx_hal_uart.c ****   *           + Initialization and de-initialization functions
   9:Drivers/STM32L0xx_HAL_Driver/Src/stm32l0xx_hal_uart.c ****   *           + IO operation functions
  10:Drivers/STM32L0xx_HAL_Driver/Src/stm32l0xx_hal_uart.c ****   *           + Peripheral Control functions
  11:Drivers/STM32L0xx_HAL_Driver/Src/stm32l0xx_hal_uart.c ****   *
  12:Drivers/STM32L0xx_HAL_Driver/Src/stm32l0xx_hal_uart.c ****   *
  13:Drivers/STM32L0xx_HAL_Driver/Src/stm32l0xx_hal_uart.c ****   @verbatim
  14:Drivers/STM32L0xx_HAL_Driver/Src/stm32l0xx_hal_uart.c ****  ===============================================================================
  15:Drivers/STM32L0xx_HAL_Driver/Src/stm32l0xx_hal_uart.c ****                         ##### How to use this driver #####
  16:Drivers/STM32L0xx_HAL_Driver/Src/stm32l0xx_hal_uart.c ****  ===============================================================================
  17:Drivers/STM32L0xx_HAL_Driver/Src/stm32l0xx_hal_uart.c ****   [..]
  18:Drivers/STM32L0xx_HAL_Driver/Src/stm32l0xx_hal_uart.c ****     The UART HAL driver can be used as follows:
  19:Drivers/STM32L0xx_HAL_Driver/Src/stm32l0xx_hal_uart.c **** 
  20:Drivers/STM32L0xx_HAL_Driver/Src/stm32l0xx_hal_uart.c ****     (#) Declare a UART_HandleTypeDef handle structure (eg. UART_HandleTypeDef huart).
  21:Drivers/STM32L0xx_HAL_Driver/Src/stm32l0xx_hal_uart.c ****     (#) Initialize the UART low level resources by implementing the HAL_UART_MspInit() API:
  22:Drivers/STM32L0xx_HAL_Driver/Src/stm32l0xx_hal_uart.c ****         (++) Enable the USARTx interface clock.
  23:Drivers/STM32L0xx_HAL_Driver/Src/stm32l0xx_hal_uart.c ****         (++) UART pins configuration:
  24:Drivers/STM32L0xx_HAL_Driver/Src/stm32l0xx_hal_uart.c ****             (+++) Enable the clock for the UART GPIOs.
  25:Drivers/STM32L0xx_HAL_Driver/Src/stm32l0xx_hal_uart.c ****             (+++) Configure these UART pins as alternate function pull-up.
  26:Drivers/STM32L0xx_HAL_Driver/Src/stm32l0xx_hal_uart.c ****         (++) NVIC configuration if you need to use interrupt process (HAL_UART_Transmit_IT()
  27:Drivers/STM32L0xx_HAL_Driver/Src/stm32l0xx_hal_uart.c ****              and HAL_UART_Receive_IT() APIs):
  28:Drivers/STM32L0xx_HAL_Driver/Src/stm32l0xx_hal_uart.c ****             (+++) Configure the USARTx interrupt priority.
  29:Drivers/STM32L0xx_HAL_Driver/Src/stm32l0xx_hal_uart.c ****             (+++) Enable the NVIC USART IRQ handle.
  30:Drivers/STM32L0xx_HAL_Driver/Src/stm32l0xx_hal_uart.c ****         (++) UART interrupts handling:
  31:Drivers/STM32L0xx_HAL_Driver/Src/stm32l0xx_hal_uart.c ****               -@@-  The specific UART interrupts (Transmission complete interrupt,
  32:Drivers/STM32L0xx_HAL_Driver/Src/stm32l0xx_hal_uart.c ****                 RXNE interrupt, RX/TX FIFOs related interrupts and Error Interrupts)
ARM GAS  C:\Users\lidka\AppData\Local\Temp\ccqOATUZ.s 			page 2


  33:Drivers/STM32L0xx_HAL_Driver/Src/stm32l0xx_hal_uart.c ****                 are managed using the macros __HAL_UART_ENABLE_IT() and __HAL_UART_DISABLE_IT()
  34:Drivers/STM32L0xx_HAL_Driver/Src/stm32l0xx_hal_uart.c ****                 inside the transmit and receive processes.
  35:Drivers/STM32L0xx_HAL_Driver/Src/stm32l0xx_hal_uart.c ****         (++) DMA Configuration if you need to use DMA process (HAL_UART_Transmit_DMA()
  36:Drivers/STM32L0xx_HAL_Driver/Src/stm32l0xx_hal_uart.c ****              and HAL_UART_Receive_DMA() APIs):
  37:Drivers/STM32L0xx_HAL_Driver/Src/stm32l0xx_hal_uart.c ****             (+++) Declare a DMA handle structure for the Tx/Rx channel.
  38:Drivers/STM32L0xx_HAL_Driver/Src/stm32l0xx_hal_uart.c ****             (+++) Enable the DMAx interface clock.
  39:Drivers/STM32L0xx_HAL_Driver/Src/stm32l0xx_hal_uart.c ****             (+++) Configure the declared DMA handle structure with the required Tx/Rx parameters.
  40:Drivers/STM32L0xx_HAL_Driver/Src/stm32l0xx_hal_uart.c ****             (+++) Configure the DMA Tx/Rx channel.
  41:Drivers/STM32L0xx_HAL_Driver/Src/stm32l0xx_hal_uart.c ****             (+++) Associate the initialized DMA handle to the UART DMA Tx/Rx handle.
  42:Drivers/STM32L0xx_HAL_Driver/Src/stm32l0xx_hal_uart.c ****             (+++) Configure the priority and enable the NVIC for the transfer complete
  43:Drivers/STM32L0xx_HAL_Driver/Src/stm32l0xx_hal_uart.c ****                   interrupt on the DMA Tx/Rx channel.
  44:Drivers/STM32L0xx_HAL_Driver/Src/stm32l0xx_hal_uart.c **** 
  45:Drivers/STM32L0xx_HAL_Driver/Src/stm32l0xx_hal_uart.c ****     (#) Program the Baud Rate, Word Length, Stop Bit, Parity, Hardware
  46:Drivers/STM32L0xx_HAL_Driver/Src/stm32l0xx_hal_uart.c ****         flow control and Mode (Receiver/Transmitter) in the huart handle Init structure.
  47:Drivers/STM32L0xx_HAL_Driver/Src/stm32l0xx_hal_uart.c **** 
  48:Drivers/STM32L0xx_HAL_Driver/Src/stm32l0xx_hal_uart.c ****     (#) If required, program UART advanced features (TX/RX pins swap, auto Baud rate detection,...)
  49:Drivers/STM32L0xx_HAL_Driver/Src/stm32l0xx_hal_uart.c ****         in the huart handle AdvancedInit structure.
  50:Drivers/STM32L0xx_HAL_Driver/Src/stm32l0xx_hal_uart.c **** 
  51:Drivers/STM32L0xx_HAL_Driver/Src/stm32l0xx_hal_uart.c ****     (#) For the UART asynchronous mode, initialize the UART registers by calling
  52:Drivers/STM32L0xx_HAL_Driver/Src/stm32l0xx_hal_uart.c ****         the HAL_UART_Init() API.
  53:Drivers/STM32L0xx_HAL_Driver/Src/stm32l0xx_hal_uart.c **** 
  54:Drivers/STM32L0xx_HAL_Driver/Src/stm32l0xx_hal_uart.c ****     (#) For the UART Half duplex mode, initialize the UART registers by calling
  55:Drivers/STM32L0xx_HAL_Driver/Src/stm32l0xx_hal_uart.c ****         the HAL_HalfDuplex_Init() API.
  56:Drivers/STM32L0xx_HAL_Driver/Src/stm32l0xx_hal_uart.c **** 
  57:Drivers/STM32L0xx_HAL_Driver/Src/stm32l0xx_hal_uart.c ****     (#) For the UART LIN (Local Interconnection Network) mode, initialize the UART registers
  58:Drivers/STM32L0xx_HAL_Driver/Src/stm32l0xx_hal_uart.c ****         by calling the HAL_LIN_Init() API.
  59:Drivers/STM32L0xx_HAL_Driver/Src/stm32l0xx_hal_uart.c **** 
  60:Drivers/STM32L0xx_HAL_Driver/Src/stm32l0xx_hal_uart.c ****     (#) For the UART Multiprocessor mode, initialize the UART registers
  61:Drivers/STM32L0xx_HAL_Driver/Src/stm32l0xx_hal_uart.c ****         by calling the HAL_MultiProcessor_Init() API.
  62:Drivers/STM32L0xx_HAL_Driver/Src/stm32l0xx_hal_uart.c **** 
  63:Drivers/STM32L0xx_HAL_Driver/Src/stm32l0xx_hal_uart.c ****     (#) For the UART RS485 Driver Enabled mode, initialize the UART registers
  64:Drivers/STM32L0xx_HAL_Driver/Src/stm32l0xx_hal_uart.c ****         by calling the HAL_RS485Ex_Init() API.
  65:Drivers/STM32L0xx_HAL_Driver/Src/stm32l0xx_hal_uart.c **** 
  66:Drivers/STM32L0xx_HAL_Driver/Src/stm32l0xx_hal_uart.c ****     [..]
  67:Drivers/STM32L0xx_HAL_Driver/Src/stm32l0xx_hal_uart.c ****     (@) These API's (HAL_UART_Init(), HAL_HalfDuplex_Init(), HAL_LIN_Init(), HAL_MultiProcessor_Ini
  68:Drivers/STM32L0xx_HAL_Driver/Src/stm32l0xx_hal_uart.c ****         also configure the low level Hardware GPIO, CLOCK, CORTEX...etc) by
  69:Drivers/STM32L0xx_HAL_Driver/Src/stm32l0xx_hal_uart.c ****         calling the customized HAL_UART_MspInit() API.
  70:Drivers/STM32L0xx_HAL_Driver/Src/stm32l0xx_hal_uart.c **** 
  71:Drivers/STM32L0xx_HAL_Driver/Src/stm32l0xx_hal_uart.c ****     ##### Callback registration #####
  72:Drivers/STM32L0xx_HAL_Driver/Src/stm32l0xx_hal_uart.c ****     ==================================
  73:Drivers/STM32L0xx_HAL_Driver/Src/stm32l0xx_hal_uart.c **** 
  74:Drivers/STM32L0xx_HAL_Driver/Src/stm32l0xx_hal_uart.c ****     [..]
  75:Drivers/STM32L0xx_HAL_Driver/Src/stm32l0xx_hal_uart.c ****     The compilation define USE_HAL_UART_REGISTER_CALLBACKS when set to 1
  76:Drivers/STM32L0xx_HAL_Driver/Src/stm32l0xx_hal_uart.c ****     allows the user to configure dynamically the driver callbacks.
  77:Drivers/STM32L0xx_HAL_Driver/Src/stm32l0xx_hal_uart.c **** 
  78:Drivers/STM32L0xx_HAL_Driver/Src/stm32l0xx_hal_uart.c ****     [..]
  79:Drivers/STM32L0xx_HAL_Driver/Src/stm32l0xx_hal_uart.c ****     Use Function HAL_UART_RegisterCallback() to register a user callback.
  80:Drivers/STM32L0xx_HAL_Driver/Src/stm32l0xx_hal_uart.c ****     Function HAL_UART_RegisterCallback() allows to register following callbacks:
  81:Drivers/STM32L0xx_HAL_Driver/Src/stm32l0xx_hal_uart.c ****     (+) TxHalfCpltCallback        : Tx Half Complete Callback.
  82:Drivers/STM32L0xx_HAL_Driver/Src/stm32l0xx_hal_uart.c ****     (+) TxCpltCallback            : Tx Complete Callback.
  83:Drivers/STM32L0xx_HAL_Driver/Src/stm32l0xx_hal_uart.c ****     (+) RxHalfCpltCallback        : Rx Half Complete Callback.
  84:Drivers/STM32L0xx_HAL_Driver/Src/stm32l0xx_hal_uart.c ****     (+) RxCpltCallback            : Rx Complete Callback.
  85:Drivers/STM32L0xx_HAL_Driver/Src/stm32l0xx_hal_uart.c ****     (+) ErrorCallback             : Error Callback.
  86:Drivers/STM32L0xx_HAL_Driver/Src/stm32l0xx_hal_uart.c ****     (+) AbortCpltCallback         : Abort Complete Callback.
  87:Drivers/STM32L0xx_HAL_Driver/Src/stm32l0xx_hal_uart.c ****     (+) AbortTransmitCpltCallback : Abort Transmit Complete Callback.
  88:Drivers/STM32L0xx_HAL_Driver/Src/stm32l0xx_hal_uart.c ****     (+) AbortReceiveCpltCallback  : Abort Receive Complete Callback.
  89:Drivers/STM32L0xx_HAL_Driver/Src/stm32l0xx_hal_uart.c ****     (+) WakeupCallback            : Wakeup Callback.
ARM GAS  C:\Users\lidka\AppData\Local\Temp\ccqOATUZ.s 			page 3


  90:Drivers/STM32L0xx_HAL_Driver/Src/stm32l0xx_hal_uart.c ****     (+) MspInitCallback           : UART MspInit.
  91:Drivers/STM32L0xx_HAL_Driver/Src/stm32l0xx_hal_uart.c ****     (+) MspDeInitCallback         : UART MspDeInit.
  92:Drivers/STM32L0xx_HAL_Driver/Src/stm32l0xx_hal_uart.c ****     This function takes as parameters the HAL peripheral handle, the Callback ID
  93:Drivers/STM32L0xx_HAL_Driver/Src/stm32l0xx_hal_uart.c ****     and a pointer to the user callback function.
  94:Drivers/STM32L0xx_HAL_Driver/Src/stm32l0xx_hal_uart.c **** 
  95:Drivers/STM32L0xx_HAL_Driver/Src/stm32l0xx_hal_uart.c ****     [..]
  96:Drivers/STM32L0xx_HAL_Driver/Src/stm32l0xx_hal_uart.c ****     Use function HAL_UART_UnRegisterCallback() to reset a callback to the default
  97:Drivers/STM32L0xx_HAL_Driver/Src/stm32l0xx_hal_uart.c ****     weak (surcharged) function.
  98:Drivers/STM32L0xx_HAL_Driver/Src/stm32l0xx_hal_uart.c ****     HAL_UART_UnRegisterCallback() takes as parameters the HAL peripheral handle,
  99:Drivers/STM32L0xx_HAL_Driver/Src/stm32l0xx_hal_uart.c ****     and the Callback ID.
 100:Drivers/STM32L0xx_HAL_Driver/Src/stm32l0xx_hal_uart.c ****     This function allows to reset following callbacks:
 101:Drivers/STM32L0xx_HAL_Driver/Src/stm32l0xx_hal_uart.c ****     (+) TxHalfCpltCallback        : Tx Half Complete Callback.
 102:Drivers/STM32L0xx_HAL_Driver/Src/stm32l0xx_hal_uart.c ****     (+) TxCpltCallback            : Tx Complete Callback.
 103:Drivers/STM32L0xx_HAL_Driver/Src/stm32l0xx_hal_uart.c ****     (+) RxHalfCpltCallback        : Rx Half Complete Callback.
 104:Drivers/STM32L0xx_HAL_Driver/Src/stm32l0xx_hal_uart.c ****     (+) RxCpltCallback            : Rx Complete Callback.
 105:Drivers/STM32L0xx_HAL_Driver/Src/stm32l0xx_hal_uart.c ****     (+) ErrorCallback             : Error Callback.
 106:Drivers/STM32L0xx_HAL_Driver/Src/stm32l0xx_hal_uart.c ****     (+) AbortCpltCallback         : Abort Complete Callback.
 107:Drivers/STM32L0xx_HAL_Driver/Src/stm32l0xx_hal_uart.c ****     (+) AbortTransmitCpltCallback : Abort Transmit Complete Callback.
 108:Drivers/STM32L0xx_HAL_Driver/Src/stm32l0xx_hal_uart.c ****     (+) AbortReceiveCpltCallback  : Abort Receive Complete Callback.
 109:Drivers/STM32L0xx_HAL_Driver/Src/stm32l0xx_hal_uart.c ****     (+) WakeupCallback            : Wakeup Callback.
 110:Drivers/STM32L0xx_HAL_Driver/Src/stm32l0xx_hal_uart.c ****     (+) MspInitCallback           : UART MspInit.
 111:Drivers/STM32L0xx_HAL_Driver/Src/stm32l0xx_hal_uart.c ****     (+) MspDeInitCallback         : UART MspDeInit.
 112:Drivers/STM32L0xx_HAL_Driver/Src/stm32l0xx_hal_uart.c **** 
 113:Drivers/STM32L0xx_HAL_Driver/Src/stm32l0xx_hal_uart.c ****     [..]
 114:Drivers/STM32L0xx_HAL_Driver/Src/stm32l0xx_hal_uart.c ****     For specific callback RxEventCallback, use dedicated registration/reset functions:
 115:Drivers/STM32L0xx_HAL_Driver/Src/stm32l0xx_hal_uart.c ****     respectively HAL_UART_RegisterRxEventCallback() , HAL_UART_UnRegisterRxEventCallback().
 116:Drivers/STM32L0xx_HAL_Driver/Src/stm32l0xx_hal_uart.c **** 
 117:Drivers/STM32L0xx_HAL_Driver/Src/stm32l0xx_hal_uart.c ****     [..]
 118:Drivers/STM32L0xx_HAL_Driver/Src/stm32l0xx_hal_uart.c ****     By default, after the HAL_UART_Init() and when the state is HAL_UART_STATE_RESET
 119:Drivers/STM32L0xx_HAL_Driver/Src/stm32l0xx_hal_uart.c ****     all callbacks are set to the corresponding weak (surcharged) functions:
 120:Drivers/STM32L0xx_HAL_Driver/Src/stm32l0xx_hal_uart.c ****     examples HAL_UART_TxCpltCallback(), HAL_UART_RxHalfCpltCallback().
 121:Drivers/STM32L0xx_HAL_Driver/Src/stm32l0xx_hal_uart.c ****     Exception done for MspInit and MspDeInit functions that are respectively
 122:Drivers/STM32L0xx_HAL_Driver/Src/stm32l0xx_hal_uart.c ****     reset to the legacy weak (surcharged) functions in the HAL_UART_Init()
 123:Drivers/STM32L0xx_HAL_Driver/Src/stm32l0xx_hal_uart.c ****     and HAL_UART_DeInit() only when these callbacks are null (not registered beforehand).
 124:Drivers/STM32L0xx_HAL_Driver/Src/stm32l0xx_hal_uart.c ****     If not, MspInit or MspDeInit are not null, the HAL_UART_Init() and HAL_UART_DeInit()
 125:Drivers/STM32L0xx_HAL_Driver/Src/stm32l0xx_hal_uart.c ****     keep and use the user MspInit/MspDeInit callbacks (registered beforehand).
 126:Drivers/STM32L0xx_HAL_Driver/Src/stm32l0xx_hal_uart.c **** 
 127:Drivers/STM32L0xx_HAL_Driver/Src/stm32l0xx_hal_uart.c ****     [..]
 128:Drivers/STM32L0xx_HAL_Driver/Src/stm32l0xx_hal_uart.c ****     Callbacks can be registered/unregistered in HAL_UART_STATE_READY state only.
 129:Drivers/STM32L0xx_HAL_Driver/Src/stm32l0xx_hal_uart.c ****     Exception done MspInit/MspDeInit that can be registered/unregistered
 130:Drivers/STM32L0xx_HAL_Driver/Src/stm32l0xx_hal_uart.c ****     in HAL_UART_STATE_READY or HAL_UART_STATE_RESET state, thus registered (user)
 131:Drivers/STM32L0xx_HAL_Driver/Src/stm32l0xx_hal_uart.c ****     MspInit/DeInit callbacks can be used during the Init/DeInit.
 132:Drivers/STM32L0xx_HAL_Driver/Src/stm32l0xx_hal_uart.c ****     In that case first register the MspInit/MspDeInit user callbacks
 133:Drivers/STM32L0xx_HAL_Driver/Src/stm32l0xx_hal_uart.c ****     using HAL_UART_RegisterCallback() before calling HAL_UART_DeInit()
 134:Drivers/STM32L0xx_HAL_Driver/Src/stm32l0xx_hal_uart.c ****     or HAL_UART_Init() function.
 135:Drivers/STM32L0xx_HAL_Driver/Src/stm32l0xx_hal_uart.c **** 
 136:Drivers/STM32L0xx_HAL_Driver/Src/stm32l0xx_hal_uart.c ****     [..]
 137:Drivers/STM32L0xx_HAL_Driver/Src/stm32l0xx_hal_uart.c ****     When The compilation define USE_HAL_UART_REGISTER_CALLBACKS is set to 0 or
 138:Drivers/STM32L0xx_HAL_Driver/Src/stm32l0xx_hal_uart.c ****     not defined, the callback registration feature is not available
 139:Drivers/STM32L0xx_HAL_Driver/Src/stm32l0xx_hal_uart.c ****     and weak (surcharged) callbacks are used.
 140:Drivers/STM32L0xx_HAL_Driver/Src/stm32l0xx_hal_uart.c **** 
 141:Drivers/STM32L0xx_HAL_Driver/Src/stm32l0xx_hal_uart.c **** 
 142:Drivers/STM32L0xx_HAL_Driver/Src/stm32l0xx_hal_uart.c ****   @endverbatim
 143:Drivers/STM32L0xx_HAL_Driver/Src/stm32l0xx_hal_uart.c ****   ******************************************************************************
 144:Drivers/STM32L0xx_HAL_Driver/Src/stm32l0xx_hal_uart.c ****   * @attention
 145:Drivers/STM32L0xx_HAL_Driver/Src/stm32l0xx_hal_uart.c ****   *
 146:Drivers/STM32L0xx_HAL_Driver/Src/stm32l0xx_hal_uart.c ****   * <h2><center>&copy; Copyright (c) 2016 STMicroelectronics.
ARM GAS  C:\Users\lidka\AppData\Local\Temp\ccqOATUZ.s 			page 4


 147:Drivers/STM32L0xx_HAL_Driver/Src/stm32l0xx_hal_uart.c ****   * All rights reserved.</center></h2>
 148:Drivers/STM32L0xx_HAL_Driver/Src/stm32l0xx_hal_uart.c ****   *
 149:Drivers/STM32L0xx_HAL_Driver/Src/stm32l0xx_hal_uart.c ****   * This software component is licensed by ST under BSD 3-Clause license,
 150:Drivers/STM32L0xx_HAL_Driver/Src/stm32l0xx_hal_uart.c ****   * the "License"; You may not use this file except in compliance with the
 151:Drivers/STM32L0xx_HAL_Driver/Src/stm32l0xx_hal_uart.c ****   * License. You may obtain a copy of the License at:
 152:Drivers/STM32L0xx_HAL_Driver/Src/stm32l0xx_hal_uart.c ****   *                        opensource.org/licenses/BSD-3-Clause
 153:Drivers/STM32L0xx_HAL_Driver/Src/stm32l0xx_hal_uart.c ****   *
 154:Drivers/STM32L0xx_HAL_Driver/Src/stm32l0xx_hal_uart.c ****   ******************************************************************************
 155:Drivers/STM32L0xx_HAL_Driver/Src/stm32l0xx_hal_uart.c ****   */
 156:Drivers/STM32L0xx_HAL_Driver/Src/stm32l0xx_hal_uart.c **** 
 157:Drivers/STM32L0xx_HAL_Driver/Src/stm32l0xx_hal_uart.c **** /* Includes ------------------------------------------------------------------*/
 158:Drivers/STM32L0xx_HAL_Driver/Src/stm32l0xx_hal_uart.c **** #include "stm32l0xx_hal.h"
 159:Drivers/STM32L0xx_HAL_Driver/Src/stm32l0xx_hal_uart.c **** 
 160:Drivers/STM32L0xx_HAL_Driver/Src/stm32l0xx_hal_uart.c **** /** @addtogroup STM32L0xx_HAL_Driver
 161:Drivers/STM32L0xx_HAL_Driver/Src/stm32l0xx_hal_uart.c ****   * @{
 162:Drivers/STM32L0xx_HAL_Driver/Src/stm32l0xx_hal_uart.c ****   */
 163:Drivers/STM32L0xx_HAL_Driver/Src/stm32l0xx_hal_uart.c **** 
 164:Drivers/STM32L0xx_HAL_Driver/Src/stm32l0xx_hal_uart.c **** /** @defgroup UART UART
 165:Drivers/STM32L0xx_HAL_Driver/Src/stm32l0xx_hal_uart.c ****   * @brief HAL UART module driver
 166:Drivers/STM32L0xx_HAL_Driver/Src/stm32l0xx_hal_uart.c ****   * @{
 167:Drivers/STM32L0xx_HAL_Driver/Src/stm32l0xx_hal_uart.c ****   */
 168:Drivers/STM32L0xx_HAL_Driver/Src/stm32l0xx_hal_uart.c **** 
 169:Drivers/STM32L0xx_HAL_Driver/Src/stm32l0xx_hal_uart.c **** #ifdef HAL_UART_MODULE_ENABLED
 170:Drivers/STM32L0xx_HAL_Driver/Src/stm32l0xx_hal_uart.c **** 
 171:Drivers/STM32L0xx_HAL_Driver/Src/stm32l0xx_hal_uart.c **** /* Private typedef -----------------------------------------------------------*/
 172:Drivers/STM32L0xx_HAL_Driver/Src/stm32l0xx_hal_uart.c **** /* Private define ------------------------------------------------------------*/
 173:Drivers/STM32L0xx_HAL_Driver/Src/stm32l0xx_hal_uart.c **** /** @defgroup UART_Private_Constants UART Private Constants
 174:Drivers/STM32L0xx_HAL_Driver/Src/stm32l0xx_hal_uart.c ****   * @{
 175:Drivers/STM32L0xx_HAL_Driver/Src/stm32l0xx_hal_uart.c ****   */
 176:Drivers/STM32L0xx_HAL_Driver/Src/stm32l0xx_hal_uart.c **** #define USART_CR1_FIELDS  ((uint32_t)(USART_CR1_M | USART_CR1_PCE | USART_CR1_PS | USART_CR1_TE | U
 177:Drivers/STM32L0xx_HAL_Driver/Src/stm32l0xx_hal_uart.c ****                                       USART_CR1_OVER8)) /*!< UART or USART CR1 fields of parameters
 178:Drivers/STM32L0xx_HAL_Driver/Src/stm32l0xx_hal_uart.c **** 
 179:Drivers/STM32L0xx_HAL_Driver/Src/stm32l0xx_hal_uart.c **** #define USART_CR3_FIELDS  ((uint32_t)(USART_CR3_RTSE | USART_CR3_CTSE |\
 180:Drivers/STM32L0xx_HAL_Driver/Src/stm32l0xx_hal_uart.c ****                             USART_CR3_ONEBIT)) /*!< UART or USART CR3 fields of parameters set by U
 181:Drivers/STM32L0xx_HAL_Driver/Src/stm32l0xx_hal_uart.c **** 
 182:Drivers/STM32L0xx_HAL_Driver/Src/stm32l0xx_hal_uart.c **** #define LPUART_BRR_MIN  0x00000300U  /* LPUART BRR minimum authorized value */
 183:Drivers/STM32L0xx_HAL_Driver/Src/stm32l0xx_hal_uart.c **** #define LPUART_BRR_MAX  0x000FFFFFU  /* LPUART BRR maximum authorized value */
 184:Drivers/STM32L0xx_HAL_Driver/Src/stm32l0xx_hal_uart.c **** 
 185:Drivers/STM32L0xx_HAL_Driver/Src/stm32l0xx_hal_uart.c **** #define UART_BRR_MIN    0x10U        /* UART BRR minimum authorized value */
 186:Drivers/STM32L0xx_HAL_Driver/Src/stm32l0xx_hal_uart.c **** #define UART_BRR_MAX    0x0000FFFFU  /* UART BRR maximum authorized value */
 187:Drivers/STM32L0xx_HAL_Driver/Src/stm32l0xx_hal_uart.c **** /**
 188:Drivers/STM32L0xx_HAL_Driver/Src/stm32l0xx_hal_uart.c ****   * @}
 189:Drivers/STM32L0xx_HAL_Driver/Src/stm32l0xx_hal_uart.c ****   */
 190:Drivers/STM32L0xx_HAL_Driver/Src/stm32l0xx_hal_uart.c **** 
 191:Drivers/STM32L0xx_HAL_Driver/Src/stm32l0xx_hal_uart.c **** /* Private macros ------------------------------------------------------------*/
 192:Drivers/STM32L0xx_HAL_Driver/Src/stm32l0xx_hal_uart.c **** /* Private function prototypes -----------------------------------------------*/
 193:Drivers/STM32L0xx_HAL_Driver/Src/stm32l0xx_hal_uart.c **** /** @addtogroup UART_Private_Functions
 194:Drivers/STM32L0xx_HAL_Driver/Src/stm32l0xx_hal_uart.c ****   * @{
 195:Drivers/STM32L0xx_HAL_Driver/Src/stm32l0xx_hal_uart.c ****   */
 196:Drivers/STM32L0xx_HAL_Driver/Src/stm32l0xx_hal_uart.c **** static void UART_EndTxTransfer(UART_HandleTypeDef *huart);
 197:Drivers/STM32L0xx_HAL_Driver/Src/stm32l0xx_hal_uart.c **** static void UART_EndRxTransfer(UART_HandleTypeDef *huart);
 198:Drivers/STM32L0xx_HAL_Driver/Src/stm32l0xx_hal_uart.c **** static void UART_DMATransmitCplt(DMA_HandleTypeDef *hdma);
 199:Drivers/STM32L0xx_HAL_Driver/Src/stm32l0xx_hal_uart.c **** static void UART_DMAReceiveCplt(DMA_HandleTypeDef *hdma);
 200:Drivers/STM32L0xx_HAL_Driver/Src/stm32l0xx_hal_uart.c **** static void UART_DMARxHalfCplt(DMA_HandleTypeDef *hdma);
 201:Drivers/STM32L0xx_HAL_Driver/Src/stm32l0xx_hal_uart.c **** static void UART_DMATxHalfCplt(DMA_HandleTypeDef *hdma);
 202:Drivers/STM32L0xx_HAL_Driver/Src/stm32l0xx_hal_uart.c **** static void UART_DMAError(DMA_HandleTypeDef *hdma);
 203:Drivers/STM32L0xx_HAL_Driver/Src/stm32l0xx_hal_uart.c **** static void UART_DMAAbortOnError(DMA_HandleTypeDef *hdma);
ARM GAS  C:\Users\lidka\AppData\Local\Temp\ccqOATUZ.s 			page 5


 204:Drivers/STM32L0xx_HAL_Driver/Src/stm32l0xx_hal_uart.c **** static void UART_DMATxAbortCallback(DMA_HandleTypeDef *hdma);
 205:Drivers/STM32L0xx_HAL_Driver/Src/stm32l0xx_hal_uart.c **** static void UART_DMARxAbortCallback(DMA_HandleTypeDef *hdma);
 206:Drivers/STM32L0xx_HAL_Driver/Src/stm32l0xx_hal_uart.c **** static void UART_DMATxOnlyAbortCallback(DMA_HandleTypeDef *hdma);
 207:Drivers/STM32L0xx_HAL_Driver/Src/stm32l0xx_hal_uart.c **** static void UART_DMARxOnlyAbortCallback(DMA_HandleTypeDef *hdma);
 208:Drivers/STM32L0xx_HAL_Driver/Src/stm32l0xx_hal_uart.c **** static void UART_TxISR_8BIT(UART_HandleTypeDef *huart);
 209:Drivers/STM32L0xx_HAL_Driver/Src/stm32l0xx_hal_uart.c **** static void UART_TxISR_16BIT(UART_HandleTypeDef *huart);
 210:Drivers/STM32L0xx_HAL_Driver/Src/stm32l0xx_hal_uart.c **** static void UART_EndTransmit_IT(UART_HandleTypeDef *huart);
 211:Drivers/STM32L0xx_HAL_Driver/Src/stm32l0xx_hal_uart.c **** static void UART_RxISR_8BIT(UART_HandleTypeDef *huart);
 212:Drivers/STM32L0xx_HAL_Driver/Src/stm32l0xx_hal_uart.c **** static void UART_RxISR_16BIT(UART_HandleTypeDef *huart);
 213:Drivers/STM32L0xx_HAL_Driver/Src/stm32l0xx_hal_uart.c **** /**
 214:Drivers/STM32L0xx_HAL_Driver/Src/stm32l0xx_hal_uart.c ****   * @}
 215:Drivers/STM32L0xx_HAL_Driver/Src/stm32l0xx_hal_uart.c ****   */
 216:Drivers/STM32L0xx_HAL_Driver/Src/stm32l0xx_hal_uart.c **** 
 217:Drivers/STM32L0xx_HAL_Driver/Src/stm32l0xx_hal_uart.c **** /* Private variables ---------------------------------------------------------*/
 218:Drivers/STM32L0xx_HAL_Driver/Src/stm32l0xx_hal_uart.c **** /* Exported Constants --------------------------------------------------------*/
 219:Drivers/STM32L0xx_HAL_Driver/Src/stm32l0xx_hal_uart.c **** /* Exported functions --------------------------------------------------------*/
 220:Drivers/STM32L0xx_HAL_Driver/Src/stm32l0xx_hal_uart.c **** 
 221:Drivers/STM32L0xx_HAL_Driver/Src/stm32l0xx_hal_uart.c **** /** @defgroup UART_Exported_Functions UART Exported Functions
 222:Drivers/STM32L0xx_HAL_Driver/Src/stm32l0xx_hal_uart.c ****   * @{
 223:Drivers/STM32L0xx_HAL_Driver/Src/stm32l0xx_hal_uart.c ****   */
 224:Drivers/STM32L0xx_HAL_Driver/Src/stm32l0xx_hal_uart.c **** 
 225:Drivers/STM32L0xx_HAL_Driver/Src/stm32l0xx_hal_uart.c **** /** @defgroup UART_Exported_Functions_Group1 Initialization and de-initialization functions
 226:Drivers/STM32L0xx_HAL_Driver/Src/stm32l0xx_hal_uart.c ****   *  @brief    Initialization and Configuration functions
 227:Drivers/STM32L0xx_HAL_Driver/Src/stm32l0xx_hal_uart.c ****   *
 228:Drivers/STM32L0xx_HAL_Driver/Src/stm32l0xx_hal_uart.c **** @verbatim
 229:Drivers/STM32L0xx_HAL_Driver/Src/stm32l0xx_hal_uart.c **** ===============================================================================
 230:Drivers/STM32L0xx_HAL_Driver/Src/stm32l0xx_hal_uart.c ****             ##### Initialization and Configuration functions #####
 231:Drivers/STM32L0xx_HAL_Driver/Src/stm32l0xx_hal_uart.c ****  ===============================================================================
 232:Drivers/STM32L0xx_HAL_Driver/Src/stm32l0xx_hal_uart.c ****     [..]
 233:Drivers/STM32L0xx_HAL_Driver/Src/stm32l0xx_hal_uart.c ****     This subsection provides a set of functions allowing to initialize the USARTx or the UARTy
 234:Drivers/STM32L0xx_HAL_Driver/Src/stm32l0xx_hal_uart.c ****     in asynchronous mode.
 235:Drivers/STM32L0xx_HAL_Driver/Src/stm32l0xx_hal_uart.c ****       (+) For the asynchronous mode the parameters below can be configured:
 236:Drivers/STM32L0xx_HAL_Driver/Src/stm32l0xx_hal_uart.c ****         (++) Baud Rate
 237:Drivers/STM32L0xx_HAL_Driver/Src/stm32l0xx_hal_uart.c ****         (++) Word Length
 238:Drivers/STM32L0xx_HAL_Driver/Src/stm32l0xx_hal_uart.c ****         (++) Stop Bit
 239:Drivers/STM32L0xx_HAL_Driver/Src/stm32l0xx_hal_uart.c ****         (++) Parity: If the parity is enabled, then the MSB bit of the data written
 240:Drivers/STM32L0xx_HAL_Driver/Src/stm32l0xx_hal_uart.c ****              in the data register is transmitted but is changed by the parity bit.
 241:Drivers/STM32L0xx_HAL_Driver/Src/stm32l0xx_hal_uart.c ****         (++) Hardware flow control
 242:Drivers/STM32L0xx_HAL_Driver/Src/stm32l0xx_hal_uart.c ****         (++) Receiver/transmitter modes
 243:Drivers/STM32L0xx_HAL_Driver/Src/stm32l0xx_hal_uart.c ****         (++) Over Sampling Method
 244:Drivers/STM32L0xx_HAL_Driver/Src/stm32l0xx_hal_uart.c ****         (++) One-Bit Sampling Method
 245:Drivers/STM32L0xx_HAL_Driver/Src/stm32l0xx_hal_uart.c ****       (+) For the asynchronous mode, the following advanced features can be configured as well:
 246:Drivers/STM32L0xx_HAL_Driver/Src/stm32l0xx_hal_uart.c ****         (++) TX and/or RX pin level inversion
 247:Drivers/STM32L0xx_HAL_Driver/Src/stm32l0xx_hal_uart.c ****         (++) data logical level inversion
 248:Drivers/STM32L0xx_HAL_Driver/Src/stm32l0xx_hal_uart.c ****         (++) RX and TX pins swap
 249:Drivers/STM32L0xx_HAL_Driver/Src/stm32l0xx_hal_uart.c ****         (++) RX overrun detection disabling
 250:Drivers/STM32L0xx_HAL_Driver/Src/stm32l0xx_hal_uart.c ****         (++) DMA disabling on RX error
 251:Drivers/STM32L0xx_HAL_Driver/Src/stm32l0xx_hal_uart.c ****         (++) MSB first on communication line
 252:Drivers/STM32L0xx_HAL_Driver/Src/stm32l0xx_hal_uart.c ****         (++) auto Baud rate detection
 253:Drivers/STM32L0xx_HAL_Driver/Src/stm32l0xx_hal_uart.c ****     [..]
 254:Drivers/STM32L0xx_HAL_Driver/Src/stm32l0xx_hal_uart.c ****     The HAL_UART_Init(), HAL_HalfDuplex_Init(), HAL_LIN_Init()and HAL_MultiProcessor_Init()API
 255:Drivers/STM32L0xx_HAL_Driver/Src/stm32l0xx_hal_uart.c ****     follow respectively the UART asynchronous, UART Half duplex, UART LIN mode
 256:Drivers/STM32L0xx_HAL_Driver/Src/stm32l0xx_hal_uart.c ****     and UART multiprocessor mode configuration procedures (details for the procedures
 257:Drivers/STM32L0xx_HAL_Driver/Src/stm32l0xx_hal_uart.c ****     are available in reference manual).
 258:Drivers/STM32L0xx_HAL_Driver/Src/stm32l0xx_hal_uart.c **** 
 259:Drivers/STM32L0xx_HAL_Driver/Src/stm32l0xx_hal_uart.c **** @endverbatim
 260:Drivers/STM32L0xx_HAL_Driver/Src/stm32l0xx_hal_uart.c **** 
ARM GAS  C:\Users\lidka\AppData\Local\Temp\ccqOATUZ.s 			page 6


 261:Drivers/STM32L0xx_HAL_Driver/Src/stm32l0xx_hal_uart.c ****   Depending on the frame length defined by the M1 and M0 bits (7-bit,
 262:Drivers/STM32L0xx_HAL_Driver/Src/stm32l0xx_hal_uart.c ****   8-bit or 9-bit), the possible UART formats are listed in the
 263:Drivers/STM32L0xx_HAL_Driver/Src/stm32l0xx_hal_uart.c ****   following table.
 264:Drivers/STM32L0xx_HAL_Driver/Src/stm32l0xx_hal_uart.c **** 
 265:Drivers/STM32L0xx_HAL_Driver/Src/stm32l0xx_hal_uart.c ****   Table 1. UART frame format.
 266:Drivers/STM32L0xx_HAL_Driver/Src/stm32l0xx_hal_uart.c ****     +-----------------------------------------------------------------------+
 267:Drivers/STM32L0xx_HAL_Driver/Src/stm32l0xx_hal_uart.c ****     |  M1 bit |  M0 bit |  PCE bit  |             UART frame                |
 268:Drivers/STM32L0xx_HAL_Driver/Src/stm32l0xx_hal_uart.c ****     |---------|---------|-----------|---------------------------------------|
 269:Drivers/STM32L0xx_HAL_Driver/Src/stm32l0xx_hal_uart.c ****     |    0    |    0    |    0      |    | SB |    8 bit data   | STB |     |
 270:Drivers/STM32L0xx_HAL_Driver/Src/stm32l0xx_hal_uart.c ****     |---------|---------|-----------|---------------------------------------|
 271:Drivers/STM32L0xx_HAL_Driver/Src/stm32l0xx_hal_uart.c ****     |    0    |    0    |    1      |    | SB | 7 bit data | PB | STB |     |
 272:Drivers/STM32L0xx_HAL_Driver/Src/stm32l0xx_hal_uart.c ****     |---------|---------|-----------|---------------------------------------|
 273:Drivers/STM32L0xx_HAL_Driver/Src/stm32l0xx_hal_uart.c ****     |    0    |    1    |    0      |    | SB |    9 bit data   | STB |     |
 274:Drivers/STM32L0xx_HAL_Driver/Src/stm32l0xx_hal_uart.c ****     |---------|---------|-----------|---------------------------------------|
 275:Drivers/STM32L0xx_HAL_Driver/Src/stm32l0xx_hal_uart.c ****     |    0    |    1    |    1      |    | SB | 8 bit data | PB | STB |     |
 276:Drivers/STM32L0xx_HAL_Driver/Src/stm32l0xx_hal_uart.c ****     |---------|---------|-----------|---------------------------------------|
 277:Drivers/STM32L0xx_HAL_Driver/Src/stm32l0xx_hal_uart.c ****     |    1    |    0    |    0      |    | SB |    7 bit data   | STB |     |
 278:Drivers/STM32L0xx_HAL_Driver/Src/stm32l0xx_hal_uart.c ****     |---------|---------|-----------|---------------------------------------|
 279:Drivers/STM32L0xx_HAL_Driver/Src/stm32l0xx_hal_uart.c ****     |    1    |    0    |    1      |    | SB | 6 bit data | PB | STB |     |
 280:Drivers/STM32L0xx_HAL_Driver/Src/stm32l0xx_hal_uart.c ****     +-----------------------------------------------------------------------+
 281:Drivers/STM32L0xx_HAL_Driver/Src/stm32l0xx_hal_uart.c **** 
 282:Drivers/STM32L0xx_HAL_Driver/Src/stm32l0xx_hal_uart.c ****   * @{
 283:Drivers/STM32L0xx_HAL_Driver/Src/stm32l0xx_hal_uart.c ****   */
 284:Drivers/STM32L0xx_HAL_Driver/Src/stm32l0xx_hal_uart.c **** 
 285:Drivers/STM32L0xx_HAL_Driver/Src/stm32l0xx_hal_uart.c **** /**
 286:Drivers/STM32L0xx_HAL_Driver/Src/stm32l0xx_hal_uart.c ****   * @brief Initialize the UART mode according to the specified
 287:Drivers/STM32L0xx_HAL_Driver/Src/stm32l0xx_hal_uart.c ****   *        parameters in the UART_InitTypeDef and initialize the associated handle.
 288:Drivers/STM32L0xx_HAL_Driver/Src/stm32l0xx_hal_uart.c ****   * @param huart UART handle.
 289:Drivers/STM32L0xx_HAL_Driver/Src/stm32l0xx_hal_uart.c ****   * @retval HAL status
 290:Drivers/STM32L0xx_HAL_Driver/Src/stm32l0xx_hal_uart.c ****   */
 291:Drivers/STM32L0xx_HAL_Driver/Src/stm32l0xx_hal_uart.c **** HAL_StatusTypeDef HAL_UART_Init(UART_HandleTypeDef *huart)
 292:Drivers/STM32L0xx_HAL_Driver/Src/stm32l0xx_hal_uart.c **** {
  27              		.loc 1 292 1
  28              		.cfi_startproc
  29              		@ args = 0, pretend = 0, frame = 8
  30              		@ frame_needed = 1, uses_anonymous_args = 0
  31 0000 80B5     		push	{r7, lr}
  32              	.LCFI0:
  33              		.cfi_def_cfa_offset 8
  34              		.cfi_offset 7, -8
  35              		.cfi_offset 14, -4
  36 0002 82B0     		sub	sp, sp, #8
  37              	.LCFI1:
  38              		.cfi_def_cfa_offset 16
  39 0004 00AF     		add	r7, sp, #0
  40              	.LCFI2:
  41              		.cfi_def_cfa_register 7
  42 0006 7860     		str	r0, [r7, #4]
 293:Drivers/STM32L0xx_HAL_Driver/Src/stm32l0xx_hal_uart.c ****   /* Check the UART handle allocation */
 294:Drivers/STM32L0xx_HAL_Driver/Src/stm32l0xx_hal_uart.c ****   if (huart == NULL)
  43              		.loc 1 294 6
  44 0008 7B68     		ldr	r3, [r7, #4]
  45 000a 002B     		cmp	r3, #0
  46 000c 01D1     		bne	.L2
 295:Drivers/STM32L0xx_HAL_Driver/Src/stm32l0xx_hal_uart.c ****   {
 296:Drivers/STM32L0xx_HAL_Driver/Src/stm32l0xx_hal_uart.c ****     return HAL_ERROR;
  47              		.loc 1 296 12
ARM GAS  C:\Users\lidka\AppData\Local\Temp\ccqOATUZ.s 			page 7


  48 000e 0123     		movs	r3, #1
  49 0010 44E0     		b	.L3
  50              	.L2:
 297:Drivers/STM32L0xx_HAL_Driver/Src/stm32l0xx_hal_uart.c ****   }
 298:Drivers/STM32L0xx_HAL_Driver/Src/stm32l0xx_hal_uart.c **** 
 299:Drivers/STM32L0xx_HAL_Driver/Src/stm32l0xx_hal_uart.c ****   if (huart->Init.HwFlowCtl != UART_HWCONTROL_NONE)
 300:Drivers/STM32L0xx_HAL_Driver/Src/stm32l0xx_hal_uart.c ****   {
 301:Drivers/STM32L0xx_HAL_Driver/Src/stm32l0xx_hal_uart.c ****     /* Check the parameters */
 302:Drivers/STM32L0xx_HAL_Driver/Src/stm32l0xx_hal_uart.c ****     assert_param(IS_UART_HWFLOW_INSTANCE(huart->Instance));
 303:Drivers/STM32L0xx_HAL_Driver/Src/stm32l0xx_hal_uart.c ****   }
 304:Drivers/STM32L0xx_HAL_Driver/Src/stm32l0xx_hal_uart.c ****   else
 305:Drivers/STM32L0xx_HAL_Driver/Src/stm32l0xx_hal_uart.c ****   {
 306:Drivers/STM32L0xx_HAL_Driver/Src/stm32l0xx_hal_uart.c ****     /* Check the parameters */
 307:Drivers/STM32L0xx_HAL_Driver/Src/stm32l0xx_hal_uart.c ****     assert_param((IS_UART_INSTANCE(huart->Instance)) || (IS_LPUART_INSTANCE(huart->Instance)));
 308:Drivers/STM32L0xx_HAL_Driver/Src/stm32l0xx_hal_uart.c ****   }
 309:Drivers/STM32L0xx_HAL_Driver/Src/stm32l0xx_hal_uart.c **** 
 310:Drivers/STM32L0xx_HAL_Driver/Src/stm32l0xx_hal_uart.c ****   if (huart->gState == HAL_UART_STATE_RESET)
  51              		.loc 1 310 12
  52 0012 7B68     		ldr	r3, [r7, #4]
  53 0014 9B6F     		ldr	r3, [r3, #120]
  54              		.loc 1 310 6
  55 0016 002B     		cmp	r3, #0
  56 0018 07D1     		bne	.L4
 311:Drivers/STM32L0xx_HAL_Driver/Src/stm32l0xx_hal_uart.c ****   {
 312:Drivers/STM32L0xx_HAL_Driver/Src/stm32l0xx_hal_uart.c ****     /* Allocate lock resource and initialize it */
 313:Drivers/STM32L0xx_HAL_Driver/Src/stm32l0xx_hal_uart.c ****     huart->Lock = HAL_UNLOCKED;
  57              		.loc 1 313 17
  58 001a 7B68     		ldr	r3, [r7, #4]
  59 001c 7422     		movs	r2, #116
  60 001e 0021     		movs	r1, #0
  61 0020 9954     		strb	r1, [r3, r2]
 314:Drivers/STM32L0xx_HAL_Driver/Src/stm32l0xx_hal_uart.c **** 
 315:Drivers/STM32L0xx_HAL_Driver/Src/stm32l0xx_hal_uart.c **** #if (USE_HAL_UART_REGISTER_CALLBACKS == 1)
 316:Drivers/STM32L0xx_HAL_Driver/Src/stm32l0xx_hal_uart.c ****     UART_InitCallbacksToDefault(huart);
 317:Drivers/STM32L0xx_HAL_Driver/Src/stm32l0xx_hal_uart.c **** 
 318:Drivers/STM32L0xx_HAL_Driver/Src/stm32l0xx_hal_uart.c ****     if (huart->MspInitCallback == NULL)
 319:Drivers/STM32L0xx_HAL_Driver/Src/stm32l0xx_hal_uart.c ****     {
 320:Drivers/STM32L0xx_HAL_Driver/Src/stm32l0xx_hal_uart.c ****       huart->MspInitCallback = HAL_UART_MspInit;
 321:Drivers/STM32L0xx_HAL_Driver/Src/stm32l0xx_hal_uart.c ****     }
 322:Drivers/STM32L0xx_HAL_Driver/Src/stm32l0xx_hal_uart.c **** 
 323:Drivers/STM32L0xx_HAL_Driver/Src/stm32l0xx_hal_uart.c ****     /* Init the low level hardware */
 324:Drivers/STM32L0xx_HAL_Driver/Src/stm32l0xx_hal_uart.c ****     huart->MspInitCallback(huart);
 325:Drivers/STM32L0xx_HAL_Driver/Src/stm32l0xx_hal_uart.c **** #else
 326:Drivers/STM32L0xx_HAL_Driver/Src/stm32l0xx_hal_uart.c ****     /* Init the low level hardware : GPIO, CLOCK */
 327:Drivers/STM32L0xx_HAL_Driver/Src/stm32l0xx_hal_uart.c ****     HAL_UART_MspInit(huart);
  62              		.loc 1 327 5
  63 0022 7B68     		ldr	r3, [r7, #4]
  64 0024 1800     		movs	r0, r3
  65 0026 FFF7FEFF 		bl	HAL_UART_MspInit
  66              	.L4:
 328:Drivers/STM32L0xx_HAL_Driver/Src/stm32l0xx_hal_uart.c **** #endif /* (USE_HAL_UART_REGISTER_CALLBACKS) */
 329:Drivers/STM32L0xx_HAL_Driver/Src/stm32l0xx_hal_uart.c ****   }
 330:Drivers/STM32L0xx_HAL_Driver/Src/stm32l0xx_hal_uart.c **** 
 331:Drivers/STM32L0xx_HAL_Driver/Src/stm32l0xx_hal_uart.c ****   huart->gState = HAL_UART_STATE_BUSY;
  67              		.loc 1 331 17
  68 002a 7B68     		ldr	r3, [r7, #4]
  69 002c 2422     		movs	r2, #36
ARM GAS  C:\Users\lidka\AppData\Local\Temp\ccqOATUZ.s 			page 8


  70 002e 9A67     		str	r2, [r3, #120]
 332:Drivers/STM32L0xx_HAL_Driver/Src/stm32l0xx_hal_uart.c **** 
 333:Drivers/STM32L0xx_HAL_Driver/Src/stm32l0xx_hal_uart.c ****   __HAL_UART_DISABLE(huart);
  71              		.loc 1 333 3
  72 0030 7B68     		ldr	r3, [r7, #4]
  73 0032 1B68     		ldr	r3, [r3]
  74 0034 1A68     		ldr	r2, [r3]
  75 0036 7B68     		ldr	r3, [r7, #4]
  76 0038 1B68     		ldr	r3, [r3]
  77 003a 0121     		movs	r1, #1
  78 003c 8A43     		bics	r2, r1
  79 003e 1A60     		str	r2, [r3]
 334:Drivers/STM32L0xx_HAL_Driver/Src/stm32l0xx_hal_uart.c **** 
 335:Drivers/STM32L0xx_HAL_Driver/Src/stm32l0xx_hal_uart.c ****   /* Set the UART Communication parameters */
 336:Drivers/STM32L0xx_HAL_Driver/Src/stm32l0xx_hal_uart.c ****   if (UART_SetConfig(huart) == HAL_ERROR)
  80              		.loc 1 336 7
  81 0040 7B68     		ldr	r3, [r7, #4]
  82 0042 1800     		movs	r0, r3
  83 0044 FFF7FEFF 		bl	UART_SetConfig
  84 0048 0300     		movs	r3, r0
  85              		.loc 1 336 6
  86 004a 012B     		cmp	r3, #1
  87 004c 01D1     		bne	.L5
 337:Drivers/STM32L0xx_HAL_Driver/Src/stm32l0xx_hal_uart.c ****   {
 338:Drivers/STM32L0xx_HAL_Driver/Src/stm32l0xx_hal_uart.c ****     return HAL_ERROR;
  88              		.loc 1 338 12
  89 004e 0123     		movs	r3, #1
  90 0050 24E0     		b	.L3
  91              	.L5:
 339:Drivers/STM32L0xx_HAL_Driver/Src/stm32l0xx_hal_uart.c ****   }
 340:Drivers/STM32L0xx_HAL_Driver/Src/stm32l0xx_hal_uart.c **** 
 341:Drivers/STM32L0xx_HAL_Driver/Src/stm32l0xx_hal_uart.c ****   if (huart->AdvancedInit.AdvFeatureInit != UART_ADVFEATURE_NO_INIT)
  92              		.loc 1 341 26
  93 0052 7B68     		ldr	r3, [r7, #4]
  94 0054 5B6A     		ldr	r3, [r3, #36]
  95              		.loc 1 341 6
  96 0056 002B     		cmp	r3, #0
  97 0058 03D0     		beq	.L6
 342:Drivers/STM32L0xx_HAL_Driver/Src/stm32l0xx_hal_uart.c ****   {
 343:Drivers/STM32L0xx_HAL_Driver/Src/stm32l0xx_hal_uart.c ****     UART_AdvFeatureConfig(huart);
  98              		.loc 1 343 5
  99 005a 7B68     		ldr	r3, [r7, #4]
 100 005c 1800     		movs	r0, r3
 101 005e FFF7FEFF 		bl	UART_AdvFeatureConfig
 102              	.L6:
 344:Drivers/STM32L0xx_HAL_Driver/Src/stm32l0xx_hal_uart.c ****   }
 345:Drivers/STM32L0xx_HAL_Driver/Src/stm32l0xx_hal_uart.c **** 
 346:Drivers/STM32L0xx_HAL_Driver/Src/stm32l0xx_hal_uart.c ****   /* In asynchronous mode, the following bits must be kept cleared:
 347:Drivers/STM32L0xx_HAL_Driver/Src/stm32l0xx_hal_uart.c ****   - LINEN and CLKEN bits in the USART_CR2 register,
 348:Drivers/STM32L0xx_HAL_Driver/Src/stm32l0xx_hal_uart.c ****   - SCEN, HDSEL and IREN  bits in the USART_CR3 register.*/
 349:Drivers/STM32L0xx_HAL_Driver/Src/stm32l0xx_hal_uart.c ****   CLEAR_BIT(huart->Instance->CR2, (USART_CR2_LINEN | USART_CR2_CLKEN));
 103              		.loc 1 349 3
 104 0062 7B68     		ldr	r3, [r7, #4]
 105 0064 1B68     		ldr	r3, [r3]
 106 0066 5A68     		ldr	r2, [r3, #4]
 107 0068 7B68     		ldr	r3, [r7, #4]
 108 006a 1B68     		ldr	r3, [r3]
ARM GAS  C:\Users\lidka\AppData\Local\Temp\ccqOATUZ.s 			page 9


 109 006c 0D49     		ldr	r1, .L7
 110 006e 0A40     		ands	r2, r1
 111 0070 5A60     		str	r2, [r3, #4]
 350:Drivers/STM32L0xx_HAL_Driver/Src/stm32l0xx_hal_uart.c ****   CLEAR_BIT(huart->Instance->CR3, (USART_CR3_SCEN | USART_CR3_HDSEL | USART_CR3_IREN));
 112              		.loc 1 350 3
 113 0072 7B68     		ldr	r3, [r7, #4]
 114 0074 1B68     		ldr	r3, [r3]
 115 0076 9A68     		ldr	r2, [r3, #8]
 116 0078 7B68     		ldr	r3, [r7, #4]
 117 007a 1B68     		ldr	r3, [r3]
 118 007c 2A21     		movs	r1, #42
 119 007e 8A43     		bics	r2, r1
 120 0080 9A60     		str	r2, [r3, #8]
 351:Drivers/STM32L0xx_HAL_Driver/Src/stm32l0xx_hal_uart.c **** 
 352:Drivers/STM32L0xx_HAL_Driver/Src/stm32l0xx_hal_uart.c ****   __HAL_UART_ENABLE(huart);
 121              		.loc 1 352 3
 122 0082 7B68     		ldr	r3, [r7, #4]
 123 0084 1B68     		ldr	r3, [r3]
 124 0086 1A68     		ldr	r2, [r3]
 125 0088 7B68     		ldr	r3, [r7, #4]
 126 008a 1B68     		ldr	r3, [r3]
 127 008c 0121     		movs	r1, #1
 128 008e 0A43     		orrs	r2, r1
 129 0090 1A60     		str	r2, [r3]
 353:Drivers/STM32L0xx_HAL_Driver/Src/stm32l0xx_hal_uart.c **** 
 354:Drivers/STM32L0xx_HAL_Driver/Src/stm32l0xx_hal_uart.c ****   /* TEACK and/or REACK to check before moving huart->gState and huart->RxState to Ready */
 355:Drivers/STM32L0xx_HAL_Driver/Src/stm32l0xx_hal_uart.c ****   return (UART_CheckIdleState(huart));
 130              		.loc 1 355 11
 131 0092 7B68     		ldr	r3, [r7, #4]
 132 0094 1800     		movs	r0, r3
 133 0096 FFF7FEFF 		bl	UART_CheckIdleState
 134 009a 0300     		movs	r3, r0
 135              	.L3:
 356:Drivers/STM32L0xx_HAL_Driver/Src/stm32l0xx_hal_uart.c **** }
 136              		.loc 1 356 1
 137 009c 1800     		movs	r0, r3
 138 009e BD46     		mov	sp, r7
 139 00a0 02B0     		add	sp, sp, #8
 140              		@ sp needed
 141 00a2 80BD     		pop	{r7, pc}
 142              	.L8:
 143              		.align	2
 144              	.L7:
 145 00a4 FFB7FFFF 		.word	-18433
 146              		.cfi_endproc
 147              	.LFE47:
 149              		.section	.text.HAL_HalfDuplex_Init,"ax",%progbits
 150              		.align	1
 151              		.global	HAL_HalfDuplex_Init
 152              		.syntax unified
 153              		.code	16
 154              		.thumb_func
 156              	HAL_HalfDuplex_Init:
 157              	.LFB48:
 357:Drivers/STM32L0xx_HAL_Driver/Src/stm32l0xx_hal_uart.c **** 
 358:Drivers/STM32L0xx_HAL_Driver/Src/stm32l0xx_hal_uart.c **** /**
 359:Drivers/STM32L0xx_HAL_Driver/Src/stm32l0xx_hal_uart.c ****   * @brief Initialize the half-duplex mode according to the specified
ARM GAS  C:\Users\lidka\AppData\Local\Temp\ccqOATUZ.s 			page 10


 360:Drivers/STM32L0xx_HAL_Driver/Src/stm32l0xx_hal_uart.c ****   *        parameters in the UART_InitTypeDef and creates the associated handle.
 361:Drivers/STM32L0xx_HAL_Driver/Src/stm32l0xx_hal_uart.c ****   * @param huart UART handle.
 362:Drivers/STM32L0xx_HAL_Driver/Src/stm32l0xx_hal_uart.c ****   * @retval HAL status
 363:Drivers/STM32L0xx_HAL_Driver/Src/stm32l0xx_hal_uart.c ****   */
 364:Drivers/STM32L0xx_HAL_Driver/Src/stm32l0xx_hal_uart.c **** HAL_StatusTypeDef HAL_HalfDuplex_Init(UART_HandleTypeDef *huart)
 365:Drivers/STM32L0xx_HAL_Driver/Src/stm32l0xx_hal_uart.c **** {
 158              		.loc 1 365 1
 159              		.cfi_startproc
 160              		@ args = 0, pretend = 0, frame = 8
 161              		@ frame_needed = 1, uses_anonymous_args = 0
 162 0000 80B5     		push	{r7, lr}
 163              	.LCFI3:
 164              		.cfi_def_cfa_offset 8
 165              		.cfi_offset 7, -8
 166              		.cfi_offset 14, -4
 167 0002 82B0     		sub	sp, sp, #8
 168              	.LCFI4:
 169              		.cfi_def_cfa_offset 16
 170 0004 00AF     		add	r7, sp, #0
 171              	.LCFI5:
 172              		.cfi_def_cfa_register 7
 173 0006 7860     		str	r0, [r7, #4]
 366:Drivers/STM32L0xx_HAL_Driver/Src/stm32l0xx_hal_uart.c ****   /* Check the UART handle allocation */
 367:Drivers/STM32L0xx_HAL_Driver/Src/stm32l0xx_hal_uart.c ****   if (huart == NULL)
 174              		.loc 1 367 6
 175 0008 7B68     		ldr	r3, [r7, #4]
 176 000a 002B     		cmp	r3, #0
 177 000c 01D1     		bne	.L10
 368:Drivers/STM32L0xx_HAL_Driver/Src/stm32l0xx_hal_uart.c ****   {
 369:Drivers/STM32L0xx_HAL_Driver/Src/stm32l0xx_hal_uart.c ****     return HAL_ERROR;
 178              		.loc 1 369 12
 179 000e 0123     		movs	r3, #1
 180 0010 4CE0     		b	.L11
 181              	.L10:
 370:Drivers/STM32L0xx_HAL_Driver/Src/stm32l0xx_hal_uart.c ****   }
 371:Drivers/STM32L0xx_HAL_Driver/Src/stm32l0xx_hal_uart.c **** 
 372:Drivers/STM32L0xx_HAL_Driver/Src/stm32l0xx_hal_uart.c ****   /* Check UART instance */
 373:Drivers/STM32L0xx_HAL_Driver/Src/stm32l0xx_hal_uart.c ****   assert_param(IS_UART_HALFDUPLEX_INSTANCE(huart->Instance));
 374:Drivers/STM32L0xx_HAL_Driver/Src/stm32l0xx_hal_uart.c **** 
 375:Drivers/STM32L0xx_HAL_Driver/Src/stm32l0xx_hal_uart.c ****   if (huart->gState == HAL_UART_STATE_RESET)
 182              		.loc 1 375 12
 183 0012 7B68     		ldr	r3, [r7, #4]
 184 0014 9B6F     		ldr	r3, [r3, #120]
 185              		.loc 1 375 6
 186 0016 002B     		cmp	r3, #0
 187 0018 07D1     		bne	.L12
 376:Drivers/STM32L0xx_HAL_Driver/Src/stm32l0xx_hal_uart.c ****   {
 377:Drivers/STM32L0xx_HAL_Driver/Src/stm32l0xx_hal_uart.c ****     /* Allocate lock resource and initialize it */
 378:Drivers/STM32L0xx_HAL_Driver/Src/stm32l0xx_hal_uart.c ****     huart->Lock = HAL_UNLOCKED;
 188              		.loc 1 378 17
 189 001a 7B68     		ldr	r3, [r7, #4]
 190 001c 7422     		movs	r2, #116
 191 001e 0021     		movs	r1, #0
 192 0020 9954     		strb	r1, [r3, r2]
 379:Drivers/STM32L0xx_HAL_Driver/Src/stm32l0xx_hal_uart.c **** 
 380:Drivers/STM32L0xx_HAL_Driver/Src/stm32l0xx_hal_uart.c **** #if (USE_HAL_UART_REGISTER_CALLBACKS == 1)
 381:Drivers/STM32L0xx_HAL_Driver/Src/stm32l0xx_hal_uart.c ****     UART_InitCallbacksToDefault(huart);
ARM GAS  C:\Users\lidka\AppData\Local\Temp\ccqOATUZ.s 			page 11


 382:Drivers/STM32L0xx_HAL_Driver/Src/stm32l0xx_hal_uart.c **** 
 383:Drivers/STM32L0xx_HAL_Driver/Src/stm32l0xx_hal_uart.c ****     if (huart->MspInitCallback == NULL)
 384:Drivers/STM32L0xx_HAL_Driver/Src/stm32l0xx_hal_uart.c ****     {
 385:Drivers/STM32L0xx_HAL_Driver/Src/stm32l0xx_hal_uart.c ****       huart->MspInitCallback = HAL_UART_MspInit;
 386:Drivers/STM32L0xx_HAL_Driver/Src/stm32l0xx_hal_uart.c ****     }
 387:Drivers/STM32L0xx_HAL_Driver/Src/stm32l0xx_hal_uart.c **** 
 388:Drivers/STM32L0xx_HAL_Driver/Src/stm32l0xx_hal_uart.c ****     /* Init the low level hardware */
 389:Drivers/STM32L0xx_HAL_Driver/Src/stm32l0xx_hal_uart.c ****     huart->MspInitCallback(huart);
 390:Drivers/STM32L0xx_HAL_Driver/Src/stm32l0xx_hal_uart.c **** #else
 391:Drivers/STM32L0xx_HAL_Driver/Src/stm32l0xx_hal_uart.c ****     /* Init the low level hardware : GPIO, CLOCK */
 392:Drivers/STM32L0xx_HAL_Driver/Src/stm32l0xx_hal_uart.c ****     HAL_UART_MspInit(huart);
 193              		.loc 1 392 5
 194 0022 7B68     		ldr	r3, [r7, #4]
 195 0024 1800     		movs	r0, r3
 196 0026 FFF7FEFF 		bl	HAL_UART_MspInit
 197              	.L12:
 393:Drivers/STM32L0xx_HAL_Driver/Src/stm32l0xx_hal_uart.c **** #endif /* (USE_HAL_UART_REGISTER_CALLBACKS) */
 394:Drivers/STM32L0xx_HAL_Driver/Src/stm32l0xx_hal_uart.c ****   }
 395:Drivers/STM32L0xx_HAL_Driver/Src/stm32l0xx_hal_uart.c **** 
 396:Drivers/STM32L0xx_HAL_Driver/Src/stm32l0xx_hal_uart.c ****   huart->gState = HAL_UART_STATE_BUSY;
 198              		.loc 1 396 17
 199 002a 7B68     		ldr	r3, [r7, #4]
 200 002c 2422     		movs	r2, #36
 201 002e 9A67     		str	r2, [r3, #120]
 397:Drivers/STM32L0xx_HAL_Driver/Src/stm32l0xx_hal_uart.c **** 
 398:Drivers/STM32L0xx_HAL_Driver/Src/stm32l0xx_hal_uart.c ****   __HAL_UART_DISABLE(huart);
 202              		.loc 1 398 3
 203 0030 7B68     		ldr	r3, [r7, #4]
 204 0032 1B68     		ldr	r3, [r3]
 205 0034 1A68     		ldr	r2, [r3]
 206 0036 7B68     		ldr	r3, [r7, #4]
 207 0038 1B68     		ldr	r3, [r3]
 208 003a 0121     		movs	r1, #1
 209 003c 8A43     		bics	r2, r1
 210 003e 1A60     		str	r2, [r3]
 399:Drivers/STM32L0xx_HAL_Driver/Src/stm32l0xx_hal_uart.c **** 
 400:Drivers/STM32L0xx_HAL_Driver/Src/stm32l0xx_hal_uart.c ****   /* Set the UART Communication parameters */
 401:Drivers/STM32L0xx_HAL_Driver/Src/stm32l0xx_hal_uart.c ****   if (UART_SetConfig(huart) == HAL_ERROR)
 211              		.loc 1 401 7
 212 0040 7B68     		ldr	r3, [r7, #4]
 213 0042 1800     		movs	r0, r3
 214 0044 FFF7FEFF 		bl	UART_SetConfig
 215 0048 0300     		movs	r3, r0
 216              		.loc 1 401 6
 217 004a 012B     		cmp	r3, #1
 218 004c 01D1     		bne	.L13
 402:Drivers/STM32L0xx_HAL_Driver/Src/stm32l0xx_hal_uart.c ****   {
 403:Drivers/STM32L0xx_HAL_Driver/Src/stm32l0xx_hal_uart.c ****     return HAL_ERROR;
 219              		.loc 1 403 12
 220 004e 0123     		movs	r3, #1
 221 0050 2CE0     		b	.L11
 222              	.L13:
 404:Drivers/STM32L0xx_HAL_Driver/Src/stm32l0xx_hal_uart.c ****   }
 405:Drivers/STM32L0xx_HAL_Driver/Src/stm32l0xx_hal_uart.c **** 
 406:Drivers/STM32L0xx_HAL_Driver/Src/stm32l0xx_hal_uart.c ****   if (huart->AdvancedInit.AdvFeatureInit != UART_ADVFEATURE_NO_INIT)
 223              		.loc 1 406 26
 224 0052 7B68     		ldr	r3, [r7, #4]
ARM GAS  C:\Users\lidka\AppData\Local\Temp\ccqOATUZ.s 			page 12


 225 0054 5B6A     		ldr	r3, [r3, #36]
 226              		.loc 1 406 6
 227 0056 002B     		cmp	r3, #0
 228 0058 03D0     		beq	.L14
 407:Drivers/STM32L0xx_HAL_Driver/Src/stm32l0xx_hal_uart.c ****   {
 408:Drivers/STM32L0xx_HAL_Driver/Src/stm32l0xx_hal_uart.c ****     UART_AdvFeatureConfig(huart);
 229              		.loc 1 408 5
 230 005a 7B68     		ldr	r3, [r7, #4]
 231 005c 1800     		movs	r0, r3
 232 005e FFF7FEFF 		bl	UART_AdvFeatureConfig
 233              	.L14:
 409:Drivers/STM32L0xx_HAL_Driver/Src/stm32l0xx_hal_uart.c ****   }
 410:Drivers/STM32L0xx_HAL_Driver/Src/stm32l0xx_hal_uart.c **** 
 411:Drivers/STM32L0xx_HAL_Driver/Src/stm32l0xx_hal_uart.c ****   /* In half-duplex mode, the following bits must be kept cleared:
 412:Drivers/STM32L0xx_HAL_Driver/Src/stm32l0xx_hal_uart.c ****   - LINEN and CLKEN bits in the USART_CR2 register,
 413:Drivers/STM32L0xx_HAL_Driver/Src/stm32l0xx_hal_uart.c ****   - SCEN and IREN bits in the USART_CR3 register.*/
 414:Drivers/STM32L0xx_HAL_Driver/Src/stm32l0xx_hal_uart.c ****   CLEAR_BIT(huart->Instance->CR2, (USART_CR2_LINEN | USART_CR2_CLKEN));
 234              		.loc 1 414 3
 235 0062 7B68     		ldr	r3, [r7, #4]
 236 0064 1B68     		ldr	r3, [r3]
 237 0066 5A68     		ldr	r2, [r3, #4]
 238 0068 7B68     		ldr	r3, [r7, #4]
 239 006a 1B68     		ldr	r3, [r3]
 240 006c 1149     		ldr	r1, .L15
 241 006e 0A40     		ands	r2, r1
 242 0070 5A60     		str	r2, [r3, #4]
 415:Drivers/STM32L0xx_HAL_Driver/Src/stm32l0xx_hal_uart.c ****   CLEAR_BIT(huart->Instance->CR3, (USART_CR3_IREN | USART_CR3_SCEN));
 243              		.loc 1 415 3
 244 0072 7B68     		ldr	r3, [r7, #4]
 245 0074 1B68     		ldr	r3, [r3]
 246 0076 9A68     		ldr	r2, [r3, #8]
 247 0078 7B68     		ldr	r3, [r7, #4]
 248 007a 1B68     		ldr	r3, [r3]
 249 007c 2221     		movs	r1, #34
 250 007e 8A43     		bics	r2, r1
 251 0080 9A60     		str	r2, [r3, #8]
 416:Drivers/STM32L0xx_HAL_Driver/Src/stm32l0xx_hal_uart.c **** 
 417:Drivers/STM32L0xx_HAL_Driver/Src/stm32l0xx_hal_uart.c ****   /* Enable the Half-Duplex mode by setting the HDSEL bit in the CR3 register */
 418:Drivers/STM32L0xx_HAL_Driver/Src/stm32l0xx_hal_uart.c ****   SET_BIT(huart->Instance->CR3, USART_CR3_HDSEL);
 252              		.loc 1 418 3
 253 0082 7B68     		ldr	r3, [r7, #4]
 254 0084 1B68     		ldr	r3, [r3]
 255 0086 9A68     		ldr	r2, [r3, #8]
 256 0088 7B68     		ldr	r3, [r7, #4]
 257 008a 1B68     		ldr	r3, [r3]
 258 008c 0821     		movs	r1, #8
 259 008e 0A43     		orrs	r2, r1
 260 0090 9A60     		str	r2, [r3, #8]
 419:Drivers/STM32L0xx_HAL_Driver/Src/stm32l0xx_hal_uart.c **** 
 420:Drivers/STM32L0xx_HAL_Driver/Src/stm32l0xx_hal_uart.c ****   __HAL_UART_ENABLE(huart);
 261              		.loc 1 420 3
 262 0092 7B68     		ldr	r3, [r7, #4]
 263 0094 1B68     		ldr	r3, [r3]
 264 0096 1A68     		ldr	r2, [r3]
 265 0098 7B68     		ldr	r3, [r7, #4]
 266 009a 1B68     		ldr	r3, [r3]
 267 009c 0121     		movs	r1, #1
ARM GAS  C:\Users\lidka\AppData\Local\Temp\ccqOATUZ.s 			page 13


 268 009e 0A43     		orrs	r2, r1
 269 00a0 1A60     		str	r2, [r3]
 421:Drivers/STM32L0xx_HAL_Driver/Src/stm32l0xx_hal_uart.c **** 
 422:Drivers/STM32L0xx_HAL_Driver/Src/stm32l0xx_hal_uart.c ****   /* TEACK and/or REACK to check before moving huart->gState and huart->RxState to Ready */
 423:Drivers/STM32L0xx_HAL_Driver/Src/stm32l0xx_hal_uart.c ****   return (UART_CheckIdleState(huart));
 270              		.loc 1 423 11
 271 00a2 7B68     		ldr	r3, [r7, #4]
 272 00a4 1800     		movs	r0, r3
 273 00a6 FFF7FEFF 		bl	UART_CheckIdleState
 274 00aa 0300     		movs	r3, r0
 275              	.L11:
 424:Drivers/STM32L0xx_HAL_Driver/Src/stm32l0xx_hal_uart.c **** }
 276              		.loc 1 424 1
 277 00ac 1800     		movs	r0, r3
 278 00ae BD46     		mov	sp, r7
 279 00b0 02B0     		add	sp, sp, #8
 280              		@ sp needed
 281 00b2 80BD     		pop	{r7, pc}
 282              	.L16:
 283              		.align	2
 284              	.L15:
 285 00b4 FFB7FFFF 		.word	-18433
 286              		.cfi_endproc
 287              	.LFE48:
 289              		.section	.text.HAL_LIN_Init,"ax",%progbits
 290              		.align	1
 291              		.global	HAL_LIN_Init
 292              		.syntax unified
 293              		.code	16
 294              		.thumb_func
 296              	HAL_LIN_Init:
 297              	.LFB49:
 425:Drivers/STM32L0xx_HAL_Driver/Src/stm32l0xx_hal_uart.c **** 
 426:Drivers/STM32L0xx_HAL_Driver/Src/stm32l0xx_hal_uart.c **** 
 427:Drivers/STM32L0xx_HAL_Driver/Src/stm32l0xx_hal_uart.c **** /**
 428:Drivers/STM32L0xx_HAL_Driver/Src/stm32l0xx_hal_uart.c ****   * @brief Initialize the LIN mode according to the specified
 429:Drivers/STM32L0xx_HAL_Driver/Src/stm32l0xx_hal_uart.c ****   *        parameters in the UART_InitTypeDef and creates the associated handle.
 430:Drivers/STM32L0xx_HAL_Driver/Src/stm32l0xx_hal_uart.c ****   * @param huart             UART handle.
 431:Drivers/STM32L0xx_HAL_Driver/Src/stm32l0xx_hal_uart.c ****   * @param BreakDetectLength Specifies the LIN break detection length.
 432:Drivers/STM32L0xx_HAL_Driver/Src/stm32l0xx_hal_uart.c ****   *        This parameter can be one of the following values:
 433:Drivers/STM32L0xx_HAL_Driver/Src/stm32l0xx_hal_uart.c ****   *          @arg @ref UART_LINBREAKDETECTLENGTH_10B 10-bit break detection
 434:Drivers/STM32L0xx_HAL_Driver/Src/stm32l0xx_hal_uart.c ****   *          @arg @ref UART_LINBREAKDETECTLENGTH_11B 11-bit break detection
 435:Drivers/STM32L0xx_HAL_Driver/Src/stm32l0xx_hal_uart.c ****   * @retval HAL status
 436:Drivers/STM32L0xx_HAL_Driver/Src/stm32l0xx_hal_uart.c ****   */
 437:Drivers/STM32L0xx_HAL_Driver/Src/stm32l0xx_hal_uart.c **** HAL_StatusTypeDef HAL_LIN_Init(UART_HandleTypeDef *huart, uint32_t BreakDetectLength)
 438:Drivers/STM32L0xx_HAL_Driver/Src/stm32l0xx_hal_uart.c **** {
 298              		.loc 1 438 1
 299              		.cfi_startproc
 300              		@ args = 0, pretend = 0, frame = 8
 301              		@ frame_needed = 1, uses_anonymous_args = 0
 302 0000 80B5     		push	{r7, lr}
 303              	.LCFI6:
 304              		.cfi_def_cfa_offset 8
 305              		.cfi_offset 7, -8
 306              		.cfi_offset 14, -4
 307 0002 82B0     		sub	sp, sp, #8
 308              	.LCFI7:
ARM GAS  C:\Users\lidka\AppData\Local\Temp\ccqOATUZ.s 			page 14


 309              		.cfi_def_cfa_offset 16
 310 0004 00AF     		add	r7, sp, #0
 311              	.LCFI8:
 312              		.cfi_def_cfa_register 7
 313 0006 7860     		str	r0, [r7, #4]
 314 0008 3960     		str	r1, [r7]
 439:Drivers/STM32L0xx_HAL_Driver/Src/stm32l0xx_hal_uart.c ****   /* Check the UART handle allocation */
 440:Drivers/STM32L0xx_HAL_Driver/Src/stm32l0xx_hal_uart.c ****   if (huart == NULL)
 315              		.loc 1 440 6
 316 000a 7B68     		ldr	r3, [r7, #4]
 317 000c 002B     		cmp	r3, #0
 318 000e 01D1     		bne	.L18
 441:Drivers/STM32L0xx_HAL_Driver/Src/stm32l0xx_hal_uart.c ****   {
 442:Drivers/STM32L0xx_HAL_Driver/Src/stm32l0xx_hal_uart.c ****     return HAL_ERROR;
 319              		.loc 1 442 12
 320 0010 0123     		movs	r3, #1
 321 0012 66E0     		b	.L19
 322              	.L18:
 443:Drivers/STM32L0xx_HAL_Driver/Src/stm32l0xx_hal_uart.c ****   }
 444:Drivers/STM32L0xx_HAL_Driver/Src/stm32l0xx_hal_uart.c **** 
 445:Drivers/STM32L0xx_HAL_Driver/Src/stm32l0xx_hal_uart.c ****   /* Check the LIN UART instance */
 446:Drivers/STM32L0xx_HAL_Driver/Src/stm32l0xx_hal_uart.c ****   assert_param(IS_UART_LIN_INSTANCE(huart->Instance));
 447:Drivers/STM32L0xx_HAL_Driver/Src/stm32l0xx_hal_uart.c ****   /* Check the Break detection length parameter */
 448:Drivers/STM32L0xx_HAL_Driver/Src/stm32l0xx_hal_uart.c ****   assert_param(IS_UART_LIN_BREAK_DETECT_LENGTH(BreakDetectLength));
 449:Drivers/STM32L0xx_HAL_Driver/Src/stm32l0xx_hal_uart.c **** 
 450:Drivers/STM32L0xx_HAL_Driver/Src/stm32l0xx_hal_uart.c ****   /* LIN mode limited to 16-bit oversampling only */
 451:Drivers/STM32L0xx_HAL_Driver/Src/stm32l0xx_hal_uart.c ****   if (huart->Init.OverSampling == UART_OVERSAMPLING_8)
 323              		.loc 1 451 18
 324 0014 7B68     		ldr	r3, [r7, #4]
 325 0016 DA69     		ldr	r2, [r3, #28]
 326              		.loc 1 451 6
 327 0018 8023     		movs	r3, #128
 328 001a 1B02     		lsls	r3, r3, #8
 329 001c 9A42     		cmp	r2, r3
 330 001e 01D1     		bne	.L20
 452:Drivers/STM32L0xx_HAL_Driver/Src/stm32l0xx_hal_uart.c ****   {
 453:Drivers/STM32L0xx_HAL_Driver/Src/stm32l0xx_hal_uart.c ****     return HAL_ERROR;
 331              		.loc 1 453 12
 332 0020 0123     		movs	r3, #1
 333 0022 5EE0     		b	.L19
 334              	.L20:
 454:Drivers/STM32L0xx_HAL_Driver/Src/stm32l0xx_hal_uart.c ****   }
 455:Drivers/STM32L0xx_HAL_Driver/Src/stm32l0xx_hal_uart.c ****   /* LIN mode limited to 8-bit data length */
 456:Drivers/STM32L0xx_HAL_Driver/Src/stm32l0xx_hal_uart.c ****   if (huart->Init.WordLength != UART_WORDLENGTH_8B)
 335              		.loc 1 456 18
 336 0024 7B68     		ldr	r3, [r7, #4]
 337 0026 9B68     		ldr	r3, [r3, #8]
 338              		.loc 1 456 6
 339 0028 002B     		cmp	r3, #0
 340 002a 01D0     		beq	.L21
 457:Drivers/STM32L0xx_HAL_Driver/Src/stm32l0xx_hal_uart.c ****   {
 458:Drivers/STM32L0xx_HAL_Driver/Src/stm32l0xx_hal_uart.c ****     return HAL_ERROR;
 341              		.loc 1 458 12
 342 002c 0123     		movs	r3, #1
 343 002e 58E0     		b	.L19
 344              	.L21:
 459:Drivers/STM32L0xx_HAL_Driver/Src/stm32l0xx_hal_uart.c ****   }
ARM GAS  C:\Users\lidka\AppData\Local\Temp\ccqOATUZ.s 			page 15


 460:Drivers/STM32L0xx_HAL_Driver/Src/stm32l0xx_hal_uart.c **** 
 461:Drivers/STM32L0xx_HAL_Driver/Src/stm32l0xx_hal_uart.c ****   if (huart->gState == HAL_UART_STATE_RESET)
 345              		.loc 1 461 12
 346 0030 7B68     		ldr	r3, [r7, #4]
 347 0032 9B6F     		ldr	r3, [r3, #120]
 348              		.loc 1 461 6
 349 0034 002B     		cmp	r3, #0
 350 0036 07D1     		bne	.L22
 462:Drivers/STM32L0xx_HAL_Driver/Src/stm32l0xx_hal_uart.c ****   {
 463:Drivers/STM32L0xx_HAL_Driver/Src/stm32l0xx_hal_uart.c ****     /* Allocate lock resource and initialize it */
 464:Drivers/STM32L0xx_HAL_Driver/Src/stm32l0xx_hal_uart.c ****     huart->Lock = HAL_UNLOCKED;
 351              		.loc 1 464 17
 352 0038 7B68     		ldr	r3, [r7, #4]
 353 003a 7422     		movs	r2, #116
 354 003c 0021     		movs	r1, #0
 355 003e 9954     		strb	r1, [r3, r2]
 465:Drivers/STM32L0xx_HAL_Driver/Src/stm32l0xx_hal_uart.c **** 
 466:Drivers/STM32L0xx_HAL_Driver/Src/stm32l0xx_hal_uart.c **** #if (USE_HAL_UART_REGISTER_CALLBACKS == 1)
 467:Drivers/STM32L0xx_HAL_Driver/Src/stm32l0xx_hal_uart.c ****     UART_InitCallbacksToDefault(huart);
 468:Drivers/STM32L0xx_HAL_Driver/Src/stm32l0xx_hal_uart.c **** 
 469:Drivers/STM32L0xx_HAL_Driver/Src/stm32l0xx_hal_uart.c ****     if (huart->MspInitCallback == NULL)
 470:Drivers/STM32L0xx_HAL_Driver/Src/stm32l0xx_hal_uart.c ****     {
 471:Drivers/STM32L0xx_HAL_Driver/Src/stm32l0xx_hal_uart.c ****       huart->MspInitCallback = HAL_UART_MspInit;
 472:Drivers/STM32L0xx_HAL_Driver/Src/stm32l0xx_hal_uart.c ****     }
 473:Drivers/STM32L0xx_HAL_Driver/Src/stm32l0xx_hal_uart.c **** 
 474:Drivers/STM32L0xx_HAL_Driver/Src/stm32l0xx_hal_uart.c ****     /* Init the low level hardware */
 475:Drivers/STM32L0xx_HAL_Driver/Src/stm32l0xx_hal_uart.c ****     huart->MspInitCallback(huart);
 476:Drivers/STM32L0xx_HAL_Driver/Src/stm32l0xx_hal_uart.c **** #else
 477:Drivers/STM32L0xx_HAL_Driver/Src/stm32l0xx_hal_uart.c ****     /* Init the low level hardware : GPIO, CLOCK */
 478:Drivers/STM32L0xx_HAL_Driver/Src/stm32l0xx_hal_uart.c ****     HAL_UART_MspInit(huart);
 356              		.loc 1 478 5
 357 0040 7B68     		ldr	r3, [r7, #4]
 358 0042 1800     		movs	r0, r3
 359 0044 FFF7FEFF 		bl	HAL_UART_MspInit
 360              	.L22:
 479:Drivers/STM32L0xx_HAL_Driver/Src/stm32l0xx_hal_uart.c **** #endif /* (USE_HAL_UART_REGISTER_CALLBACKS) */
 480:Drivers/STM32L0xx_HAL_Driver/Src/stm32l0xx_hal_uart.c ****   }
 481:Drivers/STM32L0xx_HAL_Driver/Src/stm32l0xx_hal_uart.c **** 
 482:Drivers/STM32L0xx_HAL_Driver/Src/stm32l0xx_hal_uart.c ****   huart->gState = HAL_UART_STATE_BUSY;
 361              		.loc 1 482 17
 362 0048 7B68     		ldr	r3, [r7, #4]
 363 004a 2422     		movs	r2, #36
 364 004c 9A67     		str	r2, [r3, #120]
 483:Drivers/STM32L0xx_HAL_Driver/Src/stm32l0xx_hal_uart.c **** 
 484:Drivers/STM32L0xx_HAL_Driver/Src/stm32l0xx_hal_uart.c ****   __HAL_UART_DISABLE(huart);
 365              		.loc 1 484 3
 366 004e 7B68     		ldr	r3, [r7, #4]
 367 0050 1B68     		ldr	r3, [r3]
 368 0052 1A68     		ldr	r2, [r3]
 369 0054 7B68     		ldr	r3, [r7, #4]
 370 0056 1B68     		ldr	r3, [r3]
 371 0058 0121     		movs	r1, #1
 372 005a 8A43     		bics	r2, r1
 373 005c 1A60     		str	r2, [r3]
 485:Drivers/STM32L0xx_HAL_Driver/Src/stm32l0xx_hal_uart.c **** 
 486:Drivers/STM32L0xx_HAL_Driver/Src/stm32l0xx_hal_uart.c ****   /* Set the UART Communication parameters */
 487:Drivers/STM32L0xx_HAL_Driver/Src/stm32l0xx_hal_uart.c ****   if (UART_SetConfig(huart) == HAL_ERROR)
ARM GAS  C:\Users\lidka\AppData\Local\Temp\ccqOATUZ.s 			page 16


 374              		.loc 1 487 7
 375 005e 7B68     		ldr	r3, [r7, #4]
 376 0060 1800     		movs	r0, r3
 377 0062 FFF7FEFF 		bl	UART_SetConfig
 378 0066 0300     		movs	r3, r0
 379              		.loc 1 487 6
 380 0068 012B     		cmp	r3, #1
 381 006a 01D1     		bne	.L23
 488:Drivers/STM32L0xx_HAL_Driver/Src/stm32l0xx_hal_uart.c ****   {
 489:Drivers/STM32L0xx_HAL_Driver/Src/stm32l0xx_hal_uart.c ****     return HAL_ERROR;
 382              		.loc 1 489 12
 383 006c 0123     		movs	r3, #1
 384 006e 38E0     		b	.L19
 385              	.L23:
 490:Drivers/STM32L0xx_HAL_Driver/Src/stm32l0xx_hal_uart.c ****   }
 491:Drivers/STM32L0xx_HAL_Driver/Src/stm32l0xx_hal_uart.c **** 
 492:Drivers/STM32L0xx_HAL_Driver/Src/stm32l0xx_hal_uart.c ****   if (huart->AdvancedInit.AdvFeatureInit != UART_ADVFEATURE_NO_INIT)
 386              		.loc 1 492 26
 387 0070 7B68     		ldr	r3, [r7, #4]
 388 0072 5B6A     		ldr	r3, [r3, #36]
 389              		.loc 1 492 6
 390 0074 002B     		cmp	r3, #0
 391 0076 03D0     		beq	.L24
 493:Drivers/STM32L0xx_HAL_Driver/Src/stm32l0xx_hal_uart.c ****   {
 494:Drivers/STM32L0xx_HAL_Driver/Src/stm32l0xx_hal_uart.c ****     UART_AdvFeatureConfig(huart);
 392              		.loc 1 494 5
 393 0078 7B68     		ldr	r3, [r7, #4]
 394 007a 1800     		movs	r0, r3
 395 007c FFF7FEFF 		bl	UART_AdvFeatureConfig
 396              	.L24:
 495:Drivers/STM32L0xx_HAL_Driver/Src/stm32l0xx_hal_uart.c ****   }
 496:Drivers/STM32L0xx_HAL_Driver/Src/stm32l0xx_hal_uart.c **** 
 497:Drivers/STM32L0xx_HAL_Driver/Src/stm32l0xx_hal_uart.c ****   /* In LIN mode, the following bits must be kept cleared:
 498:Drivers/STM32L0xx_HAL_Driver/Src/stm32l0xx_hal_uart.c ****   - LINEN and CLKEN bits in the USART_CR2 register,
 499:Drivers/STM32L0xx_HAL_Driver/Src/stm32l0xx_hal_uart.c ****   - SCEN and IREN bits in the USART_CR3 register.*/
 500:Drivers/STM32L0xx_HAL_Driver/Src/stm32l0xx_hal_uart.c ****   CLEAR_BIT(huart->Instance->CR2, USART_CR2_CLKEN);
 397              		.loc 1 500 3
 398 0080 7B68     		ldr	r3, [r7, #4]
 399 0082 1B68     		ldr	r3, [r3]
 400 0084 5A68     		ldr	r2, [r3, #4]
 401 0086 7B68     		ldr	r3, [r7, #4]
 402 0088 1B68     		ldr	r3, [r3]
 403 008a 1849     		ldr	r1, .L25
 404 008c 0A40     		ands	r2, r1
 405 008e 5A60     		str	r2, [r3, #4]
 501:Drivers/STM32L0xx_HAL_Driver/Src/stm32l0xx_hal_uart.c ****   CLEAR_BIT(huart->Instance->CR3, (USART_CR3_HDSEL | USART_CR3_IREN | USART_CR3_SCEN));
 406              		.loc 1 501 3
 407 0090 7B68     		ldr	r3, [r7, #4]
 408 0092 1B68     		ldr	r3, [r3]
 409 0094 9A68     		ldr	r2, [r3, #8]
 410 0096 7B68     		ldr	r3, [r7, #4]
 411 0098 1B68     		ldr	r3, [r3]
 412 009a 2A21     		movs	r1, #42
 413 009c 8A43     		bics	r2, r1
 414 009e 9A60     		str	r2, [r3, #8]
 502:Drivers/STM32L0xx_HAL_Driver/Src/stm32l0xx_hal_uart.c **** 
 503:Drivers/STM32L0xx_HAL_Driver/Src/stm32l0xx_hal_uart.c ****   /* Enable the LIN mode by setting the LINEN bit in the CR2 register */
ARM GAS  C:\Users\lidka\AppData\Local\Temp\ccqOATUZ.s 			page 17


 504:Drivers/STM32L0xx_HAL_Driver/Src/stm32l0xx_hal_uart.c ****   SET_BIT(huart->Instance->CR2, USART_CR2_LINEN);
 415              		.loc 1 504 3
 416 00a0 7B68     		ldr	r3, [r7, #4]
 417 00a2 1B68     		ldr	r3, [r3]
 418 00a4 5A68     		ldr	r2, [r3, #4]
 419 00a6 7B68     		ldr	r3, [r7, #4]
 420 00a8 1B68     		ldr	r3, [r3]
 421 00aa 8021     		movs	r1, #128
 422 00ac C901     		lsls	r1, r1, #7
 423 00ae 0A43     		orrs	r2, r1
 424 00b0 5A60     		str	r2, [r3, #4]
 505:Drivers/STM32L0xx_HAL_Driver/Src/stm32l0xx_hal_uart.c **** 
 506:Drivers/STM32L0xx_HAL_Driver/Src/stm32l0xx_hal_uart.c ****   /* Set the USART LIN Break detection length. */
 507:Drivers/STM32L0xx_HAL_Driver/Src/stm32l0xx_hal_uart.c ****   MODIFY_REG(huart->Instance->CR2, USART_CR2_LBDL, BreakDetectLength);
 425              		.loc 1 507 3
 426 00b2 7B68     		ldr	r3, [r7, #4]
 427 00b4 1B68     		ldr	r3, [r3]
 428 00b6 5B68     		ldr	r3, [r3, #4]
 429 00b8 2022     		movs	r2, #32
 430 00ba 9343     		bics	r3, r2
 431 00bc 1900     		movs	r1, r3
 432 00be 7B68     		ldr	r3, [r7, #4]
 433 00c0 1B68     		ldr	r3, [r3]
 434 00c2 3A68     		ldr	r2, [r7]
 435 00c4 0A43     		orrs	r2, r1
 436 00c6 5A60     		str	r2, [r3, #4]
 508:Drivers/STM32L0xx_HAL_Driver/Src/stm32l0xx_hal_uart.c **** 
 509:Drivers/STM32L0xx_HAL_Driver/Src/stm32l0xx_hal_uart.c ****   __HAL_UART_ENABLE(huart);
 437              		.loc 1 509 3
 438 00c8 7B68     		ldr	r3, [r7, #4]
 439 00ca 1B68     		ldr	r3, [r3]
 440 00cc 1A68     		ldr	r2, [r3]
 441 00ce 7B68     		ldr	r3, [r7, #4]
 442 00d0 1B68     		ldr	r3, [r3]
 443 00d2 0121     		movs	r1, #1
 444 00d4 0A43     		orrs	r2, r1
 445 00d6 1A60     		str	r2, [r3]
 510:Drivers/STM32L0xx_HAL_Driver/Src/stm32l0xx_hal_uart.c **** 
 511:Drivers/STM32L0xx_HAL_Driver/Src/stm32l0xx_hal_uart.c ****   /* TEACK and/or REACK to check before moving huart->gState and huart->RxState to Ready */
 512:Drivers/STM32L0xx_HAL_Driver/Src/stm32l0xx_hal_uart.c ****   return (UART_CheckIdleState(huart));
 446              		.loc 1 512 11
 447 00d8 7B68     		ldr	r3, [r7, #4]
 448 00da 1800     		movs	r0, r3
 449 00dc FFF7FEFF 		bl	UART_CheckIdleState
 450 00e0 0300     		movs	r3, r0
 451              	.L19:
 513:Drivers/STM32L0xx_HAL_Driver/Src/stm32l0xx_hal_uart.c **** }
 452              		.loc 1 513 1
 453 00e2 1800     		movs	r0, r3
 454 00e4 BD46     		mov	sp, r7
 455 00e6 02B0     		add	sp, sp, #8
 456              		@ sp needed
 457 00e8 80BD     		pop	{r7, pc}
 458              	.L26:
 459 00ea C046     		.align	2
 460              	.L25:
 461 00ec FFF7FFFF 		.word	-2049
ARM GAS  C:\Users\lidka\AppData\Local\Temp\ccqOATUZ.s 			page 18


 462              		.cfi_endproc
 463              	.LFE49:
 465              		.section	.text.HAL_MultiProcessor_Init,"ax",%progbits
 466              		.align	1
 467              		.global	HAL_MultiProcessor_Init
 468              		.syntax unified
 469              		.code	16
 470              		.thumb_func
 472              	HAL_MultiProcessor_Init:
 473              	.LFB50:
 514:Drivers/STM32L0xx_HAL_Driver/Src/stm32l0xx_hal_uart.c **** 
 515:Drivers/STM32L0xx_HAL_Driver/Src/stm32l0xx_hal_uart.c **** 
 516:Drivers/STM32L0xx_HAL_Driver/Src/stm32l0xx_hal_uart.c **** /**
 517:Drivers/STM32L0xx_HAL_Driver/Src/stm32l0xx_hal_uart.c ****   * @brief Initialize the multiprocessor mode according to the specified
 518:Drivers/STM32L0xx_HAL_Driver/Src/stm32l0xx_hal_uart.c ****   *        parameters in the UART_InitTypeDef and initialize the associated handle.
 519:Drivers/STM32L0xx_HAL_Driver/Src/stm32l0xx_hal_uart.c ****   * @param huart        UART handle.
 520:Drivers/STM32L0xx_HAL_Driver/Src/stm32l0xx_hal_uart.c ****   * @param Address      UART node address (4-, 6-, 7- or 8-bit long).
 521:Drivers/STM32L0xx_HAL_Driver/Src/stm32l0xx_hal_uart.c ****   * @param WakeUpMethod Specifies the UART wakeup method.
 522:Drivers/STM32L0xx_HAL_Driver/Src/stm32l0xx_hal_uart.c ****   *        This parameter can be one of the following values:
 523:Drivers/STM32L0xx_HAL_Driver/Src/stm32l0xx_hal_uart.c ****   *          @arg @ref UART_WAKEUPMETHOD_IDLELINE WakeUp by an idle line detection
 524:Drivers/STM32L0xx_HAL_Driver/Src/stm32l0xx_hal_uart.c ****   *          @arg @ref UART_WAKEUPMETHOD_ADDRESSMARK WakeUp by an address mark
 525:Drivers/STM32L0xx_HAL_Driver/Src/stm32l0xx_hal_uart.c ****   * @note  If the user resorts to idle line detection wake up, the Address parameter
 526:Drivers/STM32L0xx_HAL_Driver/Src/stm32l0xx_hal_uart.c ****   *        is useless and ignored by the initialization function.
 527:Drivers/STM32L0xx_HAL_Driver/Src/stm32l0xx_hal_uart.c ****   * @note  If the user resorts to address mark wake up, the address length detection
 528:Drivers/STM32L0xx_HAL_Driver/Src/stm32l0xx_hal_uart.c ****   *        is configured by default to 4 bits only. For the UART to be able to
 529:Drivers/STM32L0xx_HAL_Driver/Src/stm32l0xx_hal_uart.c ****   *        manage 6-, 7- or 8-bit long addresses detection, the API
 530:Drivers/STM32L0xx_HAL_Driver/Src/stm32l0xx_hal_uart.c ****   *        HAL_MultiProcessorEx_AddressLength_Set() must be called after
 531:Drivers/STM32L0xx_HAL_Driver/Src/stm32l0xx_hal_uart.c ****   *        HAL_MultiProcessor_Init().
 532:Drivers/STM32L0xx_HAL_Driver/Src/stm32l0xx_hal_uart.c ****   * @retval HAL status
 533:Drivers/STM32L0xx_HAL_Driver/Src/stm32l0xx_hal_uart.c ****   */
 534:Drivers/STM32L0xx_HAL_Driver/Src/stm32l0xx_hal_uart.c **** HAL_StatusTypeDef HAL_MultiProcessor_Init(UART_HandleTypeDef *huart, uint8_t Address, uint32_t Wake
 535:Drivers/STM32L0xx_HAL_Driver/Src/stm32l0xx_hal_uart.c **** {
 474              		.loc 1 535 1
 475              		.cfi_startproc
 476              		@ args = 0, pretend = 0, frame = 16
 477              		@ frame_needed = 1, uses_anonymous_args = 0
 478 0000 80B5     		push	{r7, lr}
 479              	.LCFI9:
 480              		.cfi_def_cfa_offset 8
 481              		.cfi_offset 7, -8
 482              		.cfi_offset 14, -4
 483 0002 84B0     		sub	sp, sp, #16
 484              	.LCFI10:
 485              		.cfi_def_cfa_offset 24
 486 0004 00AF     		add	r7, sp, #0
 487              	.LCFI11:
 488              		.cfi_def_cfa_register 7
 489 0006 F860     		str	r0, [r7, #12]
 490 0008 7A60     		str	r2, [r7, #4]
 491 000a 0B23     		movs	r3, #11
 492 000c FB18     		adds	r3, r7, r3
 493 000e 0A1C     		adds	r2, r1, #0
 494 0010 1A70     		strb	r2, [r3]
 536:Drivers/STM32L0xx_HAL_Driver/Src/stm32l0xx_hal_uart.c ****   /* Check the UART handle allocation */
 537:Drivers/STM32L0xx_HAL_Driver/Src/stm32l0xx_hal_uart.c ****   if (huart == NULL)
 495              		.loc 1 537 6
 496 0012 FB68     		ldr	r3, [r7, #12]
ARM GAS  C:\Users\lidka\AppData\Local\Temp\ccqOATUZ.s 			page 19


 497 0014 002B     		cmp	r3, #0
 498 0016 01D1     		bne	.L28
 538:Drivers/STM32L0xx_HAL_Driver/Src/stm32l0xx_hal_uart.c ****   {
 539:Drivers/STM32L0xx_HAL_Driver/Src/stm32l0xx_hal_uart.c ****     return HAL_ERROR;
 499              		.loc 1 539 12
 500 0018 0123     		movs	r3, #1
 501 001a 61E0     		b	.L29
 502              	.L28:
 540:Drivers/STM32L0xx_HAL_Driver/Src/stm32l0xx_hal_uart.c ****   }
 541:Drivers/STM32L0xx_HAL_Driver/Src/stm32l0xx_hal_uart.c **** 
 542:Drivers/STM32L0xx_HAL_Driver/Src/stm32l0xx_hal_uart.c ****   /* Check the wake up method parameter */
 543:Drivers/STM32L0xx_HAL_Driver/Src/stm32l0xx_hal_uart.c ****   assert_param(IS_UART_WAKEUPMETHOD(WakeUpMethod));
 544:Drivers/STM32L0xx_HAL_Driver/Src/stm32l0xx_hal_uart.c **** 
 545:Drivers/STM32L0xx_HAL_Driver/Src/stm32l0xx_hal_uart.c ****   if (huart->gState == HAL_UART_STATE_RESET)
 503              		.loc 1 545 12
 504 001c FB68     		ldr	r3, [r7, #12]
 505 001e 9B6F     		ldr	r3, [r3, #120]
 506              		.loc 1 545 6
 507 0020 002B     		cmp	r3, #0
 508 0022 07D1     		bne	.L30
 546:Drivers/STM32L0xx_HAL_Driver/Src/stm32l0xx_hal_uart.c ****   {
 547:Drivers/STM32L0xx_HAL_Driver/Src/stm32l0xx_hal_uart.c ****     /* Allocate lock resource and initialize it */
 548:Drivers/STM32L0xx_HAL_Driver/Src/stm32l0xx_hal_uart.c ****     huart->Lock = HAL_UNLOCKED;
 509              		.loc 1 548 17
 510 0024 FB68     		ldr	r3, [r7, #12]
 511 0026 7422     		movs	r2, #116
 512 0028 0021     		movs	r1, #0
 513 002a 9954     		strb	r1, [r3, r2]
 549:Drivers/STM32L0xx_HAL_Driver/Src/stm32l0xx_hal_uart.c **** 
 550:Drivers/STM32L0xx_HAL_Driver/Src/stm32l0xx_hal_uart.c **** #if (USE_HAL_UART_REGISTER_CALLBACKS == 1)
 551:Drivers/STM32L0xx_HAL_Driver/Src/stm32l0xx_hal_uart.c ****     UART_InitCallbacksToDefault(huart);
 552:Drivers/STM32L0xx_HAL_Driver/Src/stm32l0xx_hal_uart.c **** 
 553:Drivers/STM32L0xx_HAL_Driver/Src/stm32l0xx_hal_uart.c ****     if (huart->MspInitCallback == NULL)
 554:Drivers/STM32L0xx_HAL_Driver/Src/stm32l0xx_hal_uart.c ****     {
 555:Drivers/STM32L0xx_HAL_Driver/Src/stm32l0xx_hal_uart.c ****       huart->MspInitCallback = HAL_UART_MspInit;
 556:Drivers/STM32L0xx_HAL_Driver/Src/stm32l0xx_hal_uart.c ****     }
 557:Drivers/STM32L0xx_HAL_Driver/Src/stm32l0xx_hal_uart.c **** 
 558:Drivers/STM32L0xx_HAL_Driver/Src/stm32l0xx_hal_uart.c ****     /* Init the low level hardware */
 559:Drivers/STM32L0xx_HAL_Driver/Src/stm32l0xx_hal_uart.c ****     huart->MspInitCallback(huart);
 560:Drivers/STM32L0xx_HAL_Driver/Src/stm32l0xx_hal_uart.c **** #else
 561:Drivers/STM32L0xx_HAL_Driver/Src/stm32l0xx_hal_uart.c ****     /* Init the low level hardware : GPIO, CLOCK */
 562:Drivers/STM32L0xx_HAL_Driver/Src/stm32l0xx_hal_uart.c ****     HAL_UART_MspInit(huart);
 514              		.loc 1 562 5
 515 002c FB68     		ldr	r3, [r7, #12]
 516 002e 1800     		movs	r0, r3
 517 0030 FFF7FEFF 		bl	HAL_UART_MspInit
 518              	.L30:
 563:Drivers/STM32L0xx_HAL_Driver/Src/stm32l0xx_hal_uart.c **** #endif /* (USE_HAL_UART_REGISTER_CALLBACKS) */
 564:Drivers/STM32L0xx_HAL_Driver/Src/stm32l0xx_hal_uart.c ****   }
 565:Drivers/STM32L0xx_HAL_Driver/Src/stm32l0xx_hal_uart.c **** 
 566:Drivers/STM32L0xx_HAL_Driver/Src/stm32l0xx_hal_uart.c ****   huart->gState = HAL_UART_STATE_BUSY;
 519              		.loc 1 566 17
 520 0034 FB68     		ldr	r3, [r7, #12]
 521 0036 2422     		movs	r2, #36
 522 0038 9A67     		str	r2, [r3, #120]
 567:Drivers/STM32L0xx_HAL_Driver/Src/stm32l0xx_hal_uart.c **** 
 568:Drivers/STM32L0xx_HAL_Driver/Src/stm32l0xx_hal_uart.c ****   __HAL_UART_DISABLE(huart);
ARM GAS  C:\Users\lidka\AppData\Local\Temp\ccqOATUZ.s 			page 20


 523              		.loc 1 568 3
 524 003a FB68     		ldr	r3, [r7, #12]
 525 003c 1B68     		ldr	r3, [r3]
 526 003e 1A68     		ldr	r2, [r3]
 527 0040 FB68     		ldr	r3, [r7, #12]
 528 0042 1B68     		ldr	r3, [r3]
 529 0044 0121     		movs	r1, #1
 530 0046 8A43     		bics	r2, r1
 531 0048 1A60     		str	r2, [r3]
 569:Drivers/STM32L0xx_HAL_Driver/Src/stm32l0xx_hal_uart.c **** 
 570:Drivers/STM32L0xx_HAL_Driver/Src/stm32l0xx_hal_uart.c ****   /* Set the UART Communication parameters */
 571:Drivers/STM32L0xx_HAL_Driver/Src/stm32l0xx_hal_uart.c ****   if (UART_SetConfig(huart) == HAL_ERROR)
 532              		.loc 1 571 7
 533 004a FB68     		ldr	r3, [r7, #12]
 534 004c 1800     		movs	r0, r3
 535 004e FFF7FEFF 		bl	UART_SetConfig
 536 0052 0300     		movs	r3, r0
 537              		.loc 1 571 6
 538 0054 012B     		cmp	r3, #1
 539 0056 01D1     		bne	.L31
 572:Drivers/STM32L0xx_HAL_Driver/Src/stm32l0xx_hal_uart.c ****   {
 573:Drivers/STM32L0xx_HAL_Driver/Src/stm32l0xx_hal_uart.c ****     return HAL_ERROR;
 540              		.loc 1 573 12
 541 0058 0123     		movs	r3, #1
 542 005a 41E0     		b	.L29
 543              	.L31:
 574:Drivers/STM32L0xx_HAL_Driver/Src/stm32l0xx_hal_uart.c ****   }
 575:Drivers/STM32L0xx_HAL_Driver/Src/stm32l0xx_hal_uart.c **** 
 576:Drivers/STM32L0xx_HAL_Driver/Src/stm32l0xx_hal_uart.c ****   if (huart->AdvancedInit.AdvFeatureInit != UART_ADVFEATURE_NO_INIT)
 544              		.loc 1 576 26
 545 005c FB68     		ldr	r3, [r7, #12]
 546 005e 5B6A     		ldr	r3, [r3, #36]
 547              		.loc 1 576 6
 548 0060 002B     		cmp	r3, #0
 549 0062 03D0     		beq	.L32
 577:Drivers/STM32L0xx_HAL_Driver/Src/stm32l0xx_hal_uart.c ****   {
 578:Drivers/STM32L0xx_HAL_Driver/Src/stm32l0xx_hal_uart.c ****     UART_AdvFeatureConfig(huart);
 550              		.loc 1 578 5
 551 0064 FB68     		ldr	r3, [r7, #12]
 552 0066 1800     		movs	r0, r3
 553 0068 FFF7FEFF 		bl	UART_AdvFeatureConfig
 554              	.L32:
 579:Drivers/STM32L0xx_HAL_Driver/Src/stm32l0xx_hal_uart.c ****   }
 580:Drivers/STM32L0xx_HAL_Driver/Src/stm32l0xx_hal_uart.c **** 
 581:Drivers/STM32L0xx_HAL_Driver/Src/stm32l0xx_hal_uart.c ****   /* In multiprocessor mode, the following bits must be kept cleared:
 582:Drivers/STM32L0xx_HAL_Driver/Src/stm32l0xx_hal_uart.c ****   - LINEN and CLKEN bits in the USART_CR2 register,
 583:Drivers/STM32L0xx_HAL_Driver/Src/stm32l0xx_hal_uart.c ****   - SCEN, HDSEL and IREN  bits in the USART_CR3 register. */
 584:Drivers/STM32L0xx_HAL_Driver/Src/stm32l0xx_hal_uart.c ****   CLEAR_BIT(huart->Instance->CR2, (USART_CR2_LINEN | USART_CR2_CLKEN));
 555              		.loc 1 584 3
 556 006c FB68     		ldr	r3, [r7, #12]
 557 006e 1B68     		ldr	r3, [r3]
 558 0070 5A68     		ldr	r2, [r3, #4]
 559 0072 FB68     		ldr	r3, [r7, #12]
 560 0074 1B68     		ldr	r3, [r3]
 561 0076 1C49     		ldr	r1, .L34
 562 0078 0A40     		ands	r2, r1
 563 007a 5A60     		str	r2, [r3, #4]
ARM GAS  C:\Users\lidka\AppData\Local\Temp\ccqOATUZ.s 			page 21


 585:Drivers/STM32L0xx_HAL_Driver/Src/stm32l0xx_hal_uart.c ****   CLEAR_BIT(huart->Instance->CR3, (USART_CR3_SCEN | USART_CR3_HDSEL | USART_CR3_IREN));
 564              		.loc 1 585 3
 565 007c FB68     		ldr	r3, [r7, #12]
 566 007e 1B68     		ldr	r3, [r3]
 567 0080 9A68     		ldr	r2, [r3, #8]
 568 0082 FB68     		ldr	r3, [r7, #12]
 569 0084 1B68     		ldr	r3, [r3]
 570 0086 2A21     		movs	r1, #42
 571 0088 8A43     		bics	r2, r1
 572 008a 9A60     		str	r2, [r3, #8]
 586:Drivers/STM32L0xx_HAL_Driver/Src/stm32l0xx_hal_uart.c **** 
 587:Drivers/STM32L0xx_HAL_Driver/Src/stm32l0xx_hal_uart.c ****   if (WakeUpMethod == UART_WAKEUPMETHOD_ADDRESSMARK)
 573              		.loc 1 587 6
 574 008c 7A68     		ldr	r2, [r7, #4]
 575 008e 8023     		movs	r3, #128
 576 0090 1B01     		lsls	r3, r3, #4
 577 0092 9A42     		cmp	r2, r3
 578 0094 0CD1     		bne	.L33
 588:Drivers/STM32L0xx_HAL_Driver/Src/stm32l0xx_hal_uart.c ****   {
 589:Drivers/STM32L0xx_HAL_Driver/Src/stm32l0xx_hal_uart.c ****     /* If address mark wake up method is chosen, set the USART address node */
 590:Drivers/STM32L0xx_HAL_Driver/Src/stm32l0xx_hal_uart.c ****     MODIFY_REG(huart->Instance->CR2, USART_CR2_ADD, ((uint32_t)Address << UART_CR2_ADDRESS_LSB_POS)
 579              		.loc 1 590 5
 580 0096 FB68     		ldr	r3, [r7, #12]
 581 0098 1B68     		ldr	r3, [r3]
 582 009a 5B68     		ldr	r3, [r3, #4]
 583 009c 1B02     		lsls	r3, r3, #8
 584 009e 190A     		lsrs	r1, r3, #8
 585 00a0 0B23     		movs	r3, #11
 586 00a2 FB18     		adds	r3, r7, r3
 587 00a4 1B78     		ldrb	r3, [r3]
 588 00a6 1A06     		lsls	r2, r3, #24
 589 00a8 FB68     		ldr	r3, [r7, #12]
 590 00aa 1B68     		ldr	r3, [r3]
 591 00ac 0A43     		orrs	r2, r1
 592 00ae 5A60     		str	r2, [r3, #4]
 593              	.L33:
 591:Drivers/STM32L0xx_HAL_Driver/Src/stm32l0xx_hal_uart.c ****   }
 592:Drivers/STM32L0xx_HAL_Driver/Src/stm32l0xx_hal_uart.c **** 
 593:Drivers/STM32L0xx_HAL_Driver/Src/stm32l0xx_hal_uart.c ****   /* Set the wake up method by setting the WAKE bit in the CR1 register */
 594:Drivers/STM32L0xx_HAL_Driver/Src/stm32l0xx_hal_uart.c ****   MODIFY_REG(huart->Instance->CR1, USART_CR1_WAKE, WakeUpMethod);
 594              		.loc 1 594 3
 595 00b0 FB68     		ldr	r3, [r7, #12]
 596 00b2 1B68     		ldr	r3, [r3]
 597 00b4 1B68     		ldr	r3, [r3]
 598 00b6 0D4A     		ldr	r2, .L34+4
 599 00b8 1340     		ands	r3, r2
 600 00ba 1900     		movs	r1, r3
 601 00bc FB68     		ldr	r3, [r7, #12]
 602 00be 1B68     		ldr	r3, [r3]
 603 00c0 7A68     		ldr	r2, [r7, #4]
 604 00c2 0A43     		orrs	r2, r1
 605 00c4 1A60     		str	r2, [r3]
 595:Drivers/STM32L0xx_HAL_Driver/Src/stm32l0xx_hal_uart.c **** 
 596:Drivers/STM32L0xx_HAL_Driver/Src/stm32l0xx_hal_uart.c ****   __HAL_UART_ENABLE(huart);
 606              		.loc 1 596 3
 607 00c6 FB68     		ldr	r3, [r7, #12]
 608 00c8 1B68     		ldr	r3, [r3]
ARM GAS  C:\Users\lidka\AppData\Local\Temp\ccqOATUZ.s 			page 22


 609 00ca 1A68     		ldr	r2, [r3]
 610 00cc FB68     		ldr	r3, [r7, #12]
 611 00ce 1B68     		ldr	r3, [r3]
 612 00d0 0121     		movs	r1, #1
 613 00d2 0A43     		orrs	r2, r1
 614 00d4 1A60     		str	r2, [r3]
 597:Drivers/STM32L0xx_HAL_Driver/Src/stm32l0xx_hal_uart.c **** 
 598:Drivers/STM32L0xx_HAL_Driver/Src/stm32l0xx_hal_uart.c ****   /* TEACK and/or REACK to check before moving huart->gState and huart->RxState to Ready */
 599:Drivers/STM32L0xx_HAL_Driver/Src/stm32l0xx_hal_uart.c ****   return (UART_CheckIdleState(huart));
 615              		.loc 1 599 11
 616 00d6 FB68     		ldr	r3, [r7, #12]
 617 00d8 1800     		movs	r0, r3
 618 00da FFF7FEFF 		bl	UART_CheckIdleState
 619 00de 0300     		movs	r3, r0
 620              	.L29:
 600:Drivers/STM32L0xx_HAL_Driver/Src/stm32l0xx_hal_uart.c **** }
 621              		.loc 1 600 1
 622 00e0 1800     		movs	r0, r3
 623 00e2 BD46     		mov	sp, r7
 624 00e4 04B0     		add	sp, sp, #16
 625              		@ sp needed
 626 00e6 80BD     		pop	{r7, pc}
 627              	.L35:
 628              		.align	2
 629              	.L34:
 630 00e8 FFB7FFFF 		.word	-18433
 631 00ec FFF7FFFF 		.word	-2049
 632              		.cfi_endproc
 633              	.LFE50:
 635              		.section	.text.HAL_UART_DeInit,"ax",%progbits
 636              		.align	1
 637              		.global	HAL_UART_DeInit
 638              		.syntax unified
 639              		.code	16
 640              		.thumb_func
 642              	HAL_UART_DeInit:
 643              	.LFB51:
 601:Drivers/STM32L0xx_HAL_Driver/Src/stm32l0xx_hal_uart.c **** 
 602:Drivers/STM32L0xx_HAL_Driver/Src/stm32l0xx_hal_uart.c **** 
 603:Drivers/STM32L0xx_HAL_Driver/Src/stm32l0xx_hal_uart.c **** /**
 604:Drivers/STM32L0xx_HAL_Driver/Src/stm32l0xx_hal_uart.c ****   * @brief DeInitialize the UART peripheral.
 605:Drivers/STM32L0xx_HAL_Driver/Src/stm32l0xx_hal_uart.c ****   * @param huart UART handle.
 606:Drivers/STM32L0xx_HAL_Driver/Src/stm32l0xx_hal_uart.c ****   * @retval HAL status
 607:Drivers/STM32L0xx_HAL_Driver/Src/stm32l0xx_hal_uart.c ****   */
 608:Drivers/STM32L0xx_HAL_Driver/Src/stm32l0xx_hal_uart.c **** HAL_StatusTypeDef HAL_UART_DeInit(UART_HandleTypeDef *huart)
 609:Drivers/STM32L0xx_HAL_Driver/Src/stm32l0xx_hal_uart.c **** {
 644              		.loc 1 609 1
 645              		.cfi_startproc
 646              		@ args = 0, pretend = 0, frame = 8
 647              		@ frame_needed = 1, uses_anonymous_args = 0
 648 0000 80B5     		push	{r7, lr}
 649              	.LCFI12:
 650              		.cfi_def_cfa_offset 8
 651              		.cfi_offset 7, -8
 652              		.cfi_offset 14, -4
 653 0002 82B0     		sub	sp, sp, #8
 654              	.LCFI13:
ARM GAS  C:\Users\lidka\AppData\Local\Temp\ccqOATUZ.s 			page 23


 655              		.cfi_def_cfa_offset 16
 656 0004 00AF     		add	r7, sp, #0
 657              	.LCFI14:
 658              		.cfi_def_cfa_register 7
 659 0006 7860     		str	r0, [r7, #4]
 610:Drivers/STM32L0xx_HAL_Driver/Src/stm32l0xx_hal_uart.c ****   /* Check the UART handle allocation */
 611:Drivers/STM32L0xx_HAL_Driver/Src/stm32l0xx_hal_uart.c ****   if (huart == NULL)
 660              		.loc 1 611 6
 661 0008 7B68     		ldr	r3, [r7, #4]
 662 000a 002B     		cmp	r3, #0
 663 000c 01D1     		bne	.L37
 612:Drivers/STM32L0xx_HAL_Driver/Src/stm32l0xx_hal_uart.c ****   {
 613:Drivers/STM32L0xx_HAL_Driver/Src/stm32l0xx_hal_uart.c ****     return HAL_ERROR;
 664              		.loc 1 613 12
 665 000e 0123     		movs	r3, #1
 666 0010 2CE0     		b	.L38
 667              	.L37:
 614:Drivers/STM32L0xx_HAL_Driver/Src/stm32l0xx_hal_uart.c ****   }
 615:Drivers/STM32L0xx_HAL_Driver/Src/stm32l0xx_hal_uart.c **** 
 616:Drivers/STM32L0xx_HAL_Driver/Src/stm32l0xx_hal_uart.c ****   /* Check the parameters */
 617:Drivers/STM32L0xx_HAL_Driver/Src/stm32l0xx_hal_uart.c ****   assert_param((IS_UART_INSTANCE(huart->Instance)) || (IS_LPUART_INSTANCE(huart->Instance)));
 618:Drivers/STM32L0xx_HAL_Driver/Src/stm32l0xx_hal_uart.c **** 
 619:Drivers/STM32L0xx_HAL_Driver/Src/stm32l0xx_hal_uart.c ****   huart->gState = HAL_UART_STATE_BUSY;
 668              		.loc 1 619 17
 669 0012 7B68     		ldr	r3, [r7, #4]
 670 0014 2422     		movs	r2, #36
 671 0016 9A67     		str	r2, [r3, #120]
 620:Drivers/STM32L0xx_HAL_Driver/Src/stm32l0xx_hal_uart.c **** 
 621:Drivers/STM32L0xx_HAL_Driver/Src/stm32l0xx_hal_uart.c ****   __HAL_UART_DISABLE(huart);
 672              		.loc 1 621 3
 673 0018 7B68     		ldr	r3, [r7, #4]
 674 001a 1B68     		ldr	r3, [r3]
 675 001c 1A68     		ldr	r2, [r3]
 676 001e 7B68     		ldr	r3, [r7, #4]
 677 0020 1B68     		ldr	r3, [r3]
 678 0022 0121     		movs	r1, #1
 679 0024 8A43     		bics	r2, r1
 680 0026 1A60     		str	r2, [r3]
 622:Drivers/STM32L0xx_HAL_Driver/Src/stm32l0xx_hal_uart.c **** 
 623:Drivers/STM32L0xx_HAL_Driver/Src/stm32l0xx_hal_uart.c ****   huart->Instance->CR1 = 0x0U;
 681              		.loc 1 623 8
 682 0028 7B68     		ldr	r3, [r7, #4]
 683 002a 1B68     		ldr	r3, [r3]
 684              		.loc 1 623 24
 685 002c 0022     		movs	r2, #0
 686 002e 1A60     		str	r2, [r3]
 624:Drivers/STM32L0xx_HAL_Driver/Src/stm32l0xx_hal_uart.c ****   huart->Instance->CR2 = 0x0U;
 687              		.loc 1 624 8
 688 0030 7B68     		ldr	r3, [r7, #4]
 689 0032 1B68     		ldr	r3, [r3]
 690              		.loc 1 624 24
 691 0034 0022     		movs	r2, #0
 692 0036 5A60     		str	r2, [r3, #4]
 625:Drivers/STM32L0xx_HAL_Driver/Src/stm32l0xx_hal_uart.c ****   huart->Instance->CR3 = 0x0U;
 693              		.loc 1 625 8
 694 0038 7B68     		ldr	r3, [r7, #4]
 695 003a 1B68     		ldr	r3, [r3]
ARM GAS  C:\Users\lidka\AppData\Local\Temp\ccqOATUZ.s 			page 24


 696              		.loc 1 625 24
 697 003c 0022     		movs	r2, #0
 698 003e 9A60     		str	r2, [r3, #8]
 626:Drivers/STM32L0xx_HAL_Driver/Src/stm32l0xx_hal_uart.c **** 
 627:Drivers/STM32L0xx_HAL_Driver/Src/stm32l0xx_hal_uart.c **** #if (USE_HAL_UART_REGISTER_CALLBACKS == 1)
 628:Drivers/STM32L0xx_HAL_Driver/Src/stm32l0xx_hal_uart.c ****   if (huart->MspDeInitCallback == NULL)
 629:Drivers/STM32L0xx_HAL_Driver/Src/stm32l0xx_hal_uart.c ****   {
 630:Drivers/STM32L0xx_HAL_Driver/Src/stm32l0xx_hal_uart.c ****     huart->MspDeInitCallback = HAL_UART_MspDeInit;
 631:Drivers/STM32L0xx_HAL_Driver/Src/stm32l0xx_hal_uart.c ****   }
 632:Drivers/STM32L0xx_HAL_Driver/Src/stm32l0xx_hal_uart.c ****   /* DeInit the low level hardware */
 633:Drivers/STM32L0xx_HAL_Driver/Src/stm32l0xx_hal_uart.c ****   huart->MspDeInitCallback(huart);
 634:Drivers/STM32L0xx_HAL_Driver/Src/stm32l0xx_hal_uart.c **** #else
 635:Drivers/STM32L0xx_HAL_Driver/Src/stm32l0xx_hal_uart.c ****   /* DeInit the low level hardware */
 636:Drivers/STM32L0xx_HAL_Driver/Src/stm32l0xx_hal_uart.c ****   HAL_UART_MspDeInit(huart);
 699              		.loc 1 636 3
 700 0040 7B68     		ldr	r3, [r7, #4]
 701 0042 1800     		movs	r0, r3
 702 0044 FFF7FEFF 		bl	HAL_UART_MspDeInit
 637:Drivers/STM32L0xx_HAL_Driver/Src/stm32l0xx_hal_uart.c **** #endif /* (USE_HAL_UART_REGISTER_CALLBACKS) */
 638:Drivers/STM32L0xx_HAL_Driver/Src/stm32l0xx_hal_uart.c **** 
 639:Drivers/STM32L0xx_HAL_Driver/Src/stm32l0xx_hal_uart.c ****   huart->ErrorCode = HAL_UART_ERROR_NONE;
 703              		.loc 1 639 20
 704 0048 7B68     		ldr	r3, [r7, #4]
 705 004a 8022     		movs	r2, #128
 706 004c 0021     		movs	r1, #0
 707 004e 9950     		str	r1, [r3, r2]
 640:Drivers/STM32L0xx_HAL_Driver/Src/stm32l0xx_hal_uart.c ****   huart->gState = HAL_UART_STATE_RESET;
 708              		.loc 1 640 17
 709 0050 7B68     		ldr	r3, [r7, #4]
 710 0052 0022     		movs	r2, #0
 711 0054 9A67     		str	r2, [r3, #120]
 641:Drivers/STM32L0xx_HAL_Driver/Src/stm32l0xx_hal_uart.c ****   huart->RxState = HAL_UART_STATE_RESET;
 712              		.loc 1 641 18
 713 0056 7B68     		ldr	r3, [r7, #4]
 714 0058 0022     		movs	r2, #0
 715 005a DA67     		str	r2, [r3, #124]
 642:Drivers/STM32L0xx_HAL_Driver/Src/stm32l0xx_hal_uart.c ****   huart->ReceptionType = HAL_UART_RECEPTION_STANDARD;
 716              		.loc 1 642 24
 717 005c 7B68     		ldr	r3, [r7, #4]
 718 005e 0022     		movs	r2, #0
 719 0060 1A66     		str	r2, [r3, #96]
 643:Drivers/STM32L0xx_HAL_Driver/Src/stm32l0xx_hal_uart.c **** 
 644:Drivers/STM32L0xx_HAL_Driver/Src/stm32l0xx_hal_uart.c ****   __HAL_UNLOCK(huart);
 720              		.loc 1 644 3
 721 0062 7B68     		ldr	r3, [r7, #4]
 722 0064 7422     		movs	r2, #116
 723 0066 0021     		movs	r1, #0
 724 0068 9954     		strb	r1, [r3, r2]
 645:Drivers/STM32L0xx_HAL_Driver/Src/stm32l0xx_hal_uart.c **** 
 646:Drivers/STM32L0xx_HAL_Driver/Src/stm32l0xx_hal_uart.c ****   return HAL_OK;
 725              		.loc 1 646 10
 726 006a 0023     		movs	r3, #0
 727              	.L38:
 647:Drivers/STM32L0xx_HAL_Driver/Src/stm32l0xx_hal_uart.c **** }
 728              		.loc 1 647 1
 729 006c 1800     		movs	r0, r3
 730 006e BD46     		mov	sp, r7
ARM GAS  C:\Users\lidka\AppData\Local\Temp\ccqOATUZ.s 			page 25


 731 0070 02B0     		add	sp, sp, #8
 732              		@ sp needed
 733 0072 80BD     		pop	{r7, pc}
 734              		.cfi_endproc
 735              	.LFE51:
 737              		.section	.text.HAL_UART_MspInit,"ax",%progbits
 738              		.align	1
 739              		.weak	HAL_UART_MspInit
 740              		.syntax unified
 741              		.code	16
 742              		.thumb_func
 744              	HAL_UART_MspInit:
 745              	.LFB52:
 648:Drivers/STM32L0xx_HAL_Driver/Src/stm32l0xx_hal_uart.c **** 
 649:Drivers/STM32L0xx_HAL_Driver/Src/stm32l0xx_hal_uart.c **** /**
 650:Drivers/STM32L0xx_HAL_Driver/Src/stm32l0xx_hal_uart.c ****   * @brief Initialize the UART MSP.
 651:Drivers/STM32L0xx_HAL_Driver/Src/stm32l0xx_hal_uart.c ****   * @param huart UART handle.
 652:Drivers/STM32L0xx_HAL_Driver/Src/stm32l0xx_hal_uart.c ****   * @retval None
 653:Drivers/STM32L0xx_HAL_Driver/Src/stm32l0xx_hal_uart.c ****   */
 654:Drivers/STM32L0xx_HAL_Driver/Src/stm32l0xx_hal_uart.c **** __weak void HAL_UART_MspInit(UART_HandleTypeDef *huart)
 655:Drivers/STM32L0xx_HAL_Driver/Src/stm32l0xx_hal_uart.c **** {
 746              		.loc 1 655 1
 747              		.cfi_startproc
 748              		@ args = 0, pretend = 0, frame = 8
 749              		@ frame_needed = 1, uses_anonymous_args = 0
 750 0000 80B5     		push	{r7, lr}
 751              	.LCFI15:
 752              		.cfi_def_cfa_offset 8
 753              		.cfi_offset 7, -8
 754              		.cfi_offset 14, -4
 755 0002 82B0     		sub	sp, sp, #8
 756              	.LCFI16:
 757              		.cfi_def_cfa_offset 16
 758 0004 00AF     		add	r7, sp, #0
 759              	.LCFI17:
 760              		.cfi_def_cfa_register 7
 761 0006 7860     		str	r0, [r7, #4]
 656:Drivers/STM32L0xx_HAL_Driver/Src/stm32l0xx_hal_uart.c ****   /* Prevent unused argument(s) compilation warning */
 657:Drivers/STM32L0xx_HAL_Driver/Src/stm32l0xx_hal_uart.c ****   UNUSED(huart);
 658:Drivers/STM32L0xx_HAL_Driver/Src/stm32l0xx_hal_uart.c **** 
 659:Drivers/STM32L0xx_HAL_Driver/Src/stm32l0xx_hal_uart.c ****   /* NOTE : This function should not be modified, when the callback is needed,
 660:Drivers/STM32L0xx_HAL_Driver/Src/stm32l0xx_hal_uart.c ****             the HAL_UART_MspInit can be implemented in the user file
 661:Drivers/STM32L0xx_HAL_Driver/Src/stm32l0xx_hal_uart.c ****    */
 662:Drivers/STM32L0xx_HAL_Driver/Src/stm32l0xx_hal_uart.c **** }
 762              		.loc 1 662 1
 763 0008 C046     		nop
 764 000a BD46     		mov	sp, r7
 765 000c 02B0     		add	sp, sp, #8
 766              		@ sp needed
 767 000e 80BD     		pop	{r7, pc}
 768              		.cfi_endproc
 769              	.LFE52:
 771              		.section	.text.HAL_UART_MspDeInit,"ax",%progbits
 772              		.align	1
 773              		.weak	HAL_UART_MspDeInit
 774              		.syntax unified
 775              		.code	16
ARM GAS  C:\Users\lidka\AppData\Local\Temp\ccqOATUZ.s 			page 26


 776              		.thumb_func
 778              	HAL_UART_MspDeInit:
 779              	.LFB53:
 663:Drivers/STM32L0xx_HAL_Driver/Src/stm32l0xx_hal_uart.c **** 
 664:Drivers/STM32L0xx_HAL_Driver/Src/stm32l0xx_hal_uart.c **** /**
 665:Drivers/STM32L0xx_HAL_Driver/Src/stm32l0xx_hal_uart.c ****   * @brief DeInitialize the UART MSP.
 666:Drivers/STM32L0xx_HAL_Driver/Src/stm32l0xx_hal_uart.c ****   * @param huart UART handle.
 667:Drivers/STM32L0xx_HAL_Driver/Src/stm32l0xx_hal_uart.c ****   * @retval None
 668:Drivers/STM32L0xx_HAL_Driver/Src/stm32l0xx_hal_uart.c ****   */
 669:Drivers/STM32L0xx_HAL_Driver/Src/stm32l0xx_hal_uart.c **** __weak void HAL_UART_MspDeInit(UART_HandleTypeDef *huart)
 670:Drivers/STM32L0xx_HAL_Driver/Src/stm32l0xx_hal_uart.c **** {
 780              		.loc 1 670 1
 781              		.cfi_startproc
 782              		@ args = 0, pretend = 0, frame = 8
 783              		@ frame_needed = 1, uses_anonymous_args = 0
 784 0000 80B5     		push	{r7, lr}
 785              	.LCFI18:
 786              		.cfi_def_cfa_offset 8
 787              		.cfi_offset 7, -8
 788              		.cfi_offset 14, -4
 789 0002 82B0     		sub	sp, sp, #8
 790              	.LCFI19:
 791              		.cfi_def_cfa_offset 16
 792 0004 00AF     		add	r7, sp, #0
 793              	.LCFI20:
 794              		.cfi_def_cfa_register 7
 795 0006 7860     		str	r0, [r7, #4]
 671:Drivers/STM32L0xx_HAL_Driver/Src/stm32l0xx_hal_uart.c ****   /* Prevent unused argument(s) compilation warning */
 672:Drivers/STM32L0xx_HAL_Driver/Src/stm32l0xx_hal_uart.c ****   UNUSED(huart);
 673:Drivers/STM32L0xx_HAL_Driver/Src/stm32l0xx_hal_uart.c **** 
 674:Drivers/STM32L0xx_HAL_Driver/Src/stm32l0xx_hal_uart.c ****   /* NOTE : This function should not be modified, when the callback is needed,
 675:Drivers/STM32L0xx_HAL_Driver/Src/stm32l0xx_hal_uart.c ****             the HAL_UART_MspDeInit can be implemented in the user file
 676:Drivers/STM32L0xx_HAL_Driver/Src/stm32l0xx_hal_uart.c ****    */
 677:Drivers/STM32L0xx_HAL_Driver/Src/stm32l0xx_hal_uart.c **** }
 796              		.loc 1 677 1
 797 0008 C046     		nop
 798 000a BD46     		mov	sp, r7
 799 000c 02B0     		add	sp, sp, #8
 800              		@ sp needed
 801 000e 80BD     		pop	{r7, pc}
 802              		.cfi_endproc
 803              	.LFE53:
 805              		.section	.text.HAL_UART_Transmit,"ax",%progbits
 806              		.align	1
 807              		.global	HAL_UART_Transmit
 808              		.syntax unified
 809              		.code	16
 810              		.thumb_func
 812              	HAL_UART_Transmit:
 813              	.LFB54:
 678:Drivers/STM32L0xx_HAL_Driver/Src/stm32l0xx_hal_uart.c **** 
 679:Drivers/STM32L0xx_HAL_Driver/Src/stm32l0xx_hal_uart.c **** #if (USE_HAL_UART_REGISTER_CALLBACKS == 1)
 680:Drivers/STM32L0xx_HAL_Driver/Src/stm32l0xx_hal_uart.c **** /**
 681:Drivers/STM32L0xx_HAL_Driver/Src/stm32l0xx_hal_uart.c ****   * @brief  Register a User UART Callback
 682:Drivers/STM32L0xx_HAL_Driver/Src/stm32l0xx_hal_uart.c ****   *         To be used instead of the weak predefined callback
 683:Drivers/STM32L0xx_HAL_Driver/Src/stm32l0xx_hal_uart.c ****   * @param  huart uart handle
 684:Drivers/STM32L0xx_HAL_Driver/Src/stm32l0xx_hal_uart.c ****   * @param  CallbackID ID of the callback to be registered
ARM GAS  C:\Users\lidka\AppData\Local\Temp\ccqOATUZ.s 			page 27


 685:Drivers/STM32L0xx_HAL_Driver/Src/stm32l0xx_hal_uart.c ****   *         This parameter can be one of the following values:
 686:Drivers/STM32L0xx_HAL_Driver/Src/stm32l0xx_hal_uart.c ****   *           @arg @ref HAL_UART_TX_HALFCOMPLETE_CB_ID Tx Half Complete Callback ID
 687:Drivers/STM32L0xx_HAL_Driver/Src/stm32l0xx_hal_uart.c ****   *           @arg @ref HAL_UART_TX_COMPLETE_CB_ID Tx Complete Callback ID
 688:Drivers/STM32L0xx_HAL_Driver/Src/stm32l0xx_hal_uart.c ****   *           @arg @ref HAL_UART_RX_HALFCOMPLETE_CB_ID Rx Half Complete Callback ID
 689:Drivers/STM32L0xx_HAL_Driver/Src/stm32l0xx_hal_uart.c ****   *           @arg @ref HAL_UART_RX_COMPLETE_CB_ID Rx Complete Callback ID
 690:Drivers/STM32L0xx_HAL_Driver/Src/stm32l0xx_hal_uart.c ****   *           @arg @ref HAL_UART_ERROR_CB_ID Error Callback ID
 691:Drivers/STM32L0xx_HAL_Driver/Src/stm32l0xx_hal_uart.c ****   *           @arg @ref HAL_UART_ABORT_COMPLETE_CB_ID Abort Complete Callback ID
 692:Drivers/STM32L0xx_HAL_Driver/Src/stm32l0xx_hal_uart.c ****   *           @arg @ref HAL_UART_ABORT_TRANSMIT_COMPLETE_CB_ID Abort Transmit Complete Callback ID
 693:Drivers/STM32L0xx_HAL_Driver/Src/stm32l0xx_hal_uart.c ****   *           @arg @ref HAL_UART_ABORT_RECEIVE_COMPLETE_CB_ID Abort Receive Complete Callback ID
 694:Drivers/STM32L0xx_HAL_Driver/Src/stm32l0xx_hal_uart.c ****   *           @arg @ref HAL_UART_WAKEUP_CB_ID Wakeup Callback ID
 695:Drivers/STM32L0xx_HAL_Driver/Src/stm32l0xx_hal_uart.c ****   *           @arg @ref HAL_UART_MSPINIT_CB_ID MspInit Callback ID
 696:Drivers/STM32L0xx_HAL_Driver/Src/stm32l0xx_hal_uart.c ****   *           @arg @ref HAL_UART_MSPDEINIT_CB_ID MspDeInit Callback ID
 697:Drivers/STM32L0xx_HAL_Driver/Src/stm32l0xx_hal_uart.c ****   * @param  pCallback pointer to the Callback function
 698:Drivers/STM32L0xx_HAL_Driver/Src/stm32l0xx_hal_uart.c ****   * @retval HAL status
 699:Drivers/STM32L0xx_HAL_Driver/Src/stm32l0xx_hal_uart.c ****   */
 700:Drivers/STM32L0xx_HAL_Driver/Src/stm32l0xx_hal_uart.c **** HAL_StatusTypeDef HAL_UART_RegisterCallback(UART_HandleTypeDef *huart, HAL_UART_CallbackIDTypeDef C
 701:Drivers/STM32L0xx_HAL_Driver/Src/stm32l0xx_hal_uart.c ****                                             pUART_CallbackTypeDef pCallback)
 702:Drivers/STM32L0xx_HAL_Driver/Src/stm32l0xx_hal_uart.c **** {
 703:Drivers/STM32L0xx_HAL_Driver/Src/stm32l0xx_hal_uart.c ****   HAL_StatusTypeDef status = HAL_OK;
 704:Drivers/STM32L0xx_HAL_Driver/Src/stm32l0xx_hal_uart.c **** 
 705:Drivers/STM32L0xx_HAL_Driver/Src/stm32l0xx_hal_uart.c ****   if (pCallback == NULL)
 706:Drivers/STM32L0xx_HAL_Driver/Src/stm32l0xx_hal_uart.c ****   {
 707:Drivers/STM32L0xx_HAL_Driver/Src/stm32l0xx_hal_uart.c ****     huart->ErrorCode |= HAL_UART_ERROR_INVALID_CALLBACK;
 708:Drivers/STM32L0xx_HAL_Driver/Src/stm32l0xx_hal_uart.c **** 
 709:Drivers/STM32L0xx_HAL_Driver/Src/stm32l0xx_hal_uart.c ****     return HAL_ERROR;
 710:Drivers/STM32L0xx_HAL_Driver/Src/stm32l0xx_hal_uart.c ****   }
 711:Drivers/STM32L0xx_HAL_Driver/Src/stm32l0xx_hal_uart.c **** 
 712:Drivers/STM32L0xx_HAL_Driver/Src/stm32l0xx_hal_uart.c ****   __HAL_LOCK(huart);
 713:Drivers/STM32L0xx_HAL_Driver/Src/stm32l0xx_hal_uart.c **** 
 714:Drivers/STM32L0xx_HAL_Driver/Src/stm32l0xx_hal_uart.c ****   if (huart->gState == HAL_UART_STATE_READY)
 715:Drivers/STM32L0xx_HAL_Driver/Src/stm32l0xx_hal_uart.c ****   {
 716:Drivers/STM32L0xx_HAL_Driver/Src/stm32l0xx_hal_uart.c ****     switch (CallbackID)
 717:Drivers/STM32L0xx_HAL_Driver/Src/stm32l0xx_hal_uart.c ****     {
 718:Drivers/STM32L0xx_HAL_Driver/Src/stm32l0xx_hal_uart.c ****       case HAL_UART_TX_HALFCOMPLETE_CB_ID :
 719:Drivers/STM32L0xx_HAL_Driver/Src/stm32l0xx_hal_uart.c ****         huart->TxHalfCpltCallback = pCallback;
 720:Drivers/STM32L0xx_HAL_Driver/Src/stm32l0xx_hal_uart.c ****         break;
 721:Drivers/STM32L0xx_HAL_Driver/Src/stm32l0xx_hal_uart.c **** 
 722:Drivers/STM32L0xx_HAL_Driver/Src/stm32l0xx_hal_uart.c ****       case HAL_UART_TX_COMPLETE_CB_ID :
 723:Drivers/STM32L0xx_HAL_Driver/Src/stm32l0xx_hal_uart.c ****         huart->TxCpltCallback = pCallback;
 724:Drivers/STM32L0xx_HAL_Driver/Src/stm32l0xx_hal_uart.c ****         break;
 725:Drivers/STM32L0xx_HAL_Driver/Src/stm32l0xx_hal_uart.c **** 
 726:Drivers/STM32L0xx_HAL_Driver/Src/stm32l0xx_hal_uart.c ****       case HAL_UART_RX_HALFCOMPLETE_CB_ID :
 727:Drivers/STM32L0xx_HAL_Driver/Src/stm32l0xx_hal_uart.c ****         huart->RxHalfCpltCallback = pCallback;
 728:Drivers/STM32L0xx_HAL_Driver/Src/stm32l0xx_hal_uart.c ****         break;
 729:Drivers/STM32L0xx_HAL_Driver/Src/stm32l0xx_hal_uart.c **** 
 730:Drivers/STM32L0xx_HAL_Driver/Src/stm32l0xx_hal_uart.c ****       case HAL_UART_RX_COMPLETE_CB_ID :
 731:Drivers/STM32L0xx_HAL_Driver/Src/stm32l0xx_hal_uart.c ****         huart->RxCpltCallback = pCallback;
 732:Drivers/STM32L0xx_HAL_Driver/Src/stm32l0xx_hal_uart.c ****         break;
 733:Drivers/STM32L0xx_HAL_Driver/Src/stm32l0xx_hal_uart.c **** 
 734:Drivers/STM32L0xx_HAL_Driver/Src/stm32l0xx_hal_uart.c ****       case HAL_UART_ERROR_CB_ID :
 735:Drivers/STM32L0xx_HAL_Driver/Src/stm32l0xx_hal_uart.c ****         huart->ErrorCallback = pCallback;
 736:Drivers/STM32L0xx_HAL_Driver/Src/stm32l0xx_hal_uart.c ****         break;
 737:Drivers/STM32L0xx_HAL_Driver/Src/stm32l0xx_hal_uart.c **** 
 738:Drivers/STM32L0xx_HAL_Driver/Src/stm32l0xx_hal_uart.c ****       case HAL_UART_ABORT_COMPLETE_CB_ID :
 739:Drivers/STM32L0xx_HAL_Driver/Src/stm32l0xx_hal_uart.c ****         huart->AbortCpltCallback = pCallback;
 740:Drivers/STM32L0xx_HAL_Driver/Src/stm32l0xx_hal_uart.c ****         break;
 741:Drivers/STM32L0xx_HAL_Driver/Src/stm32l0xx_hal_uart.c **** 
ARM GAS  C:\Users\lidka\AppData\Local\Temp\ccqOATUZ.s 			page 28


 742:Drivers/STM32L0xx_HAL_Driver/Src/stm32l0xx_hal_uart.c ****       case HAL_UART_ABORT_TRANSMIT_COMPLETE_CB_ID :
 743:Drivers/STM32L0xx_HAL_Driver/Src/stm32l0xx_hal_uart.c ****         huart->AbortTransmitCpltCallback = pCallback;
 744:Drivers/STM32L0xx_HAL_Driver/Src/stm32l0xx_hal_uart.c ****         break;
 745:Drivers/STM32L0xx_HAL_Driver/Src/stm32l0xx_hal_uart.c **** 
 746:Drivers/STM32L0xx_HAL_Driver/Src/stm32l0xx_hal_uart.c ****       case HAL_UART_ABORT_RECEIVE_COMPLETE_CB_ID :
 747:Drivers/STM32L0xx_HAL_Driver/Src/stm32l0xx_hal_uart.c ****         huart->AbortReceiveCpltCallback = pCallback;
 748:Drivers/STM32L0xx_HAL_Driver/Src/stm32l0xx_hal_uart.c ****         break;
 749:Drivers/STM32L0xx_HAL_Driver/Src/stm32l0xx_hal_uart.c **** 
 750:Drivers/STM32L0xx_HAL_Driver/Src/stm32l0xx_hal_uart.c ****       case HAL_UART_WAKEUP_CB_ID :
 751:Drivers/STM32L0xx_HAL_Driver/Src/stm32l0xx_hal_uart.c ****         huart->WakeupCallback = pCallback;
 752:Drivers/STM32L0xx_HAL_Driver/Src/stm32l0xx_hal_uart.c ****         break;
 753:Drivers/STM32L0xx_HAL_Driver/Src/stm32l0xx_hal_uart.c **** 
 754:Drivers/STM32L0xx_HAL_Driver/Src/stm32l0xx_hal_uart.c **** 
 755:Drivers/STM32L0xx_HAL_Driver/Src/stm32l0xx_hal_uart.c ****       case HAL_UART_MSPINIT_CB_ID :
 756:Drivers/STM32L0xx_HAL_Driver/Src/stm32l0xx_hal_uart.c ****         huart->MspInitCallback = pCallback;
 757:Drivers/STM32L0xx_HAL_Driver/Src/stm32l0xx_hal_uart.c ****         break;
 758:Drivers/STM32L0xx_HAL_Driver/Src/stm32l0xx_hal_uart.c **** 
 759:Drivers/STM32L0xx_HAL_Driver/Src/stm32l0xx_hal_uart.c ****       case HAL_UART_MSPDEINIT_CB_ID :
 760:Drivers/STM32L0xx_HAL_Driver/Src/stm32l0xx_hal_uart.c ****         huart->MspDeInitCallback = pCallback;
 761:Drivers/STM32L0xx_HAL_Driver/Src/stm32l0xx_hal_uart.c ****         break;
 762:Drivers/STM32L0xx_HAL_Driver/Src/stm32l0xx_hal_uart.c **** 
 763:Drivers/STM32L0xx_HAL_Driver/Src/stm32l0xx_hal_uart.c ****       default :
 764:Drivers/STM32L0xx_HAL_Driver/Src/stm32l0xx_hal_uart.c ****         huart->ErrorCode |= HAL_UART_ERROR_INVALID_CALLBACK;
 765:Drivers/STM32L0xx_HAL_Driver/Src/stm32l0xx_hal_uart.c **** 
 766:Drivers/STM32L0xx_HAL_Driver/Src/stm32l0xx_hal_uart.c ****         status =  HAL_ERROR;
 767:Drivers/STM32L0xx_HAL_Driver/Src/stm32l0xx_hal_uart.c ****         break;
 768:Drivers/STM32L0xx_HAL_Driver/Src/stm32l0xx_hal_uart.c ****     }
 769:Drivers/STM32L0xx_HAL_Driver/Src/stm32l0xx_hal_uart.c ****   }
 770:Drivers/STM32L0xx_HAL_Driver/Src/stm32l0xx_hal_uart.c ****   else if (huart->gState == HAL_UART_STATE_RESET)
 771:Drivers/STM32L0xx_HAL_Driver/Src/stm32l0xx_hal_uart.c ****   {
 772:Drivers/STM32L0xx_HAL_Driver/Src/stm32l0xx_hal_uart.c ****     switch (CallbackID)
 773:Drivers/STM32L0xx_HAL_Driver/Src/stm32l0xx_hal_uart.c ****     {
 774:Drivers/STM32L0xx_HAL_Driver/Src/stm32l0xx_hal_uart.c ****       case HAL_UART_MSPINIT_CB_ID :
 775:Drivers/STM32L0xx_HAL_Driver/Src/stm32l0xx_hal_uart.c ****         huart->MspInitCallback = pCallback;
 776:Drivers/STM32L0xx_HAL_Driver/Src/stm32l0xx_hal_uart.c ****         break;
 777:Drivers/STM32L0xx_HAL_Driver/Src/stm32l0xx_hal_uart.c **** 
 778:Drivers/STM32L0xx_HAL_Driver/Src/stm32l0xx_hal_uart.c ****       case HAL_UART_MSPDEINIT_CB_ID :
 779:Drivers/STM32L0xx_HAL_Driver/Src/stm32l0xx_hal_uart.c ****         huart->MspDeInitCallback = pCallback;
 780:Drivers/STM32L0xx_HAL_Driver/Src/stm32l0xx_hal_uart.c ****         break;
 781:Drivers/STM32L0xx_HAL_Driver/Src/stm32l0xx_hal_uart.c **** 
 782:Drivers/STM32L0xx_HAL_Driver/Src/stm32l0xx_hal_uart.c ****       default :
 783:Drivers/STM32L0xx_HAL_Driver/Src/stm32l0xx_hal_uart.c ****         huart->ErrorCode |= HAL_UART_ERROR_INVALID_CALLBACK;
 784:Drivers/STM32L0xx_HAL_Driver/Src/stm32l0xx_hal_uart.c **** 
 785:Drivers/STM32L0xx_HAL_Driver/Src/stm32l0xx_hal_uart.c ****         status =  HAL_ERROR;
 786:Drivers/STM32L0xx_HAL_Driver/Src/stm32l0xx_hal_uart.c ****         break;
 787:Drivers/STM32L0xx_HAL_Driver/Src/stm32l0xx_hal_uart.c ****     }
 788:Drivers/STM32L0xx_HAL_Driver/Src/stm32l0xx_hal_uart.c ****   }
 789:Drivers/STM32L0xx_HAL_Driver/Src/stm32l0xx_hal_uart.c ****   else
 790:Drivers/STM32L0xx_HAL_Driver/Src/stm32l0xx_hal_uart.c ****   {
 791:Drivers/STM32L0xx_HAL_Driver/Src/stm32l0xx_hal_uart.c ****     huart->ErrorCode |= HAL_UART_ERROR_INVALID_CALLBACK;
 792:Drivers/STM32L0xx_HAL_Driver/Src/stm32l0xx_hal_uart.c **** 
 793:Drivers/STM32L0xx_HAL_Driver/Src/stm32l0xx_hal_uart.c ****     status =  HAL_ERROR;
 794:Drivers/STM32L0xx_HAL_Driver/Src/stm32l0xx_hal_uart.c ****   }
 795:Drivers/STM32L0xx_HAL_Driver/Src/stm32l0xx_hal_uart.c **** 
 796:Drivers/STM32L0xx_HAL_Driver/Src/stm32l0xx_hal_uart.c ****   __HAL_UNLOCK(huart);
 797:Drivers/STM32L0xx_HAL_Driver/Src/stm32l0xx_hal_uart.c **** 
 798:Drivers/STM32L0xx_HAL_Driver/Src/stm32l0xx_hal_uart.c ****   return status;
ARM GAS  C:\Users\lidka\AppData\Local\Temp\ccqOATUZ.s 			page 29


 799:Drivers/STM32L0xx_HAL_Driver/Src/stm32l0xx_hal_uart.c **** }
 800:Drivers/STM32L0xx_HAL_Driver/Src/stm32l0xx_hal_uart.c **** 
 801:Drivers/STM32L0xx_HAL_Driver/Src/stm32l0xx_hal_uart.c **** /**
 802:Drivers/STM32L0xx_HAL_Driver/Src/stm32l0xx_hal_uart.c ****   * @brief  Unregister an UART Callback
 803:Drivers/STM32L0xx_HAL_Driver/Src/stm32l0xx_hal_uart.c ****   *         UART callaback is redirected to the weak predefined callback
 804:Drivers/STM32L0xx_HAL_Driver/Src/stm32l0xx_hal_uart.c ****   * @param  huart uart handle
 805:Drivers/STM32L0xx_HAL_Driver/Src/stm32l0xx_hal_uart.c ****   * @param  CallbackID ID of the callback to be unregistered
 806:Drivers/STM32L0xx_HAL_Driver/Src/stm32l0xx_hal_uart.c ****   *         This parameter can be one of the following values:
 807:Drivers/STM32L0xx_HAL_Driver/Src/stm32l0xx_hal_uart.c ****   *           @arg @ref HAL_UART_TX_HALFCOMPLETE_CB_ID Tx Half Complete Callback ID
 808:Drivers/STM32L0xx_HAL_Driver/Src/stm32l0xx_hal_uart.c ****   *           @arg @ref HAL_UART_TX_COMPLETE_CB_ID Tx Complete Callback ID
 809:Drivers/STM32L0xx_HAL_Driver/Src/stm32l0xx_hal_uart.c ****   *           @arg @ref HAL_UART_RX_HALFCOMPLETE_CB_ID Rx Half Complete Callback ID
 810:Drivers/STM32L0xx_HAL_Driver/Src/stm32l0xx_hal_uart.c ****   *           @arg @ref HAL_UART_RX_COMPLETE_CB_ID Rx Complete Callback ID
 811:Drivers/STM32L0xx_HAL_Driver/Src/stm32l0xx_hal_uart.c ****   *           @arg @ref HAL_UART_ERROR_CB_ID Error Callback ID
 812:Drivers/STM32L0xx_HAL_Driver/Src/stm32l0xx_hal_uart.c ****   *           @arg @ref HAL_UART_ABORT_COMPLETE_CB_ID Abort Complete Callback ID
 813:Drivers/STM32L0xx_HAL_Driver/Src/stm32l0xx_hal_uart.c ****   *           @arg @ref HAL_UART_ABORT_TRANSMIT_COMPLETE_CB_ID Abort Transmit Complete Callback ID
 814:Drivers/STM32L0xx_HAL_Driver/Src/stm32l0xx_hal_uart.c ****   *           @arg @ref HAL_UART_ABORT_RECEIVE_COMPLETE_CB_ID Abort Receive Complete Callback ID
 815:Drivers/STM32L0xx_HAL_Driver/Src/stm32l0xx_hal_uart.c ****   *           @arg @ref HAL_UART_WAKEUP_CB_ID Wakeup Callback ID
 816:Drivers/STM32L0xx_HAL_Driver/Src/stm32l0xx_hal_uart.c ****   *           @arg @ref HAL_UART_MSPINIT_CB_ID MspInit Callback ID
 817:Drivers/STM32L0xx_HAL_Driver/Src/stm32l0xx_hal_uart.c ****   *           @arg @ref HAL_UART_MSPDEINIT_CB_ID MspDeInit Callback ID
 818:Drivers/STM32L0xx_HAL_Driver/Src/stm32l0xx_hal_uart.c ****   * @retval HAL status
 819:Drivers/STM32L0xx_HAL_Driver/Src/stm32l0xx_hal_uart.c ****   */
 820:Drivers/STM32L0xx_HAL_Driver/Src/stm32l0xx_hal_uart.c **** HAL_StatusTypeDef HAL_UART_UnRegisterCallback(UART_HandleTypeDef *huart, HAL_UART_CallbackIDTypeDef
 821:Drivers/STM32L0xx_HAL_Driver/Src/stm32l0xx_hal_uart.c **** {
 822:Drivers/STM32L0xx_HAL_Driver/Src/stm32l0xx_hal_uart.c ****   HAL_StatusTypeDef status = HAL_OK;
 823:Drivers/STM32L0xx_HAL_Driver/Src/stm32l0xx_hal_uart.c **** 
 824:Drivers/STM32L0xx_HAL_Driver/Src/stm32l0xx_hal_uart.c ****   __HAL_LOCK(huart);
 825:Drivers/STM32L0xx_HAL_Driver/Src/stm32l0xx_hal_uart.c **** 
 826:Drivers/STM32L0xx_HAL_Driver/Src/stm32l0xx_hal_uart.c ****   if (HAL_UART_STATE_READY == huart->gState)
 827:Drivers/STM32L0xx_HAL_Driver/Src/stm32l0xx_hal_uart.c ****   {
 828:Drivers/STM32L0xx_HAL_Driver/Src/stm32l0xx_hal_uart.c ****     switch (CallbackID)
 829:Drivers/STM32L0xx_HAL_Driver/Src/stm32l0xx_hal_uart.c ****     {
 830:Drivers/STM32L0xx_HAL_Driver/Src/stm32l0xx_hal_uart.c ****       case HAL_UART_TX_HALFCOMPLETE_CB_ID :
 831:Drivers/STM32L0xx_HAL_Driver/Src/stm32l0xx_hal_uart.c ****         huart->TxHalfCpltCallback = HAL_UART_TxHalfCpltCallback;               /* Legacy weak  TxHa
 832:Drivers/STM32L0xx_HAL_Driver/Src/stm32l0xx_hal_uart.c ****         break;
 833:Drivers/STM32L0xx_HAL_Driver/Src/stm32l0xx_hal_uart.c **** 
 834:Drivers/STM32L0xx_HAL_Driver/Src/stm32l0xx_hal_uart.c ****       case HAL_UART_TX_COMPLETE_CB_ID :
 835:Drivers/STM32L0xx_HAL_Driver/Src/stm32l0xx_hal_uart.c ****         huart->TxCpltCallback = HAL_UART_TxCpltCallback;                       /* Legacy weak TxCpl
 836:Drivers/STM32L0xx_HAL_Driver/Src/stm32l0xx_hal_uart.c ****         break;
 837:Drivers/STM32L0xx_HAL_Driver/Src/stm32l0xx_hal_uart.c **** 
 838:Drivers/STM32L0xx_HAL_Driver/Src/stm32l0xx_hal_uart.c ****       case HAL_UART_RX_HALFCOMPLETE_CB_ID :
 839:Drivers/STM32L0xx_HAL_Driver/Src/stm32l0xx_hal_uart.c ****         huart->RxHalfCpltCallback = HAL_UART_RxHalfCpltCallback;               /* Legacy weak RxHal
 840:Drivers/STM32L0xx_HAL_Driver/Src/stm32l0xx_hal_uart.c ****         break;
 841:Drivers/STM32L0xx_HAL_Driver/Src/stm32l0xx_hal_uart.c **** 
 842:Drivers/STM32L0xx_HAL_Driver/Src/stm32l0xx_hal_uart.c ****       case HAL_UART_RX_COMPLETE_CB_ID :
 843:Drivers/STM32L0xx_HAL_Driver/Src/stm32l0xx_hal_uart.c ****         huart->RxCpltCallback = HAL_UART_RxCpltCallback;                       /* Legacy weak RxCpl
 844:Drivers/STM32L0xx_HAL_Driver/Src/stm32l0xx_hal_uart.c ****         break;
 845:Drivers/STM32L0xx_HAL_Driver/Src/stm32l0xx_hal_uart.c **** 
 846:Drivers/STM32L0xx_HAL_Driver/Src/stm32l0xx_hal_uart.c ****       case HAL_UART_ERROR_CB_ID :
 847:Drivers/STM32L0xx_HAL_Driver/Src/stm32l0xx_hal_uart.c ****         huart->ErrorCallback = HAL_UART_ErrorCallback;                         /* Legacy weak Error
 848:Drivers/STM32L0xx_HAL_Driver/Src/stm32l0xx_hal_uart.c ****         break;
 849:Drivers/STM32L0xx_HAL_Driver/Src/stm32l0xx_hal_uart.c **** 
 850:Drivers/STM32L0xx_HAL_Driver/Src/stm32l0xx_hal_uart.c ****       case HAL_UART_ABORT_COMPLETE_CB_ID :
 851:Drivers/STM32L0xx_HAL_Driver/Src/stm32l0xx_hal_uart.c ****         huart->AbortCpltCallback = HAL_UART_AbortCpltCallback;                 /* Legacy weak Abort
 852:Drivers/STM32L0xx_HAL_Driver/Src/stm32l0xx_hal_uart.c ****         break;
 853:Drivers/STM32L0xx_HAL_Driver/Src/stm32l0xx_hal_uart.c **** 
 854:Drivers/STM32L0xx_HAL_Driver/Src/stm32l0xx_hal_uart.c ****       case HAL_UART_ABORT_TRANSMIT_COMPLETE_CB_ID :
 855:Drivers/STM32L0xx_HAL_Driver/Src/stm32l0xx_hal_uart.c ****         huart->AbortTransmitCpltCallback = HAL_UART_AbortTransmitCpltCallback; /* Legacy weak
ARM GAS  C:\Users\lidka\AppData\Local\Temp\ccqOATUZ.s 			page 30


 856:Drivers/STM32L0xx_HAL_Driver/Src/stm32l0xx_hal_uart.c ****                                                                                   AbortTransmitCplt
 857:Drivers/STM32L0xx_HAL_Driver/Src/stm32l0xx_hal_uart.c ****         break;
 858:Drivers/STM32L0xx_HAL_Driver/Src/stm32l0xx_hal_uart.c **** 
 859:Drivers/STM32L0xx_HAL_Driver/Src/stm32l0xx_hal_uart.c ****       case HAL_UART_ABORT_RECEIVE_COMPLETE_CB_ID :
 860:Drivers/STM32L0xx_HAL_Driver/Src/stm32l0xx_hal_uart.c ****         huart->AbortReceiveCpltCallback = HAL_UART_AbortReceiveCpltCallback;   /* Legacy weak
 861:Drivers/STM32L0xx_HAL_Driver/Src/stm32l0xx_hal_uart.c ****                                                                                   AbortReceiveCpltC
 862:Drivers/STM32L0xx_HAL_Driver/Src/stm32l0xx_hal_uart.c ****         break;
 863:Drivers/STM32L0xx_HAL_Driver/Src/stm32l0xx_hal_uart.c **** 
 864:Drivers/STM32L0xx_HAL_Driver/Src/stm32l0xx_hal_uart.c ****       case HAL_UART_WAKEUP_CB_ID :
 865:Drivers/STM32L0xx_HAL_Driver/Src/stm32l0xx_hal_uart.c ****         huart->WakeupCallback = HAL_UARTEx_WakeupCallback;                     /* Legacy weak Wakeu
 866:Drivers/STM32L0xx_HAL_Driver/Src/stm32l0xx_hal_uart.c ****         break;
 867:Drivers/STM32L0xx_HAL_Driver/Src/stm32l0xx_hal_uart.c **** 
 868:Drivers/STM32L0xx_HAL_Driver/Src/stm32l0xx_hal_uart.c ****       case HAL_UART_MSPINIT_CB_ID :
 869:Drivers/STM32L0xx_HAL_Driver/Src/stm32l0xx_hal_uart.c ****         huart->MspInitCallback = HAL_UART_MspInit;                             /* Legacy weak MspIn
 870:Drivers/STM32L0xx_HAL_Driver/Src/stm32l0xx_hal_uart.c ****         break;
 871:Drivers/STM32L0xx_HAL_Driver/Src/stm32l0xx_hal_uart.c **** 
 872:Drivers/STM32L0xx_HAL_Driver/Src/stm32l0xx_hal_uart.c ****       case HAL_UART_MSPDEINIT_CB_ID :
 873:Drivers/STM32L0xx_HAL_Driver/Src/stm32l0xx_hal_uart.c ****         huart->MspDeInitCallback = HAL_UART_MspDeInit;                         /* Legacy weak MspDe
 874:Drivers/STM32L0xx_HAL_Driver/Src/stm32l0xx_hal_uart.c ****         break;
 875:Drivers/STM32L0xx_HAL_Driver/Src/stm32l0xx_hal_uart.c **** 
 876:Drivers/STM32L0xx_HAL_Driver/Src/stm32l0xx_hal_uart.c ****       default :
 877:Drivers/STM32L0xx_HAL_Driver/Src/stm32l0xx_hal_uart.c ****         huart->ErrorCode |= HAL_UART_ERROR_INVALID_CALLBACK;
 878:Drivers/STM32L0xx_HAL_Driver/Src/stm32l0xx_hal_uart.c **** 
 879:Drivers/STM32L0xx_HAL_Driver/Src/stm32l0xx_hal_uart.c ****         status =  HAL_ERROR;
 880:Drivers/STM32L0xx_HAL_Driver/Src/stm32l0xx_hal_uart.c ****         break;
 881:Drivers/STM32L0xx_HAL_Driver/Src/stm32l0xx_hal_uart.c ****     }
 882:Drivers/STM32L0xx_HAL_Driver/Src/stm32l0xx_hal_uart.c ****   }
 883:Drivers/STM32L0xx_HAL_Driver/Src/stm32l0xx_hal_uart.c ****   else if (HAL_UART_STATE_RESET == huart->gState)
 884:Drivers/STM32L0xx_HAL_Driver/Src/stm32l0xx_hal_uart.c ****   {
 885:Drivers/STM32L0xx_HAL_Driver/Src/stm32l0xx_hal_uart.c ****     switch (CallbackID)
 886:Drivers/STM32L0xx_HAL_Driver/Src/stm32l0xx_hal_uart.c ****     {
 887:Drivers/STM32L0xx_HAL_Driver/Src/stm32l0xx_hal_uart.c ****       case HAL_UART_MSPINIT_CB_ID :
 888:Drivers/STM32L0xx_HAL_Driver/Src/stm32l0xx_hal_uart.c ****         huart->MspInitCallback = HAL_UART_MspInit;
 889:Drivers/STM32L0xx_HAL_Driver/Src/stm32l0xx_hal_uart.c ****         break;
 890:Drivers/STM32L0xx_HAL_Driver/Src/stm32l0xx_hal_uart.c **** 
 891:Drivers/STM32L0xx_HAL_Driver/Src/stm32l0xx_hal_uart.c ****       case HAL_UART_MSPDEINIT_CB_ID :
 892:Drivers/STM32L0xx_HAL_Driver/Src/stm32l0xx_hal_uart.c ****         huart->MspDeInitCallback = HAL_UART_MspDeInit;
 893:Drivers/STM32L0xx_HAL_Driver/Src/stm32l0xx_hal_uart.c ****         break;
 894:Drivers/STM32L0xx_HAL_Driver/Src/stm32l0xx_hal_uart.c **** 
 895:Drivers/STM32L0xx_HAL_Driver/Src/stm32l0xx_hal_uart.c ****       default :
 896:Drivers/STM32L0xx_HAL_Driver/Src/stm32l0xx_hal_uart.c ****         huart->ErrorCode |= HAL_UART_ERROR_INVALID_CALLBACK;
 897:Drivers/STM32L0xx_HAL_Driver/Src/stm32l0xx_hal_uart.c **** 
 898:Drivers/STM32L0xx_HAL_Driver/Src/stm32l0xx_hal_uart.c ****         status =  HAL_ERROR;
 899:Drivers/STM32L0xx_HAL_Driver/Src/stm32l0xx_hal_uart.c ****         break;
 900:Drivers/STM32L0xx_HAL_Driver/Src/stm32l0xx_hal_uart.c ****     }
 901:Drivers/STM32L0xx_HAL_Driver/Src/stm32l0xx_hal_uart.c ****   }
 902:Drivers/STM32L0xx_HAL_Driver/Src/stm32l0xx_hal_uart.c ****   else
 903:Drivers/STM32L0xx_HAL_Driver/Src/stm32l0xx_hal_uart.c ****   {
 904:Drivers/STM32L0xx_HAL_Driver/Src/stm32l0xx_hal_uart.c ****     huart->ErrorCode |= HAL_UART_ERROR_INVALID_CALLBACK;
 905:Drivers/STM32L0xx_HAL_Driver/Src/stm32l0xx_hal_uart.c **** 
 906:Drivers/STM32L0xx_HAL_Driver/Src/stm32l0xx_hal_uart.c ****     status =  HAL_ERROR;
 907:Drivers/STM32L0xx_HAL_Driver/Src/stm32l0xx_hal_uart.c ****   }
 908:Drivers/STM32L0xx_HAL_Driver/Src/stm32l0xx_hal_uart.c **** 
 909:Drivers/STM32L0xx_HAL_Driver/Src/stm32l0xx_hal_uart.c ****   __HAL_UNLOCK(huart);
 910:Drivers/STM32L0xx_HAL_Driver/Src/stm32l0xx_hal_uart.c **** 
 911:Drivers/STM32L0xx_HAL_Driver/Src/stm32l0xx_hal_uart.c ****   return status;
 912:Drivers/STM32L0xx_HAL_Driver/Src/stm32l0xx_hal_uart.c **** }
ARM GAS  C:\Users\lidka\AppData\Local\Temp\ccqOATUZ.s 			page 31


 913:Drivers/STM32L0xx_HAL_Driver/Src/stm32l0xx_hal_uart.c **** 
 914:Drivers/STM32L0xx_HAL_Driver/Src/stm32l0xx_hal_uart.c **** /**
 915:Drivers/STM32L0xx_HAL_Driver/Src/stm32l0xx_hal_uart.c ****   * @brief  Register a User UART Rx Event Callback
 916:Drivers/STM32L0xx_HAL_Driver/Src/stm32l0xx_hal_uart.c ****   *         To be used instead of the weak predefined callback
 917:Drivers/STM32L0xx_HAL_Driver/Src/stm32l0xx_hal_uart.c ****   * @param  huart     Uart handle
 918:Drivers/STM32L0xx_HAL_Driver/Src/stm32l0xx_hal_uart.c ****   * @param  pCallback Pointer to the Rx Event Callback function
 919:Drivers/STM32L0xx_HAL_Driver/Src/stm32l0xx_hal_uart.c ****   * @retval HAL status
 920:Drivers/STM32L0xx_HAL_Driver/Src/stm32l0xx_hal_uart.c ****   */
 921:Drivers/STM32L0xx_HAL_Driver/Src/stm32l0xx_hal_uart.c **** HAL_StatusTypeDef HAL_UART_RegisterRxEventCallback(UART_HandleTypeDef *huart, pUART_RxEventCallback
 922:Drivers/STM32L0xx_HAL_Driver/Src/stm32l0xx_hal_uart.c **** {
 923:Drivers/STM32L0xx_HAL_Driver/Src/stm32l0xx_hal_uart.c ****   HAL_StatusTypeDef status = HAL_OK;
 924:Drivers/STM32L0xx_HAL_Driver/Src/stm32l0xx_hal_uart.c **** 
 925:Drivers/STM32L0xx_HAL_Driver/Src/stm32l0xx_hal_uart.c ****   if (pCallback == NULL)
 926:Drivers/STM32L0xx_HAL_Driver/Src/stm32l0xx_hal_uart.c ****   {
 927:Drivers/STM32L0xx_HAL_Driver/Src/stm32l0xx_hal_uart.c ****     huart->ErrorCode |= HAL_UART_ERROR_INVALID_CALLBACK;
 928:Drivers/STM32L0xx_HAL_Driver/Src/stm32l0xx_hal_uart.c **** 
 929:Drivers/STM32L0xx_HAL_Driver/Src/stm32l0xx_hal_uart.c ****     return HAL_ERROR;
 930:Drivers/STM32L0xx_HAL_Driver/Src/stm32l0xx_hal_uart.c ****   }
 931:Drivers/STM32L0xx_HAL_Driver/Src/stm32l0xx_hal_uart.c **** 
 932:Drivers/STM32L0xx_HAL_Driver/Src/stm32l0xx_hal_uart.c ****   /* Process locked */
 933:Drivers/STM32L0xx_HAL_Driver/Src/stm32l0xx_hal_uart.c ****   __HAL_LOCK(huart);
 934:Drivers/STM32L0xx_HAL_Driver/Src/stm32l0xx_hal_uart.c **** 
 935:Drivers/STM32L0xx_HAL_Driver/Src/stm32l0xx_hal_uart.c ****   if (huart->gState == HAL_UART_STATE_READY)
 936:Drivers/STM32L0xx_HAL_Driver/Src/stm32l0xx_hal_uart.c ****   {
 937:Drivers/STM32L0xx_HAL_Driver/Src/stm32l0xx_hal_uart.c ****     huart->RxEventCallback = pCallback;
 938:Drivers/STM32L0xx_HAL_Driver/Src/stm32l0xx_hal_uart.c ****   }
 939:Drivers/STM32L0xx_HAL_Driver/Src/stm32l0xx_hal_uart.c ****   else
 940:Drivers/STM32L0xx_HAL_Driver/Src/stm32l0xx_hal_uart.c ****   {
 941:Drivers/STM32L0xx_HAL_Driver/Src/stm32l0xx_hal_uart.c ****     huart->ErrorCode |= HAL_UART_ERROR_INVALID_CALLBACK;
 942:Drivers/STM32L0xx_HAL_Driver/Src/stm32l0xx_hal_uart.c **** 
 943:Drivers/STM32L0xx_HAL_Driver/Src/stm32l0xx_hal_uart.c ****     status =  HAL_ERROR;
 944:Drivers/STM32L0xx_HAL_Driver/Src/stm32l0xx_hal_uart.c ****   }
 945:Drivers/STM32L0xx_HAL_Driver/Src/stm32l0xx_hal_uart.c **** 
 946:Drivers/STM32L0xx_HAL_Driver/Src/stm32l0xx_hal_uart.c ****   /* Release Lock */
 947:Drivers/STM32L0xx_HAL_Driver/Src/stm32l0xx_hal_uart.c ****   __HAL_UNLOCK(huart);
 948:Drivers/STM32L0xx_HAL_Driver/Src/stm32l0xx_hal_uart.c **** 
 949:Drivers/STM32L0xx_HAL_Driver/Src/stm32l0xx_hal_uart.c ****   return status;
 950:Drivers/STM32L0xx_HAL_Driver/Src/stm32l0xx_hal_uart.c **** }
 951:Drivers/STM32L0xx_HAL_Driver/Src/stm32l0xx_hal_uart.c **** 
 952:Drivers/STM32L0xx_HAL_Driver/Src/stm32l0xx_hal_uart.c **** /**
 953:Drivers/STM32L0xx_HAL_Driver/Src/stm32l0xx_hal_uart.c ****   * @brief  UnRegister the UART Rx Event Callback
 954:Drivers/STM32L0xx_HAL_Driver/Src/stm32l0xx_hal_uart.c ****   *         UART Rx Event Callback is redirected to the weak HAL_UARTEx_RxEventCallback() predefine
 955:Drivers/STM32L0xx_HAL_Driver/Src/stm32l0xx_hal_uart.c ****   * @param  huart     Uart handle
 956:Drivers/STM32L0xx_HAL_Driver/Src/stm32l0xx_hal_uart.c ****   * @retval HAL status
 957:Drivers/STM32L0xx_HAL_Driver/Src/stm32l0xx_hal_uart.c ****   */
 958:Drivers/STM32L0xx_HAL_Driver/Src/stm32l0xx_hal_uart.c **** HAL_StatusTypeDef HAL_UART_UnRegisterRxEventCallback(UART_HandleTypeDef *huart)
 959:Drivers/STM32L0xx_HAL_Driver/Src/stm32l0xx_hal_uart.c **** {
 960:Drivers/STM32L0xx_HAL_Driver/Src/stm32l0xx_hal_uart.c ****   HAL_StatusTypeDef status = HAL_OK;
 961:Drivers/STM32L0xx_HAL_Driver/Src/stm32l0xx_hal_uart.c **** 
 962:Drivers/STM32L0xx_HAL_Driver/Src/stm32l0xx_hal_uart.c ****   /* Process locked */
 963:Drivers/STM32L0xx_HAL_Driver/Src/stm32l0xx_hal_uart.c ****   __HAL_LOCK(huart);
 964:Drivers/STM32L0xx_HAL_Driver/Src/stm32l0xx_hal_uart.c **** 
 965:Drivers/STM32L0xx_HAL_Driver/Src/stm32l0xx_hal_uart.c ****   if (huart->gState == HAL_UART_STATE_READY)
 966:Drivers/STM32L0xx_HAL_Driver/Src/stm32l0xx_hal_uart.c ****   {
 967:Drivers/STM32L0xx_HAL_Driver/Src/stm32l0xx_hal_uart.c ****     huart->RxEventCallback = HAL_UARTEx_RxEventCallback; /* Legacy weak UART Rx Event Callback  */
 968:Drivers/STM32L0xx_HAL_Driver/Src/stm32l0xx_hal_uart.c ****   }
 969:Drivers/STM32L0xx_HAL_Driver/Src/stm32l0xx_hal_uart.c ****   else
ARM GAS  C:\Users\lidka\AppData\Local\Temp\ccqOATUZ.s 			page 32


 970:Drivers/STM32L0xx_HAL_Driver/Src/stm32l0xx_hal_uart.c ****   {
 971:Drivers/STM32L0xx_HAL_Driver/Src/stm32l0xx_hal_uart.c ****     huart->ErrorCode |= HAL_UART_ERROR_INVALID_CALLBACK;
 972:Drivers/STM32L0xx_HAL_Driver/Src/stm32l0xx_hal_uart.c **** 
 973:Drivers/STM32L0xx_HAL_Driver/Src/stm32l0xx_hal_uart.c ****     status =  HAL_ERROR;
 974:Drivers/STM32L0xx_HAL_Driver/Src/stm32l0xx_hal_uart.c ****   }
 975:Drivers/STM32L0xx_HAL_Driver/Src/stm32l0xx_hal_uart.c **** 
 976:Drivers/STM32L0xx_HAL_Driver/Src/stm32l0xx_hal_uart.c ****   /* Release Lock */
 977:Drivers/STM32L0xx_HAL_Driver/Src/stm32l0xx_hal_uart.c ****   __HAL_UNLOCK(huart);
 978:Drivers/STM32L0xx_HAL_Driver/Src/stm32l0xx_hal_uart.c ****   return status;
 979:Drivers/STM32L0xx_HAL_Driver/Src/stm32l0xx_hal_uart.c **** }
 980:Drivers/STM32L0xx_HAL_Driver/Src/stm32l0xx_hal_uart.c **** 
 981:Drivers/STM32L0xx_HAL_Driver/Src/stm32l0xx_hal_uart.c **** #endif /* USE_HAL_UART_REGISTER_CALLBACKS */
 982:Drivers/STM32L0xx_HAL_Driver/Src/stm32l0xx_hal_uart.c **** 
 983:Drivers/STM32L0xx_HAL_Driver/Src/stm32l0xx_hal_uart.c **** /**
 984:Drivers/STM32L0xx_HAL_Driver/Src/stm32l0xx_hal_uart.c ****   * @}
 985:Drivers/STM32L0xx_HAL_Driver/Src/stm32l0xx_hal_uart.c ****   */
 986:Drivers/STM32L0xx_HAL_Driver/Src/stm32l0xx_hal_uart.c **** 
 987:Drivers/STM32L0xx_HAL_Driver/Src/stm32l0xx_hal_uart.c **** /** @defgroup UART_Exported_Functions_Group2 IO operation functions
 988:Drivers/STM32L0xx_HAL_Driver/Src/stm32l0xx_hal_uart.c ****   * @brief UART Transmit/Receive functions
 989:Drivers/STM32L0xx_HAL_Driver/Src/stm32l0xx_hal_uart.c ****   *
 990:Drivers/STM32L0xx_HAL_Driver/Src/stm32l0xx_hal_uart.c **** @verbatim
 991:Drivers/STM32L0xx_HAL_Driver/Src/stm32l0xx_hal_uart.c ****  ===============================================================================
 992:Drivers/STM32L0xx_HAL_Driver/Src/stm32l0xx_hal_uart.c ****                       ##### IO operation functions #####
 993:Drivers/STM32L0xx_HAL_Driver/Src/stm32l0xx_hal_uart.c ****  ===============================================================================
 994:Drivers/STM32L0xx_HAL_Driver/Src/stm32l0xx_hal_uart.c ****     This subsection provides a set of functions allowing to manage the UART asynchronous
 995:Drivers/STM32L0xx_HAL_Driver/Src/stm32l0xx_hal_uart.c ****     and Half duplex data transfers.
 996:Drivers/STM32L0xx_HAL_Driver/Src/stm32l0xx_hal_uart.c **** 
 997:Drivers/STM32L0xx_HAL_Driver/Src/stm32l0xx_hal_uart.c ****     (#) There are two mode of transfer:
 998:Drivers/STM32L0xx_HAL_Driver/Src/stm32l0xx_hal_uart.c ****        (+) Blocking mode: The communication is performed in polling mode.
 999:Drivers/STM32L0xx_HAL_Driver/Src/stm32l0xx_hal_uart.c ****            The HAL status of all data processing is returned by the same function
1000:Drivers/STM32L0xx_HAL_Driver/Src/stm32l0xx_hal_uart.c ****            after finishing transfer.
1001:Drivers/STM32L0xx_HAL_Driver/Src/stm32l0xx_hal_uart.c ****        (+) Non-Blocking mode: The communication is performed using Interrupts
1002:Drivers/STM32L0xx_HAL_Driver/Src/stm32l0xx_hal_uart.c ****            or DMA, These API's return the HAL status.
1003:Drivers/STM32L0xx_HAL_Driver/Src/stm32l0xx_hal_uart.c ****            The end of the data processing will be indicated through the
1004:Drivers/STM32L0xx_HAL_Driver/Src/stm32l0xx_hal_uart.c ****            dedicated UART IRQ when using Interrupt mode or the DMA IRQ when
1005:Drivers/STM32L0xx_HAL_Driver/Src/stm32l0xx_hal_uart.c ****            using DMA mode.
1006:Drivers/STM32L0xx_HAL_Driver/Src/stm32l0xx_hal_uart.c ****            The HAL_UART_TxCpltCallback(), HAL_UART_RxCpltCallback() user callbacks
1007:Drivers/STM32L0xx_HAL_Driver/Src/stm32l0xx_hal_uart.c ****            will be executed respectively at the end of the transmit or Receive process
1008:Drivers/STM32L0xx_HAL_Driver/Src/stm32l0xx_hal_uart.c ****            The HAL_UART_ErrorCallback()user callback will be executed when a communication error is
1009:Drivers/STM32L0xx_HAL_Driver/Src/stm32l0xx_hal_uart.c **** 
1010:Drivers/STM32L0xx_HAL_Driver/Src/stm32l0xx_hal_uart.c ****     (#) Blocking mode API's are :
1011:Drivers/STM32L0xx_HAL_Driver/Src/stm32l0xx_hal_uart.c ****         (+) HAL_UART_Transmit()
1012:Drivers/STM32L0xx_HAL_Driver/Src/stm32l0xx_hal_uart.c ****         (+) HAL_UART_Receive()
1013:Drivers/STM32L0xx_HAL_Driver/Src/stm32l0xx_hal_uart.c **** 
1014:Drivers/STM32L0xx_HAL_Driver/Src/stm32l0xx_hal_uart.c ****     (#) Non-Blocking mode API's with Interrupt are :
1015:Drivers/STM32L0xx_HAL_Driver/Src/stm32l0xx_hal_uart.c ****         (+) HAL_UART_Transmit_IT()
1016:Drivers/STM32L0xx_HAL_Driver/Src/stm32l0xx_hal_uart.c ****         (+) HAL_UART_Receive_IT()
1017:Drivers/STM32L0xx_HAL_Driver/Src/stm32l0xx_hal_uart.c ****         (+) HAL_UART_IRQHandler()
1018:Drivers/STM32L0xx_HAL_Driver/Src/stm32l0xx_hal_uart.c **** 
1019:Drivers/STM32L0xx_HAL_Driver/Src/stm32l0xx_hal_uart.c ****     (#) Non-Blocking mode API's with DMA are :
1020:Drivers/STM32L0xx_HAL_Driver/Src/stm32l0xx_hal_uart.c ****         (+) HAL_UART_Transmit_DMA()
1021:Drivers/STM32L0xx_HAL_Driver/Src/stm32l0xx_hal_uart.c ****         (+) HAL_UART_Receive_DMA()
1022:Drivers/STM32L0xx_HAL_Driver/Src/stm32l0xx_hal_uart.c ****         (+) HAL_UART_DMAPause()
1023:Drivers/STM32L0xx_HAL_Driver/Src/stm32l0xx_hal_uart.c ****         (+) HAL_UART_DMAResume()
1024:Drivers/STM32L0xx_HAL_Driver/Src/stm32l0xx_hal_uart.c ****         (+) HAL_UART_DMAStop()
1025:Drivers/STM32L0xx_HAL_Driver/Src/stm32l0xx_hal_uart.c **** 
1026:Drivers/STM32L0xx_HAL_Driver/Src/stm32l0xx_hal_uart.c ****     (#) A set of Transfer Complete Callbacks are provided in Non_Blocking mode:
ARM GAS  C:\Users\lidka\AppData\Local\Temp\ccqOATUZ.s 			page 33


1027:Drivers/STM32L0xx_HAL_Driver/Src/stm32l0xx_hal_uart.c ****         (+) HAL_UART_TxHalfCpltCallback()
1028:Drivers/STM32L0xx_HAL_Driver/Src/stm32l0xx_hal_uart.c ****         (+) HAL_UART_TxCpltCallback()
1029:Drivers/STM32L0xx_HAL_Driver/Src/stm32l0xx_hal_uart.c ****         (+) HAL_UART_RxHalfCpltCallback()
1030:Drivers/STM32L0xx_HAL_Driver/Src/stm32l0xx_hal_uart.c ****         (+) HAL_UART_RxCpltCallback()
1031:Drivers/STM32L0xx_HAL_Driver/Src/stm32l0xx_hal_uart.c ****         (+) HAL_UART_ErrorCallback()
1032:Drivers/STM32L0xx_HAL_Driver/Src/stm32l0xx_hal_uart.c **** 
1033:Drivers/STM32L0xx_HAL_Driver/Src/stm32l0xx_hal_uart.c ****     (#) Non-Blocking mode transfers could be aborted using Abort API's :
1034:Drivers/STM32L0xx_HAL_Driver/Src/stm32l0xx_hal_uart.c ****         (+) HAL_UART_Abort()
1035:Drivers/STM32L0xx_HAL_Driver/Src/stm32l0xx_hal_uart.c ****         (+) HAL_UART_AbortTransmit()
1036:Drivers/STM32L0xx_HAL_Driver/Src/stm32l0xx_hal_uart.c ****         (+) HAL_UART_AbortReceive()
1037:Drivers/STM32L0xx_HAL_Driver/Src/stm32l0xx_hal_uart.c ****         (+) HAL_UART_Abort_IT()
1038:Drivers/STM32L0xx_HAL_Driver/Src/stm32l0xx_hal_uart.c ****         (+) HAL_UART_AbortTransmit_IT()
1039:Drivers/STM32L0xx_HAL_Driver/Src/stm32l0xx_hal_uart.c ****         (+) HAL_UART_AbortReceive_IT()
1040:Drivers/STM32L0xx_HAL_Driver/Src/stm32l0xx_hal_uart.c **** 
1041:Drivers/STM32L0xx_HAL_Driver/Src/stm32l0xx_hal_uart.c ****     (#) For Abort services based on interrupts (HAL_UART_Abortxxx_IT), a set of Abort Complete Call
1042:Drivers/STM32L0xx_HAL_Driver/Src/stm32l0xx_hal_uart.c ****         (+) HAL_UART_AbortCpltCallback()
1043:Drivers/STM32L0xx_HAL_Driver/Src/stm32l0xx_hal_uart.c ****         (+) HAL_UART_AbortTransmitCpltCallback()
1044:Drivers/STM32L0xx_HAL_Driver/Src/stm32l0xx_hal_uart.c ****         (+) HAL_UART_AbortReceiveCpltCallback()
1045:Drivers/STM32L0xx_HAL_Driver/Src/stm32l0xx_hal_uart.c **** 
1046:Drivers/STM32L0xx_HAL_Driver/Src/stm32l0xx_hal_uart.c ****     (#) A Rx Event Reception Callback (Rx event notification) is available for Non_Blocking modes o
1047:Drivers/STM32L0xx_HAL_Driver/Src/stm32l0xx_hal_uart.c ****         reception services:
1048:Drivers/STM32L0xx_HAL_Driver/Src/stm32l0xx_hal_uart.c ****         (+) HAL_UARTEx_RxEventCallback()
1049:Drivers/STM32L0xx_HAL_Driver/Src/stm32l0xx_hal_uart.c **** 
1050:Drivers/STM32L0xx_HAL_Driver/Src/stm32l0xx_hal_uart.c ****     (#) In Non-Blocking mode transfers, possible errors are split into 2 categories.
1051:Drivers/STM32L0xx_HAL_Driver/Src/stm32l0xx_hal_uart.c ****         Errors are handled as follows :
1052:Drivers/STM32L0xx_HAL_Driver/Src/stm32l0xx_hal_uart.c ****        (+) Error is considered as Recoverable and non blocking : Transfer could go till end, but er
1053:Drivers/STM32L0xx_HAL_Driver/Src/stm32l0xx_hal_uart.c ****            to be evaluated by user : this concerns Frame Error, Parity Error or Noise Error
1054:Drivers/STM32L0xx_HAL_Driver/Src/stm32l0xx_hal_uart.c ****            in Interrupt mode reception .
1055:Drivers/STM32L0xx_HAL_Driver/Src/stm32l0xx_hal_uart.c ****            Received character is then retrieved and stored in Rx buffer, Error code is set to allow
1056:Drivers/STM32L0xx_HAL_Driver/Src/stm32l0xx_hal_uart.c ****            to identify error type, and HAL_UART_ErrorCallback() user callback is executed.
1057:Drivers/STM32L0xx_HAL_Driver/Src/stm32l0xx_hal_uart.c ****            Transfer is kept ongoing on UART side.
1058:Drivers/STM32L0xx_HAL_Driver/Src/stm32l0xx_hal_uart.c ****            If user wants to abort it, Abort services should be called by user.
1059:Drivers/STM32L0xx_HAL_Driver/Src/stm32l0xx_hal_uart.c ****        (+) Error is considered as Blocking : Transfer could not be completed properly and is aborte
1060:Drivers/STM32L0xx_HAL_Driver/Src/stm32l0xx_hal_uart.c ****            This concerns Overrun Error In Interrupt mode reception and all errors in DMA mode.
1061:Drivers/STM32L0xx_HAL_Driver/Src/stm32l0xx_hal_uart.c ****            Error code is set to allow user to identify error type, and HAL_UART_ErrorCallback()
1062:Drivers/STM32L0xx_HAL_Driver/Src/stm32l0xx_hal_uart.c ****            user callback is executed.
1063:Drivers/STM32L0xx_HAL_Driver/Src/stm32l0xx_hal_uart.c **** 
1064:Drivers/STM32L0xx_HAL_Driver/Src/stm32l0xx_hal_uart.c ****     -@- In the Half duplex communication, it is forbidden to run the transmit
1065:Drivers/STM32L0xx_HAL_Driver/Src/stm32l0xx_hal_uart.c ****         and receive process in parallel, the UART state HAL_UART_STATE_BUSY_TX_RX can't be useful.
1066:Drivers/STM32L0xx_HAL_Driver/Src/stm32l0xx_hal_uart.c **** 
1067:Drivers/STM32L0xx_HAL_Driver/Src/stm32l0xx_hal_uart.c **** @endverbatim
1068:Drivers/STM32L0xx_HAL_Driver/Src/stm32l0xx_hal_uart.c ****   * @{
1069:Drivers/STM32L0xx_HAL_Driver/Src/stm32l0xx_hal_uart.c ****   */
1070:Drivers/STM32L0xx_HAL_Driver/Src/stm32l0xx_hal_uart.c **** 
1071:Drivers/STM32L0xx_HAL_Driver/Src/stm32l0xx_hal_uart.c **** /**
1072:Drivers/STM32L0xx_HAL_Driver/Src/stm32l0xx_hal_uart.c ****   * @brief Send an amount of data in blocking mode.
1073:Drivers/STM32L0xx_HAL_Driver/Src/stm32l0xx_hal_uart.c ****   * @note   When UART parity is not enabled (PCE = 0), and Word Length is configured to 9 bits (M1-
1074:Drivers/STM32L0xx_HAL_Driver/Src/stm32l0xx_hal_uart.c ****   *         the sent data is handled as a set of u16. In this case, Size must indicate the number
1075:Drivers/STM32L0xx_HAL_Driver/Src/stm32l0xx_hal_uart.c ****   *         of u16 provided through pData.
1076:Drivers/STM32L0xx_HAL_Driver/Src/stm32l0xx_hal_uart.c ****   * @note   When UART parity is not enabled (PCE = 0), and Word Length is configured to 9 bits (M1-
1077:Drivers/STM32L0xx_HAL_Driver/Src/stm32l0xx_hal_uart.c ****   *         address of user data buffer containing data to be sent, should be aligned on a half wor
1078:Drivers/STM32L0xx_HAL_Driver/Src/stm32l0xx_hal_uart.c ****   *         (as sent data will be handled using u16 pointer cast). Depending on compilation chain,
1079:Drivers/STM32L0xx_HAL_Driver/Src/stm32l0xx_hal_uart.c ****   *         use of specific alignment compilation directives or pragmas might be required
1080:Drivers/STM32L0xx_HAL_Driver/Src/stm32l0xx_hal_uart.c ****   *         to ensure proper alignment for pData.
1081:Drivers/STM32L0xx_HAL_Driver/Src/stm32l0xx_hal_uart.c ****   * @param huart   UART handle.
1082:Drivers/STM32L0xx_HAL_Driver/Src/stm32l0xx_hal_uart.c ****   * @param pData   Pointer to data buffer (u8 or u16 data elements).
1083:Drivers/STM32L0xx_HAL_Driver/Src/stm32l0xx_hal_uart.c ****   * @param Size    Amount of data elements (u8 or u16) to be sent.
ARM GAS  C:\Users\lidka\AppData\Local\Temp\ccqOATUZ.s 			page 34


1084:Drivers/STM32L0xx_HAL_Driver/Src/stm32l0xx_hal_uart.c ****   * @param Timeout Timeout duration.
1085:Drivers/STM32L0xx_HAL_Driver/Src/stm32l0xx_hal_uart.c ****   * @retval HAL status
1086:Drivers/STM32L0xx_HAL_Driver/Src/stm32l0xx_hal_uart.c ****   */
1087:Drivers/STM32L0xx_HAL_Driver/Src/stm32l0xx_hal_uart.c **** HAL_StatusTypeDef HAL_UART_Transmit(UART_HandleTypeDef *huart, uint8_t *pData, uint16_t Size, uint3
1088:Drivers/STM32L0xx_HAL_Driver/Src/stm32l0xx_hal_uart.c **** {
 814              		.loc 1 1088 1
 815              		.cfi_startproc
 816              		@ args = 0, pretend = 0, frame = 32
 817              		@ frame_needed = 1, uses_anonymous_args = 0
 818 0000 80B5     		push	{r7, lr}
 819              	.LCFI21:
 820              		.cfi_def_cfa_offset 8
 821              		.cfi_offset 7, -8
 822              		.cfi_offset 14, -4
 823 0002 8AB0     		sub	sp, sp, #40
 824              	.LCFI22:
 825              		.cfi_def_cfa_offset 48
 826 0004 02AF     		add	r7, sp, #8
 827              	.LCFI23:
 828              		.cfi_def_cfa 7, 40
 829 0006 F860     		str	r0, [r7, #12]
 830 0008 B960     		str	r1, [r7, #8]
 831 000a 3B60     		str	r3, [r7]
 832 000c BB1D     		adds	r3, r7, #6
 833 000e 1A80     		strh	r2, [r3]
1089:Drivers/STM32L0xx_HAL_Driver/Src/stm32l0xx_hal_uart.c ****   uint8_t  *pdata8bits;
1090:Drivers/STM32L0xx_HAL_Driver/Src/stm32l0xx_hal_uart.c ****   uint16_t *pdata16bits;
1091:Drivers/STM32L0xx_HAL_Driver/Src/stm32l0xx_hal_uart.c ****   uint32_t tickstart;
1092:Drivers/STM32L0xx_HAL_Driver/Src/stm32l0xx_hal_uart.c **** 
1093:Drivers/STM32L0xx_HAL_Driver/Src/stm32l0xx_hal_uart.c ****   /* Check that a Tx process is not already ongoing */
1094:Drivers/STM32L0xx_HAL_Driver/Src/stm32l0xx_hal_uart.c ****   if (huart->gState == HAL_UART_STATE_READY)
 834              		.loc 1 1094 12
 835 0010 FB68     		ldr	r3, [r7, #12]
 836 0012 9B6F     		ldr	r3, [r3, #120]
 837              		.loc 1 1094 6
 838 0014 202B     		cmp	r3, #32
 839 0016 00D0     		beq	.LCB704
 840 0018 95E0     		b	.L42	@long jump
 841              	.LCB704:
1095:Drivers/STM32L0xx_HAL_Driver/Src/stm32l0xx_hal_uart.c ****   {
1096:Drivers/STM32L0xx_HAL_Driver/Src/stm32l0xx_hal_uart.c ****     if ((pData == NULL) || (Size == 0U))
 842              		.loc 1 1096 8
 843 001a BB68     		ldr	r3, [r7, #8]
 844 001c 002B     		cmp	r3, #0
 845 001e 03D0     		beq	.L43
 846              		.loc 1 1096 25 discriminator 1
 847 0020 BB1D     		adds	r3, r7, #6
 848 0022 1B88     		ldrh	r3, [r3]
 849 0024 002B     		cmp	r3, #0
 850 0026 01D1     		bne	.L44
 851              	.L43:
1097:Drivers/STM32L0xx_HAL_Driver/Src/stm32l0xx_hal_uart.c ****     {
1098:Drivers/STM32L0xx_HAL_Driver/Src/stm32l0xx_hal_uart.c ****       return  HAL_ERROR;
 852              		.loc 1 1098 15
 853 0028 0123     		movs	r3, #1
 854 002a 8DE0     		b	.L45
 855              	.L44:
ARM GAS  C:\Users\lidka\AppData\Local\Temp\ccqOATUZ.s 			page 35


1099:Drivers/STM32L0xx_HAL_Driver/Src/stm32l0xx_hal_uart.c ****     }
1100:Drivers/STM32L0xx_HAL_Driver/Src/stm32l0xx_hal_uart.c **** 
1101:Drivers/STM32L0xx_HAL_Driver/Src/stm32l0xx_hal_uart.c ****     /* In case of 9bits/No Parity transfer, pData buffer provided as input parameter
1102:Drivers/STM32L0xx_HAL_Driver/Src/stm32l0xx_hal_uart.c ****        should be aligned on a u16 frontier, as data to be filled into TDR will be
1103:Drivers/STM32L0xx_HAL_Driver/Src/stm32l0xx_hal_uart.c ****        handled through a u16 cast. */
1104:Drivers/STM32L0xx_HAL_Driver/Src/stm32l0xx_hal_uart.c ****     if ((huart->Init.WordLength == UART_WORDLENGTH_9B) && (huart->Init.Parity == UART_PARITY_NONE))
 856              		.loc 1 1104 21
 857 002c FB68     		ldr	r3, [r7, #12]
 858 002e 9A68     		ldr	r2, [r3, #8]
 859              		.loc 1 1104 8
 860 0030 8023     		movs	r3, #128
 861 0032 5B01     		lsls	r3, r3, #5
 862 0034 9A42     		cmp	r2, r3
 863 0036 09D1     		bne	.L46
 864              		.loc 1 1104 71 discriminator 1
 865 0038 FB68     		ldr	r3, [r7, #12]
 866 003a 1B69     		ldr	r3, [r3, #16]
 867              		.loc 1 1104 56 discriminator 1
 868 003c 002B     		cmp	r3, #0
 869 003e 05D1     		bne	.L46
1105:Drivers/STM32L0xx_HAL_Driver/Src/stm32l0xx_hal_uart.c ****     {
1106:Drivers/STM32L0xx_HAL_Driver/Src/stm32l0xx_hal_uart.c ****       if ((((uint32_t)pData) & 1U) != 0U)
 870              		.loc 1 1106 13
 871 0040 BB68     		ldr	r3, [r7, #8]
 872              		.loc 1 1106 30
 873 0042 0122     		movs	r2, #1
 874 0044 1340     		ands	r3, r2
 875              		.loc 1 1106 10
 876 0046 01D0     		beq	.L46
1107:Drivers/STM32L0xx_HAL_Driver/Src/stm32l0xx_hal_uart.c ****       {
1108:Drivers/STM32L0xx_HAL_Driver/Src/stm32l0xx_hal_uart.c ****         return  HAL_ERROR;
 877              		.loc 1 1108 17
 878 0048 0123     		movs	r3, #1
 879 004a 7DE0     		b	.L45
 880              	.L46:
1109:Drivers/STM32L0xx_HAL_Driver/Src/stm32l0xx_hal_uart.c ****       }
1110:Drivers/STM32L0xx_HAL_Driver/Src/stm32l0xx_hal_uart.c ****     }
1111:Drivers/STM32L0xx_HAL_Driver/Src/stm32l0xx_hal_uart.c **** 
1112:Drivers/STM32L0xx_HAL_Driver/Src/stm32l0xx_hal_uart.c ****     __HAL_LOCK(huart);
 881              		.loc 1 1112 5
 882 004c FB68     		ldr	r3, [r7, #12]
 883 004e 7422     		movs	r2, #116
 884 0050 9B5C     		ldrb	r3, [r3, r2]
 885 0052 012B     		cmp	r3, #1
 886 0054 01D1     		bne	.L47
 887              		.loc 1 1112 5 is_stmt 0 discriminator 1
 888 0056 0223     		movs	r3, #2
 889 0058 76E0     		b	.L45
 890              	.L47:
 891              		.loc 1 1112 5 discriminator 2
 892 005a FB68     		ldr	r3, [r7, #12]
 893 005c 7422     		movs	r2, #116
 894 005e 0121     		movs	r1, #1
 895 0060 9954     		strb	r1, [r3, r2]
1113:Drivers/STM32L0xx_HAL_Driver/Src/stm32l0xx_hal_uart.c **** 
1114:Drivers/STM32L0xx_HAL_Driver/Src/stm32l0xx_hal_uart.c ****     huart->ErrorCode = HAL_UART_ERROR_NONE;
 896              		.loc 1 1114 22 is_stmt 1 discriminator 2
ARM GAS  C:\Users\lidka\AppData\Local\Temp\ccqOATUZ.s 			page 36


 897 0062 FB68     		ldr	r3, [r7, #12]
 898 0064 8022     		movs	r2, #128
 899 0066 0021     		movs	r1, #0
 900 0068 9950     		str	r1, [r3, r2]
1115:Drivers/STM32L0xx_HAL_Driver/Src/stm32l0xx_hal_uart.c ****     huart->gState = HAL_UART_STATE_BUSY_TX;
 901              		.loc 1 1115 19 discriminator 2
 902 006a FB68     		ldr	r3, [r7, #12]
 903 006c 2122     		movs	r2, #33
 904 006e 9A67     		str	r2, [r3, #120]
1116:Drivers/STM32L0xx_HAL_Driver/Src/stm32l0xx_hal_uart.c **** 
1117:Drivers/STM32L0xx_HAL_Driver/Src/stm32l0xx_hal_uart.c ****     /* Init tickstart for timeout management */
1118:Drivers/STM32L0xx_HAL_Driver/Src/stm32l0xx_hal_uart.c ****     tickstart = HAL_GetTick();
 905              		.loc 1 1118 17 discriminator 2
 906 0070 FFF7FEFF 		bl	HAL_GetTick
 907 0074 0300     		movs	r3, r0
 908 0076 7B61     		str	r3, [r7, #20]
1119:Drivers/STM32L0xx_HAL_Driver/Src/stm32l0xx_hal_uart.c **** 
1120:Drivers/STM32L0xx_HAL_Driver/Src/stm32l0xx_hal_uart.c ****     huart->TxXferSize  = Size;
 909              		.loc 1 1120 24 discriminator 2
 910 0078 FB68     		ldr	r3, [r7, #12]
 911 007a BA1D     		adds	r2, r7, #6
 912 007c 5021     		movs	r1, #80
 913 007e 1288     		ldrh	r2, [r2]
 914 0080 5A52     		strh	r2, [r3, r1]
1121:Drivers/STM32L0xx_HAL_Driver/Src/stm32l0xx_hal_uart.c ****     huart->TxXferCount = Size;
 915              		.loc 1 1121 24 discriminator 2
 916 0082 FB68     		ldr	r3, [r7, #12]
 917 0084 BA1D     		adds	r2, r7, #6
 918 0086 5221     		movs	r1, #82
 919 0088 1288     		ldrh	r2, [r2]
 920 008a 5A52     		strh	r2, [r3, r1]
1122:Drivers/STM32L0xx_HAL_Driver/Src/stm32l0xx_hal_uart.c **** 
1123:Drivers/STM32L0xx_HAL_Driver/Src/stm32l0xx_hal_uart.c ****     /* In case of 9bits/No Parity transfer, pData needs to be handled as a uint16_t pointer */
1124:Drivers/STM32L0xx_HAL_Driver/Src/stm32l0xx_hal_uart.c ****     if ((huart->Init.WordLength == UART_WORDLENGTH_9B) && (huart->Init.Parity == UART_PARITY_NONE))
 921              		.loc 1 1124 21 discriminator 2
 922 008c FB68     		ldr	r3, [r7, #12]
 923 008e 9A68     		ldr	r2, [r3, #8]
 924              		.loc 1 1124 8 discriminator 2
 925 0090 8023     		movs	r3, #128
 926 0092 5B01     		lsls	r3, r3, #5
 927 0094 9A42     		cmp	r2, r3
 928 0096 08D1     		bne	.L48
 929              		.loc 1 1124 71 discriminator 1
 930 0098 FB68     		ldr	r3, [r7, #12]
 931 009a 1B69     		ldr	r3, [r3, #16]
 932              		.loc 1 1124 56 discriminator 1
 933 009c 002B     		cmp	r3, #0
 934 009e 04D1     		bne	.L48
1125:Drivers/STM32L0xx_HAL_Driver/Src/stm32l0xx_hal_uart.c ****     {
1126:Drivers/STM32L0xx_HAL_Driver/Src/stm32l0xx_hal_uart.c ****       pdata8bits  = NULL;
 935              		.loc 1 1126 19
 936 00a0 0023     		movs	r3, #0
 937 00a2 FB61     		str	r3, [r7, #28]
1127:Drivers/STM32L0xx_HAL_Driver/Src/stm32l0xx_hal_uart.c ****       pdata16bits = (uint16_t *) pData;
 938              		.loc 1 1127 19
 939 00a4 BB68     		ldr	r3, [r7, #8]
 940 00a6 BB61     		str	r3, [r7, #24]
ARM GAS  C:\Users\lidka\AppData\Local\Temp\ccqOATUZ.s 			page 37


 941 00a8 03E0     		b	.L49
 942              	.L48:
1128:Drivers/STM32L0xx_HAL_Driver/Src/stm32l0xx_hal_uart.c ****     }
1129:Drivers/STM32L0xx_HAL_Driver/Src/stm32l0xx_hal_uart.c ****     else
1130:Drivers/STM32L0xx_HAL_Driver/Src/stm32l0xx_hal_uart.c ****     {
1131:Drivers/STM32L0xx_HAL_Driver/Src/stm32l0xx_hal_uart.c ****       pdata8bits  = pData;
 943              		.loc 1 1131 19
 944 00aa BB68     		ldr	r3, [r7, #8]
 945 00ac FB61     		str	r3, [r7, #28]
1132:Drivers/STM32L0xx_HAL_Driver/Src/stm32l0xx_hal_uart.c ****       pdata16bits = NULL;
 946              		.loc 1 1132 19
 947 00ae 0023     		movs	r3, #0
 948 00b0 BB61     		str	r3, [r7, #24]
 949              	.L49:
1133:Drivers/STM32L0xx_HAL_Driver/Src/stm32l0xx_hal_uart.c ****     }
1134:Drivers/STM32L0xx_HAL_Driver/Src/stm32l0xx_hal_uart.c **** 
1135:Drivers/STM32L0xx_HAL_Driver/Src/stm32l0xx_hal_uart.c ****     __HAL_UNLOCK(huart);
 950              		.loc 1 1135 5
 951 00b2 FB68     		ldr	r3, [r7, #12]
 952 00b4 7422     		movs	r2, #116
 953 00b6 0021     		movs	r1, #0
 954 00b8 9954     		strb	r1, [r3, r2]
1136:Drivers/STM32L0xx_HAL_Driver/Src/stm32l0xx_hal_uart.c **** 
1137:Drivers/STM32L0xx_HAL_Driver/Src/stm32l0xx_hal_uart.c ****     while (huart->TxXferCount > 0U)
 955              		.loc 1 1137 11
 956 00ba 2CE0     		b	.L50
 957              	.L54:
1138:Drivers/STM32L0xx_HAL_Driver/Src/stm32l0xx_hal_uart.c ****     {
1139:Drivers/STM32L0xx_HAL_Driver/Src/stm32l0xx_hal_uart.c ****       if (UART_WaitOnFlagUntilTimeout(huart, UART_FLAG_TXE, RESET, tickstart, Timeout) != HAL_OK)
 958              		.loc 1 1139 11
 959 00bc 7A69     		ldr	r2, [r7, #20]
 960 00be F868     		ldr	r0, [r7, #12]
 961 00c0 3B68     		ldr	r3, [r7]
 962 00c2 0093     		str	r3, [sp]
 963 00c4 1300     		movs	r3, r2
 964 00c6 0022     		movs	r2, #0
 965 00c8 8021     		movs	r1, #128
 966 00ca FFF7FEFF 		bl	UART_WaitOnFlagUntilTimeout
 967 00ce 031E     		subs	r3, r0, #0
 968              		.loc 1 1139 10
 969 00d0 01D0     		beq	.L51
1140:Drivers/STM32L0xx_HAL_Driver/Src/stm32l0xx_hal_uart.c ****       {
1141:Drivers/STM32L0xx_HAL_Driver/Src/stm32l0xx_hal_uart.c ****         return HAL_TIMEOUT;
 970              		.loc 1 1141 16
 971 00d2 0323     		movs	r3, #3
 972 00d4 38E0     		b	.L45
 973              	.L51:
1142:Drivers/STM32L0xx_HAL_Driver/Src/stm32l0xx_hal_uart.c ****       }
1143:Drivers/STM32L0xx_HAL_Driver/Src/stm32l0xx_hal_uart.c ****       if (pdata8bits == NULL)
 974              		.loc 1 1143 10
 975 00d6 FB69     		ldr	r3, [r7, #28]
 976 00d8 002B     		cmp	r3, #0
 977 00da 0BD1     		bne	.L52
1144:Drivers/STM32L0xx_HAL_Driver/Src/stm32l0xx_hal_uart.c ****       {
1145:Drivers/STM32L0xx_HAL_Driver/Src/stm32l0xx_hal_uart.c ****         huart->Instance->TDR = (uint16_t)(*pdata16bits & 0x01FFU);
 978              		.loc 1 1145 43
 979 00dc BB69     		ldr	r3, [r7, #24]
ARM GAS  C:\Users\lidka\AppData\Local\Temp\ccqOATUZ.s 			page 38


 980 00de 1B88     		ldrh	r3, [r3]
 981              		.loc 1 1145 32
 982 00e0 1A00     		movs	r2, r3
 983              		.loc 1 1145 14
 984 00e2 FB68     		ldr	r3, [r7, #12]
 985 00e4 1B68     		ldr	r3, [r3]
 986              		.loc 1 1145 32
 987 00e6 D205     		lsls	r2, r2, #23
 988 00e8 D20D     		lsrs	r2, r2, #23
 989              		.loc 1 1145 30
 990 00ea 9A62     		str	r2, [r3, #40]
1146:Drivers/STM32L0xx_HAL_Driver/Src/stm32l0xx_hal_uart.c ****         pdata16bits++;
 991              		.loc 1 1146 20
 992 00ec BB69     		ldr	r3, [r7, #24]
 993 00ee 0233     		adds	r3, r3, #2
 994 00f0 BB61     		str	r3, [r7, #24]
 995 00f2 07E0     		b	.L53
 996              	.L52:
1147:Drivers/STM32L0xx_HAL_Driver/Src/stm32l0xx_hal_uart.c ****       }
1148:Drivers/STM32L0xx_HAL_Driver/Src/stm32l0xx_hal_uart.c ****       else
1149:Drivers/STM32L0xx_HAL_Driver/Src/stm32l0xx_hal_uart.c ****       {
1150:Drivers/STM32L0xx_HAL_Driver/Src/stm32l0xx_hal_uart.c ****         huart->Instance->TDR = (uint8_t)(*pdata8bits & 0xFFU);
 997              		.loc 1 1150 42
 998 00f4 FB69     		ldr	r3, [r7, #28]
 999 00f6 1A78     		ldrb	r2, [r3]
 1000              		.loc 1 1150 14
 1001 00f8 FB68     		ldr	r3, [r7, #12]
 1002 00fa 1B68     		ldr	r3, [r3]
 1003              		.loc 1 1150 30
 1004 00fc 9A62     		str	r2, [r3, #40]
1151:Drivers/STM32L0xx_HAL_Driver/Src/stm32l0xx_hal_uart.c ****         pdata8bits++;
 1005              		.loc 1 1151 19
 1006 00fe FB69     		ldr	r3, [r7, #28]
 1007 0100 0133     		adds	r3, r3, #1
 1008 0102 FB61     		str	r3, [r7, #28]
 1009              	.L53:
1152:Drivers/STM32L0xx_HAL_Driver/Src/stm32l0xx_hal_uart.c ****       }
1153:Drivers/STM32L0xx_HAL_Driver/Src/stm32l0xx_hal_uart.c ****       huart->TxXferCount--;
 1010              		.loc 1 1153 12
 1011 0104 FB68     		ldr	r3, [r7, #12]
 1012 0106 5222     		movs	r2, #82
 1013 0108 9B5A     		ldrh	r3, [r3, r2]
 1014 010a 9BB2     		uxth	r3, r3
 1015              		.loc 1 1153 25
 1016 010c 013B     		subs	r3, r3, #1
 1017 010e 99B2     		uxth	r1, r3
 1018 0110 FB68     		ldr	r3, [r7, #12]
 1019 0112 5222     		movs	r2, #82
 1020 0114 9952     		strh	r1, [r3, r2]
 1021              	.L50:
1137:Drivers/STM32L0xx_HAL_Driver/Src/stm32l0xx_hal_uart.c ****     {
 1022              		.loc 1 1137 17
 1023 0116 FB68     		ldr	r3, [r7, #12]
 1024 0118 5222     		movs	r2, #82
 1025 011a 9B5A     		ldrh	r3, [r3, r2]
 1026 011c 9BB2     		uxth	r3, r3
1137:Drivers/STM32L0xx_HAL_Driver/Src/stm32l0xx_hal_uart.c ****     {
ARM GAS  C:\Users\lidka\AppData\Local\Temp\ccqOATUZ.s 			page 39


 1027              		.loc 1 1137 11
 1028 011e 002B     		cmp	r3, #0
 1029 0120 CCD1     		bne	.L54
1154:Drivers/STM32L0xx_HAL_Driver/Src/stm32l0xx_hal_uart.c ****     }
1155:Drivers/STM32L0xx_HAL_Driver/Src/stm32l0xx_hal_uart.c **** 
1156:Drivers/STM32L0xx_HAL_Driver/Src/stm32l0xx_hal_uart.c ****     if (UART_WaitOnFlagUntilTimeout(huart, UART_FLAG_TC, RESET, tickstart, Timeout) != HAL_OK)
 1030              		.loc 1 1156 9
 1031 0122 7A69     		ldr	r2, [r7, #20]
 1032 0124 F868     		ldr	r0, [r7, #12]
 1033 0126 3B68     		ldr	r3, [r7]
 1034 0128 0093     		str	r3, [sp]
 1035 012a 1300     		movs	r3, r2
 1036 012c 0022     		movs	r2, #0
 1037 012e 4021     		movs	r1, #64
 1038 0130 FFF7FEFF 		bl	UART_WaitOnFlagUntilTimeout
 1039 0134 031E     		subs	r3, r0, #0
 1040              		.loc 1 1156 8
 1041 0136 01D0     		beq	.L55
1157:Drivers/STM32L0xx_HAL_Driver/Src/stm32l0xx_hal_uart.c ****     {
1158:Drivers/STM32L0xx_HAL_Driver/Src/stm32l0xx_hal_uart.c ****       return HAL_TIMEOUT;
 1042              		.loc 1 1158 14
 1043 0138 0323     		movs	r3, #3
 1044 013a 05E0     		b	.L45
 1045              	.L55:
1159:Drivers/STM32L0xx_HAL_Driver/Src/stm32l0xx_hal_uart.c ****     }
1160:Drivers/STM32L0xx_HAL_Driver/Src/stm32l0xx_hal_uart.c **** 
1161:Drivers/STM32L0xx_HAL_Driver/Src/stm32l0xx_hal_uart.c ****     /* At end of Tx process, restore huart->gState to Ready */
1162:Drivers/STM32L0xx_HAL_Driver/Src/stm32l0xx_hal_uart.c ****     huart->gState = HAL_UART_STATE_READY;
 1046              		.loc 1 1162 19
 1047 013c FB68     		ldr	r3, [r7, #12]
 1048 013e 2022     		movs	r2, #32
 1049 0140 9A67     		str	r2, [r3, #120]
1163:Drivers/STM32L0xx_HAL_Driver/Src/stm32l0xx_hal_uart.c **** 
1164:Drivers/STM32L0xx_HAL_Driver/Src/stm32l0xx_hal_uart.c ****     return HAL_OK;
 1050              		.loc 1 1164 12
 1051 0142 0023     		movs	r3, #0
 1052 0144 00E0     		b	.L45
 1053              	.L42:
1165:Drivers/STM32L0xx_HAL_Driver/Src/stm32l0xx_hal_uart.c ****   }
1166:Drivers/STM32L0xx_HAL_Driver/Src/stm32l0xx_hal_uart.c ****   else
1167:Drivers/STM32L0xx_HAL_Driver/Src/stm32l0xx_hal_uart.c ****   {
1168:Drivers/STM32L0xx_HAL_Driver/Src/stm32l0xx_hal_uart.c ****     return HAL_BUSY;
 1054              		.loc 1 1168 12
 1055 0146 0223     		movs	r3, #2
 1056              	.L45:
1169:Drivers/STM32L0xx_HAL_Driver/Src/stm32l0xx_hal_uart.c ****   }
1170:Drivers/STM32L0xx_HAL_Driver/Src/stm32l0xx_hal_uart.c **** }
 1057              		.loc 1 1170 1
 1058 0148 1800     		movs	r0, r3
 1059 014a BD46     		mov	sp, r7
 1060 014c 08B0     		add	sp, sp, #32
 1061              		@ sp needed
 1062 014e 80BD     		pop	{r7, pc}
 1063              		.cfi_endproc
 1064              	.LFE54:
 1066              		.section	.text.HAL_UART_Receive,"ax",%progbits
 1067              		.align	1
ARM GAS  C:\Users\lidka\AppData\Local\Temp\ccqOATUZ.s 			page 40


 1068              		.global	HAL_UART_Receive
 1069              		.syntax unified
 1070              		.code	16
 1071              		.thumb_func
 1073              	HAL_UART_Receive:
 1074              	.LFB55:
1171:Drivers/STM32L0xx_HAL_Driver/Src/stm32l0xx_hal_uart.c **** 
1172:Drivers/STM32L0xx_HAL_Driver/Src/stm32l0xx_hal_uart.c **** /**
1173:Drivers/STM32L0xx_HAL_Driver/Src/stm32l0xx_hal_uart.c ****   * @brief Receive an amount of data in blocking mode.
1174:Drivers/STM32L0xx_HAL_Driver/Src/stm32l0xx_hal_uart.c ****   * @note   When UART parity is not enabled (PCE = 0), and Word Length is configured to 9 bits (M1-
1175:Drivers/STM32L0xx_HAL_Driver/Src/stm32l0xx_hal_uart.c ****   *         the received data is handled as a set of u16. In this case, Size must indicate the numb
1176:Drivers/STM32L0xx_HAL_Driver/Src/stm32l0xx_hal_uart.c ****   *         of u16 available through pData.
1177:Drivers/STM32L0xx_HAL_Driver/Src/stm32l0xx_hal_uart.c ****   * @note   When UART parity is not enabled (PCE = 0), and Word Length is configured to 9 bits (M1-
1178:Drivers/STM32L0xx_HAL_Driver/Src/stm32l0xx_hal_uart.c ****   *         address of user data buffer for storing data to be received, should be aligned on a hal
1179:Drivers/STM32L0xx_HAL_Driver/Src/stm32l0xx_hal_uart.c ****   *         (16 bits) (as received data will be handled using u16 pointer cast). Depending on compi
1180:Drivers/STM32L0xx_HAL_Driver/Src/stm32l0xx_hal_uart.c ****   *         use of specific alignment compilation directives or pragmas might be required
1181:Drivers/STM32L0xx_HAL_Driver/Src/stm32l0xx_hal_uart.c ****   *         to ensure proper alignment for pData.
1182:Drivers/STM32L0xx_HAL_Driver/Src/stm32l0xx_hal_uart.c ****   * @param huart   UART handle.
1183:Drivers/STM32L0xx_HAL_Driver/Src/stm32l0xx_hal_uart.c ****   * @param pData   Pointer to data buffer (u8 or u16 data elements).
1184:Drivers/STM32L0xx_HAL_Driver/Src/stm32l0xx_hal_uart.c ****   * @param Size    Amount of data elements (u8 or u16) to be received.
1185:Drivers/STM32L0xx_HAL_Driver/Src/stm32l0xx_hal_uart.c ****   * @param Timeout Timeout duration.
1186:Drivers/STM32L0xx_HAL_Driver/Src/stm32l0xx_hal_uart.c ****   * @retval HAL status
1187:Drivers/STM32L0xx_HAL_Driver/Src/stm32l0xx_hal_uart.c ****   */
1188:Drivers/STM32L0xx_HAL_Driver/Src/stm32l0xx_hal_uart.c **** HAL_StatusTypeDef HAL_UART_Receive(UART_HandleTypeDef *huart, uint8_t *pData, uint16_t Size, uint32
1189:Drivers/STM32L0xx_HAL_Driver/Src/stm32l0xx_hal_uart.c **** {
 1075              		.loc 1 1189 1
 1076              		.cfi_startproc
 1077              		@ args = 0, pretend = 0, frame = 32
 1078              		@ frame_needed = 1, uses_anonymous_args = 0
 1079 0000 80B5     		push	{r7, lr}
 1080              	.LCFI24:
 1081              		.cfi_def_cfa_offset 8
 1082              		.cfi_offset 7, -8
 1083              		.cfi_offset 14, -4
 1084 0002 8AB0     		sub	sp, sp, #40
 1085              	.LCFI25:
 1086              		.cfi_def_cfa_offset 48
 1087 0004 02AF     		add	r7, sp, #8
 1088              	.LCFI26:
 1089              		.cfi_def_cfa 7, 40
 1090 0006 F860     		str	r0, [r7, #12]
 1091 0008 B960     		str	r1, [r7, #8]
 1092 000a 3B60     		str	r3, [r7]
 1093 000c BB1D     		adds	r3, r7, #6
 1094 000e 1A80     		strh	r2, [r3]
1190:Drivers/STM32L0xx_HAL_Driver/Src/stm32l0xx_hal_uart.c ****   uint8_t  *pdata8bits;
1191:Drivers/STM32L0xx_HAL_Driver/Src/stm32l0xx_hal_uart.c ****   uint16_t *pdata16bits;
1192:Drivers/STM32L0xx_HAL_Driver/Src/stm32l0xx_hal_uart.c ****   uint16_t uhMask;
1193:Drivers/STM32L0xx_HAL_Driver/Src/stm32l0xx_hal_uart.c ****   uint32_t tickstart;
1194:Drivers/STM32L0xx_HAL_Driver/Src/stm32l0xx_hal_uart.c **** 
1195:Drivers/STM32L0xx_HAL_Driver/Src/stm32l0xx_hal_uart.c ****   /* Check that a Rx process is not already ongoing */
1196:Drivers/STM32L0xx_HAL_Driver/Src/stm32l0xx_hal_uart.c ****   if (huart->RxState == HAL_UART_STATE_READY)
 1095              		.loc 1 1196 12
 1096 0010 FB68     		ldr	r3, [r7, #12]
 1097 0012 DB6F     		ldr	r3, [r3, #124]
 1098              		.loc 1 1196 6
 1099 0014 202B     		cmp	r3, #32
ARM GAS  C:\Users\lidka\AppData\Local\Temp\ccqOATUZ.s 			page 41


 1100 0016 00D0     		beq	.LCB926
 1101 0018 D9E0     		b	.L57	@long jump
 1102              	.LCB926:
1197:Drivers/STM32L0xx_HAL_Driver/Src/stm32l0xx_hal_uart.c ****   {
1198:Drivers/STM32L0xx_HAL_Driver/Src/stm32l0xx_hal_uart.c ****     if ((pData == NULL) || (Size == 0U))
 1103              		.loc 1 1198 8
 1104 001a BB68     		ldr	r3, [r7, #8]
 1105 001c 002B     		cmp	r3, #0
 1106 001e 03D0     		beq	.L58
 1107              		.loc 1 1198 25 discriminator 1
 1108 0020 BB1D     		adds	r3, r7, #6
 1109 0022 1B88     		ldrh	r3, [r3]
 1110 0024 002B     		cmp	r3, #0
 1111 0026 01D1     		bne	.L59
 1112              	.L58:
1199:Drivers/STM32L0xx_HAL_Driver/Src/stm32l0xx_hal_uart.c ****     {
1200:Drivers/STM32L0xx_HAL_Driver/Src/stm32l0xx_hal_uart.c ****       return  HAL_ERROR;
 1113              		.loc 1 1200 15
 1114 0028 0123     		movs	r3, #1
 1115 002a D1E0     		b	.L60
 1116              	.L59:
1201:Drivers/STM32L0xx_HAL_Driver/Src/stm32l0xx_hal_uart.c ****     }
1202:Drivers/STM32L0xx_HAL_Driver/Src/stm32l0xx_hal_uart.c **** 
1203:Drivers/STM32L0xx_HAL_Driver/Src/stm32l0xx_hal_uart.c ****     /* In case of 9bits/No Parity transfer, pData buffer provided as input parameter
1204:Drivers/STM32L0xx_HAL_Driver/Src/stm32l0xx_hal_uart.c ****        should be aligned on a u16 frontier, as data to be received from RDR will be
1205:Drivers/STM32L0xx_HAL_Driver/Src/stm32l0xx_hal_uart.c ****        handled through a u16 cast. */
1206:Drivers/STM32L0xx_HAL_Driver/Src/stm32l0xx_hal_uart.c ****     if ((huart->Init.WordLength == UART_WORDLENGTH_9B) && (huart->Init.Parity == UART_PARITY_NONE))
 1117              		.loc 1 1206 21
 1118 002c FB68     		ldr	r3, [r7, #12]
 1119 002e 9A68     		ldr	r2, [r3, #8]
 1120              		.loc 1 1206 8
 1121 0030 8023     		movs	r3, #128
 1122 0032 5B01     		lsls	r3, r3, #5
 1123 0034 9A42     		cmp	r2, r3
 1124 0036 09D1     		bne	.L61
 1125              		.loc 1 1206 71 discriminator 1
 1126 0038 FB68     		ldr	r3, [r7, #12]
 1127 003a 1B69     		ldr	r3, [r3, #16]
 1128              		.loc 1 1206 56 discriminator 1
 1129 003c 002B     		cmp	r3, #0
 1130 003e 05D1     		bne	.L61
1207:Drivers/STM32L0xx_HAL_Driver/Src/stm32l0xx_hal_uart.c ****     {
1208:Drivers/STM32L0xx_HAL_Driver/Src/stm32l0xx_hal_uart.c ****       if ((((uint32_t)pData) & 1U) != 0U)
 1131              		.loc 1 1208 13
 1132 0040 BB68     		ldr	r3, [r7, #8]
 1133              		.loc 1 1208 30
 1134 0042 0122     		movs	r2, #1
 1135 0044 1340     		ands	r3, r2
 1136              		.loc 1 1208 10
 1137 0046 01D0     		beq	.L61
1209:Drivers/STM32L0xx_HAL_Driver/Src/stm32l0xx_hal_uart.c ****       {
1210:Drivers/STM32L0xx_HAL_Driver/Src/stm32l0xx_hal_uart.c ****         return  HAL_ERROR;
 1138              		.loc 1 1210 17
 1139 0048 0123     		movs	r3, #1
 1140 004a C1E0     		b	.L60
 1141              	.L61:
1211:Drivers/STM32L0xx_HAL_Driver/Src/stm32l0xx_hal_uart.c ****       }
ARM GAS  C:\Users\lidka\AppData\Local\Temp\ccqOATUZ.s 			page 42


1212:Drivers/STM32L0xx_HAL_Driver/Src/stm32l0xx_hal_uart.c ****     }
1213:Drivers/STM32L0xx_HAL_Driver/Src/stm32l0xx_hal_uart.c **** 
1214:Drivers/STM32L0xx_HAL_Driver/Src/stm32l0xx_hal_uart.c ****     __HAL_LOCK(huart);
 1142              		.loc 1 1214 5
 1143 004c FB68     		ldr	r3, [r7, #12]
 1144 004e 7422     		movs	r2, #116
 1145 0050 9B5C     		ldrb	r3, [r3, r2]
 1146 0052 012B     		cmp	r3, #1
 1147 0054 01D1     		bne	.L62
 1148              		.loc 1 1214 5 is_stmt 0 discriminator 1
 1149 0056 0223     		movs	r3, #2
 1150 0058 BAE0     		b	.L60
 1151              	.L62:
 1152              		.loc 1 1214 5 discriminator 2
 1153 005a FB68     		ldr	r3, [r7, #12]
 1154 005c 7422     		movs	r2, #116
 1155 005e 0121     		movs	r1, #1
 1156 0060 9954     		strb	r1, [r3, r2]
1215:Drivers/STM32L0xx_HAL_Driver/Src/stm32l0xx_hal_uart.c **** 
1216:Drivers/STM32L0xx_HAL_Driver/Src/stm32l0xx_hal_uart.c ****     huart->ErrorCode = HAL_UART_ERROR_NONE;
 1157              		.loc 1 1216 22 is_stmt 1 discriminator 2
 1158 0062 FB68     		ldr	r3, [r7, #12]
 1159 0064 8022     		movs	r2, #128
 1160 0066 0021     		movs	r1, #0
 1161 0068 9950     		str	r1, [r3, r2]
1217:Drivers/STM32L0xx_HAL_Driver/Src/stm32l0xx_hal_uart.c ****     huart->RxState = HAL_UART_STATE_BUSY_RX;
 1162              		.loc 1 1217 20 discriminator 2
 1163 006a FB68     		ldr	r3, [r7, #12]
 1164 006c 2222     		movs	r2, #34
 1165 006e DA67     		str	r2, [r3, #124]
1218:Drivers/STM32L0xx_HAL_Driver/Src/stm32l0xx_hal_uart.c ****     huart->ReceptionType = HAL_UART_RECEPTION_STANDARD;
 1166              		.loc 1 1218 26 discriminator 2
 1167 0070 FB68     		ldr	r3, [r7, #12]
 1168 0072 0022     		movs	r2, #0
 1169 0074 1A66     		str	r2, [r3, #96]
1219:Drivers/STM32L0xx_HAL_Driver/Src/stm32l0xx_hal_uart.c **** 
1220:Drivers/STM32L0xx_HAL_Driver/Src/stm32l0xx_hal_uart.c ****     /* Init tickstart for timeout management */
1221:Drivers/STM32L0xx_HAL_Driver/Src/stm32l0xx_hal_uart.c ****     tickstart = HAL_GetTick();
 1170              		.loc 1 1221 17 discriminator 2
 1171 0076 FFF7FEFF 		bl	HAL_GetTick
 1172 007a 0300     		movs	r3, r0
 1173 007c 7B61     		str	r3, [r7, #20]
1222:Drivers/STM32L0xx_HAL_Driver/Src/stm32l0xx_hal_uart.c **** 
1223:Drivers/STM32L0xx_HAL_Driver/Src/stm32l0xx_hal_uart.c ****     huart->RxXferSize  = Size;
 1174              		.loc 1 1223 24 discriminator 2
 1175 007e FB68     		ldr	r3, [r7, #12]
 1176 0080 BA1D     		adds	r2, r7, #6
 1177 0082 5821     		movs	r1, #88
 1178 0084 1288     		ldrh	r2, [r2]
 1179 0086 5A52     		strh	r2, [r3, r1]
1224:Drivers/STM32L0xx_HAL_Driver/Src/stm32l0xx_hal_uart.c ****     huart->RxXferCount = Size;
 1180              		.loc 1 1224 24 discriminator 2
 1181 0088 FB68     		ldr	r3, [r7, #12]
 1182 008a BA1D     		adds	r2, r7, #6
 1183 008c 5A21     		movs	r1, #90
 1184 008e 1288     		ldrh	r2, [r2]
 1185 0090 5A52     		strh	r2, [r3, r1]
ARM GAS  C:\Users\lidka\AppData\Local\Temp\ccqOATUZ.s 			page 43


1225:Drivers/STM32L0xx_HAL_Driver/Src/stm32l0xx_hal_uart.c **** 
1226:Drivers/STM32L0xx_HAL_Driver/Src/stm32l0xx_hal_uart.c ****     /* Computation of UART mask to apply to RDR register */
1227:Drivers/STM32L0xx_HAL_Driver/Src/stm32l0xx_hal_uart.c ****     UART_MASK_COMPUTATION(huart);
 1186              		.loc 1 1227 5 discriminator 2
 1187 0092 FB68     		ldr	r3, [r7, #12]
 1188 0094 9A68     		ldr	r2, [r3, #8]
 1189 0096 8023     		movs	r3, #128
 1190 0098 5B01     		lsls	r3, r3, #5
 1191 009a 9A42     		cmp	r2, r3
 1192 009c 0DD1     		bne	.L63
 1193              		.loc 1 1227 5 is_stmt 0 discriminator 1
 1194 009e FB68     		ldr	r3, [r7, #12]
 1195 00a0 1B69     		ldr	r3, [r3, #16]
 1196 00a2 002B     		cmp	r3, #0
 1197 00a4 04D1     		bne	.L64
 1198              		.loc 1 1227 5 discriminator 3
 1199 00a6 FB68     		ldr	r3, [r7, #12]
 1200 00a8 5C22     		movs	r2, #92
 1201 00aa 4B49     		ldr	r1, .L77
 1202 00ac 9952     		strh	r1, [r3, r2]
 1203 00ae 2EE0     		b	.L65
 1204              	.L64:
 1205              		.loc 1 1227 5 discriminator 4
 1206 00b0 FB68     		ldr	r3, [r7, #12]
 1207 00b2 5C22     		movs	r2, #92
 1208 00b4 FF21     		movs	r1, #255
 1209 00b6 9952     		strh	r1, [r3, r2]
 1210 00b8 29E0     		b	.L65
 1211              	.L63:
 1212              		.loc 1 1227 5 discriminator 2
 1213 00ba FB68     		ldr	r3, [r7, #12]
 1214 00bc 9B68     		ldr	r3, [r3, #8]
 1215 00be 002B     		cmp	r3, #0
 1216 00c0 0DD1     		bne	.L66
 1217              		.loc 1 1227 5 discriminator 5
 1218 00c2 FB68     		ldr	r3, [r7, #12]
 1219 00c4 1B69     		ldr	r3, [r3, #16]
 1220 00c6 002B     		cmp	r3, #0
 1221 00c8 04D1     		bne	.L67
 1222              		.loc 1 1227 5 discriminator 7
 1223 00ca FB68     		ldr	r3, [r7, #12]
 1224 00cc 5C22     		movs	r2, #92
 1225 00ce FF21     		movs	r1, #255
 1226 00d0 9952     		strh	r1, [r3, r2]
 1227 00d2 1CE0     		b	.L65
 1228              	.L67:
 1229              		.loc 1 1227 5 discriminator 8
 1230 00d4 FB68     		ldr	r3, [r7, #12]
 1231 00d6 5C22     		movs	r2, #92
 1232 00d8 7F21     		movs	r1, #127
 1233 00da 9952     		strh	r1, [r3, r2]
 1234 00dc 17E0     		b	.L65
 1235              	.L66:
 1236              		.loc 1 1227 5 discriminator 6
 1237 00de FB68     		ldr	r3, [r7, #12]
 1238 00e0 9A68     		ldr	r2, [r3, #8]
 1239 00e2 8023     		movs	r3, #128
ARM GAS  C:\Users\lidka\AppData\Local\Temp\ccqOATUZ.s 			page 44


 1240 00e4 5B05     		lsls	r3, r3, #21
 1241 00e6 9A42     		cmp	r2, r3
 1242 00e8 0DD1     		bne	.L68
 1243              		.loc 1 1227 5 discriminator 9
 1244 00ea FB68     		ldr	r3, [r7, #12]
 1245 00ec 1B69     		ldr	r3, [r3, #16]
 1246 00ee 002B     		cmp	r3, #0
 1247 00f0 04D1     		bne	.L69
 1248              		.loc 1 1227 5 discriminator 11
 1249 00f2 FB68     		ldr	r3, [r7, #12]
 1250 00f4 5C22     		movs	r2, #92
 1251 00f6 7F21     		movs	r1, #127
 1252 00f8 9952     		strh	r1, [r3, r2]
 1253 00fa 08E0     		b	.L65
 1254              	.L69:
 1255              		.loc 1 1227 5 discriminator 12
 1256 00fc FB68     		ldr	r3, [r7, #12]
 1257 00fe 5C22     		movs	r2, #92
 1258 0100 3F21     		movs	r1, #63
 1259 0102 9952     		strh	r1, [r3, r2]
 1260 0104 03E0     		b	.L65
 1261              	.L68:
 1262              		.loc 1 1227 5 discriminator 10
 1263 0106 FB68     		ldr	r3, [r7, #12]
 1264 0108 5C22     		movs	r2, #92
 1265 010a 0021     		movs	r1, #0
 1266 010c 9952     		strh	r1, [r3, r2]
 1267              	.L65:
1228:Drivers/STM32L0xx_HAL_Driver/Src/stm32l0xx_hal_uart.c ****     uhMask = huart->Mask;
 1268              		.loc 1 1228 12 is_stmt 1
 1269 010e 1223     		movs	r3, #18
 1270 0110 FB18     		adds	r3, r7, r3
 1271 0112 FA68     		ldr	r2, [r7, #12]
 1272 0114 5C21     		movs	r1, #92
 1273 0116 525A     		ldrh	r2, [r2, r1]
 1274 0118 1A80     		strh	r2, [r3]
1229:Drivers/STM32L0xx_HAL_Driver/Src/stm32l0xx_hal_uart.c **** 
1230:Drivers/STM32L0xx_HAL_Driver/Src/stm32l0xx_hal_uart.c ****     /* In case of 9bits/No Parity transfer, pRxData needs to be handled as a uint16_t pointer */
1231:Drivers/STM32L0xx_HAL_Driver/Src/stm32l0xx_hal_uart.c ****     if ((huart->Init.WordLength == UART_WORDLENGTH_9B) && (huart->Init.Parity == UART_PARITY_NONE))
 1275              		.loc 1 1231 21
 1276 011a FB68     		ldr	r3, [r7, #12]
 1277 011c 9A68     		ldr	r2, [r3, #8]
 1278              		.loc 1 1231 8
 1279 011e 8023     		movs	r3, #128
 1280 0120 5B01     		lsls	r3, r3, #5
 1281 0122 9A42     		cmp	r2, r3
 1282 0124 08D1     		bne	.L70
 1283              		.loc 1 1231 71 discriminator 1
 1284 0126 FB68     		ldr	r3, [r7, #12]
 1285 0128 1B69     		ldr	r3, [r3, #16]
 1286              		.loc 1 1231 56 discriminator 1
 1287 012a 002B     		cmp	r3, #0
 1288 012c 04D1     		bne	.L70
1232:Drivers/STM32L0xx_HAL_Driver/Src/stm32l0xx_hal_uart.c ****     {
1233:Drivers/STM32L0xx_HAL_Driver/Src/stm32l0xx_hal_uart.c ****       pdata8bits  = NULL;
 1289              		.loc 1 1233 19
 1290 012e 0023     		movs	r3, #0
ARM GAS  C:\Users\lidka\AppData\Local\Temp\ccqOATUZ.s 			page 45


 1291 0130 FB61     		str	r3, [r7, #28]
1234:Drivers/STM32L0xx_HAL_Driver/Src/stm32l0xx_hal_uart.c ****       pdata16bits = (uint16_t *) pData;
 1292              		.loc 1 1234 19
 1293 0132 BB68     		ldr	r3, [r7, #8]
 1294 0134 BB61     		str	r3, [r7, #24]
 1295 0136 03E0     		b	.L71
 1296              	.L70:
1235:Drivers/STM32L0xx_HAL_Driver/Src/stm32l0xx_hal_uart.c ****     }
1236:Drivers/STM32L0xx_HAL_Driver/Src/stm32l0xx_hal_uart.c ****     else
1237:Drivers/STM32L0xx_HAL_Driver/Src/stm32l0xx_hal_uart.c ****     {
1238:Drivers/STM32L0xx_HAL_Driver/Src/stm32l0xx_hal_uart.c ****       pdata8bits  = pData;
 1297              		.loc 1 1238 19
 1298 0138 BB68     		ldr	r3, [r7, #8]
 1299 013a FB61     		str	r3, [r7, #28]
1239:Drivers/STM32L0xx_HAL_Driver/Src/stm32l0xx_hal_uart.c ****       pdata16bits = NULL;
 1300              		.loc 1 1239 19
 1301 013c 0023     		movs	r3, #0
 1302 013e BB61     		str	r3, [r7, #24]
 1303              	.L71:
1240:Drivers/STM32L0xx_HAL_Driver/Src/stm32l0xx_hal_uart.c ****     }
1241:Drivers/STM32L0xx_HAL_Driver/Src/stm32l0xx_hal_uart.c **** 
1242:Drivers/STM32L0xx_HAL_Driver/Src/stm32l0xx_hal_uart.c ****     __HAL_UNLOCK(huart);
 1304              		.loc 1 1242 5
 1305 0140 FB68     		ldr	r3, [r7, #12]
 1306 0142 7422     		movs	r2, #116
 1307 0144 0021     		movs	r1, #0
 1308 0146 9954     		strb	r1, [r3, r2]
1243:Drivers/STM32L0xx_HAL_Driver/Src/stm32l0xx_hal_uart.c **** 
1244:Drivers/STM32L0xx_HAL_Driver/Src/stm32l0xx_hal_uart.c ****     /* as long as data have to be received */
1245:Drivers/STM32L0xx_HAL_Driver/Src/stm32l0xx_hal_uart.c ****     while (huart->RxXferCount > 0U)
 1309              		.loc 1 1245 11
 1310 0148 36E0     		b	.L72
 1311              	.L76:
1246:Drivers/STM32L0xx_HAL_Driver/Src/stm32l0xx_hal_uart.c ****     {
1247:Drivers/STM32L0xx_HAL_Driver/Src/stm32l0xx_hal_uart.c ****       if (UART_WaitOnFlagUntilTimeout(huart, UART_FLAG_RXNE, RESET, tickstart, Timeout) != HAL_OK)
 1312              		.loc 1 1247 11
 1313 014a 7A69     		ldr	r2, [r7, #20]
 1314 014c F868     		ldr	r0, [r7, #12]
 1315 014e 3B68     		ldr	r3, [r7]
 1316 0150 0093     		str	r3, [sp]
 1317 0152 1300     		movs	r3, r2
 1318 0154 0022     		movs	r2, #0
 1319 0156 2021     		movs	r1, #32
 1320 0158 FFF7FEFF 		bl	UART_WaitOnFlagUntilTimeout
 1321 015c 031E     		subs	r3, r0, #0
 1322              		.loc 1 1247 10
 1323 015e 01D0     		beq	.L73
1248:Drivers/STM32L0xx_HAL_Driver/Src/stm32l0xx_hal_uart.c ****       {
1249:Drivers/STM32L0xx_HAL_Driver/Src/stm32l0xx_hal_uart.c ****         return HAL_TIMEOUT;
 1324              		.loc 1 1249 16
 1325 0160 0323     		movs	r3, #3
 1326 0162 35E0     		b	.L60
 1327              	.L73:
1250:Drivers/STM32L0xx_HAL_Driver/Src/stm32l0xx_hal_uart.c ****       }
1251:Drivers/STM32L0xx_HAL_Driver/Src/stm32l0xx_hal_uart.c ****       if (pdata8bits == NULL)
 1328              		.loc 1 1251 10
 1329 0164 FB69     		ldr	r3, [r7, #28]
ARM GAS  C:\Users\lidka\AppData\Local\Temp\ccqOATUZ.s 			page 46


 1330 0166 002B     		cmp	r3, #0
 1331 0168 0ED1     		bne	.L74
1252:Drivers/STM32L0xx_HAL_Driver/Src/stm32l0xx_hal_uart.c ****       {
1253:Drivers/STM32L0xx_HAL_Driver/Src/stm32l0xx_hal_uart.c ****         *pdata16bits = (uint16_t)(huart->Instance->RDR & uhMask);
 1332              		.loc 1 1253 40
 1333 016a FB68     		ldr	r3, [r7, #12]
 1334 016c 1B68     		ldr	r3, [r3]
 1335              		.loc 1 1253 50
 1336 016e 5B6A     		ldr	r3, [r3, #36]
 1337              		.loc 1 1253 24
 1338 0170 9BB2     		uxth	r3, r3
 1339 0172 1222     		movs	r2, #18
 1340 0174 BA18     		adds	r2, r7, r2
 1341 0176 1288     		ldrh	r2, [r2]
 1342 0178 1340     		ands	r3, r2
 1343 017a 9AB2     		uxth	r2, r3
 1344              		.loc 1 1253 22
 1345 017c BB69     		ldr	r3, [r7, #24]
 1346 017e 1A80     		strh	r2, [r3]
1254:Drivers/STM32L0xx_HAL_Driver/Src/stm32l0xx_hal_uart.c ****         pdata16bits++;
 1347              		.loc 1 1254 20
 1348 0180 BB69     		ldr	r3, [r7, #24]
 1349 0182 0233     		adds	r3, r3, #2
 1350 0184 BB61     		str	r3, [r7, #24]
 1351 0186 0EE0     		b	.L75
 1352              	.L74:
1255:Drivers/STM32L0xx_HAL_Driver/Src/stm32l0xx_hal_uart.c ****       }
1256:Drivers/STM32L0xx_HAL_Driver/Src/stm32l0xx_hal_uart.c ****       else
1257:Drivers/STM32L0xx_HAL_Driver/Src/stm32l0xx_hal_uart.c ****       {
1258:Drivers/STM32L0xx_HAL_Driver/Src/stm32l0xx_hal_uart.c ****         *pdata8bits = (uint8_t)(huart->Instance->RDR & (uint8_t)uhMask);
 1353              		.loc 1 1258 38
 1354 0188 FB68     		ldr	r3, [r7, #12]
 1355 018a 1B68     		ldr	r3, [r3]
 1356              		.loc 1 1258 48
 1357 018c 5B6A     		ldr	r3, [r3, #36]
 1358              		.loc 1 1258 23
 1359 018e DBB2     		uxtb	r3, r3
 1360              		.loc 1 1258 56
 1361 0190 1222     		movs	r2, #18
 1362 0192 BA18     		adds	r2, r7, r2
 1363 0194 1288     		ldrh	r2, [r2]
 1364 0196 D2B2     		uxtb	r2, r2
 1365              		.loc 1 1258 23
 1366 0198 1340     		ands	r3, r2
 1367 019a DAB2     		uxtb	r2, r3
 1368              		.loc 1 1258 21
 1369 019c FB69     		ldr	r3, [r7, #28]
 1370 019e 1A70     		strb	r2, [r3]
1259:Drivers/STM32L0xx_HAL_Driver/Src/stm32l0xx_hal_uart.c ****         pdata8bits++;
 1371              		.loc 1 1259 19
 1372 01a0 FB69     		ldr	r3, [r7, #28]
 1373 01a2 0133     		adds	r3, r3, #1
 1374 01a4 FB61     		str	r3, [r7, #28]
 1375              	.L75:
1260:Drivers/STM32L0xx_HAL_Driver/Src/stm32l0xx_hal_uart.c ****       }
1261:Drivers/STM32L0xx_HAL_Driver/Src/stm32l0xx_hal_uart.c ****       huart->RxXferCount--;
 1376              		.loc 1 1261 12
ARM GAS  C:\Users\lidka\AppData\Local\Temp\ccqOATUZ.s 			page 47


 1377 01a6 FB68     		ldr	r3, [r7, #12]
 1378 01a8 5A22     		movs	r2, #90
 1379 01aa 9B5A     		ldrh	r3, [r3, r2]
 1380 01ac 9BB2     		uxth	r3, r3
 1381              		.loc 1 1261 25
 1382 01ae 013B     		subs	r3, r3, #1
 1383 01b0 99B2     		uxth	r1, r3
 1384 01b2 FB68     		ldr	r3, [r7, #12]
 1385 01b4 5A22     		movs	r2, #90
 1386 01b6 9952     		strh	r1, [r3, r2]
 1387              	.L72:
1245:Drivers/STM32L0xx_HAL_Driver/Src/stm32l0xx_hal_uart.c ****     {
 1388              		.loc 1 1245 17
 1389 01b8 FB68     		ldr	r3, [r7, #12]
 1390 01ba 5A22     		movs	r2, #90
 1391 01bc 9B5A     		ldrh	r3, [r3, r2]
 1392 01be 9BB2     		uxth	r3, r3
1245:Drivers/STM32L0xx_HAL_Driver/Src/stm32l0xx_hal_uart.c ****     {
 1393              		.loc 1 1245 11
 1394 01c0 002B     		cmp	r3, #0
 1395 01c2 C2D1     		bne	.L76
1262:Drivers/STM32L0xx_HAL_Driver/Src/stm32l0xx_hal_uart.c ****     }
1263:Drivers/STM32L0xx_HAL_Driver/Src/stm32l0xx_hal_uart.c **** 
1264:Drivers/STM32L0xx_HAL_Driver/Src/stm32l0xx_hal_uart.c ****     /* At end of Rx process, restore huart->RxState to Ready */
1265:Drivers/STM32L0xx_HAL_Driver/Src/stm32l0xx_hal_uart.c ****     huart->RxState = HAL_UART_STATE_READY;
 1396              		.loc 1 1265 20
 1397 01c4 FB68     		ldr	r3, [r7, #12]
 1398 01c6 2022     		movs	r2, #32
 1399 01c8 DA67     		str	r2, [r3, #124]
1266:Drivers/STM32L0xx_HAL_Driver/Src/stm32l0xx_hal_uart.c **** 
1267:Drivers/STM32L0xx_HAL_Driver/Src/stm32l0xx_hal_uart.c ****     return HAL_OK;
 1400              		.loc 1 1267 12
 1401 01ca 0023     		movs	r3, #0
 1402 01cc 00E0     		b	.L60
 1403              	.L57:
1268:Drivers/STM32L0xx_HAL_Driver/Src/stm32l0xx_hal_uart.c ****   }
1269:Drivers/STM32L0xx_HAL_Driver/Src/stm32l0xx_hal_uart.c ****   else
1270:Drivers/STM32L0xx_HAL_Driver/Src/stm32l0xx_hal_uart.c ****   {
1271:Drivers/STM32L0xx_HAL_Driver/Src/stm32l0xx_hal_uart.c ****     return HAL_BUSY;
 1404              		.loc 1 1271 12
 1405 01ce 0223     		movs	r3, #2
 1406              	.L60:
1272:Drivers/STM32L0xx_HAL_Driver/Src/stm32l0xx_hal_uart.c ****   }
1273:Drivers/STM32L0xx_HAL_Driver/Src/stm32l0xx_hal_uart.c **** }
 1407              		.loc 1 1273 1
 1408 01d0 1800     		movs	r0, r3
 1409 01d2 BD46     		mov	sp, r7
 1410 01d4 08B0     		add	sp, sp, #32
 1411              		@ sp needed
 1412 01d6 80BD     		pop	{r7, pc}
 1413              	.L78:
 1414              		.align	2
 1415              	.L77:
 1416 01d8 FF010000 		.word	511
 1417              		.cfi_endproc
 1418              	.LFE55:
 1420              		.section	.text.HAL_UART_Transmit_IT,"ax",%progbits
ARM GAS  C:\Users\lidka\AppData\Local\Temp\ccqOATUZ.s 			page 48


 1421              		.align	1
 1422              		.global	HAL_UART_Transmit_IT
 1423              		.syntax unified
 1424              		.code	16
 1425              		.thumb_func
 1427              	HAL_UART_Transmit_IT:
 1428              	.LFB56:
1274:Drivers/STM32L0xx_HAL_Driver/Src/stm32l0xx_hal_uart.c **** 
1275:Drivers/STM32L0xx_HAL_Driver/Src/stm32l0xx_hal_uart.c **** /**
1276:Drivers/STM32L0xx_HAL_Driver/Src/stm32l0xx_hal_uart.c ****   * @brief Send an amount of data in interrupt mode.
1277:Drivers/STM32L0xx_HAL_Driver/Src/stm32l0xx_hal_uart.c ****   * @note   When UART parity is not enabled (PCE = 0), and Word Length is configured to 9 bits (M1-
1278:Drivers/STM32L0xx_HAL_Driver/Src/stm32l0xx_hal_uart.c ****   *         the sent data is handled as a set of u16. In this case, Size must indicate the number
1279:Drivers/STM32L0xx_HAL_Driver/Src/stm32l0xx_hal_uart.c ****   *         of u16 provided through pData.
1280:Drivers/STM32L0xx_HAL_Driver/Src/stm32l0xx_hal_uart.c ****   * @note   When UART parity is not enabled (PCE = 0), and Word Length is configured to 9 bits (M1-
1281:Drivers/STM32L0xx_HAL_Driver/Src/stm32l0xx_hal_uart.c ****   *         address of user data buffer containing data to be sent, should be aligned on a half wor
1282:Drivers/STM32L0xx_HAL_Driver/Src/stm32l0xx_hal_uart.c ****   *         (as sent data will be handled using u16 pointer cast). Depending on compilation chain,
1283:Drivers/STM32L0xx_HAL_Driver/Src/stm32l0xx_hal_uart.c ****   *         use of specific alignment compilation directives or pragmas might be required
1284:Drivers/STM32L0xx_HAL_Driver/Src/stm32l0xx_hal_uart.c ****   *         to ensure proper alignment for pData.
1285:Drivers/STM32L0xx_HAL_Driver/Src/stm32l0xx_hal_uart.c ****   * @param huart UART handle.
1286:Drivers/STM32L0xx_HAL_Driver/Src/stm32l0xx_hal_uart.c ****   * @param pData Pointer to data buffer (u8 or u16 data elements).
1287:Drivers/STM32L0xx_HAL_Driver/Src/stm32l0xx_hal_uart.c ****   * @param Size  Amount of data elements (u8 or u16) to be sent.
1288:Drivers/STM32L0xx_HAL_Driver/Src/stm32l0xx_hal_uart.c ****   * @retval HAL status
1289:Drivers/STM32L0xx_HAL_Driver/Src/stm32l0xx_hal_uart.c ****   */
1290:Drivers/STM32L0xx_HAL_Driver/Src/stm32l0xx_hal_uart.c **** HAL_StatusTypeDef HAL_UART_Transmit_IT(UART_HandleTypeDef *huart, uint8_t *pData, uint16_t Size)
1291:Drivers/STM32L0xx_HAL_Driver/Src/stm32l0xx_hal_uart.c **** {
 1429              		.loc 1 1291 1
 1430              		.cfi_startproc
 1431              		@ args = 0, pretend = 0, frame = 32
 1432              		@ frame_needed = 1, uses_anonymous_args = 0
 1433 0000 80B5     		push	{r7, lr}
 1434              	.LCFI27:
 1435              		.cfi_def_cfa_offset 8
 1436              		.cfi_offset 7, -8
 1437              		.cfi_offset 14, -4
 1438 0002 88B0     		sub	sp, sp, #32
 1439              	.LCFI28:
 1440              		.cfi_def_cfa_offset 40
 1441 0004 00AF     		add	r7, sp, #0
 1442              	.LCFI29:
 1443              		.cfi_def_cfa_register 7
 1444 0006 F860     		str	r0, [r7, #12]
 1445 0008 B960     		str	r1, [r7, #8]
 1446 000a BB1D     		adds	r3, r7, #6
 1447 000c 1A80     		strh	r2, [r3]
1292:Drivers/STM32L0xx_HAL_Driver/Src/stm32l0xx_hal_uart.c ****   /* Check that a Tx process is not already ongoing */
1293:Drivers/STM32L0xx_HAL_Driver/Src/stm32l0xx_hal_uart.c ****   if (huart->gState == HAL_UART_STATE_READY)
 1448              		.loc 1 1293 12
 1449 000e FB68     		ldr	r3, [r7, #12]
 1450 0010 9B6F     		ldr	r3, [r3, #120]
 1451              		.loc 1 1293 6
 1452 0012 202B     		cmp	r3, #32
 1453 0014 00D0     		beq	.LCB1238
 1454 0016 6AE0     		b	.L80	@long jump
 1455              	.LCB1238:
1294:Drivers/STM32L0xx_HAL_Driver/Src/stm32l0xx_hal_uart.c ****   {
1295:Drivers/STM32L0xx_HAL_Driver/Src/stm32l0xx_hal_uart.c ****     if ((pData == NULL) || (Size == 0U))
 1456              		.loc 1 1295 8
ARM GAS  C:\Users\lidka\AppData\Local\Temp\ccqOATUZ.s 			page 49


 1457 0018 BB68     		ldr	r3, [r7, #8]
 1458 001a 002B     		cmp	r3, #0
 1459 001c 03D0     		beq	.L81
 1460              		.loc 1 1295 25 discriminator 1
 1461 001e BB1D     		adds	r3, r7, #6
 1462 0020 1B88     		ldrh	r3, [r3]
 1463 0022 002B     		cmp	r3, #0
 1464 0024 01D1     		bne	.L82
 1465              	.L81:
1296:Drivers/STM32L0xx_HAL_Driver/Src/stm32l0xx_hal_uart.c ****     {
1297:Drivers/STM32L0xx_HAL_Driver/Src/stm32l0xx_hal_uart.c ****       return HAL_ERROR;
 1466              		.loc 1 1297 14
 1467 0026 0123     		movs	r3, #1
 1468 0028 62E0     		b	.L83
 1469              	.L82:
1298:Drivers/STM32L0xx_HAL_Driver/Src/stm32l0xx_hal_uart.c ****     }
1299:Drivers/STM32L0xx_HAL_Driver/Src/stm32l0xx_hal_uart.c **** 
1300:Drivers/STM32L0xx_HAL_Driver/Src/stm32l0xx_hal_uart.c ****     /* In case of 9bits/No Parity transfer, pData buffer provided as input parameter
1301:Drivers/STM32L0xx_HAL_Driver/Src/stm32l0xx_hal_uart.c ****        should be aligned on a u16 frontier, as data to be filled into TDR will be
1302:Drivers/STM32L0xx_HAL_Driver/Src/stm32l0xx_hal_uart.c ****        handled through a u16 cast. */
1303:Drivers/STM32L0xx_HAL_Driver/Src/stm32l0xx_hal_uart.c ****     if ((huart->Init.WordLength == UART_WORDLENGTH_9B) && (huart->Init.Parity == UART_PARITY_NONE))
 1470              		.loc 1 1303 21
 1471 002a FB68     		ldr	r3, [r7, #12]
 1472 002c 9A68     		ldr	r2, [r3, #8]
 1473              		.loc 1 1303 8
 1474 002e 8023     		movs	r3, #128
 1475 0030 5B01     		lsls	r3, r3, #5
 1476 0032 9A42     		cmp	r2, r3
 1477 0034 09D1     		bne	.L84
 1478              		.loc 1 1303 71 discriminator 1
 1479 0036 FB68     		ldr	r3, [r7, #12]
 1480 0038 1B69     		ldr	r3, [r3, #16]
 1481              		.loc 1 1303 56 discriminator 1
 1482 003a 002B     		cmp	r3, #0
 1483 003c 05D1     		bne	.L84
1304:Drivers/STM32L0xx_HAL_Driver/Src/stm32l0xx_hal_uart.c ****     {
1305:Drivers/STM32L0xx_HAL_Driver/Src/stm32l0xx_hal_uart.c ****       if ((((uint32_t)pData) & 1U) != 0U)
 1484              		.loc 1 1305 13
 1485 003e BB68     		ldr	r3, [r7, #8]
 1486              		.loc 1 1305 30
 1487 0040 0122     		movs	r2, #1
 1488 0042 1340     		ands	r3, r2
 1489              		.loc 1 1305 10
 1490 0044 01D0     		beq	.L84
1306:Drivers/STM32L0xx_HAL_Driver/Src/stm32l0xx_hal_uart.c ****       {
1307:Drivers/STM32L0xx_HAL_Driver/Src/stm32l0xx_hal_uart.c ****         return  HAL_ERROR;
 1491              		.loc 1 1307 17
 1492 0046 0123     		movs	r3, #1
 1493 0048 52E0     		b	.L83
 1494              	.L84:
1308:Drivers/STM32L0xx_HAL_Driver/Src/stm32l0xx_hal_uart.c ****       }
1309:Drivers/STM32L0xx_HAL_Driver/Src/stm32l0xx_hal_uart.c ****     }
1310:Drivers/STM32L0xx_HAL_Driver/Src/stm32l0xx_hal_uart.c **** 
1311:Drivers/STM32L0xx_HAL_Driver/Src/stm32l0xx_hal_uart.c ****     __HAL_LOCK(huart);
 1495              		.loc 1 1311 5
 1496 004a FB68     		ldr	r3, [r7, #12]
 1497 004c 7422     		movs	r2, #116
ARM GAS  C:\Users\lidka\AppData\Local\Temp\ccqOATUZ.s 			page 50


 1498 004e 9B5C     		ldrb	r3, [r3, r2]
 1499 0050 012B     		cmp	r3, #1
 1500 0052 01D1     		bne	.L85
 1501              		.loc 1 1311 5 is_stmt 0 discriminator 1
 1502 0054 0223     		movs	r3, #2
 1503 0056 4BE0     		b	.L83
 1504              	.L85:
 1505              		.loc 1 1311 5 discriminator 2
 1506 0058 FB68     		ldr	r3, [r7, #12]
 1507 005a 7422     		movs	r2, #116
 1508 005c 0121     		movs	r1, #1
 1509 005e 9954     		strb	r1, [r3, r2]
1312:Drivers/STM32L0xx_HAL_Driver/Src/stm32l0xx_hal_uart.c **** 
1313:Drivers/STM32L0xx_HAL_Driver/Src/stm32l0xx_hal_uart.c ****     huart->pTxBuffPtr  = pData;
 1510              		.loc 1 1313 24 is_stmt 1 discriminator 2
 1511 0060 FB68     		ldr	r3, [r7, #12]
 1512 0062 BA68     		ldr	r2, [r7, #8]
 1513 0064 DA64     		str	r2, [r3, #76]
1314:Drivers/STM32L0xx_HAL_Driver/Src/stm32l0xx_hal_uart.c ****     huart->TxXferSize  = Size;
 1514              		.loc 1 1314 24 discriminator 2
 1515 0066 FB68     		ldr	r3, [r7, #12]
 1516 0068 BA1D     		adds	r2, r7, #6
 1517 006a 5021     		movs	r1, #80
 1518 006c 1288     		ldrh	r2, [r2]
 1519 006e 5A52     		strh	r2, [r3, r1]
1315:Drivers/STM32L0xx_HAL_Driver/Src/stm32l0xx_hal_uart.c ****     huart->TxXferCount = Size;
 1520              		.loc 1 1315 24 discriminator 2
 1521 0070 FB68     		ldr	r3, [r7, #12]
 1522 0072 BA1D     		adds	r2, r7, #6
 1523 0074 5221     		movs	r1, #82
 1524 0076 1288     		ldrh	r2, [r2]
 1525 0078 5A52     		strh	r2, [r3, r1]
1316:Drivers/STM32L0xx_HAL_Driver/Src/stm32l0xx_hal_uart.c ****     huart->TxISR       = NULL;
 1526              		.loc 1 1316 24 discriminator 2
 1527 007a FB68     		ldr	r3, [r7, #12]
 1528 007c 0022     		movs	r2, #0
 1529 007e 9A66     		str	r2, [r3, #104]
1317:Drivers/STM32L0xx_HAL_Driver/Src/stm32l0xx_hal_uart.c **** 
1318:Drivers/STM32L0xx_HAL_Driver/Src/stm32l0xx_hal_uart.c ****     huart->ErrorCode = HAL_UART_ERROR_NONE;
 1530              		.loc 1 1318 22 discriminator 2
 1531 0080 FB68     		ldr	r3, [r7, #12]
 1532 0082 8022     		movs	r2, #128
 1533 0084 0021     		movs	r1, #0
 1534 0086 9950     		str	r1, [r3, r2]
1319:Drivers/STM32L0xx_HAL_Driver/Src/stm32l0xx_hal_uart.c ****     huart->gState = HAL_UART_STATE_BUSY_TX;
 1535              		.loc 1 1319 19 discriminator 2
 1536 0088 FB68     		ldr	r3, [r7, #12]
 1537 008a 2122     		movs	r2, #33
 1538 008c 9A67     		str	r2, [r3, #120]
1320:Drivers/STM32L0xx_HAL_Driver/Src/stm32l0xx_hal_uart.c **** 
1321:Drivers/STM32L0xx_HAL_Driver/Src/stm32l0xx_hal_uart.c ****     /* Set the Tx ISR function pointer according to the data word length */
1322:Drivers/STM32L0xx_HAL_Driver/Src/stm32l0xx_hal_uart.c ****     if ((huart->Init.WordLength == UART_WORDLENGTH_9B) && (huart->Init.Parity == UART_PARITY_NONE))
 1539              		.loc 1 1322 21 discriminator 2
 1540 008e FB68     		ldr	r3, [r7, #12]
 1541 0090 9A68     		ldr	r2, [r3, #8]
 1542              		.loc 1 1322 8 discriminator 2
 1543 0092 8023     		movs	r3, #128
ARM GAS  C:\Users\lidka\AppData\Local\Temp\ccqOATUZ.s 			page 51


 1544 0094 5B01     		lsls	r3, r3, #5
 1545 0096 9A42     		cmp	r2, r3
 1546 0098 07D1     		bne	.L86
 1547              		.loc 1 1322 71 discriminator 1
 1548 009a FB68     		ldr	r3, [r7, #12]
 1549 009c 1B69     		ldr	r3, [r3, #16]
 1550              		.loc 1 1322 56 discriminator 1
 1551 009e 002B     		cmp	r3, #0
 1552 00a0 03D1     		bne	.L86
1323:Drivers/STM32L0xx_HAL_Driver/Src/stm32l0xx_hal_uart.c ****     {
1324:Drivers/STM32L0xx_HAL_Driver/Src/stm32l0xx_hal_uart.c ****       huart->TxISR = UART_TxISR_16BIT;
 1553              		.loc 1 1324 20
 1554 00a2 FB68     		ldr	r3, [r7, #12]
 1555 00a4 144A     		ldr	r2, .L89
 1556 00a6 9A66     		str	r2, [r3, #104]
 1557 00a8 02E0     		b	.L87
 1558              	.L86:
1325:Drivers/STM32L0xx_HAL_Driver/Src/stm32l0xx_hal_uart.c ****     }
1326:Drivers/STM32L0xx_HAL_Driver/Src/stm32l0xx_hal_uart.c ****     else
1327:Drivers/STM32L0xx_HAL_Driver/Src/stm32l0xx_hal_uart.c ****     {
1328:Drivers/STM32L0xx_HAL_Driver/Src/stm32l0xx_hal_uart.c ****       huart->TxISR = UART_TxISR_8BIT;
 1559              		.loc 1 1328 20
 1560 00aa FB68     		ldr	r3, [r7, #12]
 1561 00ac 134A     		ldr	r2, .L89+4
 1562 00ae 9A66     		str	r2, [r3, #104]
 1563              	.L87:
1329:Drivers/STM32L0xx_HAL_Driver/Src/stm32l0xx_hal_uart.c ****     }
1330:Drivers/STM32L0xx_HAL_Driver/Src/stm32l0xx_hal_uart.c **** 
1331:Drivers/STM32L0xx_HAL_Driver/Src/stm32l0xx_hal_uart.c ****     __HAL_UNLOCK(huart);
 1564              		.loc 1 1331 5
 1565 00b0 FB68     		ldr	r3, [r7, #12]
 1566 00b2 7422     		movs	r2, #116
 1567 00b4 0021     		movs	r1, #0
 1568 00b6 9954     		strb	r1, [r3, r2]
 1569              	.LBB564:
 1570              	.LBB565:
 1571              	.LBB566:
 1572              		.file 2 "Drivers/CMSIS/Include/cmsis_gcc.h"
   1:Drivers/CMSIS/Include/cmsis_gcc.h **** /**************************************************************************//**
   2:Drivers/CMSIS/Include/cmsis_gcc.h ****  * @file     cmsis_gcc.h
   3:Drivers/CMSIS/Include/cmsis_gcc.h ****  * @brief    CMSIS compiler GCC header file
   4:Drivers/CMSIS/Include/cmsis_gcc.h ****  * @version  V5.0.4
   5:Drivers/CMSIS/Include/cmsis_gcc.h ****  * @date     09. April 2018
   6:Drivers/CMSIS/Include/cmsis_gcc.h ****  ******************************************************************************/
   7:Drivers/CMSIS/Include/cmsis_gcc.h **** /*
   8:Drivers/CMSIS/Include/cmsis_gcc.h ****  * Copyright (c) 2009-2018 Arm Limited. All rights reserved.
   9:Drivers/CMSIS/Include/cmsis_gcc.h ****  *
  10:Drivers/CMSIS/Include/cmsis_gcc.h ****  * SPDX-License-Identifier: Apache-2.0
  11:Drivers/CMSIS/Include/cmsis_gcc.h ****  *
  12:Drivers/CMSIS/Include/cmsis_gcc.h ****  * Licensed under the Apache License, Version 2.0 (the License); you may
  13:Drivers/CMSIS/Include/cmsis_gcc.h ****  * not use this file except in compliance with the License.
  14:Drivers/CMSIS/Include/cmsis_gcc.h ****  * You may obtain a copy of the License at
  15:Drivers/CMSIS/Include/cmsis_gcc.h ****  *
  16:Drivers/CMSIS/Include/cmsis_gcc.h ****  * www.apache.org/licenses/LICENSE-2.0
  17:Drivers/CMSIS/Include/cmsis_gcc.h ****  *
  18:Drivers/CMSIS/Include/cmsis_gcc.h ****  * Unless required by applicable law or agreed to in writing, software
  19:Drivers/CMSIS/Include/cmsis_gcc.h ****  * distributed under the License is distributed on an AS IS BASIS, WITHOUT
ARM GAS  C:\Users\lidka\AppData\Local\Temp\ccqOATUZ.s 			page 52


  20:Drivers/CMSIS/Include/cmsis_gcc.h ****  * WARRANTIES OR CONDITIONS OF ANY KIND, either express or implied.
  21:Drivers/CMSIS/Include/cmsis_gcc.h ****  * See the License for the specific language governing permissions and
  22:Drivers/CMSIS/Include/cmsis_gcc.h ****  * limitations under the License.
  23:Drivers/CMSIS/Include/cmsis_gcc.h ****  */
  24:Drivers/CMSIS/Include/cmsis_gcc.h **** 
  25:Drivers/CMSIS/Include/cmsis_gcc.h **** #ifndef __CMSIS_GCC_H
  26:Drivers/CMSIS/Include/cmsis_gcc.h **** #define __CMSIS_GCC_H
  27:Drivers/CMSIS/Include/cmsis_gcc.h **** 
  28:Drivers/CMSIS/Include/cmsis_gcc.h **** /* ignore some GCC warnings */
  29:Drivers/CMSIS/Include/cmsis_gcc.h **** #pragma GCC diagnostic push
  30:Drivers/CMSIS/Include/cmsis_gcc.h **** #pragma GCC diagnostic ignored "-Wsign-conversion"
  31:Drivers/CMSIS/Include/cmsis_gcc.h **** #pragma GCC diagnostic ignored "-Wconversion"
  32:Drivers/CMSIS/Include/cmsis_gcc.h **** #pragma GCC diagnostic ignored "-Wunused-parameter"
  33:Drivers/CMSIS/Include/cmsis_gcc.h **** 
  34:Drivers/CMSIS/Include/cmsis_gcc.h **** /* Fallback for __has_builtin */
  35:Drivers/CMSIS/Include/cmsis_gcc.h **** #ifndef __has_builtin
  36:Drivers/CMSIS/Include/cmsis_gcc.h ****   #define __has_builtin(x) (0)
  37:Drivers/CMSIS/Include/cmsis_gcc.h **** #endif
  38:Drivers/CMSIS/Include/cmsis_gcc.h **** 
  39:Drivers/CMSIS/Include/cmsis_gcc.h **** /* CMSIS compiler specific defines */
  40:Drivers/CMSIS/Include/cmsis_gcc.h **** #ifndef   __ASM
  41:Drivers/CMSIS/Include/cmsis_gcc.h ****   #define __ASM                                  __asm
  42:Drivers/CMSIS/Include/cmsis_gcc.h **** #endif
  43:Drivers/CMSIS/Include/cmsis_gcc.h **** #ifndef   __INLINE
  44:Drivers/CMSIS/Include/cmsis_gcc.h ****   #define __INLINE                               inline
  45:Drivers/CMSIS/Include/cmsis_gcc.h **** #endif
  46:Drivers/CMSIS/Include/cmsis_gcc.h **** #ifndef   __STATIC_INLINE
  47:Drivers/CMSIS/Include/cmsis_gcc.h ****   #define __STATIC_INLINE                        static inline
  48:Drivers/CMSIS/Include/cmsis_gcc.h **** #endif
  49:Drivers/CMSIS/Include/cmsis_gcc.h **** #ifndef   __STATIC_FORCEINLINE                 
  50:Drivers/CMSIS/Include/cmsis_gcc.h ****   #define __STATIC_FORCEINLINE                   __attribute__((always_inline)) static inline
  51:Drivers/CMSIS/Include/cmsis_gcc.h **** #endif                                           
  52:Drivers/CMSIS/Include/cmsis_gcc.h **** #ifndef   __NO_RETURN
  53:Drivers/CMSIS/Include/cmsis_gcc.h ****   #define __NO_RETURN                            __attribute__((__noreturn__))
  54:Drivers/CMSIS/Include/cmsis_gcc.h **** #endif
  55:Drivers/CMSIS/Include/cmsis_gcc.h **** #ifndef   __USED
  56:Drivers/CMSIS/Include/cmsis_gcc.h ****   #define __USED                                 __attribute__((used))
  57:Drivers/CMSIS/Include/cmsis_gcc.h **** #endif
  58:Drivers/CMSIS/Include/cmsis_gcc.h **** #ifndef   __WEAK
  59:Drivers/CMSIS/Include/cmsis_gcc.h ****   #define __WEAK                                 __attribute__((weak))
  60:Drivers/CMSIS/Include/cmsis_gcc.h **** #endif
  61:Drivers/CMSIS/Include/cmsis_gcc.h **** #ifndef   __PACKED
  62:Drivers/CMSIS/Include/cmsis_gcc.h ****   #define __PACKED                               __attribute__((packed, aligned(1)))
  63:Drivers/CMSIS/Include/cmsis_gcc.h **** #endif
  64:Drivers/CMSIS/Include/cmsis_gcc.h **** #ifndef   __PACKED_STRUCT
  65:Drivers/CMSIS/Include/cmsis_gcc.h ****   #define __PACKED_STRUCT                        struct __attribute__((packed, aligned(1)))
  66:Drivers/CMSIS/Include/cmsis_gcc.h **** #endif
  67:Drivers/CMSIS/Include/cmsis_gcc.h **** #ifndef   __PACKED_UNION
  68:Drivers/CMSIS/Include/cmsis_gcc.h ****   #define __PACKED_UNION                         union __attribute__((packed, aligned(1)))
  69:Drivers/CMSIS/Include/cmsis_gcc.h **** #endif
  70:Drivers/CMSIS/Include/cmsis_gcc.h **** #ifndef   __UNALIGNED_UINT32        /* deprecated */
  71:Drivers/CMSIS/Include/cmsis_gcc.h ****   #pragma GCC diagnostic push
  72:Drivers/CMSIS/Include/cmsis_gcc.h ****   #pragma GCC diagnostic ignored "-Wpacked"
  73:Drivers/CMSIS/Include/cmsis_gcc.h ****   #pragma GCC diagnostic ignored "-Wattributes"
  74:Drivers/CMSIS/Include/cmsis_gcc.h ****   struct __attribute__((packed)) T_UINT32 { uint32_t v; };
  75:Drivers/CMSIS/Include/cmsis_gcc.h ****   #pragma GCC diagnostic pop
  76:Drivers/CMSIS/Include/cmsis_gcc.h ****   #define __UNALIGNED_UINT32(x)                  (((struct T_UINT32 *)(x))->v)
ARM GAS  C:\Users\lidka\AppData\Local\Temp\ccqOATUZ.s 			page 53


  77:Drivers/CMSIS/Include/cmsis_gcc.h **** #endif
  78:Drivers/CMSIS/Include/cmsis_gcc.h **** #ifndef   __UNALIGNED_UINT16_WRITE
  79:Drivers/CMSIS/Include/cmsis_gcc.h ****   #pragma GCC diagnostic push
  80:Drivers/CMSIS/Include/cmsis_gcc.h ****   #pragma GCC diagnostic ignored "-Wpacked"
  81:Drivers/CMSIS/Include/cmsis_gcc.h ****   #pragma GCC diagnostic ignored "-Wattributes"
  82:Drivers/CMSIS/Include/cmsis_gcc.h ****   __PACKED_STRUCT T_UINT16_WRITE { uint16_t v; };
  83:Drivers/CMSIS/Include/cmsis_gcc.h ****   #pragma GCC diagnostic pop
  84:Drivers/CMSIS/Include/cmsis_gcc.h ****   #define __UNALIGNED_UINT16_WRITE(addr, val)    (void)((((struct T_UINT16_WRITE *)(void *)(addr))-
  85:Drivers/CMSIS/Include/cmsis_gcc.h **** #endif
  86:Drivers/CMSIS/Include/cmsis_gcc.h **** #ifndef   __UNALIGNED_UINT16_READ
  87:Drivers/CMSIS/Include/cmsis_gcc.h ****   #pragma GCC diagnostic push
  88:Drivers/CMSIS/Include/cmsis_gcc.h ****   #pragma GCC diagnostic ignored "-Wpacked"
  89:Drivers/CMSIS/Include/cmsis_gcc.h ****   #pragma GCC diagnostic ignored "-Wattributes"
  90:Drivers/CMSIS/Include/cmsis_gcc.h ****   __PACKED_STRUCT T_UINT16_READ { uint16_t v; };
  91:Drivers/CMSIS/Include/cmsis_gcc.h ****   #pragma GCC diagnostic pop
  92:Drivers/CMSIS/Include/cmsis_gcc.h ****   #define __UNALIGNED_UINT16_READ(addr)          (((const struct T_UINT16_READ *)(const void *)(add
  93:Drivers/CMSIS/Include/cmsis_gcc.h **** #endif
  94:Drivers/CMSIS/Include/cmsis_gcc.h **** #ifndef   __UNALIGNED_UINT32_WRITE
  95:Drivers/CMSIS/Include/cmsis_gcc.h ****   #pragma GCC diagnostic push
  96:Drivers/CMSIS/Include/cmsis_gcc.h ****   #pragma GCC diagnostic ignored "-Wpacked"
  97:Drivers/CMSIS/Include/cmsis_gcc.h ****   #pragma GCC diagnostic ignored "-Wattributes"
  98:Drivers/CMSIS/Include/cmsis_gcc.h ****   __PACKED_STRUCT T_UINT32_WRITE { uint32_t v; };
  99:Drivers/CMSIS/Include/cmsis_gcc.h ****   #pragma GCC diagnostic pop
 100:Drivers/CMSIS/Include/cmsis_gcc.h ****   #define __UNALIGNED_UINT32_WRITE(addr, val)    (void)((((struct T_UINT32_WRITE *)(void *)(addr))-
 101:Drivers/CMSIS/Include/cmsis_gcc.h **** #endif
 102:Drivers/CMSIS/Include/cmsis_gcc.h **** #ifndef   __UNALIGNED_UINT32_READ
 103:Drivers/CMSIS/Include/cmsis_gcc.h ****   #pragma GCC diagnostic push
 104:Drivers/CMSIS/Include/cmsis_gcc.h ****   #pragma GCC diagnostic ignored "-Wpacked"
 105:Drivers/CMSIS/Include/cmsis_gcc.h ****   #pragma GCC diagnostic ignored "-Wattributes"
 106:Drivers/CMSIS/Include/cmsis_gcc.h ****   __PACKED_STRUCT T_UINT32_READ { uint32_t v; };
 107:Drivers/CMSIS/Include/cmsis_gcc.h ****   #pragma GCC diagnostic pop
 108:Drivers/CMSIS/Include/cmsis_gcc.h ****   #define __UNALIGNED_UINT32_READ(addr)          (((const struct T_UINT32_READ *)(const void *)(add
 109:Drivers/CMSIS/Include/cmsis_gcc.h **** #endif
 110:Drivers/CMSIS/Include/cmsis_gcc.h **** #ifndef   __ALIGNED
 111:Drivers/CMSIS/Include/cmsis_gcc.h ****   #define __ALIGNED(x)                           __attribute__((aligned(x)))
 112:Drivers/CMSIS/Include/cmsis_gcc.h **** #endif
 113:Drivers/CMSIS/Include/cmsis_gcc.h **** #ifndef   __RESTRICT
 114:Drivers/CMSIS/Include/cmsis_gcc.h ****   #define __RESTRICT                             __restrict
 115:Drivers/CMSIS/Include/cmsis_gcc.h **** #endif
 116:Drivers/CMSIS/Include/cmsis_gcc.h **** 
 117:Drivers/CMSIS/Include/cmsis_gcc.h **** 
 118:Drivers/CMSIS/Include/cmsis_gcc.h **** /* ###########################  Core Function Access  ########################### */
 119:Drivers/CMSIS/Include/cmsis_gcc.h **** /** \ingroup  CMSIS_Core_FunctionInterface
 120:Drivers/CMSIS/Include/cmsis_gcc.h ****     \defgroup CMSIS_Core_RegAccFunctions CMSIS Core Register Access Functions
 121:Drivers/CMSIS/Include/cmsis_gcc.h ****   @{
 122:Drivers/CMSIS/Include/cmsis_gcc.h ****  */
 123:Drivers/CMSIS/Include/cmsis_gcc.h **** 
 124:Drivers/CMSIS/Include/cmsis_gcc.h **** /**
 125:Drivers/CMSIS/Include/cmsis_gcc.h ****   \brief   Enable IRQ Interrupts
 126:Drivers/CMSIS/Include/cmsis_gcc.h ****   \details Enables IRQ interrupts by clearing the I-bit in the CPSR.
 127:Drivers/CMSIS/Include/cmsis_gcc.h ****            Can only be executed in Privileged modes.
 128:Drivers/CMSIS/Include/cmsis_gcc.h ****  */
 129:Drivers/CMSIS/Include/cmsis_gcc.h **** __STATIC_FORCEINLINE void __enable_irq(void)
 130:Drivers/CMSIS/Include/cmsis_gcc.h **** {
 131:Drivers/CMSIS/Include/cmsis_gcc.h ****   __ASM volatile ("cpsie i" : : : "memory");
 132:Drivers/CMSIS/Include/cmsis_gcc.h **** }
 133:Drivers/CMSIS/Include/cmsis_gcc.h **** 
ARM GAS  C:\Users\lidka\AppData\Local\Temp\ccqOATUZ.s 			page 54


 134:Drivers/CMSIS/Include/cmsis_gcc.h **** 
 135:Drivers/CMSIS/Include/cmsis_gcc.h **** /**
 136:Drivers/CMSIS/Include/cmsis_gcc.h ****   \brief   Disable IRQ Interrupts
 137:Drivers/CMSIS/Include/cmsis_gcc.h ****   \details Disables IRQ interrupts by setting the I-bit in the CPSR.
 138:Drivers/CMSIS/Include/cmsis_gcc.h ****            Can only be executed in Privileged modes.
 139:Drivers/CMSIS/Include/cmsis_gcc.h ****  */
 140:Drivers/CMSIS/Include/cmsis_gcc.h **** __STATIC_FORCEINLINE void __disable_irq(void)
 141:Drivers/CMSIS/Include/cmsis_gcc.h **** {
 142:Drivers/CMSIS/Include/cmsis_gcc.h ****   __ASM volatile ("cpsid i" : : : "memory");
 143:Drivers/CMSIS/Include/cmsis_gcc.h **** }
 144:Drivers/CMSIS/Include/cmsis_gcc.h **** 
 145:Drivers/CMSIS/Include/cmsis_gcc.h **** 
 146:Drivers/CMSIS/Include/cmsis_gcc.h **** /**
 147:Drivers/CMSIS/Include/cmsis_gcc.h ****   \brief   Get Control Register
 148:Drivers/CMSIS/Include/cmsis_gcc.h ****   \details Returns the content of the Control Register.
 149:Drivers/CMSIS/Include/cmsis_gcc.h ****   \return               Control Register value
 150:Drivers/CMSIS/Include/cmsis_gcc.h ****  */
 151:Drivers/CMSIS/Include/cmsis_gcc.h **** __STATIC_FORCEINLINE uint32_t __get_CONTROL(void)
 152:Drivers/CMSIS/Include/cmsis_gcc.h **** {
 153:Drivers/CMSIS/Include/cmsis_gcc.h ****   uint32_t result;
 154:Drivers/CMSIS/Include/cmsis_gcc.h **** 
 155:Drivers/CMSIS/Include/cmsis_gcc.h ****   __ASM volatile ("MRS %0, control" : "=r" (result) );
 156:Drivers/CMSIS/Include/cmsis_gcc.h ****   return(result);
 157:Drivers/CMSIS/Include/cmsis_gcc.h **** }
 158:Drivers/CMSIS/Include/cmsis_gcc.h **** 
 159:Drivers/CMSIS/Include/cmsis_gcc.h **** 
 160:Drivers/CMSIS/Include/cmsis_gcc.h **** #if (defined (__ARM_FEATURE_CMSE ) && (__ARM_FEATURE_CMSE == 3))
 161:Drivers/CMSIS/Include/cmsis_gcc.h **** /**
 162:Drivers/CMSIS/Include/cmsis_gcc.h ****   \brief   Get Control Register (non-secure)
 163:Drivers/CMSIS/Include/cmsis_gcc.h ****   \details Returns the content of the non-secure Control Register when in secure mode.
 164:Drivers/CMSIS/Include/cmsis_gcc.h ****   \return               non-secure Control Register value
 165:Drivers/CMSIS/Include/cmsis_gcc.h ****  */
 166:Drivers/CMSIS/Include/cmsis_gcc.h **** __STATIC_FORCEINLINE uint32_t __TZ_get_CONTROL_NS(void)
 167:Drivers/CMSIS/Include/cmsis_gcc.h **** {
 168:Drivers/CMSIS/Include/cmsis_gcc.h ****   uint32_t result;
 169:Drivers/CMSIS/Include/cmsis_gcc.h **** 
 170:Drivers/CMSIS/Include/cmsis_gcc.h ****   __ASM volatile ("MRS %0, control_ns" : "=r" (result) );
 171:Drivers/CMSIS/Include/cmsis_gcc.h ****   return(result);
 172:Drivers/CMSIS/Include/cmsis_gcc.h **** }
 173:Drivers/CMSIS/Include/cmsis_gcc.h **** #endif
 174:Drivers/CMSIS/Include/cmsis_gcc.h **** 
 175:Drivers/CMSIS/Include/cmsis_gcc.h **** 
 176:Drivers/CMSIS/Include/cmsis_gcc.h **** /**
 177:Drivers/CMSIS/Include/cmsis_gcc.h ****   \brief   Set Control Register
 178:Drivers/CMSIS/Include/cmsis_gcc.h ****   \details Writes the given value to the Control Register.
 179:Drivers/CMSIS/Include/cmsis_gcc.h ****   \param [in]    control  Control Register value to set
 180:Drivers/CMSIS/Include/cmsis_gcc.h ****  */
 181:Drivers/CMSIS/Include/cmsis_gcc.h **** __STATIC_FORCEINLINE void __set_CONTROL(uint32_t control)
 182:Drivers/CMSIS/Include/cmsis_gcc.h **** {
 183:Drivers/CMSIS/Include/cmsis_gcc.h ****   __ASM volatile ("MSR control, %0" : : "r" (control) : "memory");
 184:Drivers/CMSIS/Include/cmsis_gcc.h **** }
 185:Drivers/CMSIS/Include/cmsis_gcc.h **** 
 186:Drivers/CMSIS/Include/cmsis_gcc.h **** 
 187:Drivers/CMSIS/Include/cmsis_gcc.h **** #if (defined (__ARM_FEATURE_CMSE ) && (__ARM_FEATURE_CMSE == 3))
 188:Drivers/CMSIS/Include/cmsis_gcc.h **** /**
 189:Drivers/CMSIS/Include/cmsis_gcc.h ****   \brief   Set Control Register (non-secure)
 190:Drivers/CMSIS/Include/cmsis_gcc.h ****   \details Writes the given value to the non-secure Control Register when in secure state.
ARM GAS  C:\Users\lidka\AppData\Local\Temp\ccqOATUZ.s 			page 55


 191:Drivers/CMSIS/Include/cmsis_gcc.h ****   \param [in]    control  Control Register value to set
 192:Drivers/CMSIS/Include/cmsis_gcc.h ****  */
 193:Drivers/CMSIS/Include/cmsis_gcc.h **** __STATIC_FORCEINLINE void __TZ_set_CONTROL_NS(uint32_t control)
 194:Drivers/CMSIS/Include/cmsis_gcc.h **** {
 195:Drivers/CMSIS/Include/cmsis_gcc.h ****   __ASM volatile ("MSR control_ns, %0" : : "r" (control) : "memory");
 196:Drivers/CMSIS/Include/cmsis_gcc.h **** }
 197:Drivers/CMSIS/Include/cmsis_gcc.h **** #endif
 198:Drivers/CMSIS/Include/cmsis_gcc.h **** 
 199:Drivers/CMSIS/Include/cmsis_gcc.h **** 
 200:Drivers/CMSIS/Include/cmsis_gcc.h **** /**
 201:Drivers/CMSIS/Include/cmsis_gcc.h ****   \brief   Get IPSR Register
 202:Drivers/CMSIS/Include/cmsis_gcc.h ****   \details Returns the content of the IPSR Register.
 203:Drivers/CMSIS/Include/cmsis_gcc.h ****   \return               IPSR Register value
 204:Drivers/CMSIS/Include/cmsis_gcc.h ****  */
 205:Drivers/CMSIS/Include/cmsis_gcc.h **** __STATIC_FORCEINLINE uint32_t __get_IPSR(void)
 206:Drivers/CMSIS/Include/cmsis_gcc.h **** {
 207:Drivers/CMSIS/Include/cmsis_gcc.h ****   uint32_t result;
 208:Drivers/CMSIS/Include/cmsis_gcc.h **** 
 209:Drivers/CMSIS/Include/cmsis_gcc.h ****   __ASM volatile ("MRS %0, ipsr" : "=r" (result) );
 210:Drivers/CMSIS/Include/cmsis_gcc.h ****   return(result);
 211:Drivers/CMSIS/Include/cmsis_gcc.h **** }
 212:Drivers/CMSIS/Include/cmsis_gcc.h **** 
 213:Drivers/CMSIS/Include/cmsis_gcc.h **** 
 214:Drivers/CMSIS/Include/cmsis_gcc.h **** /**
 215:Drivers/CMSIS/Include/cmsis_gcc.h ****   \brief   Get APSR Register
 216:Drivers/CMSIS/Include/cmsis_gcc.h ****   \details Returns the content of the APSR Register.
 217:Drivers/CMSIS/Include/cmsis_gcc.h ****   \return               APSR Register value
 218:Drivers/CMSIS/Include/cmsis_gcc.h ****  */
 219:Drivers/CMSIS/Include/cmsis_gcc.h **** __STATIC_FORCEINLINE uint32_t __get_APSR(void)
 220:Drivers/CMSIS/Include/cmsis_gcc.h **** {
 221:Drivers/CMSIS/Include/cmsis_gcc.h ****   uint32_t result;
 222:Drivers/CMSIS/Include/cmsis_gcc.h **** 
 223:Drivers/CMSIS/Include/cmsis_gcc.h ****   __ASM volatile ("MRS %0, apsr" : "=r" (result) );
 224:Drivers/CMSIS/Include/cmsis_gcc.h ****   return(result);
 225:Drivers/CMSIS/Include/cmsis_gcc.h **** }
 226:Drivers/CMSIS/Include/cmsis_gcc.h **** 
 227:Drivers/CMSIS/Include/cmsis_gcc.h **** 
 228:Drivers/CMSIS/Include/cmsis_gcc.h **** /**
 229:Drivers/CMSIS/Include/cmsis_gcc.h ****   \brief   Get xPSR Register
 230:Drivers/CMSIS/Include/cmsis_gcc.h ****   \details Returns the content of the xPSR Register.
 231:Drivers/CMSIS/Include/cmsis_gcc.h ****   \return               xPSR Register value
 232:Drivers/CMSIS/Include/cmsis_gcc.h ****  */
 233:Drivers/CMSIS/Include/cmsis_gcc.h **** __STATIC_FORCEINLINE uint32_t __get_xPSR(void)
 234:Drivers/CMSIS/Include/cmsis_gcc.h **** {
 235:Drivers/CMSIS/Include/cmsis_gcc.h ****   uint32_t result;
 236:Drivers/CMSIS/Include/cmsis_gcc.h **** 
 237:Drivers/CMSIS/Include/cmsis_gcc.h ****   __ASM volatile ("MRS %0, xpsr" : "=r" (result) );
 238:Drivers/CMSIS/Include/cmsis_gcc.h ****   return(result);
 239:Drivers/CMSIS/Include/cmsis_gcc.h **** }
 240:Drivers/CMSIS/Include/cmsis_gcc.h **** 
 241:Drivers/CMSIS/Include/cmsis_gcc.h **** 
 242:Drivers/CMSIS/Include/cmsis_gcc.h **** /**
 243:Drivers/CMSIS/Include/cmsis_gcc.h ****   \brief   Get Process Stack Pointer
 244:Drivers/CMSIS/Include/cmsis_gcc.h ****   \details Returns the current value of the Process Stack Pointer (PSP).
 245:Drivers/CMSIS/Include/cmsis_gcc.h ****   \return               PSP Register value
 246:Drivers/CMSIS/Include/cmsis_gcc.h ****  */
 247:Drivers/CMSIS/Include/cmsis_gcc.h **** __STATIC_FORCEINLINE uint32_t __get_PSP(void)
ARM GAS  C:\Users\lidka\AppData\Local\Temp\ccqOATUZ.s 			page 56


 248:Drivers/CMSIS/Include/cmsis_gcc.h **** {
 249:Drivers/CMSIS/Include/cmsis_gcc.h ****   uint32_t result;
 250:Drivers/CMSIS/Include/cmsis_gcc.h **** 
 251:Drivers/CMSIS/Include/cmsis_gcc.h ****   __ASM volatile ("MRS %0, psp"  : "=r" (result) );
 252:Drivers/CMSIS/Include/cmsis_gcc.h ****   return(result);
 253:Drivers/CMSIS/Include/cmsis_gcc.h **** }
 254:Drivers/CMSIS/Include/cmsis_gcc.h **** 
 255:Drivers/CMSIS/Include/cmsis_gcc.h **** 
 256:Drivers/CMSIS/Include/cmsis_gcc.h **** #if (defined (__ARM_FEATURE_CMSE ) && (__ARM_FEATURE_CMSE == 3))
 257:Drivers/CMSIS/Include/cmsis_gcc.h **** /**
 258:Drivers/CMSIS/Include/cmsis_gcc.h ****   \brief   Get Process Stack Pointer (non-secure)
 259:Drivers/CMSIS/Include/cmsis_gcc.h ****   \details Returns the current value of the non-secure Process Stack Pointer (PSP) when in secure s
 260:Drivers/CMSIS/Include/cmsis_gcc.h ****   \return               PSP Register value
 261:Drivers/CMSIS/Include/cmsis_gcc.h ****  */
 262:Drivers/CMSIS/Include/cmsis_gcc.h **** __STATIC_FORCEINLINE uint32_t __TZ_get_PSP_NS(void)
 263:Drivers/CMSIS/Include/cmsis_gcc.h **** {
 264:Drivers/CMSIS/Include/cmsis_gcc.h ****   uint32_t result;
 265:Drivers/CMSIS/Include/cmsis_gcc.h **** 
 266:Drivers/CMSIS/Include/cmsis_gcc.h ****   __ASM volatile ("MRS %0, psp_ns"  : "=r" (result) );
 267:Drivers/CMSIS/Include/cmsis_gcc.h ****   return(result);
 268:Drivers/CMSIS/Include/cmsis_gcc.h **** }
 269:Drivers/CMSIS/Include/cmsis_gcc.h **** #endif
 270:Drivers/CMSIS/Include/cmsis_gcc.h **** 
 271:Drivers/CMSIS/Include/cmsis_gcc.h **** 
 272:Drivers/CMSIS/Include/cmsis_gcc.h **** /**
 273:Drivers/CMSIS/Include/cmsis_gcc.h ****   \brief   Set Process Stack Pointer
 274:Drivers/CMSIS/Include/cmsis_gcc.h ****   \details Assigns the given value to the Process Stack Pointer (PSP).
 275:Drivers/CMSIS/Include/cmsis_gcc.h ****   \param [in]    topOfProcStack  Process Stack Pointer value to set
 276:Drivers/CMSIS/Include/cmsis_gcc.h ****  */
 277:Drivers/CMSIS/Include/cmsis_gcc.h **** __STATIC_FORCEINLINE void __set_PSP(uint32_t topOfProcStack)
 278:Drivers/CMSIS/Include/cmsis_gcc.h **** {
 279:Drivers/CMSIS/Include/cmsis_gcc.h ****   __ASM volatile ("MSR psp, %0" : : "r" (topOfProcStack) : );
 280:Drivers/CMSIS/Include/cmsis_gcc.h **** }
 281:Drivers/CMSIS/Include/cmsis_gcc.h **** 
 282:Drivers/CMSIS/Include/cmsis_gcc.h **** 
 283:Drivers/CMSIS/Include/cmsis_gcc.h **** #if (defined (__ARM_FEATURE_CMSE ) && (__ARM_FEATURE_CMSE == 3))
 284:Drivers/CMSIS/Include/cmsis_gcc.h **** /**
 285:Drivers/CMSIS/Include/cmsis_gcc.h ****   \brief   Set Process Stack Pointer (non-secure)
 286:Drivers/CMSIS/Include/cmsis_gcc.h ****   \details Assigns the given value to the non-secure Process Stack Pointer (PSP) when in secure sta
 287:Drivers/CMSIS/Include/cmsis_gcc.h ****   \param [in]    topOfProcStack  Process Stack Pointer value to set
 288:Drivers/CMSIS/Include/cmsis_gcc.h ****  */
 289:Drivers/CMSIS/Include/cmsis_gcc.h **** __STATIC_FORCEINLINE void __TZ_set_PSP_NS(uint32_t topOfProcStack)
 290:Drivers/CMSIS/Include/cmsis_gcc.h **** {
 291:Drivers/CMSIS/Include/cmsis_gcc.h ****   __ASM volatile ("MSR psp_ns, %0" : : "r" (topOfProcStack) : );
 292:Drivers/CMSIS/Include/cmsis_gcc.h **** }
 293:Drivers/CMSIS/Include/cmsis_gcc.h **** #endif
 294:Drivers/CMSIS/Include/cmsis_gcc.h **** 
 295:Drivers/CMSIS/Include/cmsis_gcc.h **** 
 296:Drivers/CMSIS/Include/cmsis_gcc.h **** /**
 297:Drivers/CMSIS/Include/cmsis_gcc.h ****   \brief   Get Main Stack Pointer
 298:Drivers/CMSIS/Include/cmsis_gcc.h ****   \details Returns the current value of the Main Stack Pointer (MSP).
 299:Drivers/CMSIS/Include/cmsis_gcc.h ****   \return               MSP Register value
 300:Drivers/CMSIS/Include/cmsis_gcc.h ****  */
 301:Drivers/CMSIS/Include/cmsis_gcc.h **** __STATIC_FORCEINLINE uint32_t __get_MSP(void)
 302:Drivers/CMSIS/Include/cmsis_gcc.h **** {
 303:Drivers/CMSIS/Include/cmsis_gcc.h ****   uint32_t result;
 304:Drivers/CMSIS/Include/cmsis_gcc.h **** 
ARM GAS  C:\Users\lidka\AppData\Local\Temp\ccqOATUZ.s 			page 57


 305:Drivers/CMSIS/Include/cmsis_gcc.h ****   __ASM volatile ("MRS %0, msp" : "=r" (result) );
 306:Drivers/CMSIS/Include/cmsis_gcc.h ****   return(result);
 307:Drivers/CMSIS/Include/cmsis_gcc.h **** }
 308:Drivers/CMSIS/Include/cmsis_gcc.h **** 
 309:Drivers/CMSIS/Include/cmsis_gcc.h **** 
 310:Drivers/CMSIS/Include/cmsis_gcc.h **** #if (defined (__ARM_FEATURE_CMSE ) && (__ARM_FEATURE_CMSE == 3))
 311:Drivers/CMSIS/Include/cmsis_gcc.h **** /**
 312:Drivers/CMSIS/Include/cmsis_gcc.h ****   \brief   Get Main Stack Pointer (non-secure)
 313:Drivers/CMSIS/Include/cmsis_gcc.h ****   \details Returns the current value of the non-secure Main Stack Pointer (MSP) when in secure stat
 314:Drivers/CMSIS/Include/cmsis_gcc.h ****   \return               MSP Register value
 315:Drivers/CMSIS/Include/cmsis_gcc.h ****  */
 316:Drivers/CMSIS/Include/cmsis_gcc.h **** __STATIC_FORCEINLINE uint32_t __TZ_get_MSP_NS(void)
 317:Drivers/CMSIS/Include/cmsis_gcc.h **** {
 318:Drivers/CMSIS/Include/cmsis_gcc.h ****   uint32_t result;
 319:Drivers/CMSIS/Include/cmsis_gcc.h **** 
 320:Drivers/CMSIS/Include/cmsis_gcc.h ****   __ASM volatile ("MRS %0, msp_ns" : "=r" (result) );
 321:Drivers/CMSIS/Include/cmsis_gcc.h ****   return(result);
 322:Drivers/CMSIS/Include/cmsis_gcc.h **** }
 323:Drivers/CMSIS/Include/cmsis_gcc.h **** #endif
 324:Drivers/CMSIS/Include/cmsis_gcc.h **** 
 325:Drivers/CMSIS/Include/cmsis_gcc.h **** 
 326:Drivers/CMSIS/Include/cmsis_gcc.h **** /**
 327:Drivers/CMSIS/Include/cmsis_gcc.h ****   \brief   Set Main Stack Pointer
 328:Drivers/CMSIS/Include/cmsis_gcc.h ****   \details Assigns the given value to the Main Stack Pointer (MSP).
 329:Drivers/CMSIS/Include/cmsis_gcc.h ****   \param [in]    topOfMainStack  Main Stack Pointer value to set
 330:Drivers/CMSIS/Include/cmsis_gcc.h ****  */
 331:Drivers/CMSIS/Include/cmsis_gcc.h **** __STATIC_FORCEINLINE void __set_MSP(uint32_t topOfMainStack)
 332:Drivers/CMSIS/Include/cmsis_gcc.h **** {
 333:Drivers/CMSIS/Include/cmsis_gcc.h ****   __ASM volatile ("MSR msp, %0" : : "r" (topOfMainStack) : );
 334:Drivers/CMSIS/Include/cmsis_gcc.h **** }
 335:Drivers/CMSIS/Include/cmsis_gcc.h **** 
 336:Drivers/CMSIS/Include/cmsis_gcc.h **** 
 337:Drivers/CMSIS/Include/cmsis_gcc.h **** #if (defined (__ARM_FEATURE_CMSE ) && (__ARM_FEATURE_CMSE == 3))
 338:Drivers/CMSIS/Include/cmsis_gcc.h **** /**
 339:Drivers/CMSIS/Include/cmsis_gcc.h ****   \brief   Set Main Stack Pointer (non-secure)
 340:Drivers/CMSIS/Include/cmsis_gcc.h ****   \details Assigns the given value to the non-secure Main Stack Pointer (MSP) when in secure state.
 341:Drivers/CMSIS/Include/cmsis_gcc.h ****   \param [in]    topOfMainStack  Main Stack Pointer value to set
 342:Drivers/CMSIS/Include/cmsis_gcc.h ****  */
 343:Drivers/CMSIS/Include/cmsis_gcc.h **** __STATIC_FORCEINLINE void __TZ_set_MSP_NS(uint32_t topOfMainStack)
 344:Drivers/CMSIS/Include/cmsis_gcc.h **** {
 345:Drivers/CMSIS/Include/cmsis_gcc.h ****   __ASM volatile ("MSR msp_ns, %0" : : "r" (topOfMainStack) : );
 346:Drivers/CMSIS/Include/cmsis_gcc.h **** }
 347:Drivers/CMSIS/Include/cmsis_gcc.h **** #endif
 348:Drivers/CMSIS/Include/cmsis_gcc.h **** 
 349:Drivers/CMSIS/Include/cmsis_gcc.h **** 
 350:Drivers/CMSIS/Include/cmsis_gcc.h **** #if (defined (__ARM_FEATURE_CMSE ) && (__ARM_FEATURE_CMSE == 3))
 351:Drivers/CMSIS/Include/cmsis_gcc.h **** /**
 352:Drivers/CMSIS/Include/cmsis_gcc.h ****   \brief   Get Stack Pointer (non-secure)
 353:Drivers/CMSIS/Include/cmsis_gcc.h ****   \details Returns the current value of the non-secure Stack Pointer (SP) when in secure state.
 354:Drivers/CMSIS/Include/cmsis_gcc.h ****   \return               SP Register value
 355:Drivers/CMSIS/Include/cmsis_gcc.h ****  */
 356:Drivers/CMSIS/Include/cmsis_gcc.h **** __STATIC_FORCEINLINE uint32_t __TZ_get_SP_NS(void)
 357:Drivers/CMSIS/Include/cmsis_gcc.h **** {
 358:Drivers/CMSIS/Include/cmsis_gcc.h ****   uint32_t result;
 359:Drivers/CMSIS/Include/cmsis_gcc.h **** 
 360:Drivers/CMSIS/Include/cmsis_gcc.h ****   __ASM volatile ("MRS %0, sp_ns" : "=r" (result) );
 361:Drivers/CMSIS/Include/cmsis_gcc.h ****   return(result);
ARM GAS  C:\Users\lidka\AppData\Local\Temp\ccqOATUZ.s 			page 58


 362:Drivers/CMSIS/Include/cmsis_gcc.h **** }
 363:Drivers/CMSIS/Include/cmsis_gcc.h **** 
 364:Drivers/CMSIS/Include/cmsis_gcc.h **** 
 365:Drivers/CMSIS/Include/cmsis_gcc.h **** /**
 366:Drivers/CMSIS/Include/cmsis_gcc.h ****   \brief   Set Stack Pointer (non-secure)
 367:Drivers/CMSIS/Include/cmsis_gcc.h ****   \details Assigns the given value to the non-secure Stack Pointer (SP) when in secure state.
 368:Drivers/CMSIS/Include/cmsis_gcc.h ****   \param [in]    topOfStack  Stack Pointer value to set
 369:Drivers/CMSIS/Include/cmsis_gcc.h ****  */
 370:Drivers/CMSIS/Include/cmsis_gcc.h **** __STATIC_FORCEINLINE void __TZ_set_SP_NS(uint32_t topOfStack)
 371:Drivers/CMSIS/Include/cmsis_gcc.h **** {
 372:Drivers/CMSIS/Include/cmsis_gcc.h ****   __ASM volatile ("MSR sp_ns, %0" : : "r" (topOfStack) : );
 373:Drivers/CMSIS/Include/cmsis_gcc.h **** }
 374:Drivers/CMSIS/Include/cmsis_gcc.h **** #endif
 375:Drivers/CMSIS/Include/cmsis_gcc.h **** 
 376:Drivers/CMSIS/Include/cmsis_gcc.h **** 
 377:Drivers/CMSIS/Include/cmsis_gcc.h **** /**
 378:Drivers/CMSIS/Include/cmsis_gcc.h ****   \brief   Get Priority Mask
 379:Drivers/CMSIS/Include/cmsis_gcc.h ****   \details Returns the current state of the priority mask bit from the Priority Mask Register.
 380:Drivers/CMSIS/Include/cmsis_gcc.h ****   \return               Priority Mask value
 381:Drivers/CMSIS/Include/cmsis_gcc.h ****  */
 382:Drivers/CMSIS/Include/cmsis_gcc.h **** __STATIC_FORCEINLINE uint32_t __get_PRIMASK(void)
 383:Drivers/CMSIS/Include/cmsis_gcc.h **** {
 384:Drivers/CMSIS/Include/cmsis_gcc.h ****   uint32_t result;
 385:Drivers/CMSIS/Include/cmsis_gcc.h **** 
 386:Drivers/CMSIS/Include/cmsis_gcc.h ****   __ASM volatile ("MRS %0, primask" : "=r" (result) :: "memory");
 1573              		.loc 2 386 3
 1574              		.syntax divided
 1575              	@ 386 "Drivers/CMSIS/Include/cmsis_gcc.h" 1
 1576 00b8 EFF31083 		MRS r3, primask
 1577              	@ 0 "" 2
 1578              		.thumb
 1579              		.syntax unified
 1580 00bc 3B61     		str	r3, [r7, #16]
 387:Drivers/CMSIS/Include/cmsis_gcc.h ****   return(result);
 1581              		.loc 2 387 9
 1582 00be 3B69     		ldr	r3, [r7, #16]
 1583              	.LBE566:
 1584              	.LBE565:
1332:Drivers/STM32L0xx_HAL_Driver/Src/stm32l0xx_hal_uart.c **** 
1333:Drivers/STM32L0xx_HAL_Driver/Src/stm32l0xx_hal_uart.c ****     /* Enable the Transmit Data Register Empty interrupt */
1334:Drivers/STM32L0xx_HAL_Driver/Src/stm32l0xx_hal_uart.c ****     ATOMIC_SET_BIT(huart->Instance->CR1, USART_CR1_TXEIE);
 1585              		.loc 1 1334 5
 1586 00c0 FB61     		str	r3, [r7, #28]
 1587 00c2 0123     		movs	r3, #1
 1588 00c4 7B61     		str	r3, [r7, #20]
 1589              	.LBB567:
 1590              	.LBB568:
 388:Drivers/CMSIS/Include/cmsis_gcc.h **** }
 389:Drivers/CMSIS/Include/cmsis_gcc.h **** 
 390:Drivers/CMSIS/Include/cmsis_gcc.h **** 
 391:Drivers/CMSIS/Include/cmsis_gcc.h **** #if (defined (__ARM_FEATURE_CMSE ) && (__ARM_FEATURE_CMSE == 3))
 392:Drivers/CMSIS/Include/cmsis_gcc.h **** /**
 393:Drivers/CMSIS/Include/cmsis_gcc.h ****   \brief   Get Priority Mask (non-secure)
 394:Drivers/CMSIS/Include/cmsis_gcc.h ****   \details Returns the current state of the non-secure priority mask bit from the Priority Mask Reg
 395:Drivers/CMSIS/Include/cmsis_gcc.h ****   \return               Priority Mask value
 396:Drivers/CMSIS/Include/cmsis_gcc.h ****  */
 397:Drivers/CMSIS/Include/cmsis_gcc.h **** __STATIC_FORCEINLINE uint32_t __TZ_get_PRIMASK_NS(void)
ARM GAS  C:\Users\lidka\AppData\Local\Temp\ccqOATUZ.s 			page 59


 398:Drivers/CMSIS/Include/cmsis_gcc.h **** {
 399:Drivers/CMSIS/Include/cmsis_gcc.h ****   uint32_t result;
 400:Drivers/CMSIS/Include/cmsis_gcc.h **** 
 401:Drivers/CMSIS/Include/cmsis_gcc.h ****   __ASM volatile ("MRS %0, primask_ns" : "=r" (result) :: "memory");
 402:Drivers/CMSIS/Include/cmsis_gcc.h ****   return(result);
 403:Drivers/CMSIS/Include/cmsis_gcc.h **** }
 404:Drivers/CMSIS/Include/cmsis_gcc.h **** #endif
 405:Drivers/CMSIS/Include/cmsis_gcc.h **** 
 406:Drivers/CMSIS/Include/cmsis_gcc.h **** 
 407:Drivers/CMSIS/Include/cmsis_gcc.h **** /**
 408:Drivers/CMSIS/Include/cmsis_gcc.h ****   \brief   Set Priority Mask
 409:Drivers/CMSIS/Include/cmsis_gcc.h ****   \details Assigns the given value to the Priority Mask Register.
 410:Drivers/CMSIS/Include/cmsis_gcc.h ****   \param [in]    priMask  Priority Mask
 411:Drivers/CMSIS/Include/cmsis_gcc.h ****  */
 412:Drivers/CMSIS/Include/cmsis_gcc.h **** __STATIC_FORCEINLINE void __set_PRIMASK(uint32_t priMask)
 413:Drivers/CMSIS/Include/cmsis_gcc.h **** {
 414:Drivers/CMSIS/Include/cmsis_gcc.h ****   __ASM volatile ("MSR primask, %0" : : "r" (priMask) : "memory");
 1591              		.loc 2 414 3
 1592 00c6 7B69     		ldr	r3, [r7, #20]
 1593              		.syntax divided
 1594              	@ 414 "Drivers/CMSIS/Include/cmsis_gcc.h" 1
 1595 00c8 83F31088 		MSR primask, r3
 1596              	@ 0 "" 2
 415:Drivers/CMSIS/Include/cmsis_gcc.h **** }
 1597              		.loc 2 415 1
 1598              		.thumb
 1599              		.syntax unified
 1600 00cc C046     		nop
 1601              	.LBE568:
 1602              	.LBE567:
 1603              		.loc 1 1334 5
 1604 00ce FB68     		ldr	r3, [r7, #12]
 1605 00d0 1B68     		ldr	r3, [r3]
 1606 00d2 1A68     		ldr	r2, [r3]
 1607 00d4 FB68     		ldr	r3, [r7, #12]
 1608 00d6 1B68     		ldr	r3, [r3]
 1609 00d8 8021     		movs	r1, #128
 1610 00da 0A43     		orrs	r2, r1
 1611 00dc 1A60     		str	r2, [r3]
 1612 00de FB69     		ldr	r3, [r7, #28]
 1613 00e0 BB61     		str	r3, [r7, #24]
 1614              	.LBB569:
 1615              	.LBB570:
 414:Drivers/CMSIS/Include/cmsis_gcc.h **** }
 1616              		.loc 2 414 3
 1617 00e2 BB69     		ldr	r3, [r7, #24]
 1618              		.syntax divided
 1619              	@ 414 "Drivers/CMSIS/Include/cmsis_gcc.h" 1
 1620 00e4 83F31088 		MSR primask, r3
 1621              	@ 0 "" 2
 1622              		.loc 2 415 1
 1623              		.thumb
 1624              		.syntax unified
 1625 00e8 C046     		nop
 1626              	.LBE570:
 1627              	.LBE569:
 1628              	.LBE564:
ARM GAS  C:\Users\lidka\AppData\Local\Temp\ccqOATUZ.s 			page 60


1335:Drivers/STM32L0xx_HAL_Driver/Src/stm32l0xx_hal_uart.c **** 
1336:Drivers/STM32L0xx_HAL_Driver/Src/stm32l0xx_hal_uart.c ****     return HAL_OK;
 1629              		.loc 1 1336 12
 1630 00ea 0023     		movs	r3, #0
 1631 00ec 00E0     		b	.L83
 1632              	.L80:
1337:Drivers/STM32L0xx_HAL_Driver/Src/stm32l0xx_hal_uart.c ****   }
1338:Drivers/STM32L0xx_HAL_Driver/Src/stm32l0xx_hal_uart.c ****   else
1339:Drivers/STM32L0xx_HAL_Driver/Src/stm32l0xx_hal_uart.c ****   {
1340:Drivers/STM32L0xx_HAL_Driver/Src/stm32l0xx_hal_uart.c ****     return HAL_BUSY;
 1633              		.loc 1 1340 12
 1634 00ee 0223     		movs	r3, #2
 1635              	.L83:
1341:Drivers/STM32L0xx_HAL_Driver/Src/stm32l0xx_hal_uart.c ****   }
1342:Drivers/STM32L0xx_HAL_Driver/Src/stm32l0xx_hal_uart.c **** }
 1636              		.loc 1 1342 1
 1637 00f0 1800     		movs	r0, r3
 1638 00f2 BD46     		mov	sp, r7
 1639 00f4 08B0     		add	sp, sp, #32
 1640              		@ sp needed
 1641 00f6 80BD     		pop	{r7, pc}
 1642              	.L90:
 1643              		.align	2
 1644              	.L89:
 1645 00f8 00000000 		.word	UART_TxISR_16BIT
 1646 00fc 00000000 		.word	UART_TxISR_8BIT
 1647              		.cfi_endproc
 1648              	.LFE56:
 1650              		.section	.text.HAL_UART_Receive_IT,"ax",%progbits
 1651              		.align	1
 1652              		.global	HAL_UART_Receive_IT
 1653              		.syntax unified
 1654              		.code	16
 1655              		.thumb_func
 1657              	HAL_UART_Receive_IT:
 1658              	.LFB57:
1343:Drivers/STM32L0xx_HAL_Driver/Src/stm32l0xx_hal_uart.c **** 
1344:Drivers/STM32L0xx_HAL_Driver/Src/stm32l0xx_hal_uart.c **** /**
1345:Drivers/STM32L0xx_HAL_Driver/Src/stm32l0xx_hal_uart.c ****   * @brief Receive an amount of data in interrupt mode.
1346:Drivers/STM32L0xx_HAL_Driver/Src/stm32l0xx_hal_uart.c ****   * @note   When UART parity is not enabled (PCE = 0), and Word Length is configured to 9 bits (M1-
1347:Drivers/STM32L0xx_HAL_Driver/Src/stm32l0xx_hal_uart.c ****   *         the received data is handled as a set of u16. In this case, Size must indicate the numb
1348:Drivers/STM32L0xx_HAL_Driver/Src/stm32l0xx_hal_uart.c ****   *         of u16 available through pData.
1349:Drivers/STM32L0xx_HAL_Driver/Src/stm32l0xx_hal_uart.c ****   * @note   When UART parity is not enabled (PCE = 0), and Word Length is configured to 9 bits (M1-
1350:Drivers/STM32L0xx_HAL_Driver/Src/stm32l0xx_hal_uart.c ****   *         address of user data buffer for storing data to be received, should be aligned on a hal
1351:Drivers/STM32L0xx_HAL_Driver/Src/stm32l0xx_hal_uart.c ****   *         (16 bits) (as received data will be handled using u16 pointer cast). Depending on compi
1352:Drivers/STM32L0xx_HAL_Driver/Src/stm32l0xx_hal_uart.c ****   *         use of specific alignment compilation directives or pragmas might be required
1353:Drivers/STM32L0xx_HAL_Driver/Src/stm32l0xx_hal_uart.c ****   *         to ensure proper alignment for pData.
1354:Drivers/STM32L0xx_HAL_Driver/Src/stm32l0xx_hal_uart.c ****   * @param huart UART handle.
1355:Drivers/STM32L0xx_HAL_Driver/Src/stm32l0xx_hal_uart.c ****   * @param pData Pointer to data buffer (u8 or u16 data elements).
1356:Drivers/STM32L0xx_HAL_Driver/Src/stm32l0xx_hal_uart.c ****   * @param Size  Amount of data elements (u8 or u16) to be received.
1357:Drivers/STM32L0xx_HAL_Driver/Src/stm32l0xx_hal_uart.c ****   * @retval HAL status
1358:Drivers/STM32L0xx_HAL_Driver/Src/stm32l0xx_hal_uart.c ****   */
1359:Drivers/STM32L0xx_HAL_Driver/Src/stm32l0xx_hal_uart.c **** HAL_StatusTypeDef HAL_UART_Receive_IT(UART_HandleTypeDef *huart, uint8_t *pData, uint16_t Size)
1360:Drivers/STM32L0xx_HAL_Driver/Src/stm32l0xx_hal_uart.c **** {
 1659              		.loc 1 1360 1
 1660              		.cfi_startproc
 1661              		@ args = 0, pretend = 0, frame = 32
ARM GAS  C:\Users\lidka\AppData\Local\Temp\ccqOATUZ.s 			page 61


 1662              		@ frame_needed = 1, uses_anonymous_args = 0
 1663 0000 80B5     		push	{r7, lr}
 1664              	.LCFI30:
 1665              		.cfi_def_cfa_offset 8
 1666              		.cfi_offset 7, -8
 1667              		.cfi_offset 14, -4
 1668 0002 88B0     		sub	sp, sp, #32
 1669              	.LCFI31:
 1670              		.cfi_def_cfa_offset 40
 1671 0004 00AF     		add	r7, sp, #0
 1672              	.LCFI32:
 1673              		.cfi_def_cfa_register 7
 1674 0006 F860     		str	r0, [r7, #12]
 1675 0008 B960     		str	r1, [r7, #8]
 1676 000a BB1D     		adds	r3, r7, #6
 1677 000c 1A80     		strh	r2, [r3]
1361:Drivers/STM32L0xx_HAL_Driver/Src/stm32l0xx_hal_uart.c ****   /* Check that a Rx process is not already ongoing */
1362:Drivers/STM32L0xx_HAL_Driver/Src/stm32l0xx_hal_uart.c ****   if (huart->RxState == HAL_UART_STATE_READY)
 1678              		.loc 1 1362 12
 1679 000e FB68     		ldr	r3, [r7, #12]
 1680 0010 DB6F     		ldr	r3, [r3, #124]
 1681              		.loc 1 1362 6
 1682 0012 202B     		cmp	r3, #32
 1683 0014 55D1     		bne	.L92
1363:Drivers/STM32L0xx_HAL_Driver/Src/stm32l0xx_hal_uart.c ****   {
1364:Drivers/STM32L0xx_HAL_Driver/Src/stm32l0xx_hal_uart.c ****     if ((pData == NULL) || (Size == 0U))
 1684              		.loc 1 1364 8
 1685 0016 BB68     		ldr	r3, [r7, #8]
 1686 0018 002B     		cmp	r3, #0
 1687 001a 03D0     		beq	.L93
 1688              		.loc 1 1364 25 discriminator 1
 1689 001c BB1D     		adds	r3, r7, #6
 1690 001e 1B88     		ldrh	r3, [r3]
 1691 0020 002B     		cmp	r3, #0
 1692 0022 01D1     		bne	.L94
 1693              	.L93:
1365:Drivers/STM32L0xx_HAL_Driver/Src/stm32l0xx_hal_uart.c ****     {
1366:Drivers/STM32L0xx_HAL_Driver/Src/stm32l0xx_hal_uart.c ****       return HAL_ERROR;
 1694              		.loc 1 1366 14
 1695 0024 0123     		movs	r3, #1
 1696 0026 4DE0     		b	.L95
 1697              	.L94:
1367:Drivers/STM32L0xx_HAL_Driver/Src/stm32l0xx_hal_uart.c ****     }
1368:Drivers/STM32L0xx_HAL_Driver/Src/stm32l0xx_hal_uart.c **** 
1369:Drivers/STM32L0xx_HAL_Driver/Src/stm32l0xx_hal_uart.c ****     /* In case of 9bits/No Parity transfer, pData buffer provided as input parameter
1370:Drivers/STM32L0xx_HAL_Driver/Src/stm32l0xx_hal_uart.c ****        should be aligned on a u16 frontier, as data to be received from RDR will be
1371:Drivers/STM32L0xx_HAL_Driver/Src/stm32l0xx_hal_uart.c ****        handled through a u16 cast. */
1372:Drivers/STM32L0xx_HAL_Driver/Src/stm32l0xx_hal_uart.c ****     if ((huart->Init.WordLength == UART_WORDLENGTH_9B) && (huart->Init.Parity == UART_PARITY_NONE))
 1698              		.loc 1 1372 21
 1699 0028 FB68     		ldr	r3, [r7, #12]
 1700 002a 9A68     		ldr	r2, [r3, #8]
 1701              		.loc 1 1372 8
 1702 002c 8023     		movs	r3, #128
 1703 002e 5B01     		lsls	r3, r3, #5
 1704 0030 9A42     		cmp	r2, r3
 1705 0032 09D1     		bne	.L96
 1706              		.loc 1 1372 71 discriminator 1
ARM GAS  C:\Users\lidka\AppData\Local\Temp\ccqOATUZ.s 			page 62


 1707 0034 FB68     		ldr	r3, [r7, #12]
 1708 0036 1B69     		ldr	r3, [r3, #16]
 1709              		.loc 1 1372 56 discriminator 1
 1710 0038 002B     		cmp	r3, #0
 1711 003a 05D1     		bne	.L96
1373:Drivers/STM32L0xx_HAL_Driver/Src/stm32l0xx_hal_uart.c ****     {
1374:Drivers/STM32L0xx_HAL_Driver/Src/stm32l0xx_hal_uart.c ****       if ((((uint32_t)pData) & 1U) != 0U)
 1712              		.loc 1 1374 13
 1713 003c BB68     		ldr	r3, [r7, #8]
 1714              		.loc 1 1374 30
 1715 003e 0122     		movs	r2, #1
 1716 0040 1340     		ands	r3, r2
 1717              		.loc 1 1374 10
 1718 0042 01D0     		beq	.L96
1375:Drivers/STM32L0xx_HAL_Driver/Src/stm32l0xx_hal_uart.c ****       {
1376:Drivers/STM32L0xx_HAL_Driver/Src/stm32l0xx_hal_uart.c ****         return  HAL_ERROR;
 1719              		.loc 1 1376 17
 1720 0044 0123     		movs	r3, #1
 1721 0046 3DE0     		b	.L95
 1722              	.L96:
1377:Drivers/STM32L0xx_HAL_Driver/Src/stm32l0xx_hal_uart.c ****       }
1378:Drivers/STM32L0xx_HAL_Driver/Src/stm32l0xx_hal_uart.c ****     }
1379:Drivers/STM32L0xx_HAL_Driver/Src/stm32l0xx_hal_uart.c **** 
1380:Drivers/STM32L0xx_HAL_Driver/Src/stm32l0xx_hal_uart.c ****     __HAL_LOCK(huart);
 1723              		.loc 1 1380 5
 1724 0048 FB68     		ldr	r3, [r7, #12]
 1725 004a 7422     		movs	r2, #116
 1726 004c 9B5C     		ldrb	r3, [r3, r2]
 1727 004e 012B     		cmp	r3, #1
 1728 0050 01D1     		bne	.L97
 1729              		.loc 1 1380 5 is_stmt 0 discriminator 1
 1730 0052 0223     		movs	r3, #2
 1731 0054 36E0     		b	.L95
 1732              	.L97:
 1733              		.loc 1 1380 5 discriminator 2
 1734 0056 FB68     		ldr	r3, [r7, #12]
 1735 0058 7422     		movs	r2, #116
 1736 005a 0121     		movs	r1, #1
 1737 005c 9954     		strb	r1, [r3, r2]
1381:Drivers/STM32L0xx_HAL_Driver/Src/stm32l0xx_hal_uart.c **** 
1382:Drivers/STM32L0xx_HAL_Driver/Src/stm32l0xx_hal_uart.c ****     /* Set Reception type to Standard reception */
1383:Drivers/STM32L0xx_HAL_Driver/Src/stm32l0xx_hal_uart.c ****     huart->ReceptionType = HAL_UART_RECEPTION_STANDARD;
 1738              		.loc 1 1383 26 is_stmt 1 discriminator 2
 1739 005e FB68     		ldr	r3, [r7, #12]
 1740 0060 0022     		movs	r2, #0
 1741 0062 1A66     		str	r2, [r3, #96]
1384:Drivers/STM32L0xx_HAL_Driver/Src/stm32l0xx_hal_uart.c **** 
1385:Drivers/STM32L0xx_HAL_Driver/Src/stm32l0xx_hal_uart.c ****     if (!(IS_LPUART_INSTANCE(huart->Instance)))
 1742              		.loc 1 1385 11 discriminator 2
 1743 0064 FB68     		ldr	r3, [r7, #12]
 1744 0066 1B68     		ldr	r3, [r3]
 1745              		.loc 1 1385 8 discriminator 2
 1746 0068 184A     		ldr	r2, .L100
 1747 006a 9342     		cmp	r3, r2
 1748 006c 20D0     		beq	.L98
1386:Drivers/STM32L0xx_HAL_Driver/Src/stm32l0xx_hal_uart.c ****     {
1387:Drivers/STM32L0xx_HAL_Driver/Src/stm32l0xx_hal_uart.c ****       /* Check that USART RTOEN bit is set */
ARM GAS  C:\Users\lidka\AppData\Local\Temp\ccqOATUZ.s 			page 63


1388:Drivers/STM32L0xx_HAL_Driver/Src/stm32l0xx_hal_uart.c ****       if (READ_BIT(huart->Instance->CR2, USART_CR2_RTOEN) != 0U)
 1749              		.loc 1 1388 11
 1750 006e FB68     		ldr	r3, [r7, #12]
 1751 0070 1B68     		ldr	r3, [r3]
 1752 0072 5A68     		ldr	r2, [r3, #4]
 1753 0074 8023     		movs	r3, #128
 1754 0076 1B04     		lsls	r3, r3, #16
 1755 0078 1340     		ands	r3, r2
 1756              		.loc 1 1388 10
 1757 007a 19D0     		beq	.L98
 1758              	.LBB571:
 1759              	.LBB572:
 1760              	.LBB573:
 386:Drivers/CMSIS/Include/cmsis_gcc.h ****   return(result);
 1761              		.loc 2 386 3
 1762              		.syntax divided
 1763              	@ 386 "Drivers/CMSIS/Include/cmsis_gcc.h" 1
 1764 007c EFF31083 		MRS r3, primask
 1765              	@ 0 "" 2
 1766              		.thumb
 1767              		.syntax unified
 1768 0080 3B61     		str	r3, [r7, #16]
 387:Drivers/CMSIS/Include/cmsis_gcc.h **** }
 1769              		.loc 2 387 9
 1770 0082 3B69     		ldr	r3, [r7, #16]
 1771              	.LBE573:
 1772              	.LBE572:
1389:Drivers/STM32L0xx_HAL_Driver/Src/stm32l0xx_hal_uart.c ****       {
1390:Drivers/STM32L0xx_HAL_Driver/Src/stm32l0xx_hal_uart.c ****         /* Enable the UART Receiver Timeout Interrupt */
1391:Drivers/STM32L0xx_HAL_Driver/Src/stm32l0xx_hal_uart.c ****         ATOMIC_SET_BIT(huart->Instance->CR1, USART_CR1_RTOIE);
 1773              		.loc 1 1391 9
 1774 0084 FB61     		str	r3, [r7, #28]
 1775 0086 0123     		movs	r3, #1
 1776 0088 7B61     		str	r3, [r7, #20]
 1777              	.LBB574:
 1778              	.LBB575:
 414:Drivers/CMSIS/Include/cmsis_gcc.h **** }
 1779              		.loc 2 414 3
 1780 008a 7B69     		ldr	r3, [r7, #20]
 1781              		.syntax divided
 1782              	@ 414 "Drivers/CMSIS/Include/cmsis_gcc.h" 1
 1783 008c 83F31088 		MSR primask, r3
 1784              	@ 0 "" 2
 1785              		.loc 2 415 1
 1786              		.thumb
 1787              		.syntax unified
 1788 0090 C046     		nop
 1789              	.LBE575:
 1790              	.LBE574:
 1791              		.loc 1 1391 9
 1792 0092 FB68     		ldr	r3, [r7, #12]
 1793 0094 1B68     		ldr	r3, [r3]
 1794 0096 1A68     		ldr	r2, [r3]
 1795 0098 FB68     		ldr	r3, [r7, #12]
 1796 009a 1B68     		ldr	r3, [r3]
 1797 009c 8021     		movs	r1, #128
 1798 009e C904     		lsls	r1, r1, #19
ARM GAS  C:\Users\lidka\AppData\Local\Temp\ccqOATUZ.s 			page 64


 1799 00a0 0A43     		orrs	r2, r1
 1800 00a2 1A60     		str	r2, [r3]
 1801 00a4 FB69     		ldr	r3, [r7, #28]
 1802 00a6 BB61     		str	r3, [r7, #24]
 1803              	.LBB576:
 1804              	.LBB577:
 414:Drivers/CMSIS/Include/cmsis_gcc.h **** }
 1805              		.loc 2 414 3
 1806 00a8 BB69     		ldr	r3, [r7, #24]
 1807              		.syntax divided
 1808              	@ 414 "Drivers/CMSIS/Include/cmsis_gcc.h" 1
 1809 00aa 83F31088 		MSR primask, r3
 1810              	@ 0 "" 2
 1811              		.loc 2 415 1
 1812              		.thumb
 1813              		.syntax unified
 1814 00ae C046     		nop
 1815              	.L98:
 1816              	.LBE577:
 1817              	.LBE576:
 1818              	.LBE571:
1392:Drivers/STM32L0xx_HAL_Driver/Src/stm32l0xx_hal_uart.c ****       }
1393:Drivers/STM32L0xx_HAL_Driver/Src/stm32l0xx_hal_uart.c ****     }
1394:Drivers/STM32L0xx_HAL_Driver/Src/stm32l0xx_hal_uart.c **** 
1395:Drivers/STM32L0xx_HAL_Driver/Src/stm32l0xx_hal_uart.c ****     return (UART_Start_Receive_IT(huart, pData, Size));
 1819              		.loc 1 1395 13
 1820 00b0 BB1D     		adds	r3, r7, #6
 1821 00b2 1A88     		ldrh	r2, [r3]
 1822 00b4 B968     		ldr	r1, [r7, #8]
 1823 00b6 FB68     		ldr	r3, [r7, #12]
 1824 00b8 1800     		movs	r0, r3
 1825 00ba FFF7FEFF 		bl	UART_Start_Receive_IT
 1826 00be 0300     		movs	r3, r0
 1827 00c0 00E0     		b	.L95
 1828              	.L92:
1396:Drivers/STM32L0xx_HAL_Driver/Src/stm32l0xx_hal_uart.c ****   }
1397:Drivers/STM32L0xx_HAL_Driver/Src/stm32l0xx_hal_uart.c ****   else
1398:Drivers/STM32L0xx_HAL_Driver/Src/stm32l0xx_hal_uart.c ****   {
1399:Drivers/STM32L0xx_HAL_Driver/Src/stm32l0xx_hal_uart.c ****     return HAL_BUSY;
 1829              		.loc 1 1399 12
 1830 00c2 0223     		movs	r3, #2
 1831              	.L95:
1400:Drivers/STM32L0xx_HAL_Driver/Src/stm32l0xx_hal_uart.c ****   }
1401:Drivers/STM32L0xx_HAL_Driver/Src/stm32l0xx_hal_uart.c **** }
 1832              		.loc 1 1401 1
 1833 00c4 1800     		movs	r0, r3
 1834 00c6 BD46     		mov	sp, r7
 1835 00c8 08B0     		add	sp, sp, #32
 1836              		@ sp needed
 1837 00ca 80BD     		pop	{r7, pc}
 1838              	.L101:
 1839              		.align	2
 1840              	.L100:
 1841 00cc 00480040 		.word	1073760256
 1842              		.cfi_endproc
 1843              	.LFE57:
 1845              		.section	.text.HAL_UART_Transmit_DMA,"ax",%progbits
ARM GAS  C:\Users\lidka\AppData\Local\Temp\ccqOATUZ.s 			page 65


 1846              		.align	1
 1847              		.global	HAL_UART_Transmit_DMA
 1848              		.syntax unified
 1849              		.code	16
 1850              		.thumb_func
 1852              	HAL_UART_Transmit_DMA:
 1853              	.LFB58:
1402:Drivers/STM32L0xx_HAL_Driver/Src/stm32l0xx_hal_uart.c **** 
1403:Drivers/STM32L0xx_HAL_Driver/Src/stm32l0xx_hal_uart.c **** /**
1404:Drivers/STM32L0xx_HAL_Driver/Src/stm32l0xx_hal_uart.c ****   * @brief Send an amount of data in DMA mode.
1405:Drivers/STM32L0xx_HAL_Driver/Src/stm32l0xx_hal_uart.c ****   * @note   When UART parity is not enabled (PCE = 0), and Word Length is configured to 9 bits (M1-
1406:Drivers/STM32L0xx_HAL_Driver/Src/stm32l0xx_hal_uart.c ****   *         the sent data is handled as a set of u16. In this case, Size must indicate the number
1407:Drivers/STM32L0xx_HAL_Driver/Src/stm32l0xx_hal_uart.c ****   *         of u16 provided through pData.
1408:Drivers/STM32L0xx_HAL_Driver/Src/stm32l0xx_hal_uart.c ****   * @note   When UART parity is not enabled (PCE = 0), and Word Length is configured to 9 bits (M1-
1409:Drivers/STM32L0xx_HAL_Driver/Src/stm32l0xx_hal_uart.c ****   *         address of user data buffer containing data to be sent, should be aligned on a half wor
1410:Drivers/STM32L0xx_HAL_Driver/Src/stm32l0xx_hal_uart.c ****   *         (as sent data will be handled by DMA from halfword frontier). Depending on compilation 
1411:Drivers/STM32L0xx_HAL_Driver/Src/stm32l0xx_hal_uart.c ****   *         use of specific alignment compilation directives or pragmas might be required
1412:Drivers/STM32L0xx_HAL_Driver/Src/stm32l0xx_hal_uart.c ****   *         to ensure proper alignment for pData.
1413:Drivers/STM32L0xx_HAL_Driver/Src/stm32l0xx_hal_uart.c ****   * @param huart UART handle.
1414:Drivers/STM32L0xx_HAL_Driver/Src/stm32l0xx_hal_uart.c ****   * @param pData Pointer to data buffer (u8 or u16 data elements).
1415:Drivers/STM32L0xx_HAL_Driver/Src/stm32l0xx_hal_uart.c ****   * @param Size  Amount of data elements (u8 or u16) to be sent.
1416:Drivers/STM32L0xx_HAL_Driver/Src/stm32l0xx_hal_uart.c ****   * @retval HAL status
1417:Drivers/STM32L0xx_HAL_Driver/Src/stm32l0xx_hal_uart.c ****   */
1418:Drivers/STM32L0xx_HAL_Driver/Src/stm32l0xx_hal_uart.c **** HAL_StatusTypeDef HAL_UART_Transmit_DMA(UART_HandleTypeDef *huart, uint8_t *pData, uint16_t Size)
1419:Drivers/STM32L0xx_HAL_Driver/Src/stm32l0xx_hal_uart.c **** {
 1854              		.loc 1 1419 1
 1855              		.cfi_startproc
 1856              		@ args = 0, pretend = 0, frame = 32
 1857              		@ frame_needed = 1, uses_anonymous_args = 0
 1858 0000 80B5     		push	{r7, lr}
 1859              	.LCFI33:
 1860              		.cfi_def_cfa_offset 8
 1861              		.cfi_offset 7, -8
 1862              		.cfi_offset 14, -4
 1863 0002 88B0     		sub	sp, sp, #32
 1864              	.LCFI34:
 1865              		.cfi_def_cfa_offset 40
 1866 0004 00AF     		add	r7, sp, #0
 1867              	.LCFI35:
 1868              		.cfi_def_cfa_register 7
 1869 0006 F860     		str	r0, [r7, #12]
 1870 0008 B960     		str	r1, [r7, #8]
 1871 000a BB1D     		adds	r3, r7, #6
 1872 000c 1A80     		strh	r2, [r3]
1420:Drivers/STM32L0xx_HAL_Driver/Src/stm32l0xx_hal_uart.c ****   /* Check that a Tx process is not already ongoing */
1421:Drivers/STM32L0xx_HAL_Driver/Src/stm32l0xx_hal_uart.c ****   if (huart->gState == HAL_UART_STATE_READY)
 1873              		.loc 1 1421 12
 1874 000e FB68     		ldr	r3, [r7, #12]
 1875 0010 9B6F     		ldr	r3, [r3, #120]
 1876              		.loc 1 1421 6
 1877 0012 202B     		cmp	r3, #32
 1878 0014 00D0     		beq	.LCB1576
 1879 0016 8AE0     		b	.L103	@long jump
 1880              	.LCB1576:
1422:Drivers/STM32L0xx_HAL_Driver/Src/stm32l0xx_hal_uart.c ****   {
1423:Drivers/STM32L0xx_HAL_Driver/Src/stm32l0xx_hal_uart.c ****     if ((pData == NULL) || (Size == 0U))
 1881              		.loc 1 1423 8
ARM GAS  C:\Users\lidka\AppData\Local\Temp\ccqOATUZ.s 			page 66


 1882 0018 BB68     		ldr	r3, [r7, #8]
 1883 001a 002B     		cmp	r3, #0
 1884 001c 03D0     		beq	.L104
 1885              		.loc 1 1423 25 discriminator 1
 1886 001e BB1D     		adds	r3, r7, #6
 1887 0020 1B88     		ldrh	r3, [r3]
 1888 0022 002B     		cmp	r3, #0
 1889 0024 01D1     		bne	.L105
 1890              	.L104:
1424:Drivers/STM32L0xx_HAL_Driver/Src/stm32l0xx_hal_uart.c ****     {
1425:Drivers/STM32L0xx_HAL_Driver/Src/stm32l0xx_hal_uart.c ****       return HAL_ERROR;
 1891              		.loc 1 1425 14
 1892 0026 0123     		movs	r3, #1
 1893 0028 82E0     		b	.L106
 1894              	.L105:
1426:Drivers/STM32L0xx_HAL_Driver/Src/stm32l0xx_hal_uart.c ****     }
1427:Drivers/STM32L0xx_HAL_Driver/Src/stm32l0xx_hal_uart.c **** 
1428:Drivers/STM32L0xx_HAL_Driver/Src/stm32l0xx_hal_uart.c ****     /* In case of 9bits/No Parity transfer, pData buffer provided as input parameter
1429:Drivers/STM32L0xx_HAL_Driver/Src/stm32l0xx_hal_uart.c ****        should be aligned on a u16 frontier, as data copy into TDR will be
1430:Drivers/STM32L0xx_HAL_Driver/Src/stm32l0xx_hal_uart.c ****        handled by DMA from a u16 frontier. */
1431:Drivers/STM32L0xx_HAL_Driver/Src/stm32l0xx_hal_uart.c ****     if ((huart->Init.WordLength == UART_WORDLENGTH_9B) && (huart->Init.Parity == UART_PARITY_NONE))
 1895              		.loc 1 1431 21
 1896 002a FB68     		ldr	r3, [r7, #12]
 1897 002c 9A68     		ldr	r2, [r3, #8]
 1898              		.loc 1 1431 8
 1899 002e 8023     		movs	r3, #128
 1900 0030 5B01     		lsls	r3, r3, #5
 1901 0032 9A42     		cmp	r2, r3
 1902 0034 09D1     		bne	.L107
 1903              		.loc 1 1431 71 discriminator 1
 1904 0036 FB68     		ldr	r3, [r7, #12]
 1905 0038 1B69     		ldr	r3, [r3, #16]
 1906              		.loc 1 1431 56 discriminator 1
 1907 003a 002B     		cmp	r3, #0
 1908 003c 05D1     		bne	.L107
1432:Drivers/STM32L0xx_HAL_Driver/Src/stm32l0xx_hal_uart.c ****     {
1433:Drivers/STM32L0xx_HAL_Driver/Src/stm32l0xx_hal_uart.c ****       if ((((uint32_t)pData) & 1U) != 0U)
 1909              		.loc 1 1433 13
 1910 003e BB68     		ldr	r3, [r7, #8]
 1911              		.loc 1 1433 30
 1912 0040 0122     		movs	r2, #1
 1913 0042 1340     		ands	r3, r2
 1914              		.loc 1 1433 10
 1915 0044 01D0     		beq	.L107
1434:Drivers/STM32L0xx_HAL_Driver/Src/stm32l0xx_hal_uart.c ****       {
1435:Drivers/STM32L0xx_HAL_Driver/Src/stm32l0xx_hal_uart.c ****         return  HAL_ERROR;
 1916              		.loc 1 1435 17
 1917 0046 0123     		movs	r3, #1
 1918 0048 72E0     		b	.L106
 1919              	.L107:
1436:Drivers/STM32L0xx_HAL_Driver/Src/stm32l0xx_hal_uart.c ****       }
1437:Drivers/STM32L0xx_HAL_Driver/Src/stm32l0xx_hal_uart.c ****     }
1438:Drivers/STM32L0xx_HAL_Driver/Src/stm32l0xx_hal_uart.c **** 
1439:Drivers/STM32L0xx_HAL_Driver/Src/stm32l0xx_hal_uart.c ****     __HAL_LOCK(huart);
 1920              		.loc 1 1439 5
 1921 004a FB68     		ldr	r3, [r7, #12]
 1922 004c 7422     		movs	r2, #116
ARM GAS  C:\Users\lidka\AppData\Local\Temp\ccqOATUZ.s 			page 67


 1923 004e 9B5C     		ldrb	r3, [r3, r2]
 1924 0050 012B     		cmp	r3, #1
 1925 0052 01D1     		bne	.L108
 1926              		.loc 1 1439 5 is_stmt 0 discriminator 1
 1927 0054 0223     		movs	r3, #2
 1928 0056 6BE0     		b	.L106
 1929              	.L108:
 1930              		.loc 1 1439 5 discriminator 2
 1931 0058 FB68     		ldr	r3, [r7, #12]
 1932 005a 7422     		movs	r2, #116
 1933 005c 0121     		movs	r1, #1
 1934 005e 9954     		strb	r1, [r3, r2]
1440:Drivers/STM32L0xx_HAL_Driver/Src/stm32l0xx_hal_uart.c **** 
1441:Drivers/STM32L0xx_HAL_Driver/Src/stm32l0xx_hal_uart.c ****     huart->pTxBuffPtr  = pData;
 1935              		.loc 1 1441 24 is_stmt 1 discriminator 2
 1936 0060 FB68     		ldr	r3, [r7, #12]
 1937 0062 BA68     		ldr	r2, [r7, #8]
 1938 0064 DA64     		str	r2, [r3, #76]
1442:Drivers/STM32L0xx_HAL_Driver/Src/stm32l0xx_hal_uart.c ****     huart->TxXferSize  = Size;
 1939              		.loc 1 1442 24 discriminator 2
 1940 0066 FB68     		ldr	r3, [r7, #12]
 1941 0068 BA1D     		adds	r2, r7, #6
 1942 006a 5021     		movs	r1, #80
 1943 006c 1288     		ldrh	r2, [r2]
 1944 006e 5A52     		strh	r2, [r3, r1]
1443:Drivers/STM32L0xx_HAL_Driver/Src/stm32l0xx_hal_uart.c ****     huart->TxXferCount = Size;
 1945              		.loc 1 1443 24 discriminator 2
 1946 0070 FB68     		ldr	r3, [r7, #12]
 1947 0072 BA1D     		adds	r2, r7, #6
 1948 0074 5221     		movs	r1, #82
 1949 0076 1288     		ldrh	r2, [r2]
 1950 0078 5A52     		strh	r2, [r3, r1]
1444:Drivers/STM32L0xx_HAL_Driver/Src/stm32l0xx_hal_uart.c **** 
1445:Drivers/STM32L0xx_HAL_Driver/Src/stm32l0xx_hal_uart.c ****     huart->ErrorCode = HAL_UART_ERROR_NONE;
 1951              		.loc 1 1445 22 discriminator 2
 1952 007a FB68     		ldr	r3, [r7, #12]
 1953 007c 8022     		movs	r2, #128
 1954 007e 0021     		movs	r1, #0
 1955 0080 9950     		str	r1, [r3, r2]
1446:Drivers/STM32L0xx_HAL_Driver/Src/stm32l0xx_hal_uart.c ****     huart->gState = HAL_UART_STATE_BUSY_TX;
 1956              		.loc 1 1446 19 discriminator 2
 1957 0082 FB68     		ldr	r3, [r7, #12]
 1958 0084 2122     		movs	r2, #33
 1959 0086 9A67     		str	r2, [r3, #120]
1447:Drivers/STM32L0xx_HAL_Driver/Src/stm32l0xx_hal_uart.c **** 
1448:Drivers/STM32L0xx_HAL_Driver/Src/stm32l0xx_hal_uart.c ****     if (huart->hdmatx != NULL)
 1960              		.loc 1 1448 14 discriminator 2
 1961 0088 FB68     		ldr	r3, [r7, #12]
 1962 008a DB6E     		ldr	r3, [r3, #108]
 1963              		.loc 1 1448 8 discriminator 2
 1964 008c 002B     		cmp	r3, #0
 1965 008e 2BD0     		beq	.L109
1449:Drivers/STM32L0xx_HAL_Driver/Src/stm32l0xx_hal_uart.c ****     {
1450:Drivers/STM32L0xx_HAL_Driver/Src/stm32l0xx_hal_uart.c ****       /* Set the UART DMA transfer complete callback */
1451:Drivers/STM32L0xx_HAL_Driver/Src/stm32l0xx_hal_uart.c ****       huart->hdmatx->XferCpltCallback = UART_DMATransmitCplt;
 1966              		.loc 1 1451 12
 1967 0090 FB68     		ldr	r3, [r7, #12]
ARM GAS  C:\Users\lidka\AppData\Local\Temp\ccqOATUZ.s 			page 68


 1968 0092 DB6E     		ldr	r3, [r3, #108]
 1969              		.loc 1 1451 39
 1970 0094 284A     		ldr	r2, .L111
 1971 0096 DA62     		str	r2, [r3, #44]
1452:Drivers/STM32L0xx_HAL_Driver/Src/stm32l0xx_hal_uart.c **** 
