ARM GAS  C:\Users\lidka\AppData\Local\Temp\ccURlygc.s 			page 1


   1              		.cpu cortex-m0plus
   2              		.arch armv6s-m
   3              		.fpu softvfp
   4              		.eabi_attribute 20, 1
   5              		.eabi_attribute 21, 1
   6              		.eabi_attribute 23, 3
   7              		.eabi_attribute 24, 1
   8              		.eabi_attribute 25, 1
   9              		.eabi_attribute 26, 1
  10              		.eabi_attribute 30, 6
  11              		.eabi_attribute 34, 0
  12              		.eabi_attribute 18, 4
  13              		.file	"stm32l0xx_hal_rcc_ex.c"
  14              		.text
  15              	.Ltext0:
  16              		.cfi_sections	.debug_frame
  17              		.section	.text.HAL_RCCEx_PeriphCLKConfig,"ax",%progbits
  18              		.align	1
  19              		.global	HAL_RCCEx_PeriphCLKConfig
  20              		.syntax unified
  21              		.code	16
  22              		.thumb_func
  24              	HAL_RCCEx_PeriphCLKConfig:
  25              	.LFB47:
  26              		.file 1 "Drivers/STM32L0xx_HAL_Driver/Src/stm32l0xx_hal_rcc_ex.c"
   1:Drivers/STM32L0xx_HAL_Driver/Src/stm32l0xx_hal_rcc_ex.c **** /**
   2:Drivers/STM32L0xx_HAL_Driver/Src/stm32l0xx_hal_rcc_ex.c ****   ******************************************************************************
   3:Drivers/STM32L0xx_HAL_Driver/Src/stm32l0xx_hal_rcc_ex.c ****   * @file    stm32l0xx_hal_rcc_ex.c
   4:Drivers/STM32L0xx_HAL_Driver/Src/stm32l0xx_hal_rcc_ex.c ****   * @author  MCD Application Team
   5:Drivers/STM32L0xx_HAL_Driver/Src/stm32l0xx_hal_rcc_ex.c ****   * @brief   Extended RCC HAL module driver.
   6:Drivers/STM32L0xx_HAL_Driver/Src/stm32l0xx_hal_rcc_ex.c ****   *          This file provides firmware functions to manage the following
   7:Drivers/STM32L0xx_HAL_Driver/Src/stm32l0xx_hal_rcc_ex.c ****   *          functionalities RCC extension peripheral:
   8:Drivers/STM32L0xx_HAL_Driver/Src/stm32l0xx_hal_rcc_ex.c ****   *           + Extended Peripheral Control functions
   9:Drivers/STM32L0xx_HAL_Driver/Src/stm32l0xx_hal_rcc_ex.c ****   *           + Extended Clock Recovery System Control functions
  10:Drivers/STM32L0xx_HAL_Driver/Src/stm32l0xx_hal_rcc_ex.c ****   *
  11:Drivers/STM32L0xx_HAL_Driver/Src/stm32l0xx_hal_rcc_ex.c ****   ******************************************************************************
  12:Drivers/STM32L0xx_HAL_Driver/Src/stm32l0xx_hal_rcc_ex.c ****   * @attention
  13:Drivers/STM32L0xx_HAL_Driver/Src/stm32l0xx_hal_rcc_ex.c ****   *
  14:Drivers/STM32L0xx_HAL_Driver/Src/stm32l0xx_hal_rcc_ex.c ****   * <h2><center>&copy; Copyright(c) 2016 STMicroelectronics.
  15:Drivers/STM32L0xx_HAL_Driver/Src/stm32l0xx_hal_rcc_ex.c ****   * All rights reserved.</center></h2>
  16:Drivers/STM32L0xx_HAL_Driver/Src/stm32l0xx_hal_rcc_ex.c ****   *
  17:Drivers/STM32L0xx_HAL_Driver/Src/stm32l0xx_hal_rcc_ex.c ****   * This software component is licensed by ST under BSD 3-Clause license,
  18:Drivers/STM32L0xx_HAL_Driver/Src/stm32l0xx_hal_rcc_ex.c ****   * the "License"; You may not use this file except in compliance with the
  19:Drivers/STM32L0xx_HAL_Driver/Src/stm32l0xx_hal_rcc_ex.c ****   * License. You may obtain a copy of the License at:
  20:Drivers/STM32L0xx_HAL_Driver/Src/stm32l0xx_hal_rcc_ex.c ****   *                        opensource.org/licenses/BSD-3-Clause
  21:Drivers/STM32L0xx_HAL_Driver/Src/stm32l0xx_hal_rcc_ex.c ****   *
  22:Drivers/STM32L0xx_HAL_Driver/Src/stm32l0xx_hal_rcc_ex.c ****   ******************************************************************************
  23:Drivers/STM32L0xx_HAL_Driver/Src/stm32l0xx_hal_rcc_ex.c ****   */
  24:Drivers/STM32L0xx_HAL_Driver/Src/stm32l0xx_hal_rcc_ex.c **** 
  25:Drivers/STM32L0xx_HAL_Driver/Src/stm32l0xx_hal_rcc_ex.c **** /* Includes ------------------------------------------------------------------*/
  26:Drivers/STM32L0xx_HAL_Driver/Src/stm32l0xx_hal_rcc_ex.c **** #include "stm32l0xx_hal.h"
  27:Drivers/STM32L0xx_HAL_Driver/Src/stm32l0xx_hal_rcc_ex.c **** 
  28:Drivers/STM32L0xx_HAL_Driver/Src/stm32l0xx_hal_rcc_ex.c **** /** @addtogroup STM32L0xx_HAL_Driver
  29:Drivers/STM32L0xx_HAL_Driver/Src/stm32l0xx_hal_rcc_ex.c ****   * @{
  30:Drivers/STM32L0xx_HAL_Driver/Src/stm32l0xx_hal_rcc_ex.c ****   */
  31:Drivers/STM32L0xx_HAL_Driver/Src/stm32l0xx_hal_rcc_ex.c **** 
  32:Drivers/STM32L0xx_HAL_Driver/Src/stm32l0xx_hal_rcc_ex.c **** #ifdef HAL_RCC_MODULE_ENABLED
ARM GAS  C:\Users\lidka\AppData\Local\Temp\ccURlygc.s 			page 2


  33:Drivers/STM32L0xx_HAL_Driver/Src/stm32l0xx_hal_rcc_ex.c **** 
  34:Drivers/STM32L0xx_HAL_Driver/Src/stm32l0xx_hal_rcc_ex.c **** /** @defgroup RCCEx RCCEx
  35:Drivers/STM32L0xx_HAL_Driver/Src/stm32l0xx_hal_rcc_ex.c ****   * @brief RCC Extension HAL module driver
  36:Drivers/STM32L0xx_HAL_Driver/Src/stm32l0xx_hal_rcc_ex.c ****   * @{
  37:Drivers/STM32L0xx_HAL_Driver/Src/stm32l0xx_hal_rcc_ex.c ****   */
  38:Drivers/STM32L0xx_HAL_Driver/Src/stm32l0xx_hal_rcc_ex.c **** 
  39:Drivers/STM32L0xx_HAL_Driver/Src/stm32l0xx_hal_rcc_ex.c **** /* Private typedef -----------------------------------------------------------*/
  40:Drivers/STM32L0xx_HAL_Driver/Src/stm32l0xx_hal_rcc_ex.c **** /* Private define ------------------------------------------------------------*/
  41:Drivers/STM32L0xx_HAL_Driver/Src/stm32l0xx_hal_rcc_ex.c **** /** @defgroup RCCEx_Private_Constants RCCEx Private Constants
  42:Drivers/STM32L0xx_HAL_Driver/Src/stm32l0xx_hal_rcc_ex.c ****   * @{
  43:Drivers/STM32L0xx_HAL_Driver/Src/stm32l0xx_hal_rcc_ex.c ****   */
  44:Drivers/STM32L0xx_HAL_Driver/Src/stm32l0xx_hal_rcc_ex.c **** #if defined(USB)
  45:Drivers/STM32L0xx_HAL_Driver/Src/stm32l0xx_hal_rcc_ex.c **** extern const uint8_t PLLMulTable[];
  46:Drivers/STM32L0xx_HAL_Driver/Src/stm32l0xx_hal_rcc_ex.c **** #endif /* USB */
  47:Drivers/STM32L0xx_HAL_Driver/Src/stm32l0xx_hal_rcc_ex.c **** /**
  48:Drivers/STM32L0xx_HAL_Driver/Src/stm32l0xx_hal_rcc_ex.c ****   * @}
  49:Drivers/STM32L0xx_HAL_Driver/Src/stm32l0xx_hal_rcc_ex.c ****   */
  50:Drivers/STM32L0xx_HAL_Driver/Src/stm32l0xx_hal_rcc_ex.c **** 
  51:Drivers/STM32L0xx_HAL_Driver/Src/stm32l0xx_hal_rcc_ex.c **** /* Private macro -------------------------------------------------------------*/
  52:Drivers/STM32L0xx_HAL_Driver/Src/stm32l0xx_hal_rcc_ex.c **** /** @defgroup RCCEx_Private_Macros RCCEx Private Macros
  53:Drivers/STM32L0xx_HAL_Driver/Src/stm32l0xx_hal_rcc_ex.c ****   * @{
  54:Drivers/STM32L0xx_HAL_Driver/Src/stm32l0xx_hal_rcc_ex.c ****   */
  55:Drivers/STM32L0xx_HAL_Driver/Src/stm32l0xx_hal_rcc_ex.c **** /**
  56:Drivers/STM32L0xx_HAL_Driver/Src/stm32l0xx_hal_rcc_ex.c ****   * @}
  57:Drivers/STM32L0xx_HAL_Driver/Src/stm32l0xx_hal_rcc_ex.c ****   */
  58:Drivers/STM32L0xx_HAL_Driver/Src/stm32l0xx_hal_rcc_ex.c **** 
  59:Drivers/STM32L0xx_HAL_Driver/Src/stm32l0xx_hal_rcc_ex.c **** /* Private variables ---------------------------------------------------------*/
  60:Drivers/STM32L0xx_HAL_Driver/Src/stm32l0xx_hal_rcc_ex.c **** /* Private function prototypes -----------------------------------------------*/
  61:Drivers/STM32L0xx_HAL_Driver/Src/stm32l0xx_hal_rcc_ex.c **** /* Private functions ---------------------------------------------------------*/
  62:Drivers/STM32L0xx_HAL_Driver/Src/stm32l0xx_hal_rcc_ex.c **** 
  63:Drivers/STM32L0xx_HAL_Driver/Src/stm32l0xx_hal_rcc_ex.c **** /** @defgroup RCCEx_Exported_Functions RCCEx Exported Functions
  64:Drivers/STM32L0xx_HAL_Driver/Src/stm32l0xx_hal_rcc_ex.c ****   * @{
  65:Drivers/STM32L0xx_HAL_Driver/Src/stm32l0xx_hal_rcc_ex.c ****   */
  66:Drivers/STM32L0xx_HAL_Driver/Src/stm32l0xx_hal_rcc_ex.c **** 
  67:Drivers/STM32L0xx_HAL_Driver/Src/stm32l0xx_hal_rcc_ex.c **** /** @defgroup RCCEx_Exported_Functions_Group1 Extended Peripheral Control functions
  68:Drivers/STM32L0xx_HAL_Driver/Src/stm32l0xx_hal_rcc_ex.c ****  *  @brief  Extended Peripheral Control functions
  69:Drivers/STM32L0xx_HAL_Driver/Src/stm32l0xx_hal_rcc_ex.c ****  *
  70:Drivers/STM32L0xx_HAL_Driver/Src/stm32l0xx_hal_rcc_ex.c **** @verbatim
  71:Drivers/STM32L0xx_HAL_Driver/Src/stm32l0xx_hal_rcc_ex.c ****  ===============================================================================
  72:Drivers/STM32L0xx_HAL_Driver/Src/stm32l0xx_hal_rcc_ex.c ****                 ##### Extended Peripheral Control functions  #####
  73:Drivers/STM32L0xx_HAL_Driver/Src/stm32l0xx_hal_rcc_ex.c ****  ===============================================================================
  74:Drivers/STM32L0xx_HAL_Driver/Src/stm32l0xx_hal_rcc_ex.c ****     [..]
  75:Drivers/STM32L0xx_HAL_Driver/Src/stm32l0xx_hal_rcc_ex.c ****     This subsection provides a set of functions allowing to control the RCC Clocks
  76:Drivers/STM32L0xx_HAL_Driver/Src/stm32l0xx_hal_rcc_ex.c ****     frequencies.
  77:Drivers/STM32L0xx_HAL_Driver/Src/stm32l0xx_hal_rcc_ex.c ****     [..]
  78:Drivers/STM32L0xx_HAL_Driver/Src/stm32l0xx_hal_rcc_ex.c ****     (@) Important note: Care must be taken when HAL_RCCEx_PeriphCLKConfig() is used to
  79:Drivers/STM32L0xx_HAL_Driver/Src/stm32l0xx_hal_rcc_ex.c ****         select the RTC clock source; in this case the Backup domain will be reset in
  80:Drivers/STM32L0xx_HAL_Driver/Src/stm32l0xx_hal_rcc_ex.c ****         order to modify the RTC Clock source, as consequence RTC registers (including
  81:Drivers/STM32L0xx_HAL_Driver/Src/stm32l0xx_hal_rcc_ex.c ****         the backup registers) are set to their reset values.
  82:Drivers/STM32L0xx_HAL_Driver/Src/stm32l0xx_hal_rcc_ex.c **** 
  83:Drivers/STM32L0xx_HAL_Driver/Src/stm32l0xx_hal_rcc_ex.c **** @endverbatim
  84:Drivers/STM32L0xx_HAL_Driver/Src/stm32l0xx_hal_rcc_ex.c ****   * @{
  85:Drivers/STM32L0xx_HAL_Driver/Src/stm32l0xx_hal_rcc_ex.c ****   */
  86:Drivers/STM32L0xx_HAL_Driver/Src/stm32l0xx_hal_rcc_ex.c **** 
  87:Drivers/STM32L0xx_HAL_Driver/Src/stm32l0xx_hal_rcc_ex.c **** /**
  88:Drivers/STM32L0xx_HAL_Driver/Src/stm32l0xx_hal_rcc_ex.c ****   * @brief  Initializes the RCC extended peripherals clocks according to the specified
  89:Drivers/STM32L0xx_HAL_Driver/Src/stm32l0xx_hal_rcc_ex.c ****   *         parameters in the RCC_PeriphCLKInitTypeDef.
ARM GAS  C:\Users\lidka\AppData\Local\Temp\ccURlygc.s 			page 3


  90:Drivers/STM32L0xx_HAL_Driver/Src/stm32l0xx_hal_rcc_ex.c ****   * @param  PeriphClkInit pointer to an RCC_PeriphCLKInitTypeDef structure that
  91:Drivers/STM32L0xx_HAL_Driver/Src/stm32l0xx_hal_rcc_ex.c ****   *         contains the configuration information for the Extended Peripherals clocks(USART1,USART
  92:Drivers/STM32L0xx_HAL_Driver/Src/stm32l0xx_hal_rcc_ex.c ****   *         I2C1, I2C3, RTC, USB/RNG  and LPTIM1 clocks).
  93:Drivers/STM32L0xx_HAL_Driver/Src/stm32l0xx_hal_rcc_ex.c ****   * @retval HAL status
  94:Drivers/STM32L0xx_HAL_Driver/Src/stm32l0xx_hal_rcc_ex.c ****   * @note   If HAL_ERROR returned, first switch-OFF HSE clock oscillator with @ref HAL_RCC_OscConfi
  95:Drivers/STM32L0xx_HAL_Driver/Src/stm32l0xx_hal_rcc_ex.c ****   *         to possibly update HSE divider.
  96:Drivers/STM32L0xx_HAL_Driver/Src/stm32l0xx_hal_rcc_ex.c ****   */
  97:Drivers/STM32L0xx_HAL_Driver/Src/stm32l0xx_hal_rcc_ex.c **** HAL_StatusTypeDef HAL_RCCEx_PeriphCLKConfig(RCC_PeriphCLKInitTypeDef  *PeriphClkInit)
  98:Drivers/STM32L0xx_HAL_Driver/Src/stm32l0xx_hal_rcc_ex.c **** {
  27              		.loc 1 98 1
  28              		.cfi_startproc
  29              		@ args = 0, pretend = 0, frame = 24
  30              		@ frame_needed = 1, uses_anonymous_args = 0
  31 0000 80B5     		push	{r7, lr}
  32              	.LCFI0:
  33              		.cfi_def_cfa_offset 8
  34              		.cfi_offset 7, -8
  35              		.cfi_offset 14, -4
  36 0002 86B0     		sub	sp, sp, #24
  37              	.LCFI1:
  38              		.cfi_def_cfa_offset 32
  39 0004 00AF     		add	r7, sp, #0
  40              	.LCFI2:
  41              		.cfi_def_cfa_register 7
  42 0006 7860     		str	r0, [r7, #4]
  99:Drivers/STM32L0xx_HAL_Driver/Src/stm32l0xx_hal_rcc_ex.c ****   uint32_t tickstart;
 100:Drivers/STM32L0xx_HAL_Driver/Src/stm32l0xx_hal_rcc_ex.c ****   uint32_t temp_reg;
 101:Drivers/STM32L0xx_HAL_Driver/Src/stm32l0xx_hal_rcc_ex.c ****   FlagStatus       pwrclkchanged = RESET;
  43              		.loc 1 101 20
  44 0008 1723     		movs	r3, #23
  45 000a FB18     		adds	r3, r7, r3
  46 000c 0022     		movs	r2, #0
  47 000e 1A70     		strb	r2, [r3]
 102:Drivers/STM32L0xx_HAL_Driver/Src/stm32l0xx_hal_rcc_ex.c **** 
 103:Drivers/STM32L0xx_HAL_Driver/Src/stm32l0xx_hal_rcc_ex.c ****   /* Check the parameters */
 104:Drivers/STM32L0xx_HAL_Driver/Src/stm32l0xx_hal_rcc_ex.c ****   assert_param(IS_RCC_PERIPHCLOCK(PeriphClkInit->PeriphClockSelection));
 105:Drivers/STM32L0xx_HAL_Driver/Src/stm32l0xx_hal_rcc_ex.c **** 
 106:Drivers/STM32L0xx_HAL_Driver/Src/stm32l0xx_hal_rcc_ex.c ****   /*------------------------------- RTC/LCD Configuration ------------------------*/
 107:Drivers/STM32L0xx_HAL_Driver/Src/stm32l0xx_hal_rcc_ex.c ****   if ((((PeriphClkInit->PeriphClockSelection) & RCC_PERIPHCLK_RTC) == RCC_PERIPHCLK_RTC)
  48              		.loc 1 107 23
  49 0010 7B68     		ldr	r3, [r7, #4]
  50 0012 1B68     		ldr	r3, [r3]
  51              		.loc 1 107 47
  52 0014 2022     		movs	r2, #32
  53 0016 1340     		ands	r3, r2
  54              		.loc 1 107 6
  55 0018 06D1     		bne	.L2
 108:Drivers/STM32L0xx_HAL_Driver/Src/stm32l0xx_hal_rcc_ex.c **** #if defined(LCD)
 109:Drivers/STM32L0xx_HAL_Driver/Src/stm32l0xx_hal_rcc_ex.c ****    || (((PeriphClkInit->PeriphClockSelection) & RCC_PERIPHCLK_LCD) == RCC_PERIPHCLK_LCD)
  56              		.loc 1 109 23
  57 001a 7B68     		ldr	r3, [r7, #4]
  58 001c 1A68     		ldr	r2, [r3]
  59              		.loc 1 109 47
  60 001e 8023     		movs	r3, #128
  61 0020 1B01     		lsls	r3, r3, #4
  62 0022 1340     		ands	r3, r2
  63              		.loc 1 109 4
ARM GAS  C:\Users\lidka\AppData\Local\Temp\ccURlygc.s 			page 4


  64 0024 00D1     		bne	.LCB32
  65 0026 D9E0     		b	.L3	@long jump
  66              	.LCB32:
  67              	.L2:
 110:Drivers/STM32L0xx_HAL_Driver/Src/stm32l0xx_hal_rcc_ex.c **** #endif /* LCD */
 111:Drivers/STM32L0xx_HAL_Driver/Src/stm32l0xx_hal_rcc_ex.c ****      )
 112:Drivers/STM32L0xx_HAL_Driver/Src/stm32l0xx_hal_rcc_ex.c ****   {
 113:Drivers/STM32L0xx_HAL_Driver/Src/stm32l0xx_hal_rcc_ex.c ****     /* check for RTC Parameters used to output RTCCLK */
 114:Drivers/STM32L0xx_HAL_Driver/Src/stm32l0xx_hal_rcc_ex.c ****     if(((PeriphClkInit->PeriphClockSelection) & RCC_PERIPHCLK_RTC) == RCC_PERIPHCLK_RTC)
 115:Drivers/STM32L0xx_HAL_Driver/Src/stm32l0xx_hal_rcc_ex.c ****     {
 116:Drivers/STM32L0xx_HAL_Driver/Src/stm32l0xx_hal_rcc_ex.c ****       assert_param(IS_RCC_RTCCLKSOURCE(PeriphClkInit->RTCClockSelection));
 117:Drivers/STM32L0xx_HAL_Driver/Src/stm32l0xx_hal_rcc_ex.c ****     }
 118:Drivers/STM32L0xx_HAL_Driver/Src/stm32l0xx_hal_rcc_ex.c **** 
 119:Drivers/STM32L0xx_HAL_Driver/Src/stm32l0xx_hal_rcc_ex.c **** #if defined(LCD)
 120:Drivers/STM32L0xx_HAL_Driver/Src/stm32l0xx_hal_rcc_ex.c ****     if(((PeriphClkInit->PeriphClockSelection) & RCC_PERIPHCLK_LCD) == RCC_PERIPHCLK_LCD)
 121:Drivers/STM32L0xx_HAL_Driver/Src/stm32l0xx_hal_rcc_ex.c ****     {
 122:Drivers/STM32L0xx_HAL_Driver/Src/stm32l0xx_hal_rcc_ex.c ****       assert_param(IS_RCC_RTCCLKSOURCE(PeriphClkInit->LCDClockSelection));
 123:Drivers/STM32L0xx_HAL_Driver/Src/stm32l0xx_hal_rcc_ex.c ****     }
 124:Drivers/STM32L0xx_HAL_Driver/Src/stm32l0xx_hal_rcc_ex.c **** #endif /* LCD */
 125:Drivers/STM32L0xx_HAL_Driver/Src/stm32l0xx_hal_rcc_ex.c **** 
 126:Drivers/STM32L0xx_HAL_Driver/Src/stm32l0xx_hal_rcc_ex.c ****     /* As soon as function is called to change RTC clock source, activation of the
 127:Drivers/STM32L0xx_HAL_Driver/Src/stm32l0xx_hal_rcc_ex.c ****        power domain is done. */
 128:Drivers/STM32L0xx_HAL_Driver/Src/stm32l0xx_hal_rcc_ex.c ****     /* Requires to enable write access to Backup Domain of necessary */
 129:Drivers/STM32L0xx_HAL_Driver/Src/stm32l0xx_hal_rcc_ex.c ****     if(__HAL_RCC_PWR_IS_CLK_DISABLED())
  68              		.loc 1 129 8
  69 0028 9C4B     		ldr	r3, .L23
  70 002a 9A6B     		ldr	r2, [r3, #56]
  71 002c 8023     		movs	r3, #128
  72 002e 5B05     		lsls	r3, r3, #21
  73 0030 1340     		ands	r3, r2
  74              		.loc 1 129 7
  75 0032 0AD1     		bne	.L4
 130:Drivers/STM32L0xx_HAL_Driver/Src/stm32l0xx_hal_rcc_ex.c ****     {
 131:Drivers/STM32L0xx_HAL_Driver/Src/stm32l0xx_hal_rcc_ex.c ****       __HAL_RCC_PWR_CLK_ENABLE();
  76              		.loc 1 131 7
  77 0034 994B     		ldr	r3, .L23
  78 0036 9A6B     		ldr	r2, [r3, #56]
  79 0038 984B     		ldr	r3, .L23
  80 003a 8021     		movs	r1, #128
  81 003c 4905     		lsls	r1, r1, #21
  82 003e 0A43     		orrs	r2, r1
  83 0040 9A63     		str	r2, [r3, #56]
 132:Drivers/STM32L0xx_HAL_Driver/Src/stm32l0xx_hal_rcc_ex.c ****       pwrclkchanged = SET;
  84              		.loc 1 132 21
  85 0042 1723     		movs	r3, #23
  86 0044 FB18     		adds	r3, r7, r3
  87 0046 0122     		movs	r2, #1
  88 0048 1A70     		strb	r2, [r3]
  89              	.L4:
 133:Drivers/STM32L0xx_HAL_Driver/Src/stm32l0xx_hal_rcc_ex.c ****     }
 134:Drivers/STM32L0xx_HAL_Driver/Src/stm32l0xx_hal_rcc_ex.c **** 
 135:Drivers/STM32L0xx_HAL_Driver/Src/stm32l0xx_hal_rcc_ex.c ****     if(HAL_IS_BIT_CLR(PWR->CR, PWR_CR_DBP))
  90              		.loc 1 135 8
  91 004a 954B     		ldr	r3, .L23+4
  92 004c 1A68     		ldr	r2, [r3]
  93 004e 8023     		movs	r3, #128
  94 0050 5B00     		lsls	r3, r3, #1
ARM GAS  C:\Users\lidka\AppData\Local\Temp\ccURlygc.s 			page 5


  95 0052 1340     		ands	r3, r2
  96              		.loc 1 135 7
  97 0054 1AD1     		bne	.L5
 136:Drivers/STM32L0xx_HAL_Driver/Src/stm32l0xx_hal_rcc_ex.c ****     {
 137:Drivers/STM32L0xx_HAL_Driver/Src/stm32l0xx_hal_rcc_ex.c ****       /* Enable write access to Backup domain */
 138:Drivers/STM32L0xx_HAL_Driver/Src/stm32l0xx_hal_rcc_ex.c ****       SET_BIT(PWR->CR, PWR_CR_DBP);
  98              		.loc 1 138 7
  99 0056 924B     		ldr	r3, .L23+4
 100 0058 1A68     		ldr	r2, [r3]
 101 005a 914B     		ldr	r3, .L23+4
 102 005c 8021     		movs	r1, #128
 103 005e 4900     		lsls	r1, r1, #1
 104 0060 0A43     		orrs	r2, r1
 105 0062 1A60     		str	r2, [r3]
 139:Drivers/STM32L0xx_HAL_Driver/Src/stm32l0xx_hal_rcc_ex.c **** 
 140:Drivers/STM32L0xx_HAL_Driver/Src/stm32l0xx_hal_rcc_ex.c ****       /* Wait for Backup domain Write protection disable */
 141:Drivers/STM32L0xx_HAL_Driver/Src/stm32l0xx_hal_rcc_ex.c ****       tickstart = HAL_GetTick();
 106              		.loc 1 141 19
 107 0064 FFF7FEFF 		bl	HAL_GetTick
 108 0068 0300     		movs	r3, r0
 109 006a 3B61     		str	r3, [r7, #16]
 142:Drivers/STM32L0xx_HAL_Driver/Src/stm32l0xx_hal_rcc_ex.c **** 
 143:Drivers/STM32L0xx_HAL_Driver/Src/stm32l0xx_hal_rcc_ex.c ****       while(HAL_IS_BIT_CLR(PWR->CR, PWR_CR_DBP))
 110              		.loc 1 143 12
 111 006c 08E0     		b	.L6
 112              	.L8:
 144:Drivers/STM32L0xx_HAL_Driver/Src/stm32l0xx_hal_rcc_ex.c ****       {
 145:Drivers/STM32L0xx_HAL_Driver/Src/stm32l0xx_hal_rcc_ex.c ****         if((HAL_GetTick() - tickstart) > RCC_DBP_TIMEOUT_VALUE)
 113              		.loc 1 145 13
 114 006e FFF7FEFF 		bl	HAL_GetTick
 115 0072 0200     		movs	r2, r0
 116              		.loc 1 145 27
 117 0074 3B69     		ldr	r3, [r7, #16]
 118 0076 D31A     		subs	r3, r2, r3
 119              		.loc 1 145 11
 120 0078 642B     		cmp	r3, #100
 121 007a 01D9     		bls	.L6
 146:Drivers/STM32L0xx_HAL_Driver/Src/stm32l0xx_hal_rcc_ex.c ****         {
 147:Drivers/STM32L0xx_HAL_Driver/Src/stm32l0xx_hal_rcc_ex.c ****           return HAL_TIMEOUT;
 122              		.loc 1 147 18
 123 007c 0323     		movs	r3, #3
 124 007e 08E1     		b	.L7
 125              	.L6:
 143:Drivers/STM32L0xx_HAL_Driver/Src/stm32l0xx_hal_rcc_ex.c ****       {
 126              		.loc 1 143 13
 127 0080 874B     		ldr	r3, .L23+4
 128 0082 1A68     		ldr	r2, [r3]
 129 0084 8023     		movs	r3, #128
 130 0086 5B00     		lsls	r3, r3, #1
 131 0088 1340     		ands	r3, r2
 143:Drivers/STM32L0xx_HAL_Driver/Src/stm32l0xx_hal_rcc_ex.c ****       {
 132              		.loc 1 143 12
 133 008a F0D0     		beq	.L8
 134              	.L5:
 148:Drivers/STM32L0xx_HAL_Driver/Src/stm32l0xx_hal_rcc_ex.c ****         }
 149:Drivers/STM32L0xx_HAL_Driver/Src/stm32l0xx_hal_rcc_ex.c ****       }
 150:Drivers/STM32L0xx_HAL_Driver/Src/stm32l0xx_hal_rcc_ex.c ****     }
ARM GAS  C:\Users\lidka\AppData\Local\Temp\ccURlygc.s 			page 6


 151:Drivers/STM32L0xx_HAL_Driver/Src/stm32l0xx_hal_rcc_ex.c **** 
 152:Drivers/STM32L0xx_HAL_Driver/Src/stm32l0xx_hal_rcc_ex.c ****     /* Check if user wants to change HSE RTC prescaler whereas HSE is enabled */
 153:Drivers/STM32L0xx_HAL_Driver/Src/stm32l0xx_hal_rcc_ex.c ****     temp_reg = (RCC->CR & RCC_CR_RTCPRE);
 135              		.loc 1 153 20
 136 008c 834B     		ldr	r3, .L23
 137 008e 1A68     		ldr	r2, [r3]
 138              		.loc 1 153 14
 139 0090 C023     		movs	r3, #192
 140 0092 9B03     		lsls	r3, r3, #14
 141 0094 1340     		ands	r3, r2
 142 0096 FB60     		str	r3, [r7, #12]
 154:Drivers/STM32L0xx_HAL_Driver/Src/stm32l0xx_hal_rcc_ex.c ****     if ((temp_reg != (PeriphClkInit->RTCClockSelection & RCC_CR_RTCPRE))
 143              		.loc 1 154 36
 144 0098 7B68     		ldr	r3, [r7, #4]
 145 009a 5A68     		ldr	r2, [r3, #4]
 146              		.loc 1 154 56
 147 009c C023     		movs	r3, #192
 148 009e 9B03     		lsls	r3, r3, #14
 149 00a0 1340     		ands	r3, r2
 150              		.loc 1 154 8
 151 00a2 FA68     		ldr	r2, [r7, #12]
 152 00a4 9A42     		cmp	r2, r3
 153 00a6 07D1     		bne	.L9
 155:Drivers/STM32L0xx_HAL_Driver/Src/stm32l0xx_hal_rcc_ex.c **** #if defined (LCD)
 156:Drivers/STM32L0xx_HAL_Driver/Src/stm32l0xx_hal_rcc_ex.c ****      || (temp_reg != (PeriphClkInit->LCDClockSelection & RCC_CR_RTCPRE))
 154              		.loc 1 156 36
 155 00a8 7B68     		ldr	r3, [r7, #4]
 156 00aa 9A68     		ldr	r2, [r3, #8]
 157              		.loc 1 156 56
 158 00ac C023     		movs	r3, #192
 159 00ae 9B03     		lsls	r3, r3, #14
 160 00b0 1340     		ands	r3, r2
 161              		.loc 1 156 6
 162 00b2 FA68     		ldr	r2, [r7, #12]
 163 00b4 9A42     		cmp	r2, r3
 164 00b6 13D0     		beq	.L10
 165              	.L9:
 157:Drivers/STM32L0xx_HAL_Driver/Src/stm32l0xx_hal_rcc_ex.c **** #endif /* LCD */
 158:Drivers/STM32L0xx_HAL_Driver/Src/stm32l0xx_hal_rcc_ex.c ****        )
 159:Drivers/STM32L0xx_HAL_Driver/Src/stm32l0xx_hal_rcc_ex.c ****     { /* Check HSE State */
 160:Drivers/STM32L0xx_HAL_Driver/Src/stm32l0xx_hal_rcc_ex.c ****       if ((PeriphClkInit->RTCClockSelection & RCC_CSR_RTCSEL) == RCC_CSR_RTCSEL_HSE)
 166              		.loc 1 160 25
 167 00b8 7B68     		ldr	r3, [r7, #4]
 168 00ba 5A68     		ldr	r2, [r3, #4]
 169              		.loc 1 160 45
 170 00bc C023     		movs	r3, #192
 171 00be 9B02     		lsls	r3, r3, #10
 172 00c0 1A40     		ands	r2, r3
 173              		.loc 1 160 10
 174 00c2 C023     		movs	r3, #192
 175 00c4 9B02     		lsls	r3, r3, #10
 176 00c6 9A42     		cmp	r2, r3
 177 00c8 0AD1     		bne	.L10
 161:Drivers/STM32L0xx_HAL_Driver/Src/stm32l0xx_hal_rcc_ex.c ****       {
 162:Drivers/STM32L0xx_HAL_Driver/Src/stm32l0xx_hal_rcc_ex.c ****         if (HAL_IS_BIT_SET(RCC->CR, RCC_CR_HSERDY))
 178              		.loc 1 162 13
 179 00ca 744B     		ldr	r3, .L23
ARM GAS  C:\Users\lidka\AppData\Local\Temp\ccURlygc.s 			page 7


 180 00cc 1A68     		ldr	r2, [r3]
 181 00ce 8023     		movs	r3, #128
 182 00d0 9B02     		lsls	r3, r3, #10
 183 00d2 1A40     		ands	r2, r3
 184              		.loc 1 162 12
 185 00d4 8023     		movs	r3, #128
 186 00d6 9B02     		lsls	r3, r3, #10
 187 00d8 9A42     		cmp	r2, r3
 188 00da 01D1     		bne	.L10
 163:Drivers/STM32L0xx_HAL_Driver/Src/stm32l0xx_hal_rcc_ex.c ****         {
 164:Drivers/STM32L0xx_HAL_Driver/Src/stm32l0xx_hal_rcc_ex.c ****           /* To update HSE divider, first switch-OFF HSE clock oscillator*/
 165:Drivers/STM32L0xx_HAL_Driver/Src/stm32l0xx_hal_rcc_ex.c ****           return HAL_ERROR;
 189              		.loc 1 165 18
 190 00dc 0123     		movs	r3, #1
 191 00de D8E0     		b	.L7
 192              	.L10:
 166:Drivers/STM32L0xx_HAL_Driver/Src/stm32l0xx_hal_rcc_ex.c ****         }
 167:Drivers/STM32L0xx_HAL_Driver/Src/stm32l0xx_hal_rcc_ex.c ****       }
 168:Drivers/STM32L0xx_HAL_Driver/Src/stm32l0xx_hal_rcc_ex.c ****     }
 169:Drivers/STM32L0xx_HAL_Driver/Src/stm32l0xx_hal_rcc_ex.c **** 
 170:Drivers/STM32L0xx_HAL_Driver/Src/stm32l0xx_hal_rcc_ex.c ****     /* Reset the Backup domain only if the RTC Clock source selection is modified from reset value 
 171:Drivers/STM32L0xx_HAL_Driver/Src/stm32l0xx_hal_rcc_ex.c ****     temp_reg = (RCC->CSR & RCC_CSR_RTCSEL);
 193              		.loc 1 171 20
 194 00e0 6E4B     		ldr	r3, .L23
 195 00e2 1A6D     		ldr	r2, [r3, #80]
 196              		.loc 1 171 14
 197 00e4 C023     		movs	r3, #192
 198 00e6 9B02     		lsls	r3, r3, #10
 199 00e8 1340     		ands	r3, r2
 200 00ea FB60     		str	r3, [r7, #12]
 172:Drivers/STM32L0xx_HAL_Driver/Src/stm32l0xx_hal_rcc_ex.c **** 
 173:Drivers/STM32L0xx_HAL_Driver/Src/stm32l0xx_hal_rcc_ex.c ****     if((temp_reg != 0x00000000U) && (((temp_reg != (PeriphClkInit->RTCClockSelection & RCC_CSR_RTCS
 201              		.loc 1 173 7
 202 00ec FB68     		ldr	r3, [r7, #12]
 203 00ee 002B     		cmp	r3, #0
 204 00f0 49D0     		beq	.L11
 205              		.loc 1 173 66 discriminator 1
 206 00f2 7B68     		ldr	r3, [r7, #4]
 207 00f4 5A68     		ldr	r2, [r3, #4]
 208              		.loc 1 173 86 discriminator 1
 209 00f6 C023     		movs	r3, #192
 210 00f8 9B02     		lsls	r3, r3, #10
 211 00fa 1340     		ands	r3, r2
 212              		.loc 1 173 34 discriminator 1
 213 00fc FA68     		ldr	r2, [r7, #12]
 214 00fe 9A42     		cmp	r2, r3
 215 0100 04D0     		beq	.L12
 174:Drivers/STM32L0xx_HAL_Driver/Src/stm32l0xx_hal_rcc_ex.c ****       && (((PeriphClkInit->PeriphClockSelection) & RCC_PERIPHCLK_RTC) == RCC_PERIPHCLK_RTC))
 216              		.loc 1 174 26
 217 0102 7B68     		ldr	r3, [r7, #4]
 218 0104 1B68     		ldr	r3, [r3]
 219              		.loc 1 174 50
 220 0106 2022     		movs	r2, #32
 221 0108 1340     		ands	r3, r2
 222              		.loc 1 174 7
 223 010a 0DD1     		bne	.L13
 224              	.L12:
ARM GAS  C:\Users\lidka\AppData\Local\Temp\ccURlygc.s 			page 8


 175:Drivers/STM32L0xx_HAL_Driver/Src/stm32l0xx_hal_rcc_ex.c **** #if defined(LCD)
 176:Drivers/STM32L0xx_HAL_Driver/Src/stm32l0xx_hal_rcc_ex.c ****       || ((temp_reg != (PeriphClkInit->LCDClockSelection & RCC_CSR_RTCSEL)) \
 225              		.loc 1 176 38
 226 010c 7B68     		ldr	r3, [r7, #4]
 227 010e 9A68     		ldr	r2, [r3, #8]
 228              		.loc 1 176 58
 229 0110 C023     		movs	r3, #192
 230 0112 9B02     		lsls	r3, r3, #10
 231 0114 1340     		ands	r3, r2
 232              		.loc 1 176 7
 233 0116 FA68     		ldr	r2, [r7, #12]
 234 0118 9A42     		cmp	r2, r3
 235 011a 34D0     		beq	.L11
 177:Drivers/STM32L0xx_HAL_Driver/Src/stm32l0xx_hal_rcc_ex.c ****        && (((PeriphClkInit->PeriphClockSelection) & RCC_PERIPHCLK_LCD) == RCC_PERIPHCLK_LCD))
 236              		.loc 1 177 27
 237 011c 7B68     		ldr	r3, [r7, #4]
 238 011e 1A68     		ldr	r2, [r3]
 239              		.loc 1 177 51
 240 0120 8023     		movs	r3, #128
 241 0122 1B01     		lsls	r3, r3, #4
 242 0124 1340     		ands	r3, r2
 243              		.loc 1 177 8
 244 0126 2ED0     		beq	.L11
 245              	.L13:
 178:Drivers/STM32L0xx_HAL_Driver/Src/stm32l0xx_hal_rcc_ex.c **** #endif /* LCD */
 179:Drivers/STM32L0xx_HAL_Driver/Src/stm32l0xx_hal_rcc_ex.c ****      ))
 180:Drivers/STM32L0xx_HAL_Driver/Src/stm32l0xx_hal_rcc_ex.c ****     {
 181:Drivers/STM32L0xx_HAL_Driver/Src/stm32l0xx_hal_rcc_ex.c ****       /* Store the content of CSR register before the reset of Backup Domain */
 182:Drivers/STM32L0xx_HAL_Driver/Src/stm32l0xx_hal_rcc_ex.c ****       temp_reg = (RCC->CSR & ~(RCC_CSR_RTCSEL));
 246              		.loc 1 182 22
 247 0128 5C4B     		ldr	r3, .L23
 248 012a 1B6D     		ldr	r3, [r3, #80]
 249              		.loc 1 182 16
 250 012c 5D4A     		ldr	r2, .L23+8
 251 012e 1340     		ands	r3, r2
 252 0130 FB60     		str	r3, [r7, #12]
 183:Drivers/STM32L0xx_HAL_Driver/Src/stm32l0xx_hal_rcc_ex.c **** 
 184:Drivers/STM32L0xx_HAL_Driver/Src/stm32l0xx_hal_rcc_ex.c ****       /* RTC Clock selection can be changed only if the Backup Domain is reset */
 185:Drivers/STM32L0xx_HAL_Driver/Src/stm32l0xx_hal_rcc_ex.c ****       __HAL_RCC_BACKUPRESET_FORCE();
 253              		.loc 1 185 7
 254 0132 5A4B     		ldr	r3, .L23
 255 0134 1A6D     		ldr	r2, [r3, #80]
 256 0136 594B     		ldr	r3, .L23
 257 0138 8021     		movs	r1, #128
 258 013a 0903     		lsls	r1, r1, #12
 259 013c 0A43     		orrs	r2, r1
 260 013e 1A65     		str	r2, [r3, #80]
 186:Drivers/STM32L0xx_HAL_Driver/Src/stm32l0xx_hal_rcc_ex.c ****       __HAL_RCC_BACKUPRESET_RELEASE();
 261              		.loc 1 186 7
 262 0140 564B     		ldr	r3, .L23
 263 0142 1A6D     		ldr	r2, [r3, #80]
 264 0144 554B     		ldr	r3, .L23
 265 0146 5849     		ldr	r1, .L23+12
 266 0148 0A40     		ands	r2, r1
 267 014a 1A65     		str	r2, [r3, #80]
 187:Drivers/STM32L0xx_HAL_Driver/Src/stm32l0xx_hal_rcc_ex.c **** 
 188:Drivers/STM32L0xx_HAL_Driver/Src/stm32l0xx_hal_rcc_ex.c ****       /* Restore the Content of CSR register */
ARM GAS  C:\Users\lidka\AppData\Local\Temp\ccURlygc.s 			page 9


 189:Drivers/STM32L0xx_HAL_Driver/Src/stm32l0xx_hal_rcc_ex.c ****       RCC->CSR = temp_reg;
 268              		.loc 1 189 10
 269 014c 534B     		ldr	r3, .L23
 270              		.loc 1 189 16
 271 014e FA68     		ldr	r2, [r7, #12]
 272 0150 1A65     		str	r2, [r3, #80]
 190:Drivers/STM32L0xx_HAL_Driver/Src/stm32l0xx_hal_rcc_ex.c **** 
 191:Drivers/STM32L0xx_HAL_Driver/Src/stm32l0xx_hal_rcc_ex.c ****        /* Wait for LSERDY if LSE was enabled */
 192:Drivers/STM32L0xx_HAL_Driver/Src/stm32l0xx_hal_rcc_ex.c ****       if (HAL_IS_BIT_SET(temp_reg, RCC_CSR_LSEON))
 273              		.loc 1 192 11
 274 0152 FA68     		ldr	r2, [r7, #12]
 275 0154 8023     		movs	r3, #128
 276 0156 5B00     		lsls	r3, r3, #1
 277 0158 1340     		ands	r3, r2
 278              		.loc 1 192 10
 279 015a 14D0     		beq	.L11
 193:Drivers/STM32L0xx_HAL_Driver/Src/stm32l0xx_hal_rcc_ex.c ****       {
 194:Drivers/STM32L0xx_HAL_Driver/Src/stm32l0xx_hal_rcc_ex.c ****         /* Get Start Tick */
 195:Drivers/STM32L0xx_HAL_Driver/Src/stm32l0xx_hal_rcc_ex.c ****         tickstart = HAL_GetTick();
 280              		.loc 1 195 21
 281 015c FFF7FEFF 		bl	HAL_GetTick
 282 0160 0300     		movs	r3, r0
 283 0162 3B61     		str	r3, [r7, #16]
 196:Drivers/STM32L0xx_HAL_Driver/Src/stm32l0xx_hal_rcc_ex.c **** 
 197:Drivers/STM32L0xx_HAL_Driver/Src/stm32l0xx_hal_rcc_ex.c ****         /* Wait till LSE is ready */
 198:Drivers/STM32L0xx_HAL_Driver/Src/stm32l0xx_hal_rcc_ex.c ****         while(__HAL_RCC_GET_FLAG(RCC_FLAG_LSERDY) == 0U)
 284              		.loc 1 198 14
 285 0164 09E0     		b	.L14
 286              	.L15:
 199:Drivers/STM32L0xx_HAL_Driver/Src/stm32l0xx_hal_rcc_ex.c ****         {
 200:Drivers/STM32L0xx_HAL_Driver/Src/stm32l0xx_hal_rcc_ex.c ****           if((HAL_GetTick() - tickstart ) > RCC_LSE_TIMEOUT_VALUE)
 287              		.loc 1 200 15
 288 0166 FFF7FEFF 		bl	HAL_GetTick
 289 016a 0200     		movs	r2, r0
 290              		.loc 1 200 29
 291 016c 3B69     		ldr	r3, [r7, #16]
 292 016e D31A     		subs	r3, r2, r3
 293              		.loc 1 200 13
 294 0170 4E4A     		ldr	r2, .L23+16
 295 0172 9342     		cmp	r3, r2
 296 0174 01D9     		bls	.L14
 201:Drivers/STM32L0xx_HAL_Driver/Src/stm32l0xx_hal_rcc_ex.c ****           {
 202:Drivers/STM32L0xx_HAL_Driver/Src/stm32l0xx_hal_rcc_ex.c ****             return HAL_TIMEOUT;
 297              		.loc 1 202 20
 298 0176 0323     		movs	r3, #3
 299 0178 8BE0     		b	.L7
 300              	.L14:
 198:Drivers/STM32L0xx_HAL_Driver/Src/stm32l0xx_hal_rcc_ex.c ****         {
 301              		.loc 1 198 15
 302 017a 484B     		ldr	r3, .L23
 303 017c 1A6D     		ldr	r2, [r3, #80]
 304 017e 8023     		movs	r3, #128
 305 0180 9B00     		lsls	r3, r3, #2
 306 0182 1340     		ands	r3, r2
 198:Drivers/STM32L0xx_HAL_Driver/Src/stm32l0xx_hal_rcc_ex.c ****         {
 307              		.loc 1 198 14
 308 0184 EFD0     		beq	.L15
ARM GAS  C:\Users\lidka\AppData\Local\Temp\ccURlygc.s 			page 10


 309              	.L11:
 203:Drivers/STM32L0xx_HAL_Driver/Src/stm32l0xx_hal_rcc_ex.c ****           }
 204:Drivers/STM32L0xx_HAL_Driver/Src/stm32l0xx_hal_rcc_ex.c ****         }
 205:Drivers/STM32L0xx_HAL_Driver/Src/stm32l0xx_hal_rcc_ex.c ****       }
 206:Drivers/STM32L0xx_HAL_Driver/Src/stm32l0xx_hal_rcc_ex.c ****     }
 207:Drivers/STM32L0xx_HAL_Driver/Src/stm32l0xx_hal_rcc_ex.c ****     __HAL_RCC_RTC_CONFIG(PeriphClkInit->RTCClockSelection);
 310              		.loc 1 207 5
 311 0186 7B68     		ldr	r3, [r7, #4]
 312 0188 5A68     		ldr	r2, [r3, #4]
 313 018a C023     		movs	r3, #192
 314 018c 9B02     		lsls	r3, r3, #10
 315 018e 1A40     		ands	r2, r3
 316 0190 C023     		movs	r3, #192
 317 0192 9B02     		lsls	r3, r3, #10
 318 0194 9A42     		cmp	r2, r3
 319 0196 0CD1     		bne	.L16
 320              		.loc 1 207 5 is_stmt 0 discriminator 1
 321 0198 404B     		ldr	r3, .L23
 322 019a 1B68     		ldr	r3, [r3]
 323 019c 444A     		ldr	r2, .L23+20
 324 019e 1340     		ands	r3, r2
 325 01a0 1900     		movs	r1, r3
 326 01a2 7B68     		ldr	r3, [r7, #4]
 327 01a4 5A68     		ldr	r2, [r3, #4]
 328 01a6 C023     		movs	r3, #192
 329 01a8 9B03     		lsls	r3, r3, #14
 330 01aa 1A40     		ands	r2, r3
 331 01ac 3B4B     		ldr	r3, .L23
 332 01ae 0A43     		orrs	r2, r1
 333 01b0 1A60     		str	r2, [r3]
 334              	.L16:
 335              		.loc 1 207 5 discriminator 3
 336 01b2 3A4B     		ldr	r3, .L23
 337 01b4 196D     		ldr	r1, [r3, #80]
 338 01b6 7B68     		ldr	r3, [r7, #4]
 339 01b8 5A68     		ldr	r2, [r3, #4]
 340 01ba C023     		movs	r3, #192
 341 01bc 9B02     		lsls	r3, r3, #10
 342 01be 1A40     		ands	r2, r3
 343 01c0 364B     		ldr	r3, .L23
 344 01c2 0A43     		orrs	r2, r1
 345 01c4 1A65     		str	r2, [r3, #80]
 208:Drivers/STM32L0xx_HAL_Driver/Src/stm32l0xx_hal_rcc_ex.c **** 
 209:Drivers/STM32L0xx_HAL_Driver/Src/stm32l0xx_hal_rcc_ex.c ****     /* Require to disable power clock if necessary */
 210:Drivers/STM32L0xx_HAL_Driver/Src/stm32l0xx_hal_rcc_ex.c ****     if(pwrclkchanged == SET)
 346              		.loc 1 210 7 is_stmt 1 discriminator 3
 347 01c6 1723     		movs	r3, #23
 348 01c8 FB18     		adds	r3, r7, r3
 349 01ca 1B78     		ldrb	r3, [r3]
 350 01cc 012B     		cmp	r3, #1
 351 01ce 05D1     		bne	.L3
 211:Drivers/STM32L0xx_HAL_Driver/Src/stm32l0xx_hal_rcc_ex.c ****     {
 212:Drivers/STM32L0xx_HAL_Driver/Src/stm32l0xx_hal_rcc_ex.c ****       __HAL_RCC_PWR_CLK_DISABLE();
 352              		.loc 1 212 7
 353 01d0 324B     		ldr	r3, .L23
 354 01d2 9A6B     		ldr	r2, [r3, #56]
 355 01d4 314B     		ldr	r3, .L23
ARM GAS  C:\Users\lidka\AppData\Local\Temp\ccURlygc.s 			page 11


 356 01d6 3749     		ldr	r1, .L23+24
 357 01d8 0A40     		ands	r2, r1
 358 01da 9A63     		str	r2, [r3, #56]
 359              	.L3:
 213:Drivers/STM32L0xx_HAL_Driver/Src/stm32l0xx_hal_rcc_ex.c ****     }
 214:Drivers/STM32L0xx_HAL_Driver/Src/stm32l0xx_hal_rcc_ex.c ****   }
 215:Drivers/STM32L0xx_HAL_Driver/Src/stm32l0xx_hal_rcc_ex.c **** 
 216:Drivers/STM32L0xx_HAL_Driver/Src/stm32l0xx_hal_rcc_ex.c **** #if defined (RCC_CCIPR_USART1SEL)
 217:Drivers/STM32L0xx_HAL_Driver/Src/stm32l0xx_hal_rcc_ex.c ****   /*------------------------------- USART1 Configuration ------------------------*/
 218:Drivers/STM32L0xx_HAL_Driver/Src/stm32l0xx_hal_rcc_ex.c ****   if(((PeriphClkInit->PeriphClockSelection) & RCC_PERIPHCLK_USART1) == RCC_PERIPHCLK_USART1)
 360              		.loc 1 218 21
 361 01dc 7B68     		ldr	r3, [r7, #4]
 362 01de 1B68     		ldr	r3, [r3]
 363              		.loc 1 218 45
 364 01e0 0122     		movs	r2, #1
 365 01e2 1340     		ands	r3, r2
 366              		.loc 1 218 5
 367 01e4 09D0     		beq	.L17
 219:Drivers/STM32L0xx_HAL_Driver/Src/stm32l0xx_hal_rcc_ex.c ****   {
 220:Drivers/STM32L0xx_HAL_Driver/Src/stm32l0xx_hal_rcc_ex.c ****     /* Check the parameters */
 221:Drivers/STM32L0xx_HAL_Driver/Src/stm32l0xx_hal_rcc_ex.c ****     assert_param(IS_RCC_USART1CLKSOURCE(PeriphClkInit->Usart1ClockSelection));
 222:Drivers/STM32L0xx_HAL_Driver/Src/stm32l0xx_hal_rcc_ex.c **** 
 223:Drivers/STM32L0xx_HAL_Driver/Src/stm32l0xx_hal_rcc_ex.c ****     /* Configure the USART1 clock source */
 224:Drivers/STM32L0xx_HAL_Driver/Src/stm32l0xx_hal_rcc_ex.c ****     __HAL_RCC_USART1_CONFIG(PeriphClkInit->Usart1ClockSelection);
 368              		.loc 1 224 5
 369 01e6 2D4B     		ldr	r3, .L23
 370 01e8 DB6C     		ldr	r3, [r3, #76]
 371 01ea 0322     		movs	r2, #3
 372 01ec 9343     		bics	r3, r2
 373 01ee 1900     		movs	r1, r3
 374 01f0 7B68     		ldr	r3, [r7, #4]
 375 01f2 DA68     		ldr	r2, [r3, #12]
 376 01f4 294B     		ldr	r3, .L23
 377 01f6 0A43     		orrs	r2, r1
 378 01f8 DA64     		str	r2, [r3, #76]
 379              	.L17:
 225:Drivers/STM32L0xx_HAL_Driver/Src/stm32l0xx_hal_rcc_ex.c ****   }
 226:Drivers/STM32L0xx_HAL_Driver/Src/stm32l0xx_hal_rcc_ex.c **** #endif /* RCC_CCIPR_USART1SEL */
 227:Drivers/STM32L0xx_HAL_Driver/Src/stm32l0xx_hal_rcc_ex.c **** 
 228:Drivers/STM32L0xx_HAL_Driver/Src/stm32l0xx_hal_rcc_ex.c ****   /*----------------------------- USART2 Configuration --------------------------*/
 229:Drivers/STM32L0xx_HAL_Driver/Src/stm32l0xx_hal_rcc_ex.c ****   if(((PeriphClkInit->PeriphClockSelection) & RCC_PERIPHCLK_USART2) == RCC_PERIPHCLK_USART2)
 380              		.loc 1 229 21
 381 01fa 7B68     		ldr	r3, [r7, #4]
 382 01fc 1B68     		ldr	r3, [r3]
 383              		.loc 1 229 45
 384 01fe 0222     		movs	r2, #2
 385 0200 1340     		ands	r3, r2
 386              		.loc 1 229 5
 387 0202 09D0     		beq	.L18
 230:Drivers/STM32L0xx_HAL_Driver/Src/stm32l0xx_hal_rcc_ex.c ****   {
 231:Drivers/STM32L0xx_HAL_Driver/Src/stm32l0xx_hal_rcc_ex.c ****     /* Check the parameters */
 232:Drivers/STM32L0xx_HAL_Driver/Src/stm32l0xx_hal_rcc_ex.c ****     assert_param(IS_RCC_USART2CLKSOURCE(PeriphClkInit->Usart2ClockSelection));
 233:Drivers/STM32L0xx_HAL_Driver/Src/stm32l0xx_hal_rcc_ex.c **** 
 234:Drivers/STM32L0xx_HAL_Driver/Src/stm32l0xx_hal_rcc_ex.c ****     /* Configure the USART2 clock source */
 235:Drivers/STM32L0xx_HAL_Driver/Src/stm32l0xx_hal_rcc_ex.c ****     __HAL_RCC_USART2_CONFIG(PeriphClkInit->Usart2ClockSelection);
 388              		.loc 1 235 5
 389 0204 254B     		ldr	r3, .L23
ARM GAS  C:\Users\lidka\AppData\Local\Temp\ccURlygc.s 			page 12


 390 0206 DB6C     		ldr	r3, [r3, #76]
 391 0208 0C22     		movs	r2, #12
 392 020a 9343     		bics	r3, r2
 393 020c 1900     		movs	r1, r3
 394 020e 7B68     		ldr	r3, [r7, #4]
 395 0210 1A69     		ldr	r2, [r3, #16]
 396 0212 224B     		ldr	r3, .L23
 397 0214 0A43     		orrs	r2, r1
 398 0216 DA64     		str	r2, [r3, #76]
 399              	.L18:
 236:Drivers/STM32L0xx_HAL_Driver/Src/stm32l0xx_hal_rcc_ex.c ****   }
 237:Drivers/STM32L0xx_HAL_Driver/Src/stm32l0xx_hal_rcc_ex.c **** 
 238:Drivers/STM32L0xx_HAL_Driver/Src/stm32l0xx_hal_rcc_ex.c ****   /*------------------------------ LPUART1 Configuration ------------------------*/
 239:Drivers/STM32L0xx_HAL_Driver/Src/stm32l0xx_hal_rcc_ex.c ****   if(((PeriphClkInit->PeriphClockSelection) & RCC_PERIPHCLK_LPUART1) == RCC_PERIPHCLK_LPUART1)
 400              		.loc 1 239 21
 401 0218 7B68     		ldr	r3, [r7, #4]
 402 021a 1B68     		ldr	r3, [r3]
 403              		.loc 1 239 45
 404 021c 0422     		movs	r2, #4
 405 021e 1340     		ands	r3, r2
 406              		.loc 1 239 5
 407 0220 09D0     		beq	.L19
 240:Drivers/STM32L0xx_HAL_Driver/Src/stm32l0xx_hal_rcc_ex.c ****   {
 241:Drivers/STM32L0xx_HAL_Driver/Src/stm32l0xx_hal_rcc_ex.c ****     /* Check the parameters */
 242:Drivers/STM32L0xx_HAL_Driver/Src/stm32l0xx_hal_rcc_ex.c ****     assert_param(IS_RCC_LPUART1CLKSOURCE(PeriphClkInit->Lpuart1ClockSelection));
 243:Drivers/STM32L0xx_HAL_Driver/Src/stm32l0xx_hal_rcc_ex.c **** 
 244:Drivers/STM32L0xx_HAL_Driver/Src/stm32l0xx_hal_rcc_ex.c ****     /* Configure the LPUAR1 clock source */
 245:Drivers/STM32L0xx_HAL_Driver/Src/stm32l0xx_hal_rcc_ex.c ****     __HAL_RCC_LPUART1_CONFIG(PeriphClkInit->Lpuart1ClockSelection);
 408              		.loc 1 245 5
 409 0222 1E4B     		ldr	r3, .L23
 410 0224 DB6C     		ldr	r3, [r3, #76]
 411 0226 244A     		ldr	r2, .L23+28
 412 0228 1340     		ands	r3, r2
 413 022a 1900     		movs	r1, r3
 414 022c 7B68     		ldr	r3, [r7, #4]
 415 022e 5A69     		ldr	r2, [r3, #20]
 416 0230 1A4B     		ldr	r3, .L23
 417 0232 0A43     		orrs	r2, r1
 418 0234 DA64     		str	r2, [r3, #76]
 419              	.L19:
 246:Drivers/STM32L0xx_HAL_Driver/Src/stm32l0xx_hal_rcc_ex.c ****   }
 247:Drivers/STM32L0xx_HAL_Driver/Src/stm32l0xx_hal_rcc_ex.c **** 
 248:Drivers/STM32L0xx_HAL_Driver/Src/stm32l0xx_hal_rcc_ex.c ****   /*------------------------------ I2C1 Configuration ------------------------*/
 249:Drivers/STM32L0xx_HAL_Driver/Src/stm32l0xx_hal_rcc_ex.c ****   if(((PeriphClkInit->PeriphClockSelection) & RCC_PERIPHCLK_I2C1) == RCC_PERIPHCLK_I2C1)
 420              		.loc 1 249 21
 421 0236 7B68     		ldr	r3, [r7, #4]
 422 0238 1B68     		ldr	r3, [r3]
 423              		.loc 1 249 45
 424 023a 0822     		movs	r2, #8
 425 023c 1340     		ands	r3, r2
 426              		.loc 1 249 5
 427 023e 09D0     		beq	.L20
 250:Drivers/STM32L0xx_HAL_Driver/Src/stm32l0xx_hal_rcc_ex.c ****   {
 251:Drivers/STM32L0xx_HAL_Driver/Src/stm32l0xx_hal_rcc_ex.c ****     /* Check the parameters */
 252:Drivers/STM32L0xx_HAL_Driver/Src/stm32l0xx_hal_rcc_ex.c ****     assert_param(IS_RCC_I2C1CLKSOURCE(PeriphClkInit->I2c1ClockSelection));
 253:Drivers/STM32L0xx_HAL_Driver/Src/stm32l0xx_hal_rcc_ex.c **** 
 254:Drivers/STM32L0xx_HAL_Driver/Src/stm32l0xx_hal_rcc_ex.c ****     /* Configure the I2C1 clock source */
ARM GAS  C:\Users\lidka\AppData\Local\Temp\ccURlygc.s 			page 13


 255:Drivers/STM32L0xx_HAL_Driver/Src/stm32l0xx_hal_rcc_ex.c ****     __HAL_RCC_I2C1_CONFIG(PeriphClkInit->I2c1ClockSelection);
 428              		.loc 1 255 5
 429 0240 164B     		ldr	r3, .L23
 430 0242 DB6C     		ldr	r3, [r3, #76]
 431 0244 1D4A     		ldr	r2, .L23+32
 432 0246 1340     		ands	r3, r2
 433 0248 1900     		movs	r1, r3
 434 024a 7B68     		ldr	r3, [r7, #4]
 435 024c 9A69     		ldr	r2, [r3, #24]
 436 024e 134B     		ldr	r3, .L23
 437 0250 0A43     		orrs	r2, r1
 438 0252 DA64     		str	r2, [r3, #76]
 439              	.L20:
 256:Drivers/STM32L0xx_HAL_Driver/Src/stm32l0xx_hal_rcc_ex.c ****   }
 257:Drivers/STM32L0xx_HAL_Driver/Src/stm32l0xx_hal_rcc_ex.c **** 
 258:Drivers/STM32L0xx_HAL_Driver/Src/stm32l0xx_hal_rcc_ex.c **** #if defined (RCC_CCIPR_I2C3SEL)
 259:Drivers/STM32L0xx_HAL_Driver/Src/stm32l0xx_hal_rcc_ex.c ****     /*------------------------------ I2C3 Configuration ------------------------*/
 260:Drivers/STM32L0xx_HAL_Driver/Src/stm32l0xx_hal_rcc_ex.c ****   if(((PeriphClkInit->PeriphClockSelection) & RCC_PERIPHCLK_I2C3) == RCC_PERIPHCLK_I2C3)
 261:Drivers/STM32L0xx_HAL_Driver/Src/stm32l0xx_hal_rcc_ex.c ****   {
 262:Drivers/STM32L0xx_HAL_Driver/Src/stm32l0xx_hal_rcc_ex.c ****     /* Check the parameters */
 263:Drivers/STM32L0xx_HAL_Driver/Src/stm32l0xx_hal_rcc_ex.c ****     assert_param(IS_RCC_I2C3CLKSOURCE(PeriphClkInit->I2c3ClockSelection));
 264:Drivers/STM32L0xx_HAL_Driver/Src/stm32l0xx_hal_rcc_ex.c **** 
 265:Drivers/STM32L0xx_HAL_Driver/Src/stm32l0xx_hal_rcc_ex.c ****     /* Configure the I2C3 clock source */
 266:Drivers/STM32L0xx_HAL_Driver/Src/stm32l0xx_hal_rcc_ex.c ****     __HAL_RCC_I2C3_CONFIG(PeriphClkInit->I2c3ClockSelection);
 267:Drivers/STM32L0xx_HAL_Driver/Src/stm32l0xx_hal_rcc_ex.c ****   }
 268:Drivers/STM32L0xx_HAL_Driver/Src/stm32l0xx_hal_rcc_ex.c **** #endif /* RCC_CCIPR_I2C3SEL */
 269:Drivers/STM32L0xx_HAL_Driver/Src/stm32l0xx_hal_rcc_ex.c **** 
 270:Drivers/STM32L0xx_HAL_Driver/Src/stm32l0xx_hal_rcc_ex.c **** #if defined(USB)
 271:Drivers/STM32L0xx_HAL_Driver/Src/stm32l0xx_hal_rcc_ex.c ****  /*---------------------------- USB and RNG configuration --------------------*/
 272:Drivers/STM32L0xx_HAL_Driver/Src/stm32l0xx_hal_rcc_ex.c ****   if(((PeriphClkInit->PeriphClockSelection) & RCC_PERIPHCLK_USB) == (RCC_PERIPHCLK_USB))
 440              		.loc 1 272 21
 441 0254 7B68     		ldr	r3, [r7, #4]
 442 0256 1B68     		ldr	r3, [r3]
 443              		.loc 1 272 45
 444 0258 4022     		movs	r2, #64
 445 025a 1340     		ands	r3, r2
 446              		.loc 1 272 5
 447 025c 09D0     		beq	.L21
 273:Drivers/STM32L0xx_HAL_Driver/Src/stm32l0xx_hal_rcc_ex.c ****   {
 274:Drivers/STM32L0xx_HAL_Driver/Src/stm32l0xx_hal_rcc_ex.c ****     assert_param(IS_RCC_USBCLKSOURCE(PeriphClkInit->UsbClockSelection));
 275:Drivers/STM32L0xx_HAL_Driver/Src/stm32l0xx_hal_rcc_ex.c ****     __HAL_RCC_USB_CONFIG(PeriphClkInit->UsbClockSelection);
 448              		.loc 1 275 5
 449 025e 0F4B     		ldr	r3, .L23
 450 0260 DB6C     		ldr	r3, [r3, #76]
 451 0262 174A     		ldr	r2, .L23+36
 452 0264 1340     		ands	r3, r2
 453 0266 1900     		movs	r1, r3
 454 0268 7B68     		ldr	r3, [r7, #4]
 455 026a 1A6A     		ldr	r2, [r3, #32]
 456 026c 0B4B     		ldr	r3, .L23
 457 026e 0A43     		orrs	r2, r1
 458 0270 DA64     		str	r2, [r3, #76]
 459              	.L21:
 276:Drivers/STM32L0xx_HAL_Driver/Src/stm32l0xx_hal_rcc_ex.c ****   }
 277:Drivers/STM32L0xx_HAL_Driver/Src/stm32l0xx_hal_rcc_ex.c **** #endif /* USB */
 278:Drivers/STM32L0xx_HAL_Driver/Src/stm32l0xx_hal_rcc_ex.c **** 
 279:Drivers/STM32L0xx_HAL_Driver/Src/stm32l0xx_hal_rcc_ex.c ****   /*---------------------------- LPTIM1 configuration ------------------------*/
ARM GAS  C:\Users\lidka\AppData\Local\Temp\ccURlygc.s 			page 14


 280:Drivers/STM32L0xx_HAL_Driver/Src/stm32l0xx_hal_rcc_ex.c ****   if(((PeriphClkInit->PeriphClockSelection) & RCC_PERIPHCLK_LPTIM1) == (RCC_PERIPHCLK_LPTIM1))
 460              		.loc 1 280 21
 461 0272 7B68     		ldr	r3, [r7, #4]
 462 0274 1B68     		ldr	r3, [r3]
 463              		.loc 1 280 45
 464 0276 8022     		movs	r2, #128
 465 0278 1340     		ands	r3, r2
 466              		.loc 1 280 5
 467 027a 09D0     		beq	.L22
 281:Drivers/STM32L0xx_HAL_Driver/Src/stm32l0xx_hal_rcc_ex.c ****   {
 282:Drivers/STM32L0xx_HAL_Driver/Src/stm32l0xx_hal_rcc_ex.c ****     assert_param(IS_RCC_LPTIMCLK(PeriphClkInit->LptimClockSelection));
 283:Drivers/STM32L0xx_HAL_Driver/Src/stm32l0xx_hal_rcc_ex.c ****     __HAL_RCC_LPTIM1_CONFIG(PeriphClkInit->LptimClockSelection);
 468              		.loc 1 283 5
 469 027c 074B     		ldr	r3, .L23
 470 027e DB6C     		ldr	r3, [r3, #76]
 471 0280 104A     		ldr	r2, .L23+40
 472 0282 1340     		ands	r3, r2
 473 0284 1900     		movs	r1, r3
 474 0286 7B68     		ldr	r3, [r7, #4]
 475 0288 DA69     		ldr	r2, [r3, #28]
 476 028a 044B     		ldr	r3, .L23
 477 028c 0A43     		orrs	r2, r1
 478 028e DA64     		str	r2, [r3, #76]
 479              	.L22:
 284:Drivers/STM32L0xx_HAL_Driver/Src/stm32l0xx_hal_rcc_ex.c ****   }
 285:Drivers/STM32L0xx_HAL_Driver/Src/stm32l0xx_hal_rcc_ex.c **** 
 286:Drivers/STM32L0xx_HAL_Driver/Src/stm32l0xx_hal_rcc_ex.c ****   return HAL_OK;
 480              		.loc 1 286 10
 481 0290 0023     		movs	r3, #0
 482              	.L7:
 287:Drivers/STM32L0xx_HAL_Driver/Src/stm32l0xx_hal_rcc_ex.c **** }
 483              		.loc 1 287 1
 484 0292 1800     		movs	r0, r3
 485 0294 BD46     		mov	sp, r7
 486 0296 06B0     		add	sp, sp, #24
 487              		@ sp needed
 488 0298 80BD     		pop	{r7, pc}
 489              	.L24:
 490 029a C046     		.align	2
 491              	.L23:
 492 029c 00100240 		.word	1073876992
 493 02a0 00700040 		.word	1073770496
 494 02a4 FFFFFCFF 		.word	-196609
 495 02a8 FFFFF7FF 		.word	-524289
 496 02ac 88130000 		.word	5000
 497 02b0 FFFFCFFF 		.word	-3145729
 498 02b4 FFFFFFEF 		.word	-268435457
 499 02b8 FFF3FFFF 		.word	-3073
 500 02bc FFCFFFFF 		.word	-12289
 501 02c0 FFFFFFFB 		.word	-67108865
 502 02c4 FFFFF3FF 		.word	-786433
 503              		.cfi_endproc
 504              	.LFE47:
 506              		.section	.text.HAL_RCCEx_GetPeriphCLKConfig,"ax",%progbits
 507              		.align	1
 508              		.global	HAL_RCCEx_GetPeriphCLKConfig
 509              		.syntax unified
ARM GAS  C:\Users\lidka\AppData\Local\Temp\ccURlygc.s 			page 15


 510              		.code	16
 511              		.thumb_func
 513              	HAL_RCCEx_GetPeriphCLKConfig:
 514              	.LFB48:
 288:Drivers/STM32L0xx_HAL_Driver/Src/stm32l0xx_hal_rcc_ex.c **** 
 289:Drivers/STM32L0xx_HAL_Driver/Src/stm32l0xx_hal_rcc_ex.c **** /**
 290:Drivers/STM32L0xx_HAL_Driver/Src/stm32l0xx_hal_rcc_ex.c ****   * @brief  Get the PeriphClkInit according to the internal RCC configuration registers.
 291:Drivers/STM32L0xx_HAL_Driver/Src/stm32l0xx_hal_rcc_ex.c ****   * @param  PeriphClkInit pointer to an RCC_PeriphCLKInitTypeDef structure that
 292:Drivers/STM32L0xx_HAL_Driver/Src/stm32l0xx_hal_rcc_ex.c ****   *         returns the configuration information for the Extended Peripherals clocks(USART1,USART2
 293:Drivers/STM32L0xx_HAL_Driver/Src/stm32l0xx_hal_rcc_ex.c ****   *         I2C1, I2C3, RTC, USB/RNG  and LPTIM1 clocks).
 294:Drivers/STM32L0xx_HAL_Driver/Src/stm32l0xx_hal_rcc_ex.c ****   * @retval None
 295:Drivers/STM32L0xx_HAL_Driver/Src/stm32l0xx_hal_rcc_ex.c ****   */
 296:Drivers/STM32L0xx_HAL_Driver/Src/stm32l0xx_hal_rcc_ex.c **** void HAL_RCCEx_GetPeriphCLKConfig(RCC_PeriphCLKInitTypeDef  *PeriphClkInit)
 297:Drivers/STM32L0xx_HAL_Driver/Src/stm32l0xx_hal_rcc_ex.c **** {
 515              		.loc 1 297 1
 516              		.cfi_startproc
 517              		@ args = 0, pretend = 0, frame = 16
 518              		@ frame_needed = 1, uses_anonymous_args = 0
 519 0000 80B5     		push	{r7, lr}
 520              	.LCFI3:
 521              		.cfi_def_cfa_offset 8
 522              		.cfi_offset 7, -8
 523              		.cfi_offset 14, -4
 524 0002 84B0     		sub	sp, sp, #16
 525              	.LCFI4:
 526              		.cfi_def_cfa_offset 24
 527 0004 00AF     		add	r7, sp, #0
 528              	.LCFI5:
 529              		.cfi_def_cfa_register 7
 530 0006 7860     		str	r0, [r7, #4]
 298:Drivers/STM32L0xx_HAL_Driver/Src/stm32l0xx_hal_rcc_ex.c ****   uint32_t srcclk;
 299:Drivers/STM32L0xx_HAL_Driver/Src/stm32l0xx_hal_rcc_ex.c **** 
 300:Drivers/STM32L0xx_HAL_Driver/Src/stm32l0xx_hal_rcc_ex.c ****    /* Set all possible values for the extended clock type parameter -----------*/
 301:Drivers/STM32L0xx_HAL_Driver/Src/stm32l0xx_hal_rcc_ex.c ****   /* Common part first */
 302:Drivers/STM32L0xx_HAL_Driver/Src/stm32l0xx_hal_rcc_ex.c ****   PeriphClkInit->PeriphClockSelection = RCC_PERIPHCLK_USART2 | RCC_PERIPHCLK_LPUART1 | \
 531              		.loc 1 302 39
 532 0008 7B68     		ldr	r3, [r7, #4]
 533 000a AE22     		movs	r2, #174
 534 000c 1A60     		str	r2, [r3]
 303:Drivers/STM32L0xx_HAL_Driver/Src/stm32l0xx_hal_rcc_ex.c ****                                         RCC_PERIPHCLK_I2C1   | RCC_PERIPHCLK_RTC     | \
 304:Drivers/STM32L0xx_HAL_Driver/Src/stm32l0xx_hal_rcc_ex.c ****                                         RCC_PERIPHCLK_LPTIM1;
 305:Drivers/STM32L0xx_HAL_Driver/Src/stm32l0xx_hal_rcc_ex.c **** #if defined(RCC_CCIPR_USART1SEL)
 306:Drivers/STM32L0xx_HAL_Driver/Src/stm32l0xx_hal_rcc_ex.c ****   PeriphClkInit->PeriphClockSelection |= RCC_PERIPHCLK_USART1;
 535              		.loc 1 306 39
 536 000e 7B68     		ldr	r3, [r7, #4]
 537 0010 1B68     		ldr	r3, [r3]
 538 0012 0122     		movs	r2, #1
 539 0014 1A43     		orrs	r2, r3
 540 0016 7B68     		ldr	r3, [r7, #4]
 541 0018 1A60     		str	r2, [r3]
 307:Drivers/STM32L0xx_HAL_Driver/Src/stm32l0xx_hal_rcc_ex.c **** #endif /* RCC_CCIPR_USART1SEL */
 308:Drivers/STM32L0xx_HAL_Driver/Src/stm32l0xx_hal_rcc_ex.c **** #if  defined(RCC_CCIPR_I2C3SEL)
 309:Drivers/STM32L0xx_HAL_Driver/Src/stm32l0xx_hal_rcc_ex.c ****   PeriphClkInit->PeriphClockSelection |= RCC_PERIPHCLK_I2C3;
 310:Drivers/STM32L0xx_HAL_Driver/Src/stm32l0xx_hal_rcc_ex.c **** #endif /* RCC_CCIPR_I2C3SEL */
 311:Drivers/STM32L0xx_HAL_Driver/Src/stm32l0xx_hal_rcc_ex.c **** #if defined(USB)
 312:Drivers/STM32L0xx_HAL_Driver/Src/stm32l0xx_hal_rcc_ex.c ****   PeriphClkInit->PeriphClockSelection |= RCC_PERIPHCLK_USB;
 542              		.loc 1 312 39
ARM GAS  C:\Users\lidka\AppData\Local\Temp\ccURlygc.s 			page 16


 543 001a 7B68     		ldr	r3, [r7, #4]
 544 001c 1B68     		ldr	r3, [r3]
 545 001e 4022     		movs	r2, #64
 546 0020 1A43     		orrs	r2, r3
 547 0022 7B68     		ldr	r3, [r7, #4]
 548 0024 1A60     		str	r2, [r3]
 313:Drivers/STM32L0xx_HAL_Driver/Src/stm32l0xx_hal_rcc_ex.c **** #endif /* USB */
 314:Drivers/STM32L0xx_HAL_Driver/Src/stm32l0xx_hal_rcc_ex.c **** #if defined(LCD)
 315:Drivers/STM32L0xx_HAL_Driver/Src/stm32l0xx_hal_rcc_ex.c ****   PeriphClkInit->PeriphClockSelection |= RCC_PERIPHCLK_LCD;
 549              		.loc 1 315 39
 550 0026 7B68     		ldr	r3, [r7, #4]
 551 0028 1B68     		ldr	r3, [r3]
 552 002a 8022     		movs	r2, #128
 553 002c 1201     		lsls	r2, r2, #4
 554 002e 1A43     		orrs	r2, r3
 555 0030 7B68     		ldr	r3, [r7, #4]
 556 0032 1A60     		str	r2, [r3]
 316:Drivers/STM32L0xx_HAL_Driver/Src/stm32l0xx_hal_rcc_ex.c **** #endif /* LCD */
 317:Drivers/STM32L0xx_HAL_Driver/Src/stm32l0xx_hal_rcc_ex.c **** 
 318:Drivers/STM32L0xx_HAL_Driver/Src/stm32l0xx_hal_rcc_ex.c ****   /* Get the RTC/LCD configuration -----------------------------------------------*/
 319:Drivers/STM32L0xx_HAL_Driver/Src/stm32l0xx_hal_rcc_ex.c ****   srcclk = __HAL_RCC_GET_RTC_SOURCE();
 557              		.loc 1 319 12
 558 0034 274B     		ldr	r3, .L28
 559 0036 1A6D     		ldr	r2, [r3, #80]
 560              		.loc 1 319 10
 561 0038 C023     		movs	r3, #192
 562 003a 9B02     		lsls	r3, r3, #10
 563 003c 1340     		ands	r3, r2
 564 003e FB60     		str	r3, [r7, #12]
 320:Drivers/STM32L0xx_HAL_Driver/Src/stm32l0xx_hal_rcc_ex.c ****   if (srcclk != RCC_RTCCLKSOURCE_HSE_DIV2)
 565              		.loc 1 320 6
 566 0040 FA68     		ldr	r2, [r7, #12]
 567 0042 C023     		movs	r3, #192
 568 0044 9B02     		lsls	r3, r3, #10
 569 0046 9A42     		cmp	r2, r3
 570 0048 03D0     		beq	.L26
 321:Drivers/STM32L0xx_HAL_Driver/Src/stm32l0xx_hal_rcc_ex.c ****   {
 322:Drivers/STM32L0xx_HAL_Driver/Src/stm32l0xx_hal_rcc_ex.c ****     /* Source clock is LSE or LSI*/
 323:Drivers/STM32L0xx_HAL_Driver/Src/stm32l0xx_hal_rcc_ex.c ****     PeriphClkInit->RTCClockSelection = srcclk;
 571              		.loc 1 323 38
 572 004a 7B68     		ldr	r3, [r7, #4]
 573 004c FA68     		ldr	r2, [r7, #12]
 574 004e 5A60     		str	r2, [r3, #4]
 575 0050 08E0     		b	.L27
 576              	.L26:
 324:Drivers/STM32L0xx_HAL_Driver/Src/stm32l0xx_hal_rcc_ex.c ****   }
 325:Drivers/STM32L0xx_HAL_Driver/Src/stm32l0xx_hal_rcc_ex.c ****   else
 326:Drivers/STM32L0xx_HAL_Driver/Src/stm32l0xx_hal_rcc_ex.c ****   {
 327:Drivers/STM32L0xx_HAL_Driver/Src/stm32l0xx_hal_rcc_ex.c ****     /* Source clock is HSE. Need to get the prescaler value*/
 328:Drivers/STM32L0xx_HAL_Driver/Src/stm32l0xx_hal_rcc_ex.c ****     PeriphClkInit->RTCClockSelection = srcclk | (READ_BIT(RCC->CR, RCC_CR_RTCPRE));
 577              		.loc 1 328 50
 578 0052 204B     		ldr	r3, .L28
 579 0054 1A68     		ldr	r2, [r3]
 580 0056 C023     		movs	r3, #192
 581 0058 9B03     		lsls	r3, r3, #14
 582 005a 1A40     		ands	r2, r3
 583              		.loc 1 328 47
ARM GAS  C:\Users\lidka\AppData\Local\Temp\ccURlygc.s 			page 17


 584 005c FB68     		ldr	r3, [r7, #12]
 585 005e 1A43     		orrs	r2, r3
 586              		.loc 1 328 38
 587 0060 7B68     		ldr	r3, [r7, #4]
 588 0062 5A60     		str	r2, [r3, #4]
 589              	.L27:
 329:Drivers/STM32L0xx_HAL_Driver/Src/stm32l0xx_hal_rcc_ex.c ****   }
 330:Drivers/STM32L0xx_HAL_Driver/Src/stm32l0xx_hal_rcc_ex.c **** #if defined(LCD)
 331:Drivers/STM32L0xx_HAL_Driver/Src/stm32l0xx_hal_rcc_ex.c ****   PeriphClkInit->LCDClockSelection = PeriphClkInit->RTCClockSelection;
 590              		.loc 1 331 51
 591 0064 7B68     		ldr	r3, [r7, #4]
 592 0066 5A68     		ldr	r2, [r3, #4]
 593              		.loc 1 331 36
 594 0068 7B68     		ldr	r3, [r7, #4]
 595 006a 9A60     		str	r2, [r3, #8]
 332:Drivers/STM32L0xx_HAL_Driver/Src/stm32l0xx_hal_rcc_ex.c **** #endif /* LCD */
 333:Drivers/STM32L0xx_HAL_Driver/Src/stm32l0xx_hal_rcc_ex.c **** #if defined(RCC_CCIPR_USART1SEL)
 334:Drivers/STM32L0xx_HAL_Driver/Src/stm32l0xx_hal_rcc_ex.c ****   /* Get the USART1 configuration --------------------------------------------*/
 335:Drivers/STM32L0xx_HAL_Driver/Src/stm32l0xx_hal_rcc_ex.c ****   PeriphClkInit->Usart1ClockSelection  = __HAL_RCC_GET_USART1_SOURCE();
 596              		.loc 1 335 42
 597 006c 194B     		ldr	r3, .L28
 598 006e DB6C     		ldr	r3, [r3, #76]
 599 0070 0322     		movs	r2, #3
 600 0072 1A40     		ands	r2, r3
 601              		.loc 1 335 40
 602 0074 7B68     		ldr	r3, [r7, #4]
 603 0076 DA60     		str	r2, [r3, #12]
 336:Drivers/STM32L0xx_HAL_Driver/Src/stm32l0xx_hal_rcc_ex.c **** #endif /* RCC_CCIPR_USART1SEL */
 337:Drivers/STM32L0xx_HAL_Driver/Src/stm32l0xx_hal_rcc_ex.c ****   /* Get the USART2 clock source ---------------------------------------------*/
 338:Drivers/STM32L0xx_HAL_Driver/Src/stm32l0xx_hal_rcc_ex.c ****   PeriphClkInit->Usart2ClockSelection  = __HAL_RCC_GET_USART2_SOURCE();
 604              		.loc 1 338 42
 605 0078 164B     		ldr	r3, .L28
 606 007a DB6C     		ldr	r3, [r3, #76]
 607 007c 0C22     		movs	r2, #12
 608 007e 1A40     		ands	r2, r3
 609              		.loc 1 338 40
 610 0080 7B68     		ldr	r3, [r7, #4]
 611 0082 1A61     		str	r2, [r3, #16]
 339:Drivers/STM32L0xx_HAL_Driver/Src/stm32l0xx_hal_rcc_ex.c ****   /* Get the LPUART1 clock source ---------------------------------------------*/
 340:Drivers/STM32L0xx_HAL_Driver/Src/stm32l0xx_hal_rcc_ex.c ****   PeriphClkInit->Lpuart1ClockSelection = __HAL_RCC_GET_LPUART1_SOURCE();
 612              		.loc 1 340 42
 613 0084 134B     		ldr	r3, .L28
 614 0086 DA6C     		ldr	r2, [r3, #76]
 615 0088 C023     		movs	r3, #192
 616 008a 1B01     		lsls	r3, r3, #4
 617 008c 1A40     		ands	r2, r3
 618              		.loc 1 340 40
 619 008e 7B68     		ldr	r3, [r7, #4]
 620 0090 5A61     		str	r2, [r3, #20]
 341:Drivers/STM32L0xx_HAL_Driver/Src/stm32l0xx_hal_rcc_ex.c ****   /* Get the I2C1 clock source -----------------------------------------------*/
 342:Drivers/STM32L0xx_HAL_Driver/Src/stm32l0xx_hal_rcc_ex.c ****   PeriphClkInit->I2c1ClockSelection    = __HAL_RCC_GET_I2C1_SOURCE();
 621              		.loc 1 342 42
 622 0092 104B     		ldr	r3, .L28
 623 0094 DA6C     		ldr	r2, [r3, #76]
 624 0096 C023     		movs	r3, #192
 625 0098 9B01     		lsls	r3, r3, #6
 626 009a 1A40     		ands	r2, r3
ARM GAS  C:\Users\lidka\AppData\Local\Temp\ccURlygc.s 			page 18


 627              		.loc 1 342 40
 628 009c 7B68     		ldr	r3, [r7, #4]
 629 009e 9A61     		str	r2, [r3, #24]
 343:Drivers/STM32L0xx_HAL_Driver/Src/stm32l0xx_hal_rcc_ex.c **** #if defined(RCC_CCIPR_I2C3SEL)
 344:Drivers/STM32L0xx_HAL_Driver/Src/stm32l0xx_hal_rcc_ex.c **** /* Get the I2C3 clock source -----------------------------------------------*/
 345:Drivers/STM32L0xx_HAL_Driver/Src/stm32l0xx_hal_rcc_ex.c ****   PeriphClkInit->I2c3ClockSelection    = __HAL_RCC_GET_I2C3_SOURCE();
 346:Drivers/STM32L0xx_HAL_Driver/Src/stm32l0xx_hal_rcc_ex.c **** #endif /* RCC_CCIPR_I2C3SEL */
 347:Drivers/STM32L0xx_HAL_Driver/Src/stm32l0xx_hal_rcc_ex.c ****   /* Get the LPTIM1 clock source -----------------------------------------------*/
 348:Drivers/STM32L0xx_HAL_Driver/Src/stm32l0xx_hal_rcc_ex.c ****   PeriphClkInit->LptimClockSelection   = __HAL_RCC_GET_LPTIM1_SOURCE();
 630              		.loc 1 348 42
 631 00a0 0C4B     		ldr	r3, .L28
 632 00a2 DA6C     		ldr	r2, [r3, #76]
 633 00a4 C023     		movs	r3, #192
 634 00a6 1B03     		lsls	r3, r3, #12
 635 00a8 1A40     		ands	r2, r3
 636              		.loc 1 348 40
 637 00aa 7B68     		ldr	r3, [r7, #4]
 638 00ac DA61     		str	r2, [r3, #28]
 349:Drivers/STM32L0xx_HAL_Driver/Src/stm32l0xx_hal_rcc_ex.c ****   /* Get the RTC clock source -----------------------------------------------*/
 350:Drivers/STM32L0xx_HAL_Driver/Src/stm32l0xx_hal_rcc_ex.c ****   PeriphClkInit->RTCClockSelection     = __HAL_RCC_GET_RTC_SOURCE();
 639              		.loc 1 350 42
 640 00ae 094B     		ldr	r3, .L28
 641 00b0 1A6D     		ldr	r2, [r3, #80]
 642 00b2 C023     		movs	r3, #192
 643 00b4 9B02     		lsls	r3, r3, #10
 644 00b6 1A40     		ands	r2, r3
 645              		.loc 1 350 40
 646 00b8 7B68     		ldr	r3, [r7, #4]
 647 00ba 5A60     		str	r2, [r3, #4]
 351:Drivers/STM32L0xx_HAL_Driver/Src/stm32l0xx_hal_rcc_ex.c **** #if defined(USB)
 352:Drivers/STM32L0xx_HAL_Driver/Src/stm32l0xx_hal_rcc_ex.c ****   /* Get the USB/RNG clock source -----------------------------------------------*/
 353:Drivers/STM32L0xx_HAL_Driver/Src/stm32l0xx_hal_rcc_ex.c ****   PeriphClkInit->UsbClockSelection     = __HAL_RCC_GET_USB_SOURCE();
 648              		.loc 1 353 42
 649 00bc 054B     		ldr	r3, .L28
 650 00be DA6C     		ldr	r2, [r3, #76]
 651 00c0 8023     		movs	r3, #128
 652 00c2 DB04     		lsls	r3, r3, #19
 653 00c4 1A40     		ands	r2, r3
 654              		.loc 1 353 40
 655 00c6 7B68     		ldr	r3, [r7, #4]
 656 00c8 1A62     		str	r2, [r3, #32]
 354:Drivers/STM32L0xx_HAL_Driver/Src/stm32l0xx_hal_rcc_ex.c **** #endif /* USB */
 355:Drivers/STM32L0xx_HAL_Driver/Src/stm32l0xx_hal_rcc_ex.c **** }
 657              		.loc 1 355 1
 658 00ca C046     		nop
 659 00cc BD46     		mov	sp, r7
 660 00ce 04B0     		add	sp, sp, #16
 661              		@ sp needed
 662 00d0 80BD     		pop	{r7, pc}
 663              	.L29:
 664 00d2 C046     		.align	2
 665              	.L28:
 666 00d4 00100240 		.word	1073876992
 667              		.cfi_endproc
 668              	.LFE48:
 670              		.global	__aeabi_uidiv
 671              		.section	.text.HAL_RCCEx_GetPeriphCLKFreq,"ax",%progbits
ARM GAS  C:\Users\lidka\AppData\Local\Temp\ccURlygc.s 			page 19


 672              		.align	1
 673              		.global	HAL_RCCEx_GetPeriphCLKFreq
 674              		.syntax unified
 675              		.code	16
 676              		.thumb_func
 678              	HAL_RCCEx_GetPeriphCLKFreq:
 679              	.LFB49:
 356:Drivers/STM32L0xx_HAL_Driver/Src/stm32l0xx_hal_rcc_ex.c **** 
 357:Drivers/STM32L0xx_HAL_Driver/Src/stm32l0xx_hal_rcc_ex.c **** /**
 358:Drivers/STM32L0xx_HAL_Driver/Src/stm32l0xx_hal_rcc_ex.c ****   * @brief  Return the peripheral clock frequency
 359:Drivers/STM32L0xx_HAL_Driver/Src/stm32l0xx_hal_rcc_ex.c ****   * @note   Return 0 if peripheral clock is unknown
 360:Drivers/STM32L0xx_HAL_Driver/Src/stm32l0xx_hal_rcc_ex.c ****   * @param  PeriphClk Peripheral clock identifier
 361:Drivers/STM32L0xx_HAL_Driver/Src/stm32l0xx_hal_rcc_ex.c ****   *         This parameter can be one of the following values:
 362:Drivers/STM32L0xx_HAL_Driver/Src/stm32l0xx_hal_rcc_ex.c ****   *            @arg @ref RCC_PERIPHCLK_RTC      RTC peripheral clock
 363:Drivers/STM32L0xx_HAL_Driver/Src/stm32l0xx_hal_rcc_ex.c ****   *            @arg @ref RCC_PERIPHCLK_LCD      LCD peripheral clock (*)
 364:Drivers/STM32L0xx_HAL_Driver/Src/stm32l0xx_hal_rcc_ex.c ****   *            @arg @ref RCC_PERIPHCLK_USB      USB or RNG peripheral clock (*)
 365:Drivers/STM32L0xx_HAL_Driver/Src/stm32l0xx_hal_rcc_ex.c ****   *            @arg @ref RCC_PERIPHCLK_USART1   USART1 peripheral clock (*)
 366:Drivers/STM32L0xx_HAL_Driver/Src/stm32l0xx_hal_rcc_ex.c ****   *            @arg @ref RCC_PERIPHCLK_USART2   USART2 peripheral clock
 367:Drivers/STM32L0xx_HAL_Driver/Src/stm32l0xx_hal_rcc_ex.c ****   *            @arg @ref RCC_PERIPHCLK_LPUART1  LPUART1 peripheral clock
 368:Drivers/STM32L0xx_HAL_Driver/Src/stm32l0xx_hal_rcc_ex.c ****   *            @arg @ref RCC_PERIPHCLK_I2C1     I2C1 peripheral clock
 369:Drivers/STM32L0xx_HAL_Driver/Src/stm32l0xx_hal_rcc_ex.c ****   *            @arg @ref RCC_PERIPHCLK_I2C2     I2C2 peripheral clock (*)
 370:Drivers/STM32L0xx_HAL_Driver/Src/stm32l0xx_hal_rcc_ex.c ****   *            @arg @ref RCC_PERIPHCLK_I2C3     I2C3 peripheral clock (*)
 371:Drivers/STM32L0xx_HAL_Driver/Src/stm32l0xx_hal_rcc_ex.c ****   * @note   (*) means that this peripheral is not present on all the devices
 372:Drivers/STM32L0xx_HAL_Driver/Src/stm32l0xx_hal_rcc_ex.c ****   * @retval Frequency in Hz (0: means that no available frequency for the peripheral)
 373:Drivers/STM32L0xx_HAL_Driver/Src/stm32l0xx_hal_rcc_ex.c ****   */
 374:Drivers/STM32L0xx_HAL_Driver/Src/stm32l0xx_hal_rcc_ex.c **** uint32_t HAL_RCCEx_GetPeriphCLKFreq(uint32_t PeriphClk)
 375:Drivers/STM32L0xx_HAL_Driver/Src/stm32l0xx_hal_rcc_ex.c **** {
 680              		.loc 1 375 1
 681              		.cfi_startproc
 682              		@ args = 0, pretend = 0, frame = 40
 683              		@ frame_needed = 1, uses_anonymous_args = 0
 684 0000 80B5     		push	{r7, lr}
 685              	.LCFI6:
 686              		.cfi_def_cfa_offset 8
 687              		.cfi_offset 7, -8
 688              		.cfi_offset 14, -4
 689 0002 8AB0     		sub	sp, sp, #40
 690              	.LCFI7:
 691              		.cfi_def_cfa_offset 48
 692 0004 00AF     		add	r7, sp, #0
 693              	.LCFI8:
 694              		.cfi_def_cfa_register 7
 695 0006 7860     		str	r0, [r7, #4]
 376:Drivers/STM32L0xx_HAL_Driver/Src/stm32l0xx_hal_rcc_ex.c ****   uint32_t frequency = 0U;
 696              		.loc 1 376 12
 697 0008 0023     		movs	r3, #0
 698 000a 7B62     		str	r3, [r7, #36]
 377:Drivers/STM32L0xx_HAL_Driver/Src/stm32l0xx_hal_rcc_ex.c ****   uint32_t temp_reg, clkprediv, srcclk;    /* no init needed */
 378:Drivers/STM32L0xx_HAL_Driver/Src/stm32l0xx_hal_rcc_ex.c **** #if defined(USB)
 379:Drivers/STM32L0xx_HAL_Driver/Src/stm32l0xx_hal_rcc_ex.c ****   uint32_t pllmul, plldiv, pllvco;    /* no init needed */
 380:Drivers/STM32L0xx_HAL_Driver/Src/stm32l0xx_hal_rcc_ex.c **** #endif /* USB */
 381:Drivers/STM32L0xx_HAL_Driver/Src/stm32l0xx_hal_rcc_ex.c **** 
 382:Drivers/STM32L0xx_HAL_Driver/Src/stm32l0xx_hal_rcc_ex.c ****   /* Check the parameters */
 383:Drivers/STM32L0xx_HAL_Driver/Src/stm32l0xx_hal_rcc_ex.c ****   assert_param(IS_RCC_PERIPHCLOCK(PeriphClk));
 384:Drivers/STM32L0xx_HAL_Driver/Src/stm32l0xx_hal_rcc_ex.c **** 
 385:Drivers/STM32L0xx_HAL_Driver/Src/stm32l0xx_hal_rcc_ex.c ****   switch (PeriphClk)
 699              		.loc 1 385 3
ARM GAS  C:\Users\lidka\AppData\Local\Temp\ccURlygc.s 			page 20


 700 000c 7A68     		ldr	r2, [r7, #4]
 701 000e 8023     		movs	r3, #128
 702 0010 1B01     		lsls	r3, r3, #4
 703 0012 9A42     		cmp	r2, r3
 704 0014 1AD0     		beq	.L31
 705 0016 7A68     		ldr	r2, [r7, #4]
 706 0018 8023     		movs	r3, #128
 707 001a 1B01     		lsls	r3, r3, #4
 708 001c 9A42     		cmp	r2, r3
 709 001e 00D9     		bls	.LCB581
 710 0020 E4E1     		b	.L83	@long jump
 711              	.LCB581:
 712 0022 7B68     		ldr	r3, [r7, #4]
 713 0024 202B     		cmp	r3, #32
 714 0026 0DD8     		bhi	.L33
 715 0028 7B68     		ldr	r3, [r7, #4]
 716 002a 002B     		cmp	r3, #0
 717 002c 00D1     		bne	.LCB587
 718 002e DDE1     		b	.L83	@long jump
 719              	.LCB587:
 720 0030 7B68     		ldr	r3, [r7, #4]
 721 0032 202B     		cmp	r3, #32
 722 0034 00D9     		bls	.LCB590
 723 0036 D9E1     		b	.L83	@long jump
 724              	.LCB590:
 725 0038 7B68     		ldr	r3, [r7, #4]
 726 003a 9A00     		lsls	r2, r3, #2
 727 003c C64B     		ldr	r3, .L91
 728 003e D318     		adds	r3, r2, r3
 729 0040 1B68     		ldr	r3, [r3]
 730 0042 9F46     		mov	pc, r3
 731              		.section	.rodata.HAL_RCCEx_GetPeriphCLKFreq,"a",%progbits
 732              		.align	2
 733              	.L34:
 734 0000 EC030000 		.word	.L83
 735 0004 B8010000 		.word	.L39
 736 0008 34020000 		.word	.L38
 737 000c EC030000 		.word	.L83
 738 0010 B0020000 		.word	.L37
 739 0014 EC030000 		.word	.L83
 740 0018 EC030000 		.word	.L83
 741 001c EC030000 		.word	.L83
 742 0020 3A030000 		.word	.L36
 743 0024 EC030000 		.word	.L83
 744 0028 EC030000 		.word	.L83
 745 002c EC030000 		.word	.L83
 746 0030 EC030000 		.word	.L83
 747 0034 EC030000 		.word	.L83
 748 0038 EC030000 		.word	.L83
 749 003c EC030000 		.word	.L83
 750 0040 CA030000 		.word	.L35
 751 0044 EC030000 		.word	.L83
 752 0048 EC030000 		.word	.L83
 753 004c EC030000 		.word	.L83
 754 0050 EC030000 		.word	.L83
 755 0054 EC030000 		.word	.L83
 756 0058 EC030000 		.word	.L83
ARM GAS  C:\Users\lidka\AppData\Local\Temp\ccURlygc.s 			page 21


 757 005c EC030000 		.word	.L83
 758 0060 EC030000 		.word	.L83
 759 0064 EC030000 		.word	.L83
 760 0068 EC030000 		.word	.L83
 761 006c EC030000 		.word	.L83
 762 0070 EC030000 		.word	.L83
 763 0074 EC030000 		.word	.L83
 764 0078 EC030000 		.word	.L83
 765 007c EC030000 		.word	.L83
 766 0080 4C000000 		.word	.L31
 767              		.section	.text.HAL_RCCEx_GetPeriphCLKFreq
 768              	.L33:
 769 0044 7B68     		ldr	r3, [r7, #4]
 770 0046 402B     		cmp	r3, #64
 771 0048 5ED0     		beq	.L40
 386:Drivers/STM32L0xx_HAL_Driver/Src/stm32l0xx_hal_rcc_ex.c ****   {
 387:Drivers/STM32L0xx_HAL_Driver/Src/stm32l0xx_hal_rcc_ex.c ****   case RCC_PERIPHCLK_RTC:
 388:Drivers/STM32L0xx_HAL_Driver/Src/stm32l0xx_hal_rcc_ex.c **** #if defined(LCD)
 389:Drivers/STM32L0xx_HAL_Driver/Src/stm32l0xx_hal_rcc_ex.c ****   case RCC_PERIPHCLK_LCD:
 390:Drivers/STM32L0xx_HAL_Driver/Src/stm32l0xx_hal_rcc_ex.c **** #endif /* LCD */
 391:Drivers/STM32L0xx_HAL_Driver/Src/stm32l0xx_hal_rcc_ex.c ****     {
 392:Drivers/STM32L0xx_HAL_Driver/Src/stm32l0xx_hal_rcc_ex.c ****       /* Get RCC CSR configuration ------------------------------------------------------*/
 393:Drivers/STM32L0xx_HAL_Driver/Src/stm32l0xx_hal_rcc_ex.c ****       temp_reg = RCC->CSR;
 394:Drivers/STM32L0xx_HAL_Driver/Src/stm32l0xx_hal_rcc_ex.c **** 
 395:Drivers/STM32L0xx_HAL_Driver/Src/stm32l0xx_hal_rcc_ex.c ****       /* Get the current RTC source */
 396:Drivers/STM32L0xx_HAL_Driver/Src/stm32l0xx_hal_rcc_ex.c ****       srcclk = __HAL_RCC_GET_RTC_SOURCE();
 397:Drivers/STM32L0xx_HAL_Driver/Src/stm32l0xx_hal_rcc_ex.c **** 
 398:Drivers/STM32L0xx_HAL_Driver/Src/stm32l0xx_hal_rcc_ex.c ****       /* Check if LSE is ready if RTC clock selection is LSE */
 399:Drivers/STM32L0xx_HAL_Driver/Src/stm32l0xx_hal_rcc_ex.c ****       if ((srcclk == RCC_RTCCLKSOURCE_LSE) && (HAL_IS_BIT_SET(temp_reg, RCC_CSR_LSERDY)))
 400:Drivers/STM32L0xx_HAL_Driver/Src/stm32l0xx_hal_rcc_ex.c ****       {
 401:Drivers/STM32L0xx_HAL_Driver/Src/stm32l0xx_hal_rcc_ex.c ****         frequency = LSE_VALUE;
 402:Drivers/STM32L0xx_HAL_Driver/Src/stm32l0xx_hal_rcc_ex.c ****       }
 403:Drivers/STM32L0xx_HAL_Driver/Src/stm32l0xx_hal_rcc_ex.c ****       /* Check if LSI is ready if RTC clock selection is LSI */
 404:Drivers/STM32L0xx_HAL_Driver/Src/stm32l0xx_hal_rcc_ex.c ****       else if (srcclk == RCC_RTCCLKSOURCE_LSI)
 405:Drivers/STM32L0xx_HAL_Driver/Src/stm32l0xx_hal_rcc_ex.c ****       {
 406:Drivers/STM32L0xx_HAL_Driver/Src/stm32l0xx_hal_rcc_ex.c ****         if (HAL_IS_BIT_SET(temp_reg, RCC_CSR_LSIRDY))
 407:Drivers/STM32L0xx_HAL_Driver/Src/stm32l0xx_hal_rcc_ex.c ****         {
 408:Drivers/STM32L0xx_HAL_Driver/Src/stm32l0xx_hal_rcc_ex.c ****           frequency = LSI_VALUE;
 409:Drivers/STM32L0xx_HAL_Driver/Src/stm32l0xx_hal_rcc_ex.c ****         }
 410:Drivers/STM32L0xx_HAL_Driver/Src/stm32l0xx_hal_rcc_ex.c ****       }
 411:Drivers/STM32L0xx_HAL_Driver/Src/stm32l0xx_hal_rcc_ex.c ****       /* Check if HSE is ready and if RTC clock selection is HSE */
 412:Drivers/STM32L0xx_HAL_Driver/Src/stm32l0xx_hal_rcc_ex.c ****       else if (srcclk == RCC_RTCCLKSOURCE_HSE_DIVX)
 413:Drivers/STM32L0xx_HAL_Driver/Src/stm32l0xx_hal_rcc_ex.c ****       {
 414:Drivers/STM32L0xx_HAL_Driver/Src/stm32l0xx_hal_rcc_ex.c ****         if (HAL_IS_BIT_SET(RCC->CR, RCC_CR_HSERDY))
 415:Drivers/STM32L0xx_HAL_Driver/Src/stm32l0xx_hal_rcc_ex.c ****         {
 416:Drivers/STM32L0xx_HAL_Driver/Src/stm32l0xx_hal_rcc_ex.c ****           /* Get the current HSE clock divider */
 417:Drivers/STM32L0xx_HAL_Driver/Src/stm32l0xx_hal_rcc_ex.c ****           clkprediv = __HAL_RCC_GET_RTC_HSE_PRESCALER();
 418:Drivers/STM32L0xx_HAL_Driver/Src/stm32l0xx_hal_rcc_ex.c **** 
 419:Drivers/STM32L0xx_HAL_Driver/Src/stm32l0xx_hal_rcc_ex.c ****           switch (clkprediv)
 420:Drivers/STM32L0xx_HAL_Driver/Src/stm32l0xx_hal_rcc_ex.c ****           {
 421:Drivers/STM32L0xx_HAL_Driver/Src/stm32l0xx_hal_rcc_ex.c ****             case RCC_RTC_HSE_DIV_16:  /* HSE DIV16 has been selected */
 422:Drivers/STM32L0xx_HAL_Driver/Src/stm32l0xx_hal_rcc_ex.c ****             {
 423:Drivers/STM32L0xx_HAL_Driver/Src/stm32l0xx_hal_rcc_ex.c ****               frequency = HSE_VALUE / 16U;
 424:Drivers/STM32L0xx_HAL_Driver/Src/stm32l0xx_hal_rcc_ex.c ****               break;
 425:Drivers/STM32L0xx_HAL_Driver/Src/stm32l0xx_hal_rcc_ex.c ****             }
 426:Drivers/STM32L0xx_HAL_Driver/Src/stm32l0xx_hal_rcc_ex.c ****             case RCC_RTC_HSE_DIV_8:   /* HSE DIV8 has been selected  */
 427:Drivers/STM32L0xx_HAL_Driver/Src/stm32l0xx_hal_rcc_ex.c ****             {
ARM GAS  C:\Users\lidka\AppData\Local\Temp\ccURlygc.s 			page 22


 428:Drivers/STM32L0xx_HAL_Driver/Src/stm32l0xx_hal_rcc_ex.c ****               frequency = HSE_VALUE / 8U;
 429:Drivers/STM32L0xx_HAL_Driver/Src/stm32l0xx_hal_rcc_ex.c ****               break;
 430:Drivers/STM32L0xx_HAL_Driver/Src/stm32l0xx_hal_rcc_ex.c ****             }
 431:Drivers/STM32L0xx_HAL_Driver/Src/stm32l0xx_hal_rcc_ex.c ****             case RCC_RTC_HSE_DIV_4:   /* HSE DIV4 has been selected  */
 432:Drivers/STM32L0xx_HAL_Driver/Src/stm32l0xx_hal_rcc_ex.c ****             {
 433:Drivers/STM32L0xx_HAL_Driver/Src/stm32l0xx_hal_rcc_ex.c ****               frequency = HSE_VALUE / 4U;
 434:Drivers/STM32L0xx_HAL_Driver/Src/stm32l0xx_hal_rcc_ex.c ****               break;
 435:Drivers/STM32L0xx_HAL_Driver/Src/stm32l0xx_hal_rcc_ex.c ****             }
 436:Drivers/STM32L0xx_HAL_Driver/Src/stm32l0xx_hal_rcc_ex.c ****             default:                  /* HSE DIV2 has been selected  */
 437:Drivers/STM32L0xx_HAL_Driver/Src/stm32l0xx_hal_rcc_ex.c ****             {
 438:Drivers/STM32L0xx_HAL_Driver/Src/stm32l0xx_hal_rcc_ex.c ****               frequency = HSE_VALUE / 2U;
 439:Drivers/STM32L0xx_HAL_Driver/Src/stm32l0xx_hal_rcc_ex.c ****               break;
 440:Drivers/STM32L0xx_HAL_Driver/Src/stm32l0xx_hal_rcc_ex.c ****             }
 441:Drivers/STM32L0xx_HAL_Driver/Src/stm32l0xx_hal_rcc_ex.c ****           }
 442:Drivers/STM32L0xx_HAL_Driver/Src/stm32l0xx_hal_rcc_ex.c ****         }
 443:Drivers/STM32L0xx_HAL_Driver/Src/stm32l0xx_hal_rcc_ex.c ****       }
 444:Drivers/STM32L0xx_HAL_Driver/Src/stm32l0xx_hal_rcc_ex.c ****       /* Clock not enabled for RTC */
 445:Drivers/STM32L0xx_HAL_Driver/Src/stm32l0xx_hal_rcc_ex.c ****       else
 446:Drivers/STM32L0xx_HAL_Driver/Src/stm32l0xx_hal_rcc_ex.c ****       {
 447:Drivers/STM32L0xx_HAL_Driver/Src/stm32l0xx_hal_rcc_ex.c ****         frequency = 0U;
 448:Drivers/STM32L0xx_HAL_Driver/Src/stm32l0xx_hal_rcc_ex.c ****       }
 449:Drivers/STM32L0xx_HAL_Driver/Src/stm32l0xx_hal_rcc_ex.c ****       break;
 450:Drivers/STM32L0xx_HAL_Driver/Src/stm32l0xx_hal_rcc_ex.c ****     }
 451:Drivers/STM32L0xx_HAL_Driver/Src/stm32l0xx_hal_rcc_ex.c **** #if defined(USB)
 452:Drivers/STM32L0xx_HAL_Driver/Src/stm32l0xx_hal_rcc_ex.c ****   case RCC_PERIPHCLK_USB:
 453:Drivers/STM32L0xx_HAL_Driver/Src/stm32l0xx_hal_rcc_ex.c ****     {
 454:Drivers/STM32L0xx_HAL_Driver/Src/stm32l0xx_hal_rcc_ex.c ****       /* Get the current USB source */
 455:Drivers/STM32L0xx_HAL_Driver/Src/stm32l0xx_hal_rcc_ex.c ****       srcclk = __HAL_RCC_GET_USB_SOURCE();
 456:Drivers/STM32L0xx_HAL_Driver/Src/stm32l0xx_hal_rcc_ex.c **** 
 457:Drivers/STM32L0xx_HAL_Driver/Src/stm32l0xx_hal_rcc_ex.c ****       if (srcclk == RCC_USBCLKSOURCE_PLL)
 458:Drivers/STM32L0xx_HAL_Driver/Src/stm32l0xx_hal_rcc_ex.c ****       {
 459:Drivers/STM32L0xx_HAL_Driver/Src/stm32l0xx_hal_rcc_ex.c ****         if (HAL_IS_BIT_SET(RCC->CR, RCC_CR_PLLRDY))
 460:Drivers/STM32L0xx_HAL_Driver/Src/stm32l0xx_hal_rcc_ex.c ****         {
 461:Drivers/STM32L0xx_HAL_Driver/Src/stm32l0xx_hal_rcc_ex.c ****           /* Get PLL clock source and multiplication factor ----------------------*/
 462:Drivers/STM32L0xx_HAL_Driver/Src/stm32l0xx_hal_rcc_ex.c ****           pllmul = RCC->CFGR & RCC_CFGR_PLLMUL;
 463:Drivers/STM32L0xx_HAL_Driver/Src/stm32l0xx_hal_rcc_ex.c ****           plldiv = RCC->CFGR & RCC_CFGR_PLLDIV;
 464:Drivers/STM32L0xx_HAL_Driver/Src/stm32l0xx_hal_rcc_ex.c ****           pllmul = PLLMulTable[(pllmul >> RCC_CFGR_PLLMUL_Pos)];
 465:Drivers/STM32L0xx_HAL_Driver/Src/stm32l0xx_hal_rcc_ex.c ****           plldiv = (plldiv >> RCC_CFGR_PLLDIV_Pos) + 1U;
 466:Drivers/STM32L0xx_HAL_Driver/Src/stm32l0xx_hal_rcc_ex.c **** 
 467:Drivers/STM32L0xx_HAL_Driver/Src/stm32l0xx_hal_rcc_ex.c ****           /* Compute PLL clock input */
 468:Drivers/STM32L0xx_HAL_Driver/Src/stm32l0xx_hal_rcc_ex.c ****           if(__HAL_RCC_GET_PLL_OSCSOURCE() == RCC_PLLSOURCE_HSI)
 469:Drivers/STM32L0xx_HAL_Driver/Src/stm32l0xx_hal_rcc_ex.c ****           {
 470:Drivers/STM32L0xx_HAL_Driver/Src/stm32l0xx_hal_rcc_ex.c ****             if (READ_BIT(RCC->CR, RCC_CR_HSIDIVF) != 0U)
 471:Drivers/STM32L0xx_HAL_Driver/Src/stm32l0xx_hal_rcc_ex.c ****             {
 472:Drivers/STM32L0xx_HAL_Driver/Src/stm32l0xx_hal_rcc_ex.c ****               pllvco =  (HSI_VALUE >> 2U);
 473:Drivers/STM32L0xx_HAL_Driver/Src/stm32l0xx_hal_rcc_ex.c ****             }
 474:Drivers/STM32L0xx_HAL_Driver/Src/stm32l0xx_hal_rcc_ex.c ****             else
 475:Drivers/STM32L0xx_HAL_Driver/Src/stm32l0xx_hal_rcc_ex.c ****             {
 476:Drivers/STM32L0xx_HAL_Driver/Src/stm32l0xx_hal_rcc_ex.c ****               pllvco =  HSI_VALUE;
 477:Drivers/STM32L0xx_HAL_Driver/Src/stm32l0xx_hal_rcc_ex.c ****             }
 478:Drivers/STM32L0xx_HAL_Driver/Src/stm32l0xx_hal_rcc_ex.c ****           }
 479:Drivers/STM32L0xx_HAL_Driver/Src/stm32l0xx_hal_rcc_ex.c ****           else /* HSE source */
 480:Drivers/STM32L0xx_HAL_Driver/Src/stm32l0xx_hal_rcc_ex.c ****           {
 481:Drivers/STM32L0xx_HAL_Driver/Src/stm32l0xx_hal_rcc_ex.c ****             pllvco = HSE_VALUE;
 482:Drivers/STM32L0xx_HAL_Driver/Src/stm32l0xx_hal_rcc_ex.c ****           }
 483:Drivers/STM32L0xx_HAL_Driver/Src/stm32l0xx_hal_rcc_ex.c ****           /* pllvco * pllmul / plldiv */
 484:Drivers/STM32L0xx_HAL_Driver/Src/stm32l0xx_hal_rcc_ex.c ****           pllvco = (pllvco * pllmul);
ARM GAS  C:\Users\lidka\AppData\Local\Temp\ccURlygc.s 			page 23


 485:Drivers/STM32L0xx_HAL_Driver/Src/stm32l0xx_hal_rcc_ex.c ****           frequency = (pllvco/ plldiv);
 486:Drivers/STM32L0xx_HAL_Driver/Src/stm32l0xx_hal_rcc_ex.c ****         }
 487:Drivers/STM32L0xx_HAL_Driver/Src/stm32l0xx_hal_rcc_ex.c ****       }
 488:Drivers/STM32L0xx_HAL_Driver/Src/stm32l0xx_hal_rcc_ex.c ****       else if (srcclk == RCC_USBCLKSOURCE_HSI48)
 489:Drivers/STM32L0xx_HAL_Driver/Src/stm32l0xx_hal_rcc_ex.c ****       {
 490:Drivers/STM32L0xx_HAL_Driver/Src/stm32l0xx_hal_rcc_ex.c ****         if (HAL_IS_BIT_SET(RCC->CRRCR, RCC_CRRCR_HSI48RDY))
 491:Drivers/STM32L0xx_HAL_Driver/Src/stm32l0xx_hal_rcc_ex.c ****         {
 492:Drivers/STM32L0xx_HAL_Driver/Src/stm32l0xx_hal_rcc_ex.c ****           frequency = HSI48_VALUE;
 493:Drivers/STM32L0xx_HAL_Driver/Src/stm32l0xx_hal_rcc_ex.c ****         }
 494:Drivers/STM32L0xx_HAL_Driver/Src/stm32l0xx_hal_rcc_ex.c ****       }
 495:Drivers/STM32L0xx_HAL_Driver/Src/stm32l0xx_hal_rcc_ex.c ****       else /* RCC_USBCLKSOURCE_NONE */
 496:Drivers/STM32L0xx_HAL_Driver/Src/stm32l0xx_hal_rcc_ex.c ****       {
 497:Drivers/STM32L0xx_HAL_Driver/Src/stm32l0xx_hal_rcc_ex.c ****           frequency = 0U;
 498:Drivers/STM32L0xx_HAL_Driver/Src/stm32l0xx_hal_rcc_ex.c ****       }
 499:Drivers/STM32L0xx_HAL_Driver/Src/stm32l0xx_hal_rcc_ex.c ****       break;
 500:Drivers/STM32L0xx_HAL_Driver/Src/stm32l0xx_hal_rcc_ex.c ****     }
 501:Drivers/STM32L0xx_HAL_Driver/Src/stm32l0xx_hal_rcc_ex.c **** #endif /* USB */
 502:Drivers/STM32L0xx_HAL_Driver/Src/stm32l0xx_hal_rcc_ex.c **** #if defined(RCC_CCIPR_USART1SEL)
 503:Drivers/STM32L0xx_HAL_Driver/Src/stm32l0xx_hal_rcc_ex.c ****   case RCC_PERIPHCLK_USART1:
 504:Drivers/STM32L0xx_HAL_Driver/Src/stm32l0xx_hal_rcc_ex.c ****     {
 505:Drivers/STM32L0xx_HAL_Driver/Src/stm32l0xx_hal_rcc_ex.c ****       /* Get the current USART1 source */
 506:Drivers/STM32L0xx_HAL_Driver/Src/stm32l0xx_hal_rcc_ex.c ****       srcclk = __HAL_RCC_GET_USART1_SOURCE();
 507:Drivers/STM32L0xx_HAL_Driver/Src/stm32l0xx_hal_rcc_ex.c **** 
 508:Drivers/STM32L0xx_HAL_Driver/Src/stm32l0xx_hal_rcc_ex.c ****       /* Check if USART1 clock selection is PCLK2 */
 509:Drivers/STM32L0xx_HAL_Driver/Src/stm32l0xx_hal_rcc_ex.c ****       if (srcclk == RCC_USART1CLKSOURCE_PCLK2)
 510:Drivers/STM32L0xx_HAL_Driver/Src/stm32l0xx_hal_rcc_ex.c ****       {
 511:Drivers/STM32L0xx_HAL_Driver/Src/stm32l0xx_hal_rcc_ex.c ****         frequency = HAL_RCC_GetPCLK2Freq();
 512:Drivers/STM32L0xx_HAL_Driver/Src/stm32l0xx_hal_rcc_ex.c ****       }
 513:Drivers/STM32L0xx_HAL_Driver/Src/stm32l0xx_hal_rcc_ex.c ****       /* Check if HSI is ready and if USART1 clock selection is HSI */
 514:Drivers/STM32L0xx_HAL_Driver/Src/stm32l0xx_hal_rcc_ex.c ****       else if (srcclk == RCC_USART1CLKSOURCE_HSI)
 515:Drivers/STM32L0xx_HAL_Driver/Src/stm32l0xx_hal_rcc_ex.c ****       {
 516:Drivers/STM32L0xx_HAL_Driver/Src/stm32l0xx_hal_rcc_ex.c ****         if (HAL_IS_BIT_SET(RCC->CR, RCC_CR_HSIRDY))
 517:Drivers/STM32L0xx_HAL_Driver/Src/stm32l0xx_hal_rcc_ex.c ****         {
 518:Drivers/STM32L0xx_HAL_Driver/Src/stm32l0xx_hal_rcc_ex.c ****           if (READ_BIT(RCC->CR, RCC_CR_HSIDIVF) != 0U)
 519:Drivers/STM32L0xx_HAL_Driver/Src/stm32l0xx_hal_rcc_ex.c ****           {
 520:Drivers/STM32L0xx_HAL_Driver/Src/stm32l0xx_hal_rcc_ex.c ****             frequency =  (HSI_VALUE >> 2U);
 521:Drivers/STM32L0xx_HAL_Driver/Src/stm32l0xx_hal_rcc_ex.c ****           }
 522:Drivers/STM32L0xx_HAL_Driver/Src/stm32l0xx_hal_rcc_ex.c ****           else
 523:Drivers/STM32L0xx_HAL_Driver/Src/stm32l0xx_hal_rcc_ex.c ****           {
 524:Drivers/STM32L0xx_HAL_Driver/Src/stm32l0xx_hal_rcc_ex.c ****             frequency =  HSI_VALUE;
 525:Drivers/STM32L0xx_HAL_Driver/Src/stm32l0xx_hal_rcc_ex.c ****           }
 526:Drivers/STM32L0xx_HAL_Driver/Src/stm32l0xx_hal_rcc_ex.c ****         }
 527:Drivers/STM32L0xx_HAL_Driver/Src/stm32l0xx_hal_rcc_ex.c ****       }
 528:Drivers/STM32L0xx_HAL_Driver/Src/stm32l0xx_hal_rcc_ex.c ****       /* Check if USART1 clock selection is SYSCLK */
 529:Drivers/STM32L0xx_HAL_Driver/Src/stm32l0xx_hal_rcc_ex.c ****       else if (srcclk == RCC_USART1CLKSOURCE_SYSCLK)
 530:Drivers/STM32L0xx_HAL_Driver/Src/stm32l0xx_hal_rcc_ex.c ****       {
 531:Drivers/STM32L0xx_HAL_Driver/Src/stm32l0xx_hal_rcc_ex.c ****         frequency = HAL_RCC_GetSysClockFreq();
 532:Drivers/STM32L0xx_HAL_Driver/Src/stm32l0xx_hal_rcc_ex.c ****       }
 533:Drivers/STM32L0xx_HAL_Driver/Src/stm32l0xx_hal_rcc_ex.c ****       /* Check if LSE is ready  and if USART1 clock selection is LSE */
 534:Drivers/STM32L0xx_HAL_Driver/Src/stm32l0xx_hal_rcc_ex.c ****       else if (srcclk == RCC_USART1CLKSOURCE_LSE)
 535:Drivers/STM32L0xx_HAL_Driver/Src/stm32l0xx_hal_rcc_ex.c ****       {
 536:Drivers/STM32L0xx_HAL_Driver/Src/stm32l0xx_hal_rcc_ex.c ****         if (HAL_IS_BIT_SET(RCC->CSR, RCC_CSR_LSERDY))
 537:Drivers/STM32L0xx_HAL_Driver/Src/stm32l0xx_hal_rcc_ex.c ****         {
 538:Drivers/STM32L0xx_HAL_Driver/Src/stm32l0xx_hal_rcc_ex.c ****           frequency = LSE_VALUE;
 539:Drivers/STM32L0xx_HAL_Driver/Src/stm32l0xx_hal_rcc_ex.c ****         }
 540:Drivers/STM32L0xx_HAL_Driver/Src/stm32l0xx_hal_rcc_ex.c ****       }
 541:Drivers/STM32L0xx_HAL_Driver/Src/stm32l0xx_hal_rcc_ex.c ****       /* Clock not enabled for USART1*/
ARM GAS  C:\Users\lidka\AppData\Local\Temp\ccURlygc.s 			page 24


 542:Drivers/STM32L0xx_HAL_Driver/Src/stm32l0xx_hal_rcc_ex.c ****       else
 543:Drivers/STM32L0xx_HAL_Driver/Src/stm32l0xx_hal_rcc_ex.c ****       {
 544:Drivers/STM32L0xx_HAL_Driver/Src/stm32l0xx_hal_rcc_ex.c ****         frequency = 0U;
 545:Drivers/STM32L0xx_HAL_Driver/Src/stm32l0xx_hal_rcc_ex.c ****       }
 546:Drivers/STM32L0xx_HAL_Driver/Src/stm32l0xx_hal_rcc_ex.c ****       break;
 547:Drivers/STM32L0xx_HAL_Driver/Src/stm32l0xx_hal_rcc_ex.c ****     }
 548:Drivers/STM32L0xx_HAL_Driver/Src/stm32l0xx_hal_rcc_ex.c **** #endif /* RCC_CCIPR_USART1SEL */
 549:Drivers/STM32L0xx_HAL_Driver/Src/stm32l0xx_hal_rcc_ex.c ****   case RCC_PERIPHCLK_USART2:
 550:Drivers/STM32L0xx_HAL_Driver/Src/stm32l0xx_hal_rcc_ex.c ****     {
 551:Drivers/STM32L0xx_HAL_Driver/Src/stm32l0xx_hal_rcc_ex.c ****       /* Get the current USART2 source */
 552:Drivers/STM32L0xx_HAL_Driver/Src/stm32l0xx_hal_rcc_ex.c ****       srcclk = __HAL_RCC_GET_USART2_SOURCE();
 553:Drivers/STM32L0xx_HAL_Driver/Src/stm32l0xx_hal_rcc_ex.c **** 
 554:Drivers/STM32L0xx_HAL_Driver/Src/stm32l0xx_hal_rcc_ex.c ****       /* Check if USART2 clock selection is PCLK1 */
 555:Drivers/STM32L0xx_HAL_Driver/Src/stm32l0xx_hal_rcc_ex.c ****       if (srcclk == RCC_USART2CLKSOURCE_PCLK1)
 556:Drivers/STM32L0xx_HAL_Driver/Src/stm32l0xx_hal_rcc_ex.c ****       {
 557:Drivers/STM32L0xx_HAL_Driver/Src/stm32l0xx_hal_rcc_ex.c ****         frequency = HAL_RCC_GetPCLK1Freq();
 558:Drivers/STM32L0xx_HAL_Driver/Src/stm32l0xx_hal_rcc_ex.c ****       }
 559:Drivers/STM32L0xx_HAL_Driver/Src/stm32l0xx_hal_rcc_ex.c ****       /* Check if HSI is ready and if USART2 clock selection is HSI */
 560:Drivers/STM32L0xx_HAL_Driver/Src/stm32l0xx_hal_rcc_ex.c ****       else if (srcclk == RCC_USART2CLKSOURCE_HSI)
 561:Drivers/STM32L0xx_HAL_Driver/Src/stm32l0xx_hal_rcc_ex.c ****       {
 562:Drivers/STM32L0xx_HAL_Driver/Src/stm32l0xx_hal_rcc_ex.c ****         if (HAL_IS_BIT_SET(RCC->CR, RCC_CR_HSIRDY))
 563:Drivers/STM32L0xx_HAL_Driver/Src/stm32l0xx_hal_rcc_ex.c ****         {
 564:Drivers/STM32L0xx_HAL_Driver/Src/stm32l0xx_hal_rcc_ex.c ****           if (READ_BIT(RCC->CR, RCC_CR_HSIDIVF) != 0U)
 565:Drivers/STM32L0xx_HAL_Driver/Src/stm32l0xx_hal_rcc_ex.c ****           {
 566:Drivers/STM32L0xx_HAL_Driver/Src/stm32l0xx_hal_rcc_ex.c ****             frequency =  (HSI_VALUE >> 2U);
 567:Drivers/STM32L0xx_HAL_Driver/Src/stm32l0xx_hal_rcc_ex.c ****           }
 568:Drivers/STM32L0xx_HAL_Driver/Src/stm32l0xx_hal_rcc_ex.c ****           else
 569:Drivers/STM32L0xx_HAL_Driver/Src/stm32l0xx_hal_rcc_ex.c ****           {
 570:Drivers/STM32L0xx_HAL_Driver/Src/stm32l0xx_hal_rcc_ex.c ****             frequency =  HSI_VALUE;
 571:Drivers/STM32L0xx_HAL_Driver/Src/stm32l0xx_hal_rcc_ex.c ****           }
 572:Drivers/STM32L0xx_HAL_Driver/Src/stm32l0xx_hal_rcc_ex.c ****         }
 573:Drivers/STM32L0xx_HAL_Driver/Src/stm32l0xx_hal_rcc_ex.c ****       }
 574:Drivers/STM32L0xx_HAL_Driver/Src/stm32l0xx_hal_rcc_ex.c ****       /* Check if USART2 clock selection is SYSCLK */
 575:Drivers/STM32L0xx_HAL_Driver/Src/stm32l0xx_hal_rcc_ex.c ****       else if (srcclk == RCC_USART2CLKSOURCE_SYSCLK)
 576:Drivers/STM32L0xx_HAL_Driver/Src/stm32l0xx_hal_rcc_ex.c ****       {
 577:Drivers/STM32L0xx_HAL_Driver/Src/stm32l0xx_hal_rcc_ex.c ****         frequency = HAL_RCC_GetSysClockFreq();
 578:Drivers/STM32L0xx_HAL_Driver/Src/stm32l0xx_hal_rcc_ex.c ****       }
 579:Drivers/STM32L0xx_HAL_Driver/Src/stm32l0xx_hal_rcc_ex.c ****       /* Check if LSE is ready  and if USART2 clock selection is LSE */
 580:Drivers/STM32L0xx_HAL_Driver/Src/stm32l0xx_hal_rcc_ex.c ****       else if (srcclk == RCC_USART2CLKSOURCE_LSE)
 581:Drivers/STM32L0xx_HAL_Driver/Src/stm32l0xx_hal_rcc_ex.c ****       {
 582:Drivers/STM32L0xx_HAL_Driver/Src/stm32l0xx_hal_rcc_ex.c ****         if (HAL_IS_BIT_SET(RCC->CSR, RCC_CSR_LSERDY))
 583:Drivers/STM32L0xx_HAL_Driver/Src/stm32l0xx_hal_rcc_ex.c ****         {
 584:Drivers/STM32L0xx_HAL_Driver/Src/stm32l0xx_hal_rcc_ex.c ****           frequency = LSE_VALUE;
 585:Drivers/STM32L0xx_HAL_Driver/Src/stm32l0xx_hal_rcc_ex.c ****         }
 586:Drivers/STM32L0xx_HAL_Driver/Src/stm32l0xx_hal_rcc_ex.c ****       }
 587:Drivers/STM32L0xx_HAL_Driver/Src/stm32l0xx_hal_rcc_ex.c ****       /* Clock not enabled for USART2*/
 588:Drivers/STM32L0xx_HAL_Driver/Src/stm32l0xx_hal_rcc_ex.c ****       else
 589:Drivers/STM32L0xx_HAL_Driver/Src/stm32l0xx_hal_rcc_ex.c ****       {
 590:Drivers/STM32L0xx_HAL_Driver/Src/stm32l0xx_hal_rcc_ex.c ****         frequency = 0U;
 591:Drivers/STM32L0xx_HAL_Driver/Src/stm32l0xx_hal_rcc_ex.c ****       }
 592:Drivers/STM32L0xx_HAL_Driver/Src/stm32l0xx_hal_rcc_ex.c ****       break;
 593:Drivers/STM32L0xx_HAL_Driver/Src/stm32l0xx_hal_rcc_ex.c ****     }
 594:Drivers/STM32L0xx_HAL_Driver/Src/stm32l0xx_hal_rcc_ex.c ****   case RCC_PERIPHCLK_LPUART1:
 595:Drivers/STM32L0xx_HAL_Driver/Src/stm32l0xx_hal_rcc_ex.c ****     {
 596:Drivers/STM32L0xx_HAL_Driver/Src/stm32l0xx_hal_rcc_ex.c ****       /* Get the current LPUART1 source */
 597:Drivers/STM32L0xx_HAL_Driver/Src/stm32l0xx_hal_rcc_ex.c ****       srcclk = __HAL_RCC_GET_LPUART1_SOURCE();
 598:Drivers/STM32L0xx_HAL_Driver/Src/stm32l0xx_hal_rcc_ex.c **** 
ARM GAS  C:\Users\lidka\AppData\Local\Temp\ccURlygc.s 			page 25


 599:Drivers/STM32L0xx_HAL_Driver/Src/stm32l0xx_hal_rcc_ex.c ****       /* Check if LPUART1 clock selection is PCLK1 */
 600:Drivers/STM32L0xx_HAL_Driver/Src/stm32l0xx_hal_rcc_ex.c ****       if (srcclk == RCC_LPUART1CLKSOURCE_PCLK1)
 601:Drivers/STM32L0xx_HAL_Driver/Src/stm32l0xx_hal_rcc_ex.c ****       {
 602:Drivers/STM32L0xx_HAL_Driver/Src/stm32l0xx_hal_rcc_ex.c ****         frequency = HAL_RCC_GetPCLK1Freq();
 603:Drivers/STM32L0xx_HAL_Driver/Src/stm32l0xx_hal_rcc_ex.c ****       }
 604:Drivers/STM32L0xx_HAL_Driver/Src/stm32l0xx_hal_rcc_ex.c ****       /* Check if HSI is ready and if LPUART1 clock selection is HSI */
 605:Drivers/STM32L0xx_HAL_Driver/Src/stm32l0xx_hal_rcc_ex.c ****       else if (srcclk == RCC_LPUART1CLKSOURCE_HSI)
 606:Drivers/STM32L0xx_HAL_Driver/Src/stm32l0xx_hal_rcc_ex.c ****       {
 607:Drivers/STM32L0xx_HAL_Driver/Src/stm32l0xx_hal_rcc_ex.c ****         if (HAL_IS_BIT_SET(RCC->CR, RCC_CR_HSIRDY))
 608:Drivers/STM32L0xx_HAL_Driver/Src/stm32l0xx_hal_rcc_ex.c ****         {
 609:Drivers/STM32L0xx_HAL_Driver/Src/stm32l0xx_hal_rcc_ex.c ****           if (READ_BIT(RCC->CR, RCC_CR_HSIDIVF) != 0U)
 610:Drivers/STM32L0xx_HAL_Driver/Src/stm32l0xx_hal_rcc_ex.c ****           {
 611:Drivers/STM32L0xx_HAL_Driver/Src/stm32l0xx_hal_rcc_ex.c ****             frequency =  (HSI_VALUE >> 2U);
 612:Drivers/STM32L0xx_HAL_Driver/Src/stm32l0xx_hal_rcc_ex.c ****           }
 613:Drivers/STM32L0xx_HAL_Driver/Src/stm32l0xx_hal_rcc_ex.c ****           else
 614:Drivers/STM32L0xx_HAL_Driver/Src/stm32l0xx_hal_rcc_ex.c ****           {
 615:Drivers/STM32L0xx_HAL_Driver/Src/stm32l0xx_hal_rcc_ex.c ****             frequency =  HSI_VALUE;
 616:Drivers/STM32L0xx_HAL_Driver/Src/stm32l0xx_hal_rcc_ex.c ****           }
 617:Drivers/STM32L0xx_HAL_Driver/Src/stm32l0xx_hal_rcc_ex.c ****         }
 618:Drivers/STM32L0xx_HAL_Driver/Src/stm32l0xx_hal_rcc_ex.c ****       }
 619:Drivers/STM32L0xx_HAL_Driver/Src/stm32l0xx_hal_rcc_ex.c ****       /* Check if LPUART1 clock selection is SYSCLK */
 620:Drivers/STM32L0xx_HAL_Driver/Src/stm32l0xx_hal_rcc_ex.c ****       else if (srcclk == RCC_LPUART1CLKSOURCE_SYSCLK)
 621:Drivers/STM32L0xx_HAL_Driver/Src/stm32l0xx_hal_rcc_ex.c ****       {
 622:Drivers/STM32L0xx_HAL_Driver/Src/stm32l0xx_hal_rcc_ex.c ****         frequency = HAL_RCC_GetSysClockFreq();
 623:Drivers/STM32L0xx_HAL_Driver/Src/stm32l0xx_hal_rcc_ex.c ****       }
 624:Drivers/STM32L0xx_HAL_Driver/Src/stm32l0xx_hal_rcc_ex.c ****       /* Check if LSE is ready  and if LPUART1 clock selection is LSE */
 625:Drivers/STM32L0xx_HAL_Driver/Src/stm32l0xx_hal_rcc_ex.c ****       else if (srcclk == RCC_LPUART1CLKSOURCE_LSE)
 626:Drivers/STM32L0xx_HAL_Driver/Src/stm32l0xx_hal_rcc_ex.c ****       {
 627:Drivers/STM32L0xx_HAL_Driver/Src/stm32l0xx_hal_rcc_ex.c ****         if (HAL_IS_BIT_SET(RCC->CSR, RCC_CSR_LSERDY))
 628:Drivers/STM32L0xx_HAL_Driver/Src/stm32l0xx_hal_rcc_ex.c ****         {
 629:Drivers/STM32L0xx_HAL_Driver/Src/stm32l0xx_hal_rcc_ex.c ****           frequency = LSE_VALUE;
 630:Drivers/STM32L0xx_HAL_Driver/Src/stm32l0xx_hal_rcc_ex.c ****         }
 631:Drivers/STM32L0xx_HAL_Driver/Src/stm32l0xx_hal_rcc_ex.c ****       }
 632:Drivers/STM32L0xx_HAL_Driver/Src/stm32l0xx_hal_rcc_ex.c ****       /* Clock not enabled for LPUART1*/
 633:Drivers/STM32L0xx_HAL_Driver/Src/stm32l0xx_hal_rcc_ex.c ****       else
 634:Drivers/STM32L0xx_HAL_Driver/Src/stm32l0xx_hal_rcc_ex.c ****       {
 635:Drivers/STM32L0xx_HAL_Driver/Src/stm32l0xx_hal_rcc_ex.c ****         frequency = 0U;
 636:Drivers/STM32L0xx_HAL_Driver/Src/stm32l0xx_hal_rcc_ex.c ****       }
 637:Drivers/STM32L0xx_HAL_Driver/Src/stm32l0xx_hal_rcc_ex.c ****       break;
 638:Drivers/STM32L0xx_HAL_Driver/Src/stm32l0xx_hal_rcc_ex.c ****     }
 639:Drivers/STM32L0xx_HAL_Driver/Src/stm32l0xx_hal_rcc_ex.c ****   case RCC_PERIPHCLK_I2C1:
 640:Drivers/STM32L0xx_HAL_Driver/Src/stm32l0xx_hal_rcc_ex.c ****     {
 641:Drivers/STM32L0xx_HAL_Driver/Src/stm32l0xx_hal_rcc_ex.c ****       /* Get the current I2C1 source */
 642:Drivers/STM32L0xx_HAL_Driver/Src/stm32l0xx_hal_rcc_ex.c ****       srcclk = __HAL_RCC_GET_I2C1_SOURCE();
 643:Drivers/STM32L0xx_HAL_Driver/Src/stm32l0xx_hal_rcc_ex.c **** 
 644:Drivers/STM32L0xx_HAL_Driver/Src/stm32l0xx_hal_rcc_ex.c ****       /* Check if I2C1 clock selection is PCLK1 */
 645:Drivers/STM32L0xx_HAL_Driver/Src/stm32l0xx_hal_rcc_ex.c ****       if (srcclk == RCC_I2C1CLKSOURCE_PCLK1)
 646:Drivers/STM32L0xx_HAL_Driver/Src/stm32l0xx_hal_rcc_ex.c ****       {
 647:Drivers/STM32L0xx_HAL_Driver/Src/stm32l0xx_hal_rcc_ex.c ****         frequency = HAL_RCC_GetPCLK1Freq();
 648:Drivers/STM32L0xx_HAL_Driver/Src/stm32l0xx_hal_rcc_ex.c ****       }
 649:Drivers/STM32L0xx_HAL_Driver/Src/stm32l0xx_hal_rcc_ex.c ****       /* Check if HSI is ready and if I2C1 clock selection is HSI */
 650:Drivers/STM32L0xx_HAL_Driver/Src/stm32l0xx_hal_rcc_ex.c ****       else if (srcclk == RCC_I2C1CLKSOURCE_HSI)
 651:Drivers/STM32L0xx_HAL_Driver/Src/stm32l0xx_hal_rcc_ex.c ****       {
 652:Drivers/STM32L0xx_HAL_Driver/Src/stm32l0xx_hal_rcc_ex.c ****         if (HAL_IS_BIT_SET(RCC->CR, RCC_CR_HSIRDY))
 653:Drivers/STM32L0xx_HAL_Driver/Src/stm32l0xx_hal_rcc_ex.c ****         {
 654:Drivers/STM32L0xx_HAL_Driver/Src/stm32l0xx_hal_rcc_ex.c ****           if (READ_BIT(RCC->CR, RCC_CR_HSIDIVF) != 0U)
 655:Drivers/STM32L0xx_HAL_Driver/Src/stm32l0xx_hal_rcc_ex.c ****           {
ARM GAS  C:\Users\lidka\AppData\Local\Temp\ccURlygc.s 			page 26


 656:Drivers/STM32L0xx_HAL_Driver/Src/stm32l0xx_hal_rcc_ex.c ****             frequency =  (HSI_VALUE >> 2U);
 657:Drivers/STM32L0xx_HAL_Driver/Src/stm32l0xx_hal_rcc_ex.c ****           }
 658:Drivers/STM32L0xx_HAL_Driver/Src/stm32l0xx_hal_rcc_ex.c ****           else
 659:Drivers/STM32L0xx_HAL_Driver/Src/stm32l0xx_hal_rcc_ex.c ****           {
 660:Drivers/STM32L0xx_HAL_Driver/Src/stm32l0xx_hal_rcc_ex.c ****             frequency =  HSI_VALUE;
 661:Drivers/STM32L0xx_HAL_Driver/Src/stm32l0xx_hal_rcc_ex.c ****           }
 662:Drivers/STM32L0xx_HAL_Driver/Src/stm32l0xx_hal_rcc_ex.c ****         }
 663:Drivers/STM32L0xx_HAL_Driver/Src/stm32l0xx_hal_rcc_ex.c ****       }
 664:Drivers/STM32L0xx_HAL_Driver/Src/stm32l0xx_hal_rcc_ex.c ****       /* Check if I2C1 clock selection is SYSCLK */
 665:Drivers/STM32L0xx_HAL_Driver/Src/stm32l0xx_hal_rcc_ex.c ****       else if (srcclk == RCC_I2C1CLKSOURCE_SYSCLK)
 666:Drivers/STM32L0xx_HAL_Driver/Src/stm32l0xx_hal_rcc_ex.c ****       {
 667:Drivers/STM32L0xx_HAL_Driver/Src/stm32l0xx_hal_rcc_ex.c ****         frequency = HAL_RCC_GetSysClockFreq();
 668:Drivers/STM32L0xx_HAL_Driver/Src/stm32l0xx_hal_rcc_ex.c ****       }
 669:Drivers/STM32L0xx_HAL_Driver/Src/stm32l0xx_hal_rcc_ex.c ****       /* Clock not enabled for I2C1*/
 670:Drivers/STM32L0xx_HAL_Driver/Src/stm32l0xx_hal_rcc_ex.c ****       else
 671:Drivers/STM32L0xx_HAL_Driver/Src/stm32l0xx_hal_rcc_ex.c ****       {
 672:Drivers/STM32L0xx_HAL_Driver/Src/stm32l0xx_hal_rcc_ex.c ****         frequency = 0U;
 673:Drivers/STM32L0xx_HAL_Driver/Src/stm32l0xx_hal_rcc_ex.c ****       }
 674:Drivers/STM32L0xx_HAL_Driver/Src/stm32l0xx_hal_rcc_ex.c ****       break;
 675:Drivers/STM32L0xx_HAL_Driver/Src/stm32l0xx_hal_rcc_ex.c ****     }
 676:Drivers/STM32L0xx_HAL_Driver/Src/stm32l0xx_hal_rcc_ex.c **** #if defined(I2C2)
 677:Drivers/STM32L0xx_HAL_Driver/Src/stm32l0xx_hal_rcc_ex.c ****   case RCC_PERIPHCLK_I2C2:
 678:Drivers/STM32L0xx_HAL_Driver/Src/stm32l0xx_hal_rcc_ex.c ****     {
 679:Drivers/STM32L0xx_HAL_Driver/Src/stm32l0xx_hal_rcc_ex.c **** 
 680:Drivers/STM32L0xx_HAL_Driver/Src/stm32l0xx_hal_rcc_ex.c ****       /* Check if I2C2 on APB1 clock enabled*/
 681:Drivers/STM32L0xx_HAL_Driver/Src/stm32l0xx_hal_rcc_ex.c ****       if (READ_BIT(RCC->APB1ENR, (RCC_APB1ENR_I2C2EN))==RCC_APB1ENR_I2C2EN)
 682:Drivers/STM32L0xx_HAL_Driver/Src/stm32l0xx_hal_rcc_ex.c ****       {
 683:Drivers/STM32L0xx_HAL_Driver/Src/stm32l0xx_hal_rcc_ex.c ****         frequency = HAL_RCC_GetPCLK1Freq();
 684:Drivers/STM32L0xx_HAL_Driver/Src/stm32l0xx_hal_rcc_ex.c ****       }
 685:Drivers/STM32L0xx_HAL_Driver/Src/stm32l0xx_hal_rcc_ex.c ****       else
 686:Drivers/STM32L0xx_HAL_Driver/Src/stm32l0xx_hal_rcc_ex.c ****       {
 687:Drivers/STM32L0xx_HAL_Driver/Src/stm32l0xx_hal_rcc_ex.c ****         frequency = 0U;
 688:Drivers/STM32L0xx_HAL_Driver/Src/stm32l0xx_hal_rcc_ex.c ****       }
 689:Drivers/STM32L0xx_HAL_Driver/Src/stm32l0xx_hal_rcc_ex.c ****       break;
 690:Drivers/STM32L0xx_HAL_Driver/Src/stm32l0xx_hal_rcc_ex.c ****     }
 691:Drivers/STM32L0xx_HAL_Driver/Src/stm32l0xx_hal_rcc_ex.c **** #endif /* I2C2 */
 692:Drivers/STM32L0xx_HAL_Driver/Src/stm32l0xx_hal_rcc_ex.c **** 
 693:Drivers/STM32L0xx_HAL_Driver/Src/stm32l0xx_hal_rcc_ex.c **** #if defined(RCC_CCIPR_I2C3SEL)
 694:Drivers/STM32L0xx_HAL_Driver/Src/stm32l0xx_hal_rcc_ex.c ****   case RCC_PERIPHCLK_I2C3:
 695:Drivers/STM32L0xx_HAL_Driver/Src/stm32l0xx_hal_rcc_ex.c ****     {
 696:Drivers/STM32L0xx_HAL_Driver/Src/stm32l0xx_hal_rcc_ex.c ****       /* Get the current I2C3 source */
 697:Drivers/STM32L0xx_HAL_Driver/Src/stm32l0xx_hal_rcc_ex.c ****       srcclk = __HAL_RCC_GET_I2C3_SOURCE();
 698:Drivers/STM32L0xx_HAL_Driver/Src/stm32l0xx_hal_rcc_ex.c **** 
 699:Drivers/STM32L0xx_HAL_Driver/Src/stm32l0xx_hal_rcc_ex.c ****       /* Check if I2C3 clock selection is PCLK1 */
 700:Drivers/STM32L0xx_HAL_Driver/Src/stm32l0xx_hal_rcc_ex.c ****       if (srcclk == RCC_I2C3CLKSOURCE_PCLK1)
 701:Drivers/STM32L0xx_HAL_Driver/Src/stm32l0xx_hal_rcc_ex.c ****       {
 702:Drivers/STM32L0xx_HAL_Driver/Src/stm32l0xx_hal_rcc_ex.c ****         frequency = HAL_RCC_GetPCLK1Freq();
 703:Drivers/STM32L0xx_HAL_Driver/Src/stm32l0xx_hal_rcc_ex.c ****       }
 704:Drivers/STM32L0xx_HAL_Driver/Src/stm32l0xx_hal_rcc_ex.c ****       /* Check if HSI is ready and if I2C3 clock selection is HSI */
 705:Drivers/STM32L0xx_HAL_Driver/Src/stm32l0xx_hal_rcc_ex.c ****       else if (srcclk == RCC_I2C3CLKSOURCE_HSI)
 706:Drivers/STM32L0xx_HAL_Driver/Src/stm32l0xx_hal_rcc_ex.c ****       {
 707:Drivers/STM32L0xx_HAL_Driver/Src/stm32l0xx_hal_rcc_ex.c ****         if (HAL_IS_BIT_SET(RCC->CR, RCC_CR_HSIRDY))
 708:Drivers/STM32L0xx_HAL_Driver/Src/stm32l0xx_hal_rcc_ex.c ****         {
 709:Drivers/STM32L0xx_HAL_Driver/Src/stm32l0xx_hal_rcc_ex.c ****           if (READ_BIT(RCC->CR, RCC_CR_HSIDIVF) != 0U)
 710:Drivers/STM32L0xx_HAL_Driver/Src/stm32l0xx_hal_rcc_ex.c ****           {
 711:Drivers/STM32L0xx_HAL_Driver/Src/stm32l0xx_hal_rcc_ex.c ****             frequency =  (HSI_VALUE >> 2U);
 712:Drivers/STM32L0xx_HAL_Driver/Src/stm32l0xx_hal_rcc_ex.c ****           }
ARM GAS  C:\Users\lidka\AppData\Local\Temp\ccURlygc.s 			page 27


 713:Drivers/STM32L0xx_HAL_Driver/Src/stm32l0xx_hal_rcc_ex.c ****           else
 714:Drivers/STM32L0xx_HAL_Driver/Src/stm32l0xx_hal_rcc_ex.c ****           {
 715:Drivers/STM32L0xx_HAL_Driver/Src/stm32l0xx_hal_rcc_ex.c ****             frequency =  HSI_VALUE;
 716:Drivers/STM32L0xx_HAL_Driver/Src/stm32l0xx_hal_rcc_ex.c ****           }
 717:Drivers/STM32L0xx_HAL_Driver/Src/stm32l0xx_hal_rcc_ex.c ****         }
 718:Drivers/STM32L0xx_HAL_Driver/Src/stm32l0xx_hal_rcc_ex.c ****       }
 719:Drivers/STM32L0xx_HAL_Driver/Src/stm32l0xx_hal_rcc_ex.c ****       /* Check if I2C3 clock selection is SYSCLK */
 720:Drivers/STM32L0xx_HAL_Driver/Src/stm32l0xx_hal_rcc_ex.c ****       else if (srcclk == RCC_I2C3CLKSOURCE_SYSCLK)
 721:Drivers/STM32L0xx_HAL_Driver/Src/stm32l0xx_hal_rcc_ex.c ****       {
 722:Drivers/STM32L0xx_HAL_Driver/Src/stm32l0xx_hal_rcc_ex.c ****         frequency = HAL_RCC_GetSysClockFreq();
 723:Drivers/STM32L0xx_HAL_Driver/Src/stm32l0xx_hal_rcc_ex.c ****       }
 724:Drivers/STM32L0xx_HAL_Driver/Src/stm32l0xx_hal_rcc_ex.c ****       /* Clock not enabled for I2C3*/
 725:Drivers/STM32L0xx_HAL_Driver/Src/stm32l0xx_hal_rcc_ex.c ****       else
 726:Drivers/STM32L0xx_HAL_Driver/Src/stm32l0xx_hal_rcc_ex.c ****       {
 727:Drivers/STM32L0xx_HAL_Driver/Src/stm32l0xx_hal_rcc_ex.c ****         frequency = 0U;
 728:Drivers/STM32L0xx_HAL_Driver/Src/stm32l0xx_hal_rcc_ex.c ****       }
 729:Drivers/STM32L0xx_HAL_Driver/Src/stm32l0xx_hal_rcc_ex.c ****       break;
 730:Drivers/STM32L0xx_HAL_Driver/Src/stm32l0xx_hal_rcc_ex.c ****     }
 731:Drivers/STM32L0xx_HAL_Driver/Src/stm32l0xx_hal_rcc_ex.c **** #endif /* RCC_CCIPR_I2C3SEL */
 732:Drivers/STM32L0xx_HAL_Driver/Src/stm32l0xx_hal_rcc_ex.c ****   default:
 733:Drivers/STM32L0xx_HAL_Driver/Src/stm32l0xx_hal_rcc_ex.c ****     {
 734:Drivers/STM32L0xx_HAL_Driver/Src/stm32l0xx_hal_rcc_ex.c ****       break;
 772              		.loc 1 734 7
 773 004a CFE1     		b	.L83
 774              	.L31:
 393:Drivers/STM32L0xx_HAL_Driver/Src/stm32l0xx_hal_rcc_ex.c **** 
 775              		.loc 1 393 21
 776 004c C34B     		ldr	r3, .L91+4
 393:Drivers/STM32L0xx_HAL_Driver/Src/stm32l0xx_hal_rcc_ex.c **** 
 777              		.loc 1 393 16
 778 004e 1B6D     		ldr	r3, [r3, #80]
 779 0050 3B61     		str	r3, [r7, #16]
 396:Drivers/STM32L0xx_HAL_Driver/Src/stm32l0xx_hal_rcc_ex.c **** 
 780              		.loc 1 396 16
 781 0052 C24B     		ldr	r3, .L91+4
 782 0054 1A6D     		ldr	r2, [r3, #80]
 396:Drivers/STM32L0xx_HAL_Driver/Src/stm32l0xx_hal_rcc_ex.c **** 
 783              		.loc 1 396 14
 784 0056 C023     		movs	r3, #192
 785 0058 9B02     		lsls	r3, r3, #10
 786 005a 1340     		ands	r3, r2
 787 005c FB61     		str	r3, [r7, #28]
 399:Drivers/STM32L0xx_HAL_Driver/Src/stm32l0xx_hal_rcc_ex.c ****       {
 788              		.loc 1 399 10
 789 005e FA69     		ldr	r2, [r7, #28]
 790 0060 8023     		movs	r3, #128
 791 0062 5B02     		lsls	r3, r3, #9
 792 0064 9A42     		cmp	r2, r3
 793 0066 08D1     		bne	.L41
 399:Drivers/STM32L0xx_HAL_Driver/Src/stm32l0xx_hal_rcc_ex.c ****       {
 794              		.loc 1 399 48 discriminator 1
 795 0068 3A69     		ldr	r2, [r7, #16]
 796 006a 8023     		movs	r3, #128
 797 006c 9B00     		lsls	r3, r3, #2
 798 006e 1340     		ands	r3, r2
 399:Drivers/STM32L0xx_HAL_Driver/Src/stm32l0xx_hal_rcc_ex.c ****       {
 799              		.loc 1 399 44 discriminator 1
ARM GAS  C:\Users\lidka\AppData\Local\Temp\ccURlygc.s 			page 28


 800 0070 03D0     		beq	.L41
 401:Drivers/STM32L0xx_HAL_Driver/Src/stm32l0xx_hal_rcc_ex.c ****       }
 801              		.loc 1 401 19
 802 0072 8023     		movs	r3, #128
 803 0074 1B02     		lsls	r3, r3, #8
 804 0076 7B62     		str	r3, [r7, #36]
 805 0078 45E0     		b	.L42
 806              	.L41:
 404:Drivers/STM32L0xx_HAL_Driver/Src/stm32l0xx_hal_rcc_ex.c ****       {
 807              		.loc 1 404 15
 808 007a FA69     		ldr	r2, [r7, #28]
 809 007c 8023     		movs	r3, #128
 810 007e 9B02     		lsls	r3, r3, #10
 811 0080 9A42     		cmp	r2, r3
 812 0082 07D1     		bne	.L43
 406:Drivers/STM32L0xx_HAL_Driver/Src/stm32l0xx_hal_rcc_ex.c ****         {
 813              		.loc 1 406 13
 814 0084 3B69     		ldr	r3, [r7, #16]
 815 0086 0222     		movs	r2, #2
 816 0088 1340     		ands	r3, r2
 406:Drivers/STM32L0xx_HAL_Driver/Src/stm32l0xx_hal_rcc_ex.c ****         {
 817              		.loc 1 406 12
 818 008a 00D1     		bne	.LCB646
 819 008c B0E1     		b	.L84	@long jump
 820              	.LCB646:
 408:Drivers/STM32L0xx_HAL_Driver/Src/stm32l0xx_hal_rcc_ex.c ****         }
 821              		.loc 1 408 21
 822 008e B44B     		ldr	r3, .L91+8
 823 0090 7B62     		str	r3, [r7, #36]
 449:Drivers/STM32L0xx_HAL_Driver/Src/stm32l0xx_hal_rcc_ex.c ****     }
 824              		.loc 1 449 7
 825 0092 ADE1     		b	.L84
 826              	.L43:
 412:Drivers/STM32L0xx_HAL_Driver/Src/stm32l0xx_hal_rcc_ex.c ****       {
 827              		.loc 1 412 15
 828 0094 FA69     		ldr	r2, [r7, #28]
 829 0096 C023     		movs	r3, #192
 830 0098 9B02     		lsls	r3, r3, #10
 831 009a 9A42     		cmp	r2, r3
 832 009c 2FD1     		bne	.L44
 414:Drivers/STM32L0xx_HAL_Driver/Src/stm32l0xx_hal_rcc_ex.c ****         {
 833              		.loc 1 414 13
 834 009e AF4B     		ldr	r3, .L91+4
 835 00a0 1A68     		ldr	r2, [r3]
 836 00a2 8023     		movs	r3, #128
 837 00a4 9B02     		lsls	r3, r3, #10
 838 00a6 1A40     		ands	r2, r3
 414:Drivers/STM32L0xx_HAL_Driver/Src/stm32l0xx_hal_rcc_ex.c ****         {
 839              		.loc 1 414 12
 840 00a8 8023     		movs	r3, #128
 841 00aa 9B02     		lsls	r3, r3, #10
 842 00ac 9A42     		cmp	r2, r3
 843 00ae 29D1     		bne	.L85
 417:Drivers/STM32L0xx_HAL_Driver/Src/stm32l0xx_hal_rcc_ex.c **** 
 844              		.loc 1 417 23
 845 00b0 AA4B     		ldr	r3, .L91+4
 846 00b2 1A68     		ldr	r2, [r3]
ARM GAS  C:\Users\lidka\AppData\Local\Temp\ccURlygc.s 			page 29


 417:Drivers/STM32L0xx_HAL_Driver/Src/stm32l0xx_hal_rcc_ex.c **** 
 847              		.loc 1 417 21
 848 00b4 C023     		movs	r3, #192
 849 00b6 9B03     		lsls	r3, r3, #14
 850 00b8 1340     		ands	r3, r2
 851 00ba FB60     		str	r3, [r7, #12]
 852 00bc FA68     		ldr	r2, [r7, #12]
 853 00be C023     		movs	r3, #192
 854 00c0 9B03     		lsls	r3, r3, #14
 855 00c2 9A42     		cmp	r2, r3
 856 00c4 0FD0     		beq	.L46
 857 00c6 FA68     		ldr	r2, [r7, #12]
 858 00c8 C023     		movs	r3, #192
 859 00ca 9B03     		lsls	r3, r3, #14
 860 00cc 9A42     		cmp	r2, r3
 861 00ce 13D8     		bhi	.L47
 862 00d0 FA68     		ldr	r2, [r7, #12]
 863 00d2 8023     		movs	r3, #128
 864 00d4 5B03     		lsls	r3, r3, #13
 865 00d6 9A42     		cmp	r2, r3
 866 00d8 0BD0     		beq	.L48
 867 00da FA68     		ldr	r2, [r7, #12]
 868 00dc 8023     		movs	r3, #128
 869 00de 9B03     		lsls	r3, r3, #14
 870 00e0 9A42     		cmp	r2, r3
 871 00e2 03D0     		beq	.L49
 872 00e4 08E0     		b	.L47
 873              	.L46:
 423:Drivers/STM32L0xx_HAL_Driver/Src/stm32l0xx_hal_rcc_ex.c ****               break;
 874              		.loc 1 423 25
 875 00e6 9F4B     		ldr	r3, .L91+12
 876 00e8 7B62     		str	r3, [r7, #36]
 424:Drivers/STM32L0xx_HAL_Driver/Src/stm32l0xx_hal_rcc_ex.c ****             }
 877              		.loc 1 424 15
 878 00ea 0CE0     		b	.L42
 879              	.L49:
 428:Drivers/STM32L0xx_HAL_Driver/Src/stm32l0xx_hal_rcc_ex.c ****               break;
 880              		.loc 1 428 25
 881 00ec 9E4B     		ldr	r3, .L91+16
 882 00ee 7B62     		str	r3, [r7, #36]
 429:Drivers/STM32L0xx_HAL_Driver/Src/stm32l0xx_hal_rcc_ex.c ****             }
 883              		.loc 1 429 15
 884 00f0 09E0     		b	.L42
 885              	.L48:
 433:Drivers/STM32L0xx_HAL_Driver/Src/stm32l0xx_hal_rcc_ex.c ****               break;
 886              		.loc 1 433 25
 887 00f2 9E4B     		ldr	r3, .L91+20
 888 00f4 7B62     		str	r3, [r7, #36]
 434:Drivers/STM32L0xx_HAL_Driver/Src/stm32l0xx_hal_rcc_ex.c ****             }
 889              		.loc 1 434 15
 890 00f6 06E0     		b	.L42
 891              	.L47:
 438:Drivers/STM32L0xx_HAL_Driver/Src/stm32l0xx_hal_rcc_ex.c ****               break;
 892              		.loc 1 438 25
 893 00f8 9D4B     		ldr	r3, .L91+24
 894 00fa 7B62     		str	r3, [r7, #36]
 439:Drivers/STM32L0xx_HAL_Driver/Src/stm32l0xx_hal_rcc_ex.c ****             }
ARM GAS  C:\Users\lidka\AppData\Local\Temp\ccURlygc.s 			page 30


 895              		.loc 1 439 15
 896 00fc 03E0     		b	.L42
 897              	.L44:
 447:Drivers/STM32L0xx_HAL_Driver/Src/stm32l0xx_hal_rcc_ex.c ****       }
 898              		.loc 1 447 19
 899 00fe 0023     		movs	r3, #0
 900 0100 7B62     		str	r3, [r7, #36]
 449:Drivers/STM32L0xx_HAL_Driver/Src/stm32l0xx_hal_rcc_ex.c ****     }
 901              		.loc 1 449 7
 902 0102 75E1     		b	.L84
 903              	.L85:
 442:Drivers/STM32L0xx_HAL_Driver/Src/stm32l0xx_hal_rcc_ex.c ****       }
 904              		.loc 1 442 9
 905 0104 C046     		nop
 906              	.L42:
 449:Drivers/STM32L0xx_HAL_Driver/Src/stm32l0xx_hal_rcc_ex.c ****     }
 907              		.loc 1 449 7 discriminator 1
 908 0106 73E1     		b	.L84
 909              	.L40:
 455:Drivers/STM32L0xx_HAL_Driver/Src/stm32l0xx_hal_rcc_ex.c **** 
 910              		.loc 1 455 16
 911 0108 944B     		ldr	r3, .L91+4
 912 010a DA6C     		ldr	r2, [r3, #76]
 455:Drivers/STM32L0xx_HAL_Driver/Src/stm32l0xx_hal_rcc_ex.c **** 
 913              		.loc 1 455 14
 914 010c 8023     		movs	r3, #128
 915 010e DB04     		lsls	r3, r3, #19
 916 0110 1340     		ands	r3, r2
 917 0112 FB61     		str	r3, [r7, #28]
 457:Drivers/STM32L0xx_HAL_Driver/Src/stm32l0xx_hal_rcc_ex.c ****       {
 918              		.loc 1 457 10
 919 0114 FB69     		ldr	r3, [r7, #28]
 920 0116 002B     		cmp	r3, #0
 921 0118 3CD1     		bne	.L51
 459:Drivers/STM32L0xx_HAL_Driver/Src/stm32l0xx_hal_rcc_ex.c ****         {
 922              		.loc 1 459 13
 923 011a 904B     		ldr	r3, .L91+4
 924 011c 1A68     		ldr	r2, [r3]
 925 011e 8023     		movs	r3, #128
 926 0120 9B04     		lsls	r3, r3, #18
 927 0122 1A40     		ands	r2, r3
 459:Drivers/STM32L0xx_HAL_Driver/Src/stm32l0xx_hal_rcc_ex.c ****         {
 928              		.loc 1 459 12
 929 0124 8023     		movs	r3, #128
 930 0126 9B04     		lsls	r3, r3, #18
 931 0128 9A42     		cmp	r2, r3
 932 012a 00D0     		beq	.LCB751
 933 012c 62E1     		b	.L86	@long jump
 934              	.LCB751:
 462:Drivers/STM32L0xx_HAL_Driver/Src/stm32l0xx_hal_rcc_ex.c ****           plldiv = RCC->CFGR & RCC_CFGR_PLLDIV;
 935              		.loc 1 462 23
 936 012e 8B4B     		ldr	r3, .L91+4
 937 0130 DA68     		ldr	r2, [r3, #12]
 462:Drivers/STM32L0xx_HAL_Driver/Src/stm32l0xx_hal_rcc_ex.c ****           plldiv = RCC->CFGR & RCC_CFGR_PLLDIV;
 938              		.loc 1 462 18
 939 0132 F023     		movs	r3, #240
 940 0134 9B03     		lsls	r3, r3, #14
ARM GAS  C:\Users\lidka\AppData\Local\Temp\ccURlygc.s 			page 31


 941 0136 1340     		ands	r3, r2
 942 0138 BB61     		str	r3, [r7, #24]
 463:Drivers/STM32L0xx_HAL_Driver/Src/stm32l0xx_hal_rcc_ex.c ****           pllmul = PLLMulTable[(pllmul >> RCC_CFGR_PLLMUL_Pos)];
 943              		.loc 1 463 23
 944 013a 884B     		ldr	r3, .L91+4
 945 013c DA68     		ldr	r2, [r3, #12]
 463:Drivers/STM32L0xx_HAL_Driver/Src/stm32l0xx_hal_rcc_ex.c ****           pllmul = PLLMulTable[(pllmul >> RCC_CFGR_PLLMUL_Pos)];
 946              		.loc 1 463 18
 947 013e C023     		movs	r3, #192
 948 0140 1B04     		lsls	r3, r3, #16
 949 0142 1340     		ands	r3, r2
 950 0144 7B61     		str	r3, [r7, #20]
 464:Drivers/STM32L0xx_HAL_Driver/Src/stm32l0xx_hal_rcc_ex.c ****           plldiv = (plldiv >> RCC_CFGR_PLLDIV_Pos) + 1U;
 951              		.loc 1 464 40
 952 0146 BB69     		ldr	r3, [r7, #24]
 953 0148 9B0C     		lsrs	r3, r3, #18
 464:Drivers/STM32L0xx_HAL_Driver/Src/stm32l0xx_hal_rcc_ex.c ****           plldiv = (plldiv >> RCC_CFGR_PLLDIV_Pos) + 1U;
 954              		.loc 1 464 31
 955 014a 8A4A     		ldr	r2, .L91+28
 956 014c D35C     		ldrb	r3, [r2, r3]
 464:Drivers/STM32L0xx_HAL_Driver/Src/stm32l0xx_hal_rcc_ex.c ****           plldiv = (plldiv >> RCC_CFGR_PLLDIV_Pos) + 1U;
 957              		.loc 1 464 18
 958 014e BB61     		str	r3, [r7, #24]
 465:Drivers/STM32L0xx_HAL_Driver/Src/stm32l0xx_hal_rcc_ex.c **** 
 959              		.loc 1 465 28
 960 0150 7B69     		ldr	r3, [r7, #20]
 961 0152 9B0D     		lsrs	r3, r3, #22
 465:Drivers/STM32L0xx_HAL_Driver/Src/stm32l0xx_hal_rcc_ex.c **** 
 962              		.loc 1 465 18
 963 0154 0133     		adds	r3, r3, #1
 964 0156 7B61     		str	r3, [r7, #20]
 468:Drivers/STM32L0xx_HAL_Driver/Src/stm32l0xx_hal_rcc_ex.c ****           {
 965              		.loc 1 468 14
 966 0158 804B     		ldr	r3, .L91+4
 967 015a DA68     		ldr	r2, [r3, #12]
 968 015c 8023     		movs	r3, #128
 969 015e 5B02     		lsls	r3, r3, #9
 970 0160 1340     		ands	r3, r2
 468:Drivers/STM32L0xx_HAL_Driver/Src/stm32l0xx_hal_rcc_ex.c ****           {
 971              		.loc 1 468 13
 972 0162 0AD1     		bne	.L53
 470:Drivers/STM32L0xx_HAL_Driver/Src/stm32l0xx_hal_rcc_ex.c ****             {
 973              		.loc 1 470 17
 974 0164 7D4B     		ldr	r3, .L91+4
 975 0166 1B68     		ldr	r3, [r3]
 976 0168 1022     		movs	r2, #16
 977 016a 1340     		ands	r3, r2
 470:Drivers/STM32L0xx_HAL_Driver/Src/stm32l0xx_hal_rcc_ex.c ****             {
 978              		.loc 1 470 16
 979 016c 02D0     		beq	.L54
 472:Drivers/STM32L0xx_HAL_Driver/Src/stm32l0xx_hal_rcc_ex.c ****             }
 980              		.loc 1 472 22
 981 016e 804B     		ldr	r3, .L91+24
 982 0170 3B62     		str	r3, [r7, #32]
 983 0172 04E0     		b	.L55
 984              	.L54:
 476:Drivers/STM32L0xx_HAL_Driver/Src/stm32l0xx_hal_rcc_ex.c ****             }
ARM GAS  C:\Users\lidka\AppData\Local\Temp\ccURlygc.s 			page 32


 985              		.loc 1 476 22
 986 0174 804B     		ldr	r3, .L91+32
 987 0176 3B62     		str	r3, [r7, #32]
 988 0178 01E0     		b	.L55
 989              	.L53:
 481:Drivers/STM32L0xx_HAL_Driver/Src/stm32l0xx_hal_rcc_ex.c ****           }
 990              		.loc 1 481 20
 991 017a 804B     		ldr	r3, .L91+36
 992 017c 3B62     		str	r3, [r7, #32]
 993              	.L55:
 484:Drivers/STM32L0xx_HAL_Driver/Src/stm32l0xx_hal_rcc_ex.c ****           frequency = (pllvco/ plldiv);
 994              		.loc 1 484 18
 995 017e 3B6A     		ldr	r3, [r7, #32]
 996 0180 BA69     		ldr	r2, [r7, #24]
 997 0182 5343     		muls	r3, r2
 998 0184 3B62     		str	r3, [r7, #32]
 485:Drivers/STM32L0xx_HAL_Driver/Src/stm32l0xx_hal_rcc_ex.c ****         }
 999              		.loc 1 485 21
 1000 0186 7969     		ldr	r1, [r7, #20]
 1001 0188 386A     		ldr	r0, [r7, #32]
 1002 018a FFF7FEFF 		bl	__aeabi_uidiv
 1003 018e 0300     		movs	r3, r0
 1004 0190 7B62     		str	r3, [r7, #36]
 499:Drivers/STM32L0xx_HAL_Driver/Src/stm32l0xx_hal_rcc_ex.c ****     }
 1005              		.loc 1 499 7
 1006 0192 2FE1     		b	.L86
 1007              	.L51:
 488:Drivers/STM32L0xx_HAL_Driver/Src/stm32l0xx_hal_rcc_ex.c ****       {
 1008              		.loc 1 488 15
 1009 0194 FA69     		ldr	r2, [r7, #28]
 1010 0196 8023     		movs	r3, #128
 1011 0198 DB04     		lsls	r3, r3, #19
 1012 019a 9A42     		cmp	r2, r3
 1013 019c 09D1     		bne	.L56
 490:Drivers/STM32L0xx_HAL_Driver/Src/stm32l0xx_hal_rcc_ex.c ****         {
 1014              		.loc 1 490 13
 1015 019e 6F4B     		ldr	r3, .L91+4
 1016 01a0 9B68     		ldr	r3, [r3, #8]
 1017 01a2 0222     		movs	r2, #2
 1018 01a4 1340     		ands	r3, r2
 490:Drivers/STM32L0xx_HAL_Driver/Src/stm32l0xx_hal_rcc_ex.c ****         {
 1019              		.loc 1 490 12
 1020 01a6 022B     		cmp	r3, #2
 1021 01a8 00D0     		beq	.LCB825
 1022 01aa 23E1     		b	.L86	@long jump
 1023              	.LCB825:
 492:Drivers/STM32L0xx_HAL_Driver/Src/stm32l0xx_hal_rcc_ex.c ****         }
 1024              		.loc 1 492 21
 1025 01ac 744B     		ldr	r3, .L91+40
 1026 01ae 7B62     		str	r3, [r7, #36]
 499:Drivers/STM32L0xx_HAL_Driver/Src/stm32l0xx_hal_rcc_ex.c ****     }
 1027              		.loc 1 499 7
 1028 01b0 20E1     		b	.L86
 1029              	.L56:
 497:Drivers/STM32L0xx_HAL_Driver/Src/stm32l0xx_hal_rcc_ex.c ****       }
 1030              		.loc 1 497 21
 1031 01b2 0023     		movs	r3, #0
ARM GAS  C:\Users\lidka\AppData\Local\Temp\ccURlygc.s 			page 33


 1032 01b4 7B62     		str	r3, [r7, #36]
 499:Drivers/STM32L0xx_HAL_Driver/Src/stm32l0xx_hal_rcc_ex.c ****     }
 1033              		.loc 1 499 7
 1034 01b6 1DE1     		b	.L86
 1035              	.L39:
 506:Drivers/STM32L0xx_HAL_Driver/Src/stm32l0xx_hal_rcc_ex.c **** 
 1036              		.loc 1 506 16
 1037 01b8 684B     		ldr	r3, .L91+4
 1038 01ba DB6C     		ldr	r3, [r3, #76]
 506:Drivers/STM32L0xx_HAL_Driver/Src/stm32l0xx_hal_rcc_ex.c **** 
 1039              		.loc 1 506 14
 1040 01bc 0322     		movs	r2, #3
 1041 01be 1340     		ands	r3, r2
 1042 01c0 FB61     		str	r3, [r7, #28]
 509:Drivers/STM32L0xx_HAL_Driver/Src/stm32l0xx_hal_rcc_ex.c ****       {
 1043              		.loc 1 509 10
 1044 01c2 FB69     		ldr	r3, [r7, #28]
 1045 01c4 002B     		cmp	r3, #0
 1046 01c6 04D1     		bne	.L57
 511:Drivers/STM32L0xx_HAL_Driver/Src/stm32l0xx_hal_rcc_ex.c ****       }
 1047              		.loc 1 511 21
 1048 01c8 FFF7FEFF 		bl	HAL_RCC_GetPCLK2Freq
 1049 01cc 0300     		movs	r3, r0
 1050 01ce 7B62     		str	r3, [r7, #36]
 546:Drivers/STM32L0xx_HAL_Driver/Src/stm32l0xx_hal_rcc_ex.c ****     }
 1051              		.loc 1 546 7
 1052 01d0 12E1     		b	.L87
 1053              	.L57:
 514:Drivers/STM32L0xx_HAL_Driver/Src/stm32l0xx_hal_rcc_ex.c ****       {
 1054              		.loc 1 514 15
 1055 01d2 FB69     		ldr	r3, [r7, #28]
 1056 01d4 022B     		cmp	r3, #2
 1057 01d6 11D1     		bne	.L59
 516:Drivers/STM32L0xx_HAL_Driver/Src/stm32l0xx_hal_rcc_ex.c ****         {
 1058              		.loc 1 516 13
 1059 01d8 604B     		ldr	r3, .L91+4
 1060 01da 1B68     		ldr	r3, [r3]
 1061 01dc 0422     		movs	r2, #4
 1062 01de 1340     		ands	r3, r2
 516:Drivers/STM32L0xx_HAL_Driver/Src/stm32l0xx_hal_rcc_ex.c ****         {
 1063              		.loc 1 516 12
 1064 01e0 042B     		cmp	r3, #4
 1065 01e2 00D0     		beq	.LCB861
 1066 01e4 08E1     		b	.L87	@long jump
 1067              	.LCB861:
 518:Drivers/STM32L0xx_HAL_Driver/Src/stm32l0xx_hal_rcc_ex.c ****           {
 1068              		.loc 1 518 15
 1069 01e6 5D4B     		ldr	r3, .L91+4
 1070 01e8 1B68     		ldr	r3, [r3]
 1071 01ea 1022     		movs	r2, #16
 1072 01ec 1340     		ands	r3, r2
 518:Drivers/STM32L0xx_HAL_Driver/Src/stm32l0xx_hal_rcc_ex.c ****           {
 1073              		.loc 1 518 14
 1074 01ee 02D0     		beq	.L60
 520:Drivers/STM32L0xx_HAL_Driver/Src/stm32l0xx_hal_rcc_ex.c ****           }
 1075              		.loc 1 520 23
 1076 01f0 5F4B     		ldr	r3, .L91+24
ARM GAS  C:\Users\lidka\AppData\Local\Temp\ccURlygc.s 			page 34


 1077 01f2 7B62     		str	r3, [r7, #36]
 546:Drivers/STM32L0xx_HAL_Driver/Src/stm32l0xx_hal_rcc_ex.c ****     }
 1078              		.loc 1 546 7
 1079 01f4 00E1     		b	.L87
 1080              	.L60:
 524:Drivers/STM32L0xx_HAL_Driver/Src/stm32l0xx_hal_rcc_ex.c ****           }
 1081              		.loc 1 524 23
 1082 01f6 604B     		ldr	r3, .L91+32
 1083 01f8 7B62     		str	r3, [r7, #36]
 546:Drivers/STM32L0xx_HAL_Driver/Src/stm32l0xx_hal_rcc_ex.c ****     }
 1084              		.loc 1 546 7
 1085 01fa FDE0     		b	.L87
 1086              	.L59:
 529:Drivers/STM32L0xx_HAL_Driver/Src/stm32l0xx_hal_rcc_ex.c ****       {
 1087              		.loc 1 529 15
 1088 01fc FB69     		ldr	r3, [r7, #28]
 1089 01fe 012B     		cmp	r3, #1
 1090 0200 04D1     		bne	.L61
 531:Drivers/STM32L0xx_HAL_Driver/Src/stm32l0xx_hal_rcc_ex.c ****       }
 1091              		.loc 1 531 21
 1092 0202 FFF7FEFF 		bl	HAL_RCC_GetSysClockFreq
 1093 0206 0300     		movs	r3, r0
 1094 0208 7B62     		str	r3, [r7, #36]
 546:Drivers/STM32L0xx_HAL_Driver/Src/stm32l0xx_hal_rcc_ex.c ****     }
 1095              		.loc 1 546 7
 1096 020a F5E0     		b	.L87
 1097              	.L61:
 534:Drivers/STM32L0xx_HAL_Driver/Src/stm32l0xx_hal_rcc_ex.c ****       {
 1098              		.loc 1 534 15
 1099 020c FB69     		ldr	r3, [r7, #28]
 1100 020e 032B     		cmp	r3, #3
 1101 0210 0DD1     		bne	.L62
 536:Drivers/STM32L0xx_HAL_Driver/Src/stm32l0xx_hal_rcc_ex.c ****         {
 1102              		.loc 1 536 13
 1103 0212 524B     		ldr	r3, .L91+4
 1104 0214 1A6D     		ldr	r2, [r3, #80]
 1105 0216 8023     		movs	r3, #128
 1106 0218 9B00     		lsls	r3, r3, #2
 1107 021a 1A40     		ands	r2, r3
 536:Drivers/STM32L0xx_HAL_Driver/Src/stm32l0xx_hal_rcc_ex.c ****         {
 1108              		.loc 1 536 12
 1109 021c 8023     		movs	r3, #128
 1110 021e 9B00     		lsls	r3, r3, #2
 1111 0220 9A42     		cmp	r2, r3
 1112 0222 00D0     		beq	.LCB901
 1113 0224 E8E0     		b	.L87	@long jump
 1114              	.LCB901:
 538:Drivers/STM32L0xx_HAL_Driver/Src/stm32l0xx_hal_rcc_ex.c ****         }
 1115              		.loc 1 538 21
 1116 0226 8023     		movs	r3, #128
 1117 0228 1B02     		lsls	r3, r3, #8
 1118 022a 7B62     		str	r3, [r7, #36]
 546:Drivers/STM32L0xx_HAL_Driver/Src/stm32l0xx_hal_rcc_ex.c ****     }
 1119              		.loc 1 546 7
 1120 022c E4E0     		b	.L87
 1121              	.L62:
 544:Drivers/STM32L0xx_HAL_Driver/Src/stm32l0xx_hal_rcc_ex.c ****       }
ARM GAS  C:\Users\lidka\AppData\Local\Temp\ccURlygc.s 			page 35


 1122              		.loc 1 544 19
 1123 022e 0023     		movs	r3, #0
 1124 0230 7B62     		str	r3, [r7, #36]
 546:Drivers/STM32L0xx_HAL_Driver/Src/stm32l0xx_hal_rcc_ex.c ****     }
 1125              		.loc 1 546 7
 1126 0232 E1E0     		b	.L87
 1127              	.L38:
 552:Drivers/STM32L0xx_HAL_Driver/Src/stm32l0xx_hal_rcc_ex.c **** 
 1128              		.loc 1 552 16
 1129 0234 494B     		ldr	r3, .L91+4
 1130 0236 DB6C     		ldr	r3, [r3, #76]
 552:Drivers/STM32L0xx_HAL_Driver/Src/stm32l0xx_hal_rcc_ex.c **** 
 1131              		.loc 1 552 14
 1132 0238 0C22     		movs	r2, #12
 1133 023a 1340     		ands	r3, r2
 1134 023c FB61     		str	r3, [r7, #28]
 555:Drivers/STM32L0xx_HAL_Driver/Src/stm32l0xx_hal_rcc_ex.c ****       {
 1135              		.loc 1 555 10
 1136 023e FB69     		ldr	r3, [r7, #28]
 1137 0240 002B     		cmp	r3, #0
 1138 0242 04D1     		bne	.L63
 557:Drivers/STM32L0xx_HAL_Driver/Src/stm32l0xx_hal_rcc_ex.c ****       }
 1139              		.loc 1 557 21
 1140 0244 FFF7FEFF 		bl	HAL_RCC_GetPCLK1Freq
 1141 0248 0300     		movs	r3, r0
 1142 024a 7B62     		str	r3, [r7, #36]
 592:Drivers/STM32L0xx_HAL_Driver/Src/stm32l0xx_hal_rcc_ex.c ****     }
 1143              		.loc 1 592 7
 1144 024c D6E0     		b	.L88
 1145              	.L63:
 560:Drivers/STM32L0xx_HAL_Driver/Src/stm32l0xx_hal_rcc_ex.c ****       {
 1146              		.loc 1 560 15
 1147 024e FB69     		ldr	r3, [r7, #28]
 1148 0250 082B     		cmp	r3, #8
 1149 0252 11D1     		bne	.L65
 562:Drivers/STM32L0xx_HAL_Driver/Src/stm32l0xx_hal_rcc_ex.c ****         {
 1150              		.loc 1 562 13
 1151 0254 414B     		ldr	r3, .L91+4
 1152 0256 1B68     		ldr	r3, [r3]
 1153 0258 0422     		movs	r2, #4
 1154 025a 1340     		ands	r3, r2
 562:Drivers/STM32L0xx_HAL_Driver/Src/stm32l0xx_hal_rcc_ex.c ****         {
 1155              		.loc 1 562 12
 1156 025c 042B     		cmp	r3, #4
 1157 025e 00D0     		beq	.LCB938
 1158 0260 CCE0     		b	.L88	@long jump
 1159              	.LCB938:
 564:Drivers/STM32L0xx_HAL_Driver/Src/stm32l0xx_hal_rcc_ex.c ****           {
 1160              		.loc 1 564 15
 1161 0262 3E4B     		ldr	r3, .L91+4
 1162 0264 1B68     		ldr	r3, [r3]
 1163 0266 1022     		movs	r2, #16
 1164 0268 1340     		ands	r3, r2
 564:Drivers/STM32L0xx_HAL_Driver/Src/stm32l0xx_hal_rcc_ex.c ****           {
 1165              		.loc 1 564 14
 1166 026a 02D0     		beq	.L66
 566:Drivers/STM32L0xx_HAL_Driver/Src/stm32l0xx_hal_rcc_ex.c ****           }
ARM GAS  C:\Users\lidka\AppData\Local\Temp\ccURlygc.s 			page 36


 1167              		.loc 1 566 23
 1168 026c 404B     		ldr	r3, .L91+24
 1169 026e 7B62     		str	r3, [r7, #36]
 592:Drivers/STM32L0xx_HAL_Driver/Src/stm32l0xx_hal_rcc_ex.c ****     }
 1170              		.loc 1 592 7
 1171 0270 C4E0     		b	.L88
 1172              	.L66:
 570:Drivers/STM32L0xx_HAL_Driver/Src/stm32l0xx_hal_rcc_ex.c ****           }
 1173              		.loc 1 570 23
 1174 0272 414B     		ldr	r3, .L91+32
 1175 0274 7B62     		str	r3, [r7, #36]
 592:Drivers/STM32L0xx_HAL_Driver/Src/stm32l0xx_hal_rcc_ex.c ****     }
 1176              		.loc 1 592 7
 1177 0276 C1E0     		b	.L88
 1178              	.L65:
 575:Drivers/STM32L0xx_HAL_Driver/Src/stm32l0xx_hal_rcc_ex.c ****       {
 1179              		.loc 1 575 15
 1180 0278 FB69     		ldr	r3, [r7, #28]
 1181 027a 042B     		cmp	r3, #4
 1182 027c 04D1     		bne	.L67
 577:Drivers/STM32L0xx_HAL_Driver/Src/stm32l0xx_hal_rcc_ex.c ****       }
 1183              		.loc 1 577 21
 1184 027e FFF7FEFF 		bl	HAL_RCC_GetSysClockFreq
 1185 0282 0300     		movs	r3, r0
 1186 0284 7B62     		str	r3, [r7, #36]
 592:Drivers/STM32L0xx_HAL_Driver/Src/stm32l0xx_hal_rcc_ex.c ****     }
 1187              		.loc 1 592 7
 1188 0286 B9E0     		b	.L88
 1189              	.L67:
 580:Drivers/STM32L0xx_HAL_Driver/Src/stm32l0xx_hal_rcc_ex.c ****       {
 1190              		.loc 1 580 15
 1191 0288 FB69     		ldr	r3, [r7, #28]
 1192 028a 0C2B     		cmp	r3, #12
 1193 028c 0DD1     		bne	.L68
 582:Drivers/STM32L0xx_HAL_Driver/Src/stm32l0xx_hal_rcc_ex.c ****         {
 1194              		.loc 1 582 13
 1195 028e 334B     		ldr	r3, .L91+4
 1196 0290 1A6D     		ldr	r2, [r3, #80]
 1197 0292 8023     		movs	r3, #128
 1198 0294 9B00     		lsls	r3, r3, #2
 1199 0296 1A40     		ands	r2, r3
 582:Drivers/STM32L0xx_HAL_Driver/Src/stm32l0xx_hal_rcc_ex.c ****         {
 1200              		.loc 1 582 12
 1201 0298 8023     		movs	r3, #128
 1202 029a 9B00     		lsls	r3, r3, #2
 1203 029c 9A42     		cmp	r2, r3
 1204 029e 00D0     		beq	.LCB978
 1205 02a0 ACE0     		b	.L88	@long jump
 1206              	.LCB978:
 584:Drivers/STM32L0xx_HAL_Driver/Src/stm32l0xx_hal_rcc_ex.c ****         }
 1207              		.loc 1 584 21
 1208 02a2 8023     		movs	r3, #128
 1209 02a4 1B02     		lsls	r3, r3, #8
 1210 02a6 7B62     		str	r3, [r7, #36]
 592:Drivers/STM32L0xx_HAL_Driver/Src/stm32l0xx_hal_rcc_ex.c ****     }
 1211              		.loc 1 592 7
 1212 02a8 A8E0     		b	.L88
ARM GAS  C:\Users\lidka\AppData\Local\Temp\ccURlygc.s 			page 37


 1213              	.L68:
 590:Drivers/STM32L0xx_HAL_Driver/Src/stm32l0xx_hal_rcc_ex.c ****       }
 1214              		.loc 1 590 19
 1215 02aa 0023     		movs	r3, #0
 1216 02ac 7B62     		str	r3, [r7, #36]
 592:Drivers/STM32L0xx_HAL_Driver/Src/stm32l0xx_hal_rcc_ex.c ****     }
 1217              		.loc 1 592 7
 1218 02ae A5E0     		b	.L88
 1219              	.L37:
 597:Drivers/STM32L0xx_HAL_Driver/Src/stm32l0xx_hal_rcc_ex.c **** 
 1220              		.loc 1 597 16
 1221 02b0 2A4B     		ldr	r3, .L91+4
 1222 02b2 DA6C     		ldr	r2, [r3, #76]
 597:Drivers/STM32L0xx_HAL_Driver/Src/stm32l0xx_hal_rcc_ex.c **** 
 1223              		.loc 1 597 14
 1224 02b4 C023     		movs	r3, #192
 1225 02b6 1B01     		lsls	r3, r3, #4
 1226 02b8 1340     		ands	r3, r2
 1227 02ba FB61     		str	r3, [r7, #28]
 600:Drivers/STM32L0xx_HAL_Driver/Src/stm32l0xx_hal_rcc_ex.c ****       {
 1228              		.loc 1 600 10
 1229 02bc FB69     		ldr	r3, [r7, #28]
 1230 02be 002B     		cmp	r3, #0
 1231 02c0 04D1     		bne	.L69
 602:Drivers/STM32L0xx_HAL_Driver/Src/stm32l0xx_hal_rcc_ex.c ****       }
 1232              		.loc 1 602 21
 1233 02c2 FFF7FEFF 		bl	HAL_RCC_GetPCLK1Freq
 1234 02c6 0300     		movs	r3, r0
 1235 02c8 7B62     		str	r3, [r7, #36]
 637:Drivers/STM32L0xx_HAL_Driver/Src/stm32l0xx_hal_rcc_ex.c ****     }
 1236              		.loc 1 637 7
 1237 02ca 99E0     		b	.L89
 1238              	.L69:
 605:Drivers/STM32L0xx_HAL_Driver/Src/stm32l0xx_hal_rcc_ex.c ****       {
 1239              		.loc 1 605 15
 1240 02cc FA69     		ldr	r2, [r7, #28]
 1241 02ce 8023     		movs	r3, #128
 1242 02d0 1B01     		lsls	r3, r3, #4
 1243 02d2 9A42     		cmp	r2, r3
 1244 02d4 11D1     		bne	.L71
 607:Drivers/STM32L0xx_HAL_Driver/Src/stm32l0xx_hal_rcc_ex.c ****         {
 1245              		.loc 1 607 13
 1246 02d6 214B     		ldr	r3, .L91+4
 1247 02d8 1B68     		ldr	r3, [r3]
 1248 02da 0422     		movs	r2, #4
 1249 02dc 1340     		ands	r3, r2
 607:Drivers/STM32L0xx_HAL_Driver/Src/stm32l0xx_hal_rcc_ex.c ****         {
 1250              		.loc 1 607 12
 1251 02de 042B     		cmp	r3, #4
 1252 02e0 00D0     		beq	.LCB1018
 1253 02e2 8DE0     		b	.L89	@long jump
 1254              	.LCB1018:
 609:Drivers/STM32L0xx_HAL_Driver/Src/stm32l0xx_hal_rcc_ex.c ****           {
 1255              		.loc 1 609 15
 1256 02e4 1D4B     		ldr	r3, .L91+4
 1257 02e6 1B68     		ldr	r3, [r3]
 1258 02e8 1022     		movs	r2, #16
ARM GAS  C:\Users\lidka\AppData\Local\Temp\ccURlygc.s 			page 38


 1259 02ea 1340     		ands	r3, r2
 609:Drivers/STM32L0xx_HAL_Driver/Src/stm32l0xx_hal_rcc_ex.c ****           {
 1260              		.loc 1 609 14
 1261 02ec 02D0     		beq	.L72
 611:Drivers/STM32L0xx_HAL_Driver/Src/stm32l0xx_hal_rcc_ex.c ****           }
 1262              		.loc 1 611 23
 1263 02ee 204B     		ldr	r3, .L91+24
 1264 02f0 7B62     		str	r3, [r7, #36]
 637:Drivers/STM32L0xx_HAL_Driver/Src/stm32l0xx_hal_rcc_ex.c ****     }
 1265              		.loc 1 637 7
 1266 02f2 85E0     		b	.L89
 1267              	.L72:
 615:Drivers/STM32L0xx_HAL_Driver/Src/stm32l0xx_hal_rcc_ex.c ****           }
 1268              		.loc 1 615 23
 1269 02f4 204B     		ldr	r3, .L91+32
 1270 02f6 7B62     		str	r3, [r7, #36]
 637:Drivers/STM32L0xx_HAL_Driver/Src/stm32l0xx_hal_rcc_ex.c ****     }
 1271              		.loc 1 637 7
 1272 02f8 82E0     		b	.L89
 1273              	.L71:
 620:Drivers/STM32L0xx_HAL_Driver/Src/stm32l0xx_hal_rcc_ex.c ****       {
 1274              		.loc 1 620 15
 1275 02fa FA69     		ldr	r2, [r7, #28]
 1276 02fc 8023     		movs	r3, #128
 1277 02fe DB00     		lsls	r3, r3, #3
 1278 0300 9A42     		cmp	r2, r3
 1279 0302 04D1     		bne	.L73
 622:Drivers/STM32L0xx_HAL_Driver/Src/stm32l0xx_hal_rcc_ex.c ****       }
 1280              		.loc 1 622 21
 1281 0304 FFF7FEFF 		bl	HAL_RCC_GetSysClockFreq
 1282 0308 0300     		movs	r3, r0
 1283 030a 7B62     		str	r3, [r7, #36]
 637:Drivers/STM32L0xx_HAL_Driver/Src/stm32l0xx_hal_rcc_ex.c ****     }
 1284              		.loc 1 637 7
 1285 030c 78E0     		b	.L89
 1286              	.L73:
 625:Drivers/STM32L0xx_HAL_Driver/Src/stm32l0xx_hal_rcc_ex.c ****       {
 1287              		.loc 1 625 15
 1288 030e FA69     		ldr	r2, [r7, #28]
 1289 0310 C023     		movs	r3, #192
 1290 0312 1B01     		lsls	r3, r3, #4
 1291 0314 9A42     		cmp	r2, r3
 1292 0316 0DD1     		bne	.L74
 627:Drivers/STM32L0xx_HAL_Driver/Src/stm32l0xx_hal_rcc_ex.c ****         {
 1293              		.loc 1 627 13
 1294 0318 104B     		ldr	r3, .L91+4
 1295 031a 1A6D     		ldr	r2, [r3, #80]
 1296 031c 8023     		movs	r3, #128
 1297 031e 9B00     		lsls	r3, r3, #2
 1298 0320 1A40     		ands	r2, r3
 627:Drivers/STM32L0xx_HAL_Driver/Src/stm32l0xx_hal_rcc_ex.c ****         {
 1299              		.loc 1 627 12
 1300 0322 8023     		movs	r3, #128
 1301 0324 9B00     		lsls	r3, r3, #2
 1302 0326 9A42     		cmp	r2, r3
 1303 0328 00D0     		beq	.LCB1062
 1304 032a 69E0     		b	.L89	@long jump
ARM GAS  C:\Users\lidka\AppData\Local\Temp\ccURlygc.s 			page 39


 1305              	.LCB1062:
 629:Drivers/STM32L0xx_HAL_Driver/Src/stm32l0xx_hal_rcc_ex.c ****         }
 1306              		.loc 1 629 21
 1307 032c 8023     		movs	r3, #128
 1308 032e 1B02     		lsls	r3, r3, #8
 1309 0330 7B62     		str	r3, [r7, #36]
 637:Drivers/STM32L0xx_HAL_Driver/Src/stm32l0xx_hal_rcc_ex.c ****     }
 1310              		.loc 1 637 7
 1311 0332 65E0     		b	.L89
 1312              	.L74:
 635:Drivers/STM32L0xx_HAL_Driver/Src/stm32l0xx_hal_rcc_ex.c ****       }
 1313              		.loc 1 635 19
 1314 0334 0023     		movs	r3, #0
 1315 0336 7B62     		str	r3, [r7, #36]
 637:Drivers/STM32L0xx_HAL_Driver/Src/stm32l0xx_hal_rcc_ex.c ****     }
 1316              		.loc 1 637 7
 1317 0338 62E0     		b	.L89
 1318              	.L36:
 642:Drivers/STM32L0xx_HAL_Driver/Src/stm32l0xx_hal_rcc_ex.c **** 
 1319              		.loc 1 642 16
 1320 033a 084B     		ldr	r3, .L91+4
 1321 033c DA6C     		ldr	r2, [r3, #76]
 642:Drivers/STM32L0xx_HAL_Driver/Src/stm32l0xx_hal_rcc_ex.c **** 
 1322              		.loc 1 642 14
 1323 033e C023     		movs	r3, #192
 1324 0340 9B01     		lsls	r3, r3, #6
 1325 0342 1340     		ands	r3, r2
 1326 0344 FB61     		str	r3, [r7, #28]
 645:Drivers/STM32L0xx_HAL_Driver/Src/stm32l0xx_hal_rcc_ex.c ****       {
 1327              		.loc 1 645 10
 1328 0346 FB69     		ldr	r3, [r7, #28]
 1329 0348 002B     		cmp	r3, #0
 1330 034a 1BD1     		bne	.L75
 647:Drivers/STM32L0xx_HAL_Driver/Src/stm32l0xx_hal_rcc_ex.c ****       }
 1331              		.loc 1 647 21
 1332 034c FFF7FEFF 		bl	HAL_RCC_GetPCLK1Freq
 1333 0350 0300     		movs	r3, r0
 1334 0352 7B62     		str	r3, [r7, #36]
 674:Drivers/STM32L0xx_HAL_Driver/Src/stm32l0xx_hal_rcc_ex.c ****     }
 1335              		.loc 1 674 7
 1336 0354 56E0     		b	.L90
 1337              	.L92:
 1338 0356 C046     		.align	2
 1339              	.L91:
 1340 0358 00000000 		.word	.L34
 1341 035c 00100240 		.word	1073876992
 1342 0360 88900000 		.word	37000
 1343 0364 20A10700 		.word	500000
 1344 0368 40420F00 		.word	1000000
 1345 036c 80841E00 		.word	2000000
 1346 0370 00093D00 		.word	4000000
 1347 0374 00000000 		.word	PLLMulTable
 1348 0378 0024F400 		.word	16000000
 1349 037c 00127A00 		.word	8000000
 1350 0380 006CDC02 		.word	48000000
 1351              	.L75:
 650:Drivers/STM32L0xx_HAL_Driver/Src/stm32l0xx_hal_rcc_ex.c ****       {
ARM GAS  C:\Users\lidka\AppData\Local\Temp\ccURlygc.s 			page 40


 1352              		.loc 1 650 15
 1353 0384 FA69     		ldr	r2, [r7, #28]
 1354 0386 8023     		movs	r3, #128
 1355 0388 9B01     		lsls	r3, r3, #6
 1356 038a 9A42     		cmp	r2, r3
 1357 038c 10D1     		bne	.L77
 652:Drivers/STM32L0xx_HAL_Driver/Src/stm32l0xx_hal_rcc_ex.c ****         {
 1358              		.loc 1 652 13
 1359 038e 204B     		ldr	r3, .L93
 1360 0390 1B68     		ldr	r3, [r3]
 1361 0392 0422     		movs	r2, #4
 1362 0394 1340     		ands	r3, r2
 652:Drivers/STM32L0xx_HAL_Driver/Src/stm32l0xx_hal_rcc_ex.c ****         {
 1363              		.loc 1 652 12
 1364 0396 042B     		cmp	r3, #4
 1365 0398 34D1     		bne	.L90
 654:Drivers/STM32L0xx_HAL_Driver/Src/stm32l0xx_hal_rcc_ex.c ****           {
 1366              		.loc 1 654 15
 1367 039a 1D4B     		ldr	r3, .L93
 1368 039c 1B68     		ldr	r3, [r3]
 1369 039e 1022     		movs	r2, #16
 1370 03a0 1340     		ands	r3, r2
 654:Drivers/STM32L0xx_HAL_Driver/Src/stm32l0xx_hal_rcc_ex.c ****           {
 1371              		.loc 1 654 14
 1372 03a2 02D0     		beq	.L78
 656:Drivers/STM32L0xx_HAL_Driver/Src/stm32l0xx_hal_rcc_ex.c ****           }
 1373              		.loc 1 656 23
 1374 03a4 1B4B     		ldr	r3, .L93+4
 1375 03a6 7B62     		str	r3, [r7, #36]
 674:Drivers/STM32L0xx_HAL_Driver/Src/stm32l0xx_hal_rcc_ex.c ****     }
 1376              		.loc 1 674 7
 1377 03a8 2CE0     		b	.L90
 1378              	.L78:
 660:Drivers/STM32L0xx_HAL_Driver/Src/stm32l0xx_hal_rcc_ex.c ****           }
 1379              		.loc 1 660 23
 1380 03aa 1B4B     		ldr	r3, .L93+8
 1381 03ac 7B62     		str	r3, [r7, #36]
 674:Drivers/STM32L0xx_HAL_Driver/Src/stm32l0xx_hal_rcc_ex.c ****     }
 1382              		.loc 1 674 7
 1383 03ae 29E0     		b	.L90
 1384              	.L77:
 665:Drivers/STM32L0xx_HAL_Driver/Src/stm32l0xx_hal_rcc_ex.c ****       {
 1385              		.loc 1 665 15
 1386 03b0 FA69     		ldr	r2, [r7, #28]
 1387 03b2 8023     		movs	r3, #128
 1388 03b4 5B01     		lsls	r3, r3, #5
 1389 03b6 9A42     		cmp	r2, r3
 1390 03b8 04D1     		bne	.L79
 667:Drivers/STM32L0xx_HAL_Driver/Src/stm32l0xx_hal_rcc_ex.c ****       }
 1391              		.loc 1 667 21
 1392 03ba FFF7FEFF 		bl	HAL_RCC_GetSysClockFreq
 1393 03be 0300     		movs	r3, r0
 1394 03c0 7B62     		str	r3, [r7, #36]
 674:Drivers/STM32L0xx_HAL_Driver/Src/stm32l0xx_hal_rcc_ex.c ****     }
 1395              		.loc 1 674 7
 1396 03c2 1FE0     		b	.L90
 1397              	.L79:
ARM GAS  C:\Users\lidka\AppData\Local\Temp\ccURlygc.s 			page 41


 672:Drivers/STM32L0xx_HAL_Driver/Src/stm32l0xx_hal_rcc_ex.c ****       }
 1398              		.loc 1 672 19
 1399 03c4 0023     		movs	r3, #0
 1400 03c6 7B62     		str	r3, [r7, #36]
 674:Drivers/STM32L0xx_HAL_Driver/Src/stm32l0xx_hal_rcc_ex.c ****     }
 1401              		.loc 1 674 7
 1402 03c8 1CE0     		b	.L90
 1403              	.L35:
 681:Drivers/STM32L0xx_HAL_Driver/Src/stm32l0xx_hal_rcc_ex.c ****       {
 1404              		.loc 1 681 11
 1405 03ca 114B     		ldr	r3, .L93
 1406 03cc 9A6B     		ldr	r2, [r3, #56]
 1407 03ce 8023     		movs	r3, #128
 1408 03d0 DB03     		lsls	r3, r3, #15
 1409 03d2 1A40     		ands	r2, r3
 681:Drivers/STM32L0xx_HAL_Driver/Src/stm32l0xx_hal_rcc_ex.c ****       {
 1410              		.loc 1 681 10
 1411 03d4 8023     		movs	r3, #128
 1412 03d6 DB03     		lsls	r3, r3, #15
 1413 03d8 9A42     		cmp	r2, r3
 1414 03da 04D1     		bne	.L80
 683:Drivers/STM32L0xx_HAL_Driver/Src/stm32l0xx_hal_rcc_ex.c ****       }
 1415              		.loc 1 683 21
 1416 03dc FFF7FEFF 		bl	HAL_RCC_GetPCLK1Freq
 1417 03e0 0300     		movs	r3, r0
 1418 03e2 7B62     		str	r3, [r7, #36]
 689:Drivers/STM32L0xx_HAL_Driver/Src/stm32l0xx_hal_rcc_ex.c ****     }
 1419              		.loc 1 689 7
 1420 03e4 0FE0     		b	.L50
 1421              	.L80:
 687:Drivers/STM32L0xx_HAL_Driver/Src/stm32l0xx_hal_rcc_ex.c ****       }
 1422              		.loc 1 687 19
 1423 03e6 0023     		movs	r3, #0
 1424 03e8 7B62     		str	r3, [r7, #36]
 689:Drivers/STM32L0xx_HAL_Driver/Src/stm32l0xx_hal_rcc_ex.c ****     }
 1425              		.loc 1 689 7
 1426 03ea 0CE0     		b	.L50
 1427              	.L83:
 1428              		.loc 1 734 7
 1429 03ec C046     		nop
 1430 03ee 0AE0     		b	.L50
 1431              	.L84:
 449:Drivers/STM32L0xx_HAL_Driver/Src/stm32l0xx_hal_rcc_ex.c ****     }
 1432              		.loc 1 449 7
 1433 03f0 C046     		nop
 1434 03f2 08E0     		b	.L50
 1435              	.L86:
 499:Drivers/STM32L0xx_HAL_Driver/Src/stm32l0xx_hal_rcc_ex.c ****     }
 1436              		.loc 1 499 7
 1437 03f4 C046     		nop
 1438 03f6 06E0     		b	.L50
 1439              	.L87:
 546:Drivers/STM32L0xx_HAL_Driver/Src/stm32l0xx_hal_rcc_ex.c ****     }
 1440              		.loc 1 546 7
 1441 03f8 C046     		nop
 1442 03fa 04E0     		b	.L50
 1443              	.L88:
ARM GAS  C:\Users\lidka\AppData\Local\Temp\ccURlygc.s 			page 42


 592:Drivers/STM32L0xx_HAL_Driver/Src/stm32l0xx_hal_rcc_ex.c ****     }
 1444              		.loc 1 592 7
 1445 03fc C046     		nop
 1446 03fe 02E0     		b	.L50
 1447              	.L89:
 637:Drivers/STM32L0xx_HAL_Driver/Src/stm32l0xx_hal_rcc_ex.c ****     }
 1448              		.loc 1 637 7
 1449 0400 C046     		nop
 1450 0402 00E0     		b	.L50
 1451              	.L90:
 674:Drivers/STM32L0xx_HAL_Driver/Src/stm32l0xx_hal_rcc_ex.c ****     }
 1452              		.loc 1 674 7
 1453 0404 C046     		nop
 1454              	.L50:
 735:Drivers/STM32L0xx_HAL_Driver/Src/stm32l0xx_hal_rcc_ex.c ****     }
 736:Drivers/STM32L0xx_HAL_Driver/Src/stm32l0xx_hal_rcc_ex.c ****   }
 737:Drivers/STM32L0xx_HAL_Driver/Src/stm32l0xx_hal_rcc_ex.c ****   return(frequency);
 1455              		.loc 1 737 9
 1456 0406 7B6A     		ldr	r3, [r7, #36]
 738:Drivers/STM32L0xx_HAL_Driver/Src/stm32l0xx_hal_rcc_ex.c **** }
 1457              		.loc 1 738 1
 1458 0408 1800     		movs	r0, r3
 1459 040a BD46     		mov	sp, r7
 1460 040c 0AB0     		add	sp, sp, #40
 1461              		@ sp needed
 1462 040e 80BD     		pop	{r7, pc}
 1463              	.L94:
 1464              		.align	2
 1465              	.L93:
 1466 0410 00100240 		.word	1073876992
 1467 0414 00093D00 		.word	4000000
 1468 0418 0024F400 		.word	16000000
 1469              		.cfi_endproc
 1470              	.LFE49:
 1472              		.section	.text.HAL_RCCEx_EnableLSECSS,"ax",%progbits
 1473              		.align	1
 1474              		.global	HAL_RCCEx_EnableLSECSS
 1475              		.syntax unified
 1476              		.code	16
 1477              		.thumb_func
 1479              	HAL_RCCEx_EnableLSECSS:
 1480              	.LFB50:
 739:Drivers/STM32L0xx_HAL_Driver/Src/stm32l0xx_hal_rcc_ex.c **** 
 740:Drivers/STM32L0xx_HAL_Driver/Src/stm32l0xx_hal_rcc_ex.c **** /**
 741:Drivers/STM32L0xx_HAL_Driver/Src/stm32l0xx_hal_rcc_ex.c ****   * @brief  Enables the LSE Clock Security System.
 742:Drivers/STM32L0xx_HAL_Driver/Src/stm32l0xx_hal_rcc_ex.c ****   * @retval None
 743:Drivers/STM32L0xx_HAL_Driver/Src/stm32l0xx_hal_rcc_ex.c ****   */
 744:Drivers/STM32L0xx_HAL_Driver/Src/stm32l0xx_hal_rcc_ex.c **** void HAL_RCCEx_EnableLSECSS(void)
 745:Drivers/STM32L0xx_HAL_Driver/Src/stm32l0xx_hal_rcc_ex.c **** {
 1481              		.loc 1 745 1
 1482              		.cfi_startproc
 1483              		@ args = 0, pretend = 0, frame = 0
 1484              		@ frame_needed = 1, uses_anonymous_args = 0
 1485 0000 80B5     		push	{r7, lr}
 1486              	.LCFI9:
 1487              		.cfi_def_cfa_offset 8
 1488              		.cfi_offset 7, -8
ARM GAS  C:\Users\lidka\AppData\Local\Temp\ccURlygc.s 			page 43


 1489              		.cfi_offset 14, -4
 1490 0002 00AF     		add	r7, sp, #0
 1491              	.LCFI10:
 1492              		.cfi_def_cfa_register 7
 746:Drivers/STM32L0xx_HAL_Driver/Src/stm32l0xx_hal_rcc_ex.c ****   SET_BIT(RCC->CSR, RCC_CSR_LSECSSON) ;
 1493              		.loc 1 746 3
 1494 0004 044B     		ldr	r3, .L96
 1495 0006 1A6D     		ldr	r2, [r3, #80]
 1496 0008 034B     		ldr	r3, .L96
 1497 000a 8021     		movs	r1, #128
 1498 000c 8901     		lsls	r1, r1, #6
 1499 000e 0A43     		orrs	r2, r1
 1500 0010 1A65     		str	r2, [r3, #80]
 747:Drivers/STM32L0xx_HAL_Driver/Src/stm32l0xx_hal_rcc_ex.c **** }
 1501              		.loc 1 747 1
 1502 0012 C046     		nop
 1503 0014 BD46     		mov	sp, r7
 1504              		@ sp needed
 1505 0016 80BD     		pop	{r7, pc}
 1506              	.L97:
 1507              		.align	2
 1508              	.L96:
 1509 0018 00100240 		.word	1073876992
 1510              		.cfi_endproc
 1511              	.LFE50:
 1513              		.section	.text.HAL_RCCEx_DisableLSECSS,"ax",%progbits
 1514              		.align	1
 1515              		.global	HAL_RCCEx_DisableLSECSS
 1516              		.syntax unified
 1517              		.code	16
 1518              		.thumb_func
 1520              	HAL_RCCEx_DisableLSECSS:
 1521              	.LFB51:
 748:Drivers/STM32L0xx_HAL_Driver/Src/stm32l0xx_hal_rcc_ex.c **** 
 749:Drivers/STM32L0xx_HAL_Driver/Src/stm32l0xx_hal_rcc_ex.c **** /**
 750:Drivers/STM32L0xx_HAL_Driver/Src/stm32l0xx_hal_rcc_ex.c ****   * @brief  Disables the LSE Clock Security System.
 751:Drivers/STM32L0xx_HAL_Driver/Src/stm32l0xx_hal_rcc_ex.c ****   * @note   Once enabled this bit cannot be disabled, except after an LSE failure detection
 752:Drivers/STM32L0xx_HAL_Driver/Src/stm32l0xx_hal_rcc_ex.c ****   *         (LSECSSD=1). In that case the software MUST disable the LSECSSON bit.
 753:Drivers/STM32L0xx_HAL_Driver/Src/stm32l0xx_hal_rcc_ex.c ****   *         Reset by power on reset and RTC software reset (RTCRST bit).
 754:Drivers/STM32L0xx_HAL_Driver/Src/stm32l0xx_hal_rcc_ex.c ****   * @retval None
 755:Drivers/STM32L0xx_HAL_Driver/Src/stm32l0xx_hal_rcc_ex.c ****   */
 756:Drivers/STM32L0xx_HAL_Driver/Src/stm32l0xx_hal_rcc_ex.c **** void HAL_RCCEx_DisableLSECSS(void)
 757:Drivers/STM32L0xx_HAL_Driver/Src/stm32l0xx_hal_rcc_ex.c **** {
 1522              		.loc 1 757 1
 1523              		.cfi_startproc
 1524              		@ args = 0, pretend = 0, frame = 0
 1525              		@ frame_needed = 1, uses_anonymous_args = 0
 1526 0000 80B5     		push	{r7, lr}
 1527              	.LCFI11:
 1528              		.cfi_def_cfa_offset 8
 1529              		.cfi_offset 7, -8
 1530              		.cfi_offset 14, -4
 1531 0002 00AF     		add	r7, sp, #0
 1532              	.LCFI12:
 1533              		.cfi_def_cfa_register 7
 758:Drivers/STM32L0xx_HAL_Driver/Src/stm32l0xx_hal_rcc_ex.c ****   /* Disable LSE CSS */
 759:Drivers/STM32L0xx_HAL_Driver/Src/stm32l0xx_hal_rcc_ex.c ****    CLEAR_BIT(RCC->CSR, RCC_CSR_LSECSSON) ;
ARM GAS  C:\Users\lidka\AppData\Local\Temp\ccURlygc.s 			page 44


 1534              		.loc 1 759 4
 1535 0004 074B     		ldr	r3, .L99
 1536 0006 1A6D     		ldr	r2, [r3, #80]
 1537 0008 064B     		ldr	r3, .L99
 1538 000a 0749     		ldr	r1, .L99+4
 1539 000c 0A40     		ands	r2, r1
 1540 000e 1A65     		str	r2, [r3, #80]
 760:Drivers/STM32L0xx_HAL_Driver/Src/stm32l0xx_hal_rcc_ex.c **** 
 761:Drivers/STM32L0xx_HAL_Driver/Src/stm32l0xx_hal_rcc_ex.c ****   /* Disable LSE CSS IT */
 762:Drivers/STM32L0xx_HAL_Driver/Src/stm32l0xx_hal_rcc_ex.c ****   __HAL_RCC_DISABLE_IT(RCC_IT_LSECSS);
 1541              		.loc 1 762 3
 1542 0010 044B     		ldr	r3, .L99
 1543 0012 1A69     		ldr	r2, [r3, #16]
 1544 0014 034B     		ldr	r3, .L99
 1545 0016 8021     		movs	r1, #128
 1546 0018 8A43     		bics	r2, r1
 1547 001a 1A61     		str	r2, [r3, #16]
 763:Drivers/STM32L0xx_HAL_Driver/Src/stm32l0xx_hal_rcc_ex.c **** }
 1548              		.loc 1 763 1
 1549 001c C046     		nop
 1550 001e BD46     		mov	sp, r7
 1551              		@ sp needed
 1552 0020 80BD     		pop	{r7, pc}
 1553              	.L100:
 1554 0022 C046     		.align	2
 1555              	.L99:
 1556 0024 00100240 		.word	1073876992
 1557 0028 FFDFFFFF 		.word	-8193
 1558              		.cfi_endproc
 1559              	.LFE51:
 1561              		.section	.text.HAL_RCCEx_EnableLSECSS_IT,"ax",%progbits
 1562              		.align	1
 1563              		.global	HAL_RCCEx_EnableLSECSS_IT
 1564              		.syntax unified
 1565              		.code	16
 1566              		.thumb_func
 1568              	HAL_RCCEx_EnableLSECSS_IT:
 1569              	.LFB52:
 764:Drivers/STM32L0xx_HAL_Driver/Src/stm32l0xx_hal_rcc_ex.c **** 
 765:Drivers/STM32L0xx_HAL_Driver/Src/stm32l0xx_hal_rcc_ex.c **** /**
 766:Drivers/STM32L0xx_HAL_Driver/Src/stm32l0xx_hal_rcc_ex.c ****   * @brief  Enable the LSE Clock Security System IT & corresponding EXTI line.
 767:Drivers/STM32L0xx_HAL_Driver/Src/stm32l0xx_hal_rcc_ex.c ****   * @note   LSE Clock Security System IT is mapped on RTC EXTI line 19
 768:Drivers/STM32L0xx_HAL_Driver/Src/stm32l0xx_hal_rcc_ex.c ****   * @retval None
 769:Drivers/STM32L0xx_HAL_Driver/Src/stm32l0xx_hal_rcc_ex.c ****   */
 770:Drivers/STM32L0xx_HAL_Driver/Src/stm32l0xx_hal_rcc_ex.c **** void HAL_RCCEx_EnableLSECSS_IT(void)
 771:Drivers/STM32L0xx_HAL_Driver/Src/stm32l0xx_hal_rcc_ex.c **** {
 1570              		.loc 1 771 1
 1571              		.cfi_startproc
 1572              		@ args = 0, pretend = 0, frame = 0
 1573              		@ frame_needed = 1, uses_anonymous_args = 0
 1574 0000 80B5     		push	{r7, lr}
 1575              	.LCFI13:
 1576              		.cfi_def_cfa_offset 8
 1577              		.cfi_offset 7, -8
 1578              		.cfi_offset 14, -4
 1579 0002 00AF     		add	r7, sp, #0
 1580              	.LCFI14:
ARM GAS  C:\Users\lidka\AppData\Local\Temp\ccURlygc.s 			page 45


 1581              		.cfi_def_cfa_register 7
 772:Drivers/STM32L0xx_HAL_Driver/Src/stm32l0xx_hal_rcc_ex.c ****   /* Enable LSE CSS */
 773:Drivers/STM32L0xx_HAL_Driver/Src/stm32l0xx_hal_rcc_ex.c ****    SET_BIT(RCC->CSR, RCC_CSR_LSECSSON) ;
 1582              		.loc 1 773 4
 1583 0004 0E4B     		ldr	r3, .L102
 1584 0006 1A6D     		ldr	r2, [r3, #80]
 1585 0008 0D4B     		ldr	r3, .L102
 1586 000a 8021     		movs	r1, #128
 1587 000c 8901     		lsls	r1, r1, #6
 1588 000e 0A43     		orrs	r2, r1
 1589 0010 1A65     		str	r2, [r3, #80]
 774:Drivers/STM32L0xx_HAL_Driver/Src/stm32l0xx_hal_rcc_ex.c **** 
 775:Drivers/STM32L0xx_HAL_Driver/Src/stm32l0xx_hal_rcc_ex.c ****   /* Enable LSE CSS IT */
 776:Drivers/STM32L0xx_HAL_Driver/Src/stm32l0xx_hal_rcc_ex.c ****   __HAL_RCC_ENABLE_IT(RCC_IT_LSECSS);
 1590              		.loc 1 776 3
 1591 0012 0B4B     		ldr	r3, .L102
 1592 0014 1A69     		ldr	r2, [r3, #16]
 1593 0016 0A4B     		ldr	r3, .L102
 1594 0018 8021     		movs	r1, #128
 1595 001a 0A43     		orrs	r2, r1
 1596 001c 1A61     		str	r2, [r3, #16]
 777:Drivers/STM32L0xx_HAL_Driver/Src/stm32l0xx_hal_rcc_ex.c **** 
 778:Drivers/STM32L0xx_HAL_Driver/Src/stm32l0xx_hal_rcc_ex.c ****   /* Enable IT on EXTI Line 19 */
 779:Drivers/STM32L0xx_HAL_Driver/Src/stm32l0xx_hal_rcc_ex.c ****   __HAL_RCC_LSECSS_EXTI_ENABLE_IT();
 1597              		.loc 1 779 3
 1598 001e 094B     		ldr	r3, .L102+4
 1599 0020 1A68     		ldr	r2, [r3]
 1600 0022 084B     		ldr	r3, .L102+4
 1601 0024 8021     		movs	r1, #128
 1602 0026 0903     		lsls	r1, r1, #12
 1603 0028 0A43     		orrs	r2, r1
 1604 002a 1A60     		str	r2, [r3]
 780:Drivers/STM32L0xx_HAL_Driver/Src/stm32l0xx_hal_rcc_ex.c ****   __HAL_RCC_LSECSS_EXTI_ENABLE_RISING_EDGE();
 1605              		.loc 1 780 3
 1606 002c 054B     		ldr	r3, .L102+4
 1607 002e 9A68     		ldr	r2, [r3, #8]
 1608 0030 044B     		ldr	r3, .L102+4
 1609 0032 8021     		movs	r1, #128
 1610 0034 0903     		lsls	r1, r1, #12
 1611 0036 0A43     		orrs	r2, r1
 1612 0038 9A60     		str	r2, [r3, #8]
 781:Drivers/STM32L0xx_HAL_Driver/Src/stm32l0xx_hal_rcc_ex.c **** }
 1613              		.loc 1 781 1
 1614 003a C046     		nop
 1615 003c BD46     		mov	sp, r7
 1616              		@ sp needed
 1617 003e 80BD     		pop	{r7, pc}
 1618              	.L103:
 1619              		.align	2
 1620              	.L102:
 1621 0040 00100240 		.word	1073876992
 1622 0044 00040140 		.word	1073808384
 1623              		.cfi_endproc
 1624              	.LFE52:
 1626              		.section	.text.HAL_RCCEx_LSECSS_IRQHandler,"ax",%progbits
 1627              		.align	1
 1628              		.global	HAL_RCCEx_LSECSS_IRQHandler
ARM GAS  C:\Users\lidka\AppData\Local\Temp\ccURlygc.s 			page 46


 1629              		.syntax unified
 1630              		.code	16
 1631              		.thumb_func
 1633              	HAL_RCCEx_LSECSS_IRQHandler:
 1634              	.LFB53:
 782:Drivers/STM32L0xx_HAL_Driver/Src/stm32l0xx_hal_rcc_ex.c **** 
 783:Drivers/STM32L0xx_HAL_Driver/Src/stm32l0xx_hal_rcc_ex.c **** /**
 784:Drivers/STM32L0xx_HAL_Driver/Src/stm32l0xx_hal_rcc_ex.c ****   * @brief Handle the RCC LSE Clock Security System interrupt request.
 785:Drivers/STM32L0xx_HAL_Driver/Src/stm32l0xx_hal_rcc_ex.c ****   * @retval None
 786:Drivers/STM32L0xx_HAL_Driver/Src/stm32l0xx_hal_rcc_ex.c ****   */
 787:Drivers/STM32L0xx_HAL_Driver/Src/stm32l0xx_hal_rcc_ex.c **** void HAL_RCCEx_LSECSS_IRQHandler(void)
 788:Drivers/STM32L0xx_HAL_Driver/Src/stm32l0xx_hal_rcc_ex.c **** {
 1635              		.loc 1 788 1
 1636              		.cfi_startproc
 1637              		@ args = 0, pretend = 0, frame = 0
 1638              		@ frame_needed = 1, uses_anonymous_args = 0
 1639 0000 80B5     		push	{r7, lr}
 1640              	.LCFI15:
 1641              		.cfi_def_cfa_offset 8
 1642              		.cfi_offset 7, -8
 1643              		.cfi_offset 14, -4
 1644 0002 00AF     		add	r7, sp, #0
 1645              	.LCFI16:
 1646              		.cfi_def_cfa_register 7
 789:Drivers/STM32L0xx_HAL_Driver/Src/stm32l0xx_hal_rcc_ex.c ****   /* Check RCC LSE CSSF flag  */
 790:Drivers/STM32L0xx_HAL_Driver/Src/stm32l0xx_hal_rcc_ex.c ****   if(__HAL_RCC_GET_IT(RCC_IT_LSECSS))
 1647              		.loc 1 790 6
 1648 0004 064B     		ldr	r3, .L107
 1649 0006 5B69     		ldr	r3, [r3, #20]
 1650 0008 8022     		movs	r2, #128
 1651 000a 1340     		ands	r3, r2
 1652              		.loc 1 790 5
 1653 000c 802B     		cmp	r3, #128
 1654 000e 04D1     		bne	.L106
 791:Drivers/STM32L0xx_HAL_Driver/Src/stm32l0xx_hal_rcc_ex.c ****   {
 792:Drivers/STM32L0xx_HAL_Driver/Src/stm32l0xx_hal_rcc_ex.c ****     /* RCC LSE Clock Security System interrupt user callback */
 793:Drivers/STM32L0xx_HAL_Driver/Src/stm32l0xx_hal_rcc_ex.c ****     HAL_RCCEx_LSECSS_Callback();
 1655              		.loc 1 793 5
 1656 0010 FFF7FEFF 		bl	HAL_RCCEx_LSECSS_Callback
 794:Drivers/STM32L0xx_HAL_Driver/Src/stm32l0xx_hal_rcc_ex.c **** 
 795:Drivers/STM32L0xx_HAL_Driver/Src/stm32l0xx_hal_rcc_ex.c ****     /* Clear RCC LSE CSS pending bit */
 796:Drivers/STM32L0xx_HAL_Driver/Src/stm32l0xx_hal_rcc_ex.c ****     __HAL_RCC_CLEAR_IT(RCC_IT_LSECSS);
 1657              		.loc 1 796 5
 1658 0014 024B     		ldr	r3, .L107
 1659 0016 8022     		movs	r2, #128
 1660 0018 9A61     		str	r2, [r3, #24]
 1661              	.L106:
 797:Drivers/STM32L0xx_HAL_Driver/Src/stm32l0xx_hal_rcc_ex.c ****   }
 798:Drivers/STM32L0xx_HAL_Driver/Src/stm32l0xx_hal_rcc_ex.c **** }
 1662              		.loc 1 798 1
 1663 001a C046     		nop
 1664 001c BD46     		mov	sp, r7
 1665              		@ sp needed
 1666 001e 80BD     		pop	{r7, pc}
 1667              	.L108:
 1668              		.align	2
 1669              	.L107:
ARM GAS  C:\Users\lidka\AppData\Local\Temp\ccURlygc.s 			page 47


 1670 0020 00100240 		.word	1073876992
 1671              		.cfi_endproc
 1672              	.LFE53:
 1674              		.section	.text.HAL_RCCEx_LSECSS_Callback,"ax",%progbits
 1675              		.align	1
 1676              		.weak	HAL_RCCEx_LSECSS_Callback
 1677              		.syntax unified
 1678              		.code	16
 1679              		.thumb_func
 1681              	HAL_RCCEx_LSECSS_Callback:
 1682              	.LFB54:
 799:Drivers/STM32L0xx_HAL_Driver/Src/stm32l0xx_hal_rcc_ex.c **** 
 800:Drivers/STM32L0xx_HAL_Driver/Src/stm32l0xx_hal_rcc_ex.c **** /**
 801:Drivers/STM32L0xx_HAL_Driver/Src/stm32l0xx_hal_rcc_ex.c ****   * @brief  RCCEx LSE Clock Security System interrupt callback.
 802:Drivers/STM32L0xx_HAL_Driver/Src/stm32l0xx_hal_rcc_ex.c ****   * @retval none
 803:Drivers/STM32L0xx_HAL_Driver/Src/stm32l0xx_hal_rcc_ex.c ****   */
 804:Drivers/STM32L0xx_HAL_Driver/Src/stm32l0xx_hal_rcc_ex.c **** __weak void HAL_RCCEx_LSECSS_Callback(void)
 805:Drivers/STM32L0xx_HAL_Driver/Src/stm32l0xx_hal_rcc_ex.c **** {
 1683              		.loc 1 805 1
 1684              		.cfi_startproc
 1685              		@ args = 0, pretend = 0, frame = 0
 1686              		@ frame_needed = 1, uses_anonymous_args = 0
 1687 0000 80B5     		push	{r7, lr}
 1688              	.LCFI17:
 1689              		.cfi_def_cfa_offset 8
 1690              		.cfi_offset 7, -8
 1691              		.cfi_offset 14, -4
 1692 0002 00AF     		add	r7, sp, #0
 1693              	.LCFI18:
 1694              		.cfi_def_cfa_register 7
 806:Drivers/STM32L0xx_HAL_Driver/Src/stm32l0xx_hal_rcc_ex.c ****   /* NOTE : This function should not be modified, when the callback is needed,
 807:Drivers/STM32L0xx_HAL_Driver/Src/stm32l0xx_hal_rcc_ex.c ****             the @ref HAL_RCCEx_LSECSS_Callback should be implemented in the user file
 808:Drivers/STM32L0xx_HAL_Driver/Src/stm32l0xx_hal_rcc_ex.c ****    */
 809:Drivers/STM32L0xx_HAL_Driver/Src/stm32l0xx_hal_rcc_ex.c **** }
 1695              		.loc 1 809 1
 1696 0004 C046     		nop
 1697 0006 BD46     		mov	sp, r7
 1698              		@ sp needed
 1699 0008 80BD     		pop	{r7, pc}
 1700              		.cfi_endproc
 1701              	.LFE54:
 1703              		.section	.text.HAL_RCCEx_EnableHSI48_VREFINT,"ax",%progbits
 1704              		.align	1
 1705              		.global	HAL_RCCEx_EnableHSI48_VREFINT
 1706              		.syntax unified
 1707              		.code	16
 1708              		.thumb_func
 1710              	HAL_RCCEx_EnableHSI48_VREFINT:
 1711              	.LFB55:
 810:Drivers/STM32L0xx_HAL_Driver/Src/stm32l0xx_hal_rcc_ex.c **** 
 811:Drivers/STM32L0xx_HAL_Driver/Src/stm32l0xx_hal_rcc_ex.c **** #if defined(SYSCFG_CFGR3_ENREF_HSI48)
 812:Drivers/STM32L0xx_HAL_Driver/Src/stm32l0xx_hal_rcc_ex.c **** /**
 813:Drivers/STM32L0xx_HAL_Driver/Src/stm32l0xx_hal_rcc_ex.c ****   * @brief Enables Vrefint for the HSI48.
 814:Drivers/STM32L0xx_HAL_Driver/Src/stm32l0xx_hal_rcc_ex.c ****   * @note  This is functional only if the LOCK is not set
 815:Drivers/STM32L0xx_HAL_Driver/Src/stm32l0xx_hal_rcc_ex.c ****   * @retval None
 816:Drivers/STM32L0xx_HAL_Driver/Src/stm32l0xx_hal_rcc_ex.c ****   */
 817:Drivers/STM32L0xx_HAL_Driver/Src/stm32l0xx_hal_rcc_ex.c **** void HAL_RCCEx_EnableHSI48_VREFINT(void)
ARM GAS  C:\Users\lidka\AppData\Local\Temp\ccURlygc.s 			page 48


 818:Drivers/STM32L0xx_HAL_Driver/Src/stm32l0xx_hal_rcc_ex.c **** {
 1712              		.loc 1 818 1
 1713              		.cfi_startproc
 1714              		@ args = 0, pretend = 0, frame = 0
 1715              		@ frame_needed = 1, uses_anonymous_args = 0
 1716 0000 80B5     		push	{r7, lr}
 1717              	.LCFI19:
 1718              		.cfi_def_cfa_offset 8
 1719              		.cfi_offset 7, -8
 1720              		.cfi_offset 14, -4
 1721 0002 00AF     		add	r7, sp, #0
 1722              	.LCFI20:
 1723              		.cfi_def_cfa_register 7
 819:Drivers/STM32L0xx_HAL_Driver/Src/stm32l0xx_hal_rcc_ex.c ****   /* Enable the Buffer for the ADC by setting SYSCFG_CFGR3_ENREF_HSI48 bit in SYSCFG_CFGR3 register
 820:Drivers/STM32L0xx_HAL_Driver/Src/stm32l0xx_hal_rcc_ex.c ****   SET_BIT (SYSCFG->CFGR3, SYSCFG_CFGR3_ENREF_HSI48);
 1724              		.loc 1 820 3
 1725 0004 044B     		ldr	r3, .L111
 1726 0006 1A6A     		ldr	r2, [r3, #32]
 1727 0008 034B     		ldr	r3, .L111
 1728 000a 8021     		movs	r1, #128
 1729 000c 8901     		lsls	r1, r1, #6
 1730 000e 0A43     		orrs	r2, r1
 1731 0010 1A62     		str	r2, [r3, #32]
 821:Drivers/STM32L0xx_HAL_Driver/Src/stm32l0xx_hal_rcc_ex.c **** }
 1732              		.loc 1 821 1
 1733 0012 C046     		nop
 1734 0014 BD46     		mov	sp, r7
 1735              		@ sp needed
 1736 0016 80BD     		pop	{r7, pc}
 1737              	.L112:
 1738              		.align	2
 1739              	.L111:
 1740 0018 00000140 		.word	1073807360
 1741              		.cfi_endproc
 1742              	.LFE55:
 1744              		.section	.text.HAL_RCCEx_DisableHSI48_VREFINT,"ax",%progbits
 1745              		.align	1
 1746              		.global	HAL_RCCEx_DisableHSI48_VREFINT
 1747              		.syntax unified
 1748              		.code	16
 1749              		.thumb_func
 1751              	HAL_RCCEx_DisableHSI48_VREFINT:
 1752              	.LFB56:
 822:Drivers/STM32L0xx_HAL_Driver/Src/stm32l0xx_hal_rcc_ex.c **** 
 823:Drivers/STM32L0xx_HAL_Driver/Src/stm32l0xx_hal_rcc_ex.c **** /**
 824:Drivers/STM32L0xx_HAL_Driver/Src/stm32l0xx_hal_rcc_ex.c ****   * @brief Disables the Vrefint for the HSI48.
 825:Drivers/STM32L0xx_HAL_Driver/Src/stm32l0xx_hal_rcc_ex.c ****   * @note  This is functional only if the LOCK is not set
 826:Drivers/STM32L0xx_HAL_Driver/Src/stm32l0xx_hal_rcc_ex.c ****   * @retval None
 827:Drivers/STM32L0xx_HAL_Driver/Src/stm32l0xx_hal_rcc_ex.c ****   */
 828:Drivers/STM32L0xx_HAL_Driver/Src/stm32l0xx_hal_rcc_ex.c **** void HAL_RCCEx_DisableHSI48_VREFINT(void)
 829:Drivers/STM32L0xx_HAL_Driver/Src/stm32l0xx_hal_rcc_ex.c **** {
 1753              		.loc 1 829 1
 1754              		.cfi_startproc
 1755              		@ args = 0, pretend = 0, frame = 0
 1756              		@ frame_needed = 1, uses_anonymous_args = 0
 1757 0000 80B5     		push	{r7, lr}
 1758              	.LCFI21:
ARM GAS  C:\Users\lidka\AppData\Local\Temp\ccURlygc.s 			page 49


 1759              		.cfi_def_cfa_offset 8
 1760              		.cfi_offset 7, -8
 1761              		.cfi_offset 14, -4
 1762 0002 00AF     		add	r7, sp, #0
 1763              	.LCFI22:
 1764              		.cfi_def_cfa_register 7
 830:Drivers/STM32L0xx_HAL_Driver/Src/stm32l0xx_hal_rcc_ex.c ****   /* Disable the Vrefint by resetting SYSCFG_CFGR3_ENREF_HSI48 bit in SYSCFG_CFGR3 register */
 831:Drivers/STM32L0xx_HAL_Driver/Src/stm32l0xx_hal_rcc_ex.c ****   CLEAR_BIT(SYSCFG->CFGR3, SYSCFG_CFGR3_ENREF_HSI48);
 1765              		.loc 1 831 3
 1766 0004 044B     		ldr	r3, .L114
 1767 0006 1A6A     		ldr	r2, [r3, #32]
 1768 0008 034B     		ldr	r3, .L114
 1769 000a 0449     		ldr	r1, .L114+4
 1770 000c 0A40     		ands	r2, r1
 1771 000e 1A62     		str	r2, [r3, #32]
 832:Drivers/STM32L0xx_HAL_Driver/Src/stm32l0xx_hal_rcc_ex.c **** }
 1772              		.loc 1 832 1
 1773 0010 C046     		nop
 1774 0012 BD46     		mov	sp, r7
 1775              		@ sp needed
 1776 0014 80BD     		pop	{r7, pc}
 1777              	.L115:
 1778 0016 C046     		.align	2
 1779              	.L114:
 1780 0018 00000140 		.word	1073807360
 1781 001c FFDFFFFF 		.word	-8193
 1782              		.cfi_endproc
 1783              	.LFE56:
 1785              		.section	.text.HAL_RCCEx_CRSConfig,"ax",%progbits
 1786              		.align	1
 1787              		.global	HAL_RCCEx_CRSConfig
 1788              		.syntax unified
 1789              		.code	16
 1790              		.thumb_func
 1792              	HAL_RCCEx_CRSConfig:
 1793              	.LFB57:
 833:Drivers/STM32L0xx_HAL_Driver/Src/stm32l0xx_hal_rcc_ex.c **** 
 834:Drivers/STM32L0xx_HAL_Driver/Src/stm32l0xx_hal_rcc_ex.c **** #endif /* SYSCFG_CFGR3_ENREF_HSI48 */
 835:Drivers/STM32L0xx_HAL_Driver/Src/stm32l0xx_hal_rcc_ex.c **** 
 836:Drivers/STM32L0xx_HAL_Driver/Src/stm32l0xx_hal_rcc_ex.c **** /**
 837:Drivers/STM32L0xx_HAL_Driver/Src/stm32l0xx_hal_rcc_ex.c ****   * @}
 838:Drivers/STM32L0xx_HAL_Driver/Src/stm32l0xx_hal_rcc_ex.c ****   */
 839:Drivers/STM32L0xx_HAL_Driver/Src/stm32l0xx_hal_rcc_ex.c **** 
 840:Drivers/STM32L0xx_HAL_Driver/Src/stm32l0xx_hal_rcc_ex.c **** #if defined (CRS)
 841:Drivers/STM32L0xx_HAL_Driver/Src/stm32l0xx_hal_rcc_ex.c **** 
 842:Drivers/STM32L0xx_HAL_Driver/Src/stm32l0xx_hal_rcc_ex.c **** /** @defgroup RCCEx_Exported_Functions_Group3 Extended Clock Recovery System Control functions
 843:Drivers/STM32L0xx_HAL_Driver/Src/stm32l0xx_hal_rcc_ex.c ****  *  @brief  Extended Clock Recovery System Control functions
 844:Drivers/STM32L0xx_HAL_Driver/Src/stm32l0xx_hal_rcc_ex.c ****  *
 845:Drivers/STM32L0xx_HAL_Driver/Src/stm32l0xx_hal_rcc_ex.c **** @verbatim
 846:Drivers/STM32L0xx_HAL_Driver/Src/stm32l0xx_hal_rcc_ex.c ****  ===============================================================================
 847:Drivers/STM32L0xx_HAL_Driver/Src/stm32l0xx_hal_rcc_ex.c ****                 ##### Extended Clock Recovery System Control functions  #####
 848:Drivers/STM32L0xx_HAL_Driver/Src/stm32l0xx_hal_rcc_ex.c ****  ===============================================================================
 849:Drivers/STM32L0xx_HAL_Driver/Src/stm32l0xx_hal_rcc_ex.c ****     [..]
 850:Drivers/STM32L0xx_HAL_Driver/Src/stm32l0xx_hal_rcc_ex.c ****       For devices with Clock Recovery System feature (CRS), RCC Extention HAL driver can be used as
 851:Drivers/STM32L0xx_HAL_Driver/Src/stm32l0xx_hal_rcc_ex.c **** 
 852:Drivers/STM32L0xx_HAL_Driver/Src/stm32l0xx_hal_rcc_ex.c ****       (#) In System clock config, HSI48 needs to be enabled
 853:Drivers/STM32L0xx_HAL_Driver/Src/stm32l0xx_hal_rcc_ex.c **** 
ARM GAS  C:\Users\lidka\AppData\Local\Temp\ccURlygc.s 			page 50


 854:Drivers/STM32L0xx_HAL_Driver/Src/stm32l0xx_hal_rcc_ex.c ****       (#) Enable CRS clock in IP MSP init which will use CRS functions
 855:Drivers/STM32L0xx_HAL_Driver/Src/stm32l0xx_hal_rcc_ex.c **** 
 856:Drivers/STM32L0xx_HAL_Driver/Src/stm32l0xx_hal_rcc_ex.c ****       (#) Call CRS functions as follows:
 857:Drivers/STM32L0xx_HAL_Driver/Src/stm32l0xx_hal_rcc_ex.c ****           (##) Prepare synchronization configuration necessary for HSI48 calibration
 858:Drivers/STM32L0xx_HAL_Driver/Src/stm32l0xx_hal_rcc_ex.c ****               (+++) Default values can be set for frequency Error Measurement (reload and error lim
 859:Drivers/STM32L0xx_HAL_Driver/Src/stm32l0xx_hal_rcc_ex.c ****                         and also HSI48 oscillator smooth trimming.
 860:Drivers/STM32L0xx_HAL_Driver/Src/stm32l0xx_hal_rcc_ex.c ****               (+++) Macro __HAL_RCC_CRS_RELOADVALUE_CALCULATE can be also used to calculate
 861:Drivers/STM32L0xx_HAL_Driver/Src/stm32l0xx_hal_rcc_ex.c ****                         directly reload value with target and synchronization frequencies values
 862:Drivers/STM32L0xx_HAL_Driver/Src/stm32l0xx_hal_rcc_ex.c ****           (##) Call function HAL_RCCEx_CRSConfig which
 863:Drivers/STM32L0xx_HAL_Driver/Src/stm32l0xx_hal_rcc_ex.c ****               (+++) Reset CRS registers to their default values.
 864:Drivers/STM32L0xx_HAL_Driver/Src/stm32l0xx_hal_rcc_ex.c ****               (+++) Configure CRS registers with synchronization configuration
 865:Drivers/STM32L0xx_HAL_Driver/Src/stm32l0xx_hal_rcc_ex.c ****               (+++) Enable automatic calibration and frequency error counter feature
 866:Drivers/STM32L0xx_HAL_Driver/Src/stm32l0xx_hal_rcc_ex.c ****            Note: When using USB LPM (Link Power Management) and the device is in Sleep mode, the
 867:Drivers/STM32L0xx_HAL_Driver/Src/stm32l0xx_hal_rcc_ex.c ****            periodic USB SOF will not be generated by the host. No SYNC signal will therefore be
 868:Drivers/STM32L0xx_HAL_Driver/Src/stm32l0xx_hal_rcc_ex.c ****            provided to the CRS to calibrate the HSI48 on the run. To guarantee the required clock
 869:Drivers/STM32L0xx_HAL_Driver/Src/stm32l0xx_hal_rcc_ex.c ****            precision after waking up from Sleep mode, the LSE or reference clock on the GPIOs
 870:Drivers/STM32L0xx_HAL_Driver/Src/stm32l0xx_hal_rcc_ex.c ****            should be used as SYNC signal.
 871:Drivers/STM32L0xx_HAL_Driver/Src/stm32l0xx_hal_rcc_ex.c **** 
 872:Drivers/STM32L0xx_HAL_Driver/Src/stm32l0xx_hal_rcc_ex.c ****           (##) A polling function is provided to wait for complete synchronization
 873:Drivers/STM32L0xx_HAL_Driver/Src/stm32l0xx_hal_rcc_ex.c ****               (+++) Call function HAL_RCCEx_CRSWaitSynchronization()
 874:Drivers/STM32L0xx_HAL_Driver/Src/stm32l0xx_hal_rcc_ex.c ****               (+++) According to CRS status, user can decide to adjust again the calibration or con
 875:Drivers/STM32L0xx_HAL_Driver/Src/stm32l0xx_hal_rcc_ex.c ****                         application if synchronization is OK
 876:Drivers/STM32L0xx_HAL_Driver/Src/stm32l0xx_hal_rcc_ex.c **** 
 877:Drivers/STM32L0xx_HAL_Driver/Src/stm32l0xx_hal_rcc_ex.c ****       (#) User can retrieve information related to synchronization in calling function
 878:Drivers/STM32L0xx_HAL_Driver/Src/stm32l0xx_hal_rcc_ex.c ****             HAL_RCCEx_CRSGetSynchronizationInfo()
 879:Drivers/STM32L0xx_HAL_Driver/Src/stm32l0xx_hal_rcc_ex.c **** 
 880:Drivers/STM32L0xx_HAL_Driver/Src/stm32l0xx_hal_rcc_ex.c ****       (#) Regarding synchronization status and synchronization information, user can try a new cali
 881:Drivers/STM32L0xx_HAL_Driver/Src/stm32l0xx_hal_rcc_ex.c ****            in changing synchronization configuration and call again HAL_RCCEx_CRSConfig.
 882:Drivers/STM32L0xx_HAL_Driver/Src/stm32l0xx_hal_rcc_ex.c ****            Note: When the SYNC event is detected during the downcounting phase (before reaching the
 883:Drivers/STM32L0xx_HAL_Driver/Src/stm32l0xx_hal_rcc_ex.c ****            it means that the actual frequency is lower than the target (and so, that the TRIM value
 884:Drivers/STM32L0xx_HAL_Driver/Src/stm32l0xx_hal_rcc_ex.c ****            incremented), while when it is detected during the upcounting phase it means that the ac
 885:Drivers/STM32L0xx_HAL_Driver/Src/stm32l0xx_hal_rcc_ex.c ****            is higher (and that the TRIM value should be decremented).
 886:Drivers/STM32L0xx_HAL_Driver/Src/stm32l0xx_hal_rcc_ex.c **** 
 887:Drivers/STM32L0xx_HAL_Driver/Src/stm32l0xx_hal_rcc_ex.c ****       (#) In interrupt mode, user can resort to the available macros (__HAL_RCC_CRS_XXX_IT). Interr
 888:Drivers/STM32L0xx_HAL_Driver/Src/stm32l0xx_hal_rcc_ex.c ****           through CRS Handler (RCC_IRQn/RCC_IRQHandler)
 889:Drivers/STM32L0xx_HAL_Driver/Src/stm32l0xx_hal_rcc_ex.c ****               (++) Call function HAL_RCCEx_CRSConfig()
 890:Drivers/STM32L0xx_HAL_Driver/Src/stm32l0xx_hal_rcc_ex.c ****               (++) Enable RCC_IRQn (thanks to NVIC functions)
 891:Drivers/STM32L0xx_HAL_Driver/Src/stm32l0xx_hal_rcc_ex.c ****               (++) Enable CRS interrupt (__HAL_RCC_CRS_ENABLE_IT)
 892:Drivers/STM32L0xx_HAL_Driver/Src/stm32l0xx_hal_rcc_ex.c ****               (++) Implement CRS status management in the following user callbacks called from
 893:Drivers/STM32L0xx_HAL_Driver/Src/stm32l0xx_hal_rcc_ex.c ****                    HAL_RCCEx_CRS_IRQHandler():
 894:Drivers/STM32L0xx_HAL_Driver/Src/stm32l0xx_hal_rcc_ex.c ****                    (+++) HAL_RCCEx_CRS_SyncOkCallback()
 895:Drivers/STM32L0xx_HAL_Driver/Src/stm32l0xx_hal_rcc_ex.c ****                    (+++) HAL_RCCEx_CRS_SyncWarnCallback()
 896:Drivers/STM32L0xx_HAL_Driver/Src/stm32l0xx_hal_rcc_ex.c ****                    (+++) HAL_RCCEx_CRS_ExpectedSyncCallback()
 897:Drivers/STM32L0xx_HAL_Driver/Src/stm32l0xx_hal_rcc_ex.c ****                    (+++) HAL_RCCEx_CRS_ErrorCallback()
 898:Drivers/STM32L0xx_HAL_Driver/Src/stm32l0xx_hal_rcc_ex.c **** 
 899:Drivers/STM32L0xx_HAL_Driver/Src/stm32l0xx_hal_rcc_ex.c ****       (#) To force a SYNC EVENT, user can use the function HAL_RCCEx_CRSSoftwareSynchronizationGene
 900:Drivers/STM32L0xx_HAL_Driver/Src/stm32l0xx_hal_rcc_ex.c ****           This function can be called before calling HAL_RCCEx_CRSConfig (for instance in Systick h
 901:Drivers/STM32L0xx_HAL_Driver/Src/stm32l0xx_hal_rcc_ex.c **** 
 902:Drivers/STM32L0xx_HAL_Driver/Src/stm32l0xx_hal_rcc_ex.c **** @endverbatim
 903:Drivers/STM32L0xx_HAL_Driver/Src/stm32l0xx_hal_rcc_ex.c ****  * @{
 904:Drivers/STM32L0xx_HAL_Driver/Src/stm32l0xx_hal_rcc_ex.c ****  */
 905:Drivers/STM32L0xx_HAL_Driver/Src/stm32l0xx_hal_rcc_ex.c **** 
 906:Drivers/STM32L0xx_HAL_Driver/Src/stm32l0xx_hal_rcc_ex.c **** /**
 907:Drivers/STM32L0xx_HAL_Driver/Src/stm32l0xx_hal_rcc_ex.c ****   * @brief  Start automatic synchronization for polling mode
 908:Drivers/STM32L0xx_HAL_Driver/Src/stm32l0xx_hal_rcc_ex.c ****   * @param  pInit Pointer on RCC_CRSInitTypeDef structure
 909:Drivers/STM32L0xx_HAL_Driver/Src/stm32l0xx_hal_rcc_ex.c ****   * @retval None
 910:Drivers/STM32L0xx_HAL_Driver/Src/stm32l0xx_hal_rcc_ex.c ****   */
ARM GAS  C:\Users\lidka\AppData\Local\Temp\ccURlygc.s 			page 51


 911:Drivers/STM32L0xx_HAL_Driver/Src/stm32l0xx_hal_rcc_ex.c **** void HAL_RCCEx_CRSConfig(RCC_CRSInitTypeDef *pInit)
 912:Drivers/STM32L0xx_HAL_Driver/Src/stm32l0xx_hal_rcc_ex.c **** {
 1794              		.loc 1 912 1
 1795              		.cfi_startproc
 1796              		@ args = 0, pretend = 0, frame = 16
 1797              		@ frame_needed = 1, uses_anonymous_args = 0
 1798 0000 80B5     		push	{r7, lr}
 1799              	.LCFI23:
 1800              		.cfi_def_cfa_offset 8
 1801              		.cfi_offset 7, -8
 1802              		.cfi_offset 14, -4
 1803 0002 84B0     		sub	sp, sp, #16
 1804              	.LCFI24:
 1805              		.cfi_def_cfa_offset 24
 1806 0004 00AF     		add	r7, sp, #0
 1807              	.LCFI25:
 1808              		.cfi_def_cfa_register 7
 1809 0006 7860     		str	r0, [r7, #4]
 913:Drivers/STM32L0xx_HAL_Driver/Src/stm32l0xx_hal_rcc_ex.c ****   uint32_t value;
 914:Drivers/STM32L0xx_HAL_Driver/Src/stm32l0xx_hal_rcc_ex.c **** 
 915:Drivers/STM32L0xx_HAL_Driver/Src/stm32l0xx_hal_rcc_ex.c ****   /* Check the parameters */
 916:Drivers/STM32L0xx_HAL_Driver/Src/stm32l0xx_hal_rcc_ex.c ****   assert_param(IS_RCC_CRS_SYNC_DIV(pInit->Prescaler));
 917:Drivers/STM32L0xx_HAL_Driver/Src/stm32l0xx_hal_rcc_ex.c ****   assert_param(IS_RCC_CRS_SYNC_SOURCE(pInit->Source));
 918:Drivers/STM32L0xx_HAL_Driver/Src/stm32l0xx_hal_rcc_ex.c ****   assert_param(IS_RCC_CRS_SYNC_POLARITY(pInit->Polarity));
 919:Drivers/STM32L0xx_HAL_Driver/Src/stm32l0xx_hal_rcc_ex.c ****   assert_param(IS_RCC_CRS_RELOADVALUE(pInit->ReloadValue));
 920:Drivers/STM32L0xx_HAL_Driver/Src/stm32l0xx_hal_rcc_ex.c ****   assert_param(IS_RCC_CRS_ERRORLIMIT(pInit->ErrorLimitValue));
 921:Drivers/STM32L0xx_HAL_Driver/Src/stm32l0xx_hal_rcc_ex.c ****   assert_param(IS_RCC_CRS_HSI48CALIBRATION(pInit->HSI48CalibrationValue));
 922:Drivers/STM32L0xx_HAL_Driver/Src/stm32l0xx_hal_rcc_ex.c **** 
 923:Drivers/STM32L0xx_HAL_Driver/Src/stm32l0xx_hal_rcc_ex.c ****   /* CONFIGURATION */
 924:Drivers/STM32L0xx_HAL_Driver/Src/stm32l0xx_hal_rcc_ex.c **** 
 925:Drivers/STM32L0xx_HAL_Driver/Src/stm32l0xx_hal_rcc_ex.c ****   /* Before configuration, reset CRS registers to their default values*/
 926:Drivers/STM32L0xx_HAL_Driver/Src/stm32l0xx_hal_rcc_ex.c ****   __HAL_RCC_CRS_FORCE_RESET();
 1810              		.loc 1 926 3
 1811 0008 1C4B     		ldr	r3, .L117
 1812 000a 9A6A     		ldr	r2, [r3, #40]
 1813 000c 1B4B     		ldr	r3, .L117
 1814 000e 8021     		movs	r1, #128
 1815 0010 0905     		lsls	r1, r1, #20
 1816 0012 0A43     		orrs	r2, r1
 1817 0014 9A62     		str	r2, [r3, #40]
 927:Drivers/STM32L0xx_HAL_Driver/Src/stm32l0xx_hal_rcc_ex.c ****   __HAL_RCC_CRS_RELEASE_RESET();
 1818              		.loc 1 927 3
 1819 0016 194B     		ldr	r3, .L117
 1820 0018 9A6A     		ldr	r2, [r3, #40]
 1821 001a 184B     		ldr	r3, .L117
 1822 001c 1849     		ldr	r1, .L117+4
 1823 001e 0A40     		ands	r2, r1
 1824 0020 9A62     		str	r2, [r3, #40]
 928:Drivers/STM32L0xx_HAL_Driver/Src/stm32l0xx_hal_rcc_ex.c **** 
 929:Drivers/STM32L0xx_HAL_Driver/Src/stm32l0xx_hal_rcc_ex.c ****   /* Set the SYNCDIV[2:0] bits according to Prescaler value */
 930:Drivers/STM32L0xx_HAL_Driver/Src/stm32l0xx_hal_rcc_ex.c ****   /* Set the SYNCSRC[1:0] bits according to Source value */
 931:Drivers/STM32L0xx_HAL_Driver/Src/stm32l0xx_hal_rcc_ex.c ****   /* Set the SYNCSPOL bit according to Polarity value */
 932:Drivers/STM32L0xx_HAL_Driver/Src/stm32l0xx_hal_rcc_ex.c ****   value = (pInit->Prescaler | pInit->Source | pInit->Polarity);
 1825              		.loc 1 932 17
 1826 0022 7B68     		ldr	r3, [r7, #4]
 1827 0024 1A68     		ldr	r2, [r3]
 1828              		.loc 1 932 36
ARM GAS  C:\Users\lidka\AppData\Local\Temp\ccURlygc.s 			page 52


 1829 0026 7B68     		ldr	r3, [r7, #4]
 1830 0028 5B68     		ldr	r3, [r3, #4]
 1831              		.loc 1 932 29
 1832 002a 1A43     		orrs	r2, r3
 1833              		.loc 1 932 52
 1834 002c 7B68     		ldr	r3, [r7, #4]
 1835 002e 9B68     		ldr	r3, [r3, #8]
 1836              		.loc 1 932 9
 1837 0030 1343     		orrs	r3, r2
 1838 0032 FB60     		str	r3, [r7, #12]
 933:Drivers/STM32L0xx_HAL_Driver/Src/stm32l0xx_hal_rcc_ex.c ****   /* Set the RELOAD[15:0] bits according to ReloadValue value */
 934:Drivers/STM32L0xx_HAL_Driver/Src/stm32l0xx_hal_rcc_ex.c ****   value |= pInit->ReloadValue;
 1839              		.loc 1 934 17
 1840 0034 7B68     		ldr	r3, [r7, #4]
 1841 0036 DB68     		ldr	r3, [r3, #12]
 1842              		.loc 1 934 9
 1843 0038 FA68     		ldr	r2, [r7, #12]
 1844 003a 1343     		orrs	r3, r2
 1845 003c FB60     		str	r3, [r7, #12]
 935:Drivers/STM32L0xx_HAL_Driver/Src/stm32l0xx_hal_rcc_ex.c ****   /* Set the FELIM[7:0] bits according to ErrorLimitValue value */
 936:Drivers/STM32L0xx_HAL_Driver/Src/stm32l0xx_hal_rcc_ex.c ****   value |= (pInit->ErrorLimitValue << CRS_CFGR_FELIM_Pos);
 1846              		.loc 1 936 18
 1847 003e 7B68     		ldr	r3, [r7, #4]
 1848 0040 1B69     		ldr	r3, [r3, #16]
 1849              		.loc 1 936 36
 1850 0042 1B04     		lsls	r3, r3, #16
 1851              		.loc 1 936 9
 1852 0044 FA68     		ldr	r2, [r7, #12]
 1853 0046 1343     		orrs	r3, r2
 1854 0048 FB60     		str	r3, [r7, #12]
 937:Drivers/STM32L0xx_HAL_Driver/Src/stm32l0xx_hal_rcc_ex.c ****   WRITE_REG(CRS->CFGR, value);
 1855              		.loc 1 937 3
 1856 004a 0E4B     		ldr	r3, .L117+8
 1857 004c FA68     		ldr	r2, [r7, #12]
 1858 004e 5A60     		str	r2, [r3, #4]
 938:Drivers/STM32L0xx_HAL_Driver/Src/stm32l0xx_hal_rcc_ex.c **** 
 939:Drivers/STM32L0xx_HAL_Driver/Src/stm32l0xx_hal_rcc_ex.c ****   /* Adjust HSI48 oscillator smooth trimming */
 940:Drivers/STM32L0xx_HAL_Driver/Src/stm32l0xx_hal_rcc_ex.c ****   /* Set the TRIM[5:0] bits according to RCC_CRS_HSI48CalibrationValue value */
 941:Drivers/STM32L0xx_HAL_Driver/Src/stm32l0xx_hal_rcc_ex.c ****   MODIFY_REG(CRS->CR, CRS_CR_TRIM, (pInit->HSI48CalibrationValue << CRS_CR_TRIM_Pos));
 1859              		.loc 1 941 3
 1860 0050 0C4B     		ldr	r3, .L117+8
 1861 0052 1B68     		ldr	r3, [r3]
 1862 0054 0C4A     		ldr	r2, .L117+12
 1863 0056 1340     		ands	r3, r2
 1864 0058 1900     		movs	r1, r3
 1865 005a 7B68     		ldr	r3, [r7, #4]
 1866 005c 5B69     		ldr	r3, [r3, #20]
 1867 005e 1A02     		lsls	r2, r3, #8
 1868 0060 084B     		ldr	r3, .L117+8
 1869 0062 0A43     		orrs	r2, r1
 1870 0064 1A60     		str	r2, [r3]
 942:Drivers/STM32L0xx_HAL_Driver/Src/stm32l0xx_hal_rcc_ex.c **** 
 943:Drivers/STM32L0xx_HAL_Driver/Src/stm32l0xx_hal_rcc_ex.c ****   /* START AUTOMATIC SYNCHRONIZATION*/
 944:Drivers/STM32L0xx_HAL_Driver/Src/stm32l0xx_hal_rcc_ex.c **** 
 945:Drivers/STM32L0xx_HAL_Driver/Src/stm32l0xx_hal_rcc_ex.c ****   /* Enable Automatic trimming & Frequency error counter */
 946:Drivers/STM32L0xx_HAL_Driver/Src/stm32l0xx_hal_rcc_ex.c ****   SET_BIT(CRS->CR, CRS_CR_AUTOTRIMEN | CRS_CR_CEN);
 1871              		.loc 1 946 3
ARM GAS  C:\Users\lidka\AppData\Local\Temp\ccURlygc.s 			page 53


 1872 0066 074B     		ldr	r3, .L117+8
 1873 0068 1A68     		ldr	r2, [r3]
 1874 006a 064B     		ldr	r3, .L117+8
 1875 006c 6021     		movs	r1, #96
 1876 006e 0A43     		orrs	r2, r1
 1877 0070 1A60     		str	r2, [r3]
 947:Drivers/STM32L0xx_HAL_Driver/Src/stm32l0xx_hal_rcc_ex.c **** }
 1878              		.loc 1 947 1
 1879 0072 C046     		nop
 1880 0074 BD46     		mov	sp, r7
 1881 0076 04B0     		add	sp, sp, #16
 1882              		@ sp needed
 1883 0078 80BD     		pop	{r7, pc}
 1884              	.L118:
 1885 007a C046     		.align	2
 1886              	.L117:
 1887 007c 00100240 		.word	1073876992
 1888 0080 FFFFFFF7 		.word	-134217729
 1889 0084 006C0040 		.word	1073769472
 1890 0088 FFC0FFFF 		.word	-16129
 1891              		.cfi_endproc
 1892              	.LFE57:
 1894              		.section	.text.HAL_RCCEx_CRSSoftwareSynchronizationGenerate,"ax",%progbits
 1895              		.align	1
 1896              		.global	HAL_RCCEx_CRSSoftwareSynchronizationGenerate
 1897              		.syntax unified
 1898              		.code	16
 1899              		.thumb_func
 1901              	HAL_RCCEx_CRSSoftwareSynchronizationGenerate:
 1902              	.LFB58:
 948:Drivers/STM32L0xx_HAL_Driver/Src/stm32l0xx_hal_rcc_ex.c **** 
 949:Drivers/STM32L0xx_HAL_Driver/Src/stm32l0xx_hal_rcc_ex.c **** /**
 950:Drivers/STM32L0xx_HAL_Driver/Src/stm32l0xx_hal_rcc_ex.c ****   * @brief  Generate the software synchronization event
 951:Drivers/STM32L0xx_HAL_Driver/Src/stm32l0xx_hal_rcc_ex.c ****   * @retval None
 952:Drivers/STM32L0xx_HAL_Driver/Src/stm32l0xx_hal_rcc_ex.c ****   */
 953:Drivers/STM32L0xx_HAL_Driver/Src/stm32l0xx_hal_rcc_ex.c **** void HAL_RCCEx_CRSSoftwareSynchronizationGenerate(void)
 954:Drivers/STM32L0xx_HAL_Driver/Src/stm32l0xx_hal_rcc_ex.c **** {
 1903              		.loc 1 954 1
 1904              		.cfi_startproc
 1905              		@ args = 0, pretend = 0, frame = 0
 1906              		@ frame_needed = 1, uses_anonymous_args = 0
 1907 0000 80B5     		push	{r7, lr}
 1908              	.LCFI26:
 1909              		.cfi_def_cfa_offset 8
 1910              		.cfi_offset 7, -8
 1911              		.cfi_offset 14, -4
 1912 0002 00AF     		add	r7, sp, #0
 1913              	.LCFI27:
 1914              		.cfi_def_cfa_register 7
 955:Drivers/STM32L0xx_HAL_Driver/Src/stm32l0xx_hal_rcc_ex.c ****   SET_BIT(CRS->CR, CRS_CR_SWSYNC);
 1915              		.loc 1 955 3
 1916 0004 044B     		ldr	r3, .L120
 1917 0006 1A68     		ldr	r2, [r3]
 1918 0008 034B     		ldr	r3, .L120
 1919 000a 8021     		movs	r1, #128
 1920 000c 0A43     		orrs	r2, r1
 1921 000e 1A60     		str	r2, [r3]
ARM GAS  C:\Users\lidka\AppData\Local\Temp\ccURlygc.s 			page 54


 956:Drivers/STM32L0xx_HAL_Driver/Src/stm32l0xx_hal_rcc_ex.c **** }
 1922              		.loc 1 956 1
 1923 0010 C046     		nop
 1924 0012 BD46     		mov	sp, r7
 1925              		@ sp needed
 1926 0014 80BD     		pop	{r7, pc}
 1927              	.L121:
 1928 0016 C046     		.align	2
 1929              	.L120:
 1930 0018 006C0040 		.word	1073769472
 1931              		.cfi_endproc
 1932              	.LFE58:
 1934              		.section	.text.HAL_RCCEx_CRSGetSynchronizationInfo,"ax",%progbits
 1935              		.align	1
 1936              		.global	HAL_RCCEx_CRSGetSynchronizationInfo
 1937              		.syntax unified
 1938              		.code	16
 1939              		.thumb_func
 1941              	HAL_RCCEx_CRSGetSynchronizationInfo:
 1942              	.LFB59:
 957:Drivers/STM32L0xx_HAL_Driver/Src/stm32l0xx_hal_rcc_ex.c **** 
 958:Drivers/STM32L0xx_HAL_Driver/Src/stm32l0xx_hal_rcc_ex.c **** /**
 959:Drivers/STM32L0xx_HAL_Driver/Src/stm32l0xx_hal_rcc_ex.c ****   * @brief  Return synchronization info
 960:Drivers/STM32L0xx_HAL_Driver/Src/stm32l0xx_hal_rcc_ex.c ****   * @param  pSynchroInfo Pointer on RCC_CRSSynchroInfoTypeDef structure
 961:Drivers/STM32L0xx_HAL_Driver/Src/stm32l0xx_hal_rcc_ex.c ****   * @retval None
 962:Drivers/STM32L0xx_HAL_Driver/Src/stm32l0xx_hal_rcc_ex.c ****   */
 963:Drivers/STM32L0xx_HAL_Driver/Src/stm32l0xx_hal_rcc_ex.c **** void HAL_RCCEx_CRSGetSynchronizationInfo(RCC_CRSSynchroInfoTypeDef *pSynchroInfo)
 964:Drivers/STM32L0xx_HAL_Driver/Src/stm32l0xx_hal_rcc_ex.c **** {
 1943              		.loc 1 964 1
 1944              		.cfi_startproc
 1945              		@ args = 0, pretend = 0, frame = 8
 1946              		@ frame_needed = 1, uses_anonymous_args = 0
 1947 0000 80B5     		push	{r7, lr}
 1948              	.LCFI28:
 1949              		.cfi_def_cfa_offset 8
 1950              		.cfi_offset 7, -8
 1951              		.cfi_offset 14, -4
 1952 0002 82B0     		sub	sp, sp, #8
 1953              	.LCFI29:
 1954              		.cfi_def_cfa_offset 16
 1955 0004 00AF     		add	r7, sp, #0
 1956              	.LCFI30:
 1957              		.cfi_def_cfa_register 7
 1958 0006 7860     		str	r0, [r7, #4]
 965:Drivers/STM32L0xx_HAL_Driver/Src/stm32l0xx_hal_rcc_ex.c ****   /* Check the parameter */
 966:Drivers/STM32L0xx_HAL_Driver/Src/stm32l0xx_hal_rcc_ex.c ****   assert_param(pSynchroInfo != (void *)NULL);
 967:Drivers/STM32L0xx_HAL_Driver/Src/stm32l0xx_hal_rcc_ex.c **** 
 968:Drivers/STM32L0xx_HAL_Driver/Src/stm32l0xx_hal_rcc_ex.c ****   /* Get the reload value */
 969:Drivers/STM32L0xx_HAL_Driver/Src/stm32l0xx_hal_rcc_ex.c ****   pSynchroInfo->ReloadValue = (uint32_t)(READ_BIT(CRS->CFGR, CRS_CFGR_RELOAD));
 1959              		.loc 1 969 42
 1960 0008 0F4B     		ldr	r3, .L123
 1961 000a 5B68     		ldr	r3, [r3, #4]
 1962              		.loc 1 969 31
 1963 000c 1B04     		lsls	r3, r3, #16
 1964 000e 1A0C     		lsrs	r2, r3, #16
 1965              		.loc 1 969 29
 1966 0010 7B68     		ldr	r3, [r7, #4]
ARM GAS  C:\Users\lidka\AppData\Local\Temp\ccURlygc.s 			page 55


 1967 0012 1A60     		str	r2, [r3]
 970:Drivers/STM32L0xx_HAL_Driver/Src/stm32l0xx_hal_rcc_ex.c **** 
 971:Drivers/STM32L0xx_HAL_Driver/Src/stm32l0xx_hal_rcc_ex.c ****   /* Get HSI48 oscillator smooth trimming */
 972:Drivers/STM32L0xx_HAL_Driver/Src/stm32l0xx_hal_rcc_ex.c ****   pSynchroInfo->HSI48CalibrationValue = (uint32_t)(READ_BIT(CRS->CR, CRS_CR_TRIM) >> CRS_CR_TRIM_Po
 1968              		.loc 1 972 52
 1969 0014 0C4B     		ldr	r3, .L123
 1970 0016 1B68     		ldr	r3, [r3]
 1971              		.loc 1 972 41
 1972 0018 1B0A     		lsrs	r3, r3, #8
 1973 001a 3F22     		movs	r2, #63
 1974 001c 1A40     		ands	r2, r3
 1975              		.loc 1 972 39
 1976 001e 7B68     		ldr	r3, [r7, #4]
 1977 0020 5A60     		str	r2, [r3, #4]
 973:Drivers/STM32L0xx_HAL_Driver/Src/stm32l0xx_hal_rcc_ex.c **** 
 974:Drivers/STM32L0xx_HAL_Driver/Src/stm32l0xx_hal_rcc_ex.c ****   /* Get Frequency error capture */
 975:Drivers/STM32L0xx_HAL_Driver/Src/stm32l0xx_hal_rcc_ex.c ****   pSynchroInfo->FreqErrorCapture = (uint32_t)(READ_BIT(CRS->ISR, CRS_ISR_FECAP) >> CRS_ISR_FECAP_Po
 1978              		.loc 1 975 47
 1979 0022 094B     		ldr	r3, .L123
 1980 0024 9B68     		ldr	r3, [r3, #8]
 1981              		.loc 1 975 36
 1982 0026 1B0C     		lsrs	r3, r3, #16
 1983 0028 1B04     		lsls	r3, r3, #16
 1984 002a 1A0C     		lsrs	r2, r3, #16
 1985              		.loc 1 975 34
 1986 002c 7B68     		ldr	r3, [r7, #4]
 1987 002e 9A60     		str	r2, [r3, #8]
 976:Drivers/STM32L0xx_HAL_Driver/Src/stm32l0xx_hal_rcc_ex.c **** 
 977:Drivers/STM32L0xx_HAL_Driver/Src/stm32l0xx_hal_rcc_ex.c ****   /* Get Frequency error direction */
 978:Drivers/STM32L0xx_HAL_Driver/Src/stm32l0xx_hal_rcc_ex.c ****   pSynchroInfo->FreqErrorDirection = (uint32_t)(READ_BIT(CRS->ISR, CRS_ISR_FEDIR));
 1988              		.loc 1 978 49
 1989 0030 054B     		ldr	r3, .L123
 1990 0032 9A68     		ldr	r2, [r3, #8]
 1991              		.loc 1 978 38
 1992 0034 8023     		movs	r3, #128
 1993 0036 1B02     		lsls	r3, r3, #8
 1994 0038 1A40     		ands	r2, r3
 1995              		.loc 1 978 36
 1996 003a 7B68     		ldr	r3, [r7, #4]
 1997 003c DA60     		str	r2, [r3, #12]
 979:Drivers/STM32L0xx_HAL_Driver/Src/stm32l0xx_hal_rcc_ex.c **** }
 1998              		.loc 1 979 1
 1999 003e C046     		nop
 2000 0040 BD46     		mov	sp, r7
 2001 0042 02B0     		add	sp, sp, #8
 2002              		@ sp needed
 2003 0044 80BD     		pop	{r7, pc}
 2004              	.L124:
 2005 0046 C046     		.align	2
 2006              	.L123:
 2007 0048 006C0040 		.word	1073769472
 2008              		.cfi_endproc
 2009              	.LFE59:
 2011              		.section	.text.HAL_RCCEx_CRSWaitSynchronization,"ax",%progbits
 2012              		.align	1
 2013              		.global	HAL_RCCEx_CRSWaitSynchronization
 2014              		.syntax unified
ARM GAS  C:\Users\lidka\AppData\Local\Temp\ccURlygc.s 			page 56


 2015              		.code	16
 2016              		.thumb_func
 2018              	HAL_RCCEx_CRSWaitSynchronization:
 2019              	.LFB60:
 980:Drivers/STM32L0xx_HAL_Driver/Src/stm32l0xx_hal_rcc_ex.c **** 
 981:Drivers/STM32L0xx_HAL_Driver/Src/stm32l0xx_hal_rcc_ex.c **** /**
 982:Drivers/STM32L0xx_HAL_Driver/Src/stm32l0xx_hal_rcc_ex.c **** * @brief Wait for CRS Synchronization status.
 983:Drivers/STM32L0xx_HAL_Driver/Src/stm32l0xx_hal_rcc_ex.c **** * @param Timeout  Duration of the timeout
 984:Drivers/STM32L0xx_HAL_Driver/Src/stm32l0xx_hal_rcc_ex.c **** * @note  Timeout is based on the maximum time to receive a SYNC event based on synchronization
 985:Drivers/STM32L0xx_HAL_Driver/Src/stm32l0xx_hal_rcc_ex.c **** *        frequency.
 986:Drivers/STM32L0xx_HAL_Driver/Src/stm32l0xx_hal_rcc_ex.c **** * @note    If Timeout set to HAL_MAX_DELAY, HAL_TIMEOUT will be never returned.
 987:Drivers/STM32L0xx_HAL_Driver/Src/stm32l0xx_hal_rcc_ex.c **** * @retval Combination of Synchronization status
 988:Drivers/STM32L0xx_HAL_Driver/Src/stm32l0xx_hal_rcc_ex.c **** *          This parameter can be a combination of the following values:
 989:Drivers/STM32L0xx_HAL_Driver/Src/stm32l0xx_hal_rcc_ex.c **** *            @arg @ref RCC_CRS_TIMEOUT
 990:Drivers/STM32L0xx_HAL_Driver/Src/stm32l0xx_hal_rcc_ex.c **** *            @arg @ref RCC_CRS_SYNCOK
 991:Drivers/STM32L0xx_HAL_Driver/Src/stm32l0xx_hal_rcc_ex.c **** *            @arg @ref RCC_CRS_SYNCWARN
 992:Drivers/STM32L0xx_HAL_Driver/Src/stm32l0xx_hal_rcc_ex.c **** *            @arg @ref RCC_CRS_SYNCERR
 993:Drivers/STM32L0xx_HAL_Driver/Src/stm32l0xx_hal_rcc_ex.c **** *            @arg @ref RCC_CRS_SYNCMISS
 994:Drivers/STM32L0xx_HAL_Driver/Src/stm32l0xx_hal_rcc_ex.c **** *            @arg @ref RCC_CRS_TRIMOVF
 995:Drivers/STM32L0xx_HAL_Driver/Src/stm32l0xx_hal_rcc_ex.c **** */
 996:Drivers/STM32L0xx_HAL_Driver/Src/stm32l0xx_hal_rcc_ex.c **** uint32_t HAL_RCCEx_CRSWaitSynchronization(uint32_t Timeout)
 997:Drivers/STM32L0xx_HAL_Driver/Src/stm32l0xx_hal_rcc_ex.c **** {
 2020              		.loc 1 997 1
 2021              		.cfi_startproc
 2022              		@ args = 0, pretend = 0, frame = 16
 2023              		@ frame_needed = 1, uses_anonymous_args = 0
 2024 0000 80B5     		push	{r7, lr}
 2025              	.LCFI31:
 2026              		.cfi_def_cfa_offset 8
 2027              		.cfi_offset 7, -8
 2028              		.cfi_offset 14, -4
 2029 0002 84B0     		sub	sp, sp, #16
 2030              	.LCFI32:
 2031              		.cfi_def_cfa_offset 24
 2032 0004 00AF     		add	r7, sp, #0
 2033              	.LCFI33:
 2034              		.cfi_def_cfa_register 7
 2035 0006 7860     		str	r0, [r7, #4]
 998:Drivers/STM32L0xx_HAL_Driver/Src/stm32l0xx_hal_rcc_ex.c ****   uint32_t crsstatus = RCC_CRS_NONE;
 2036              		.loc 1 998 12
 2037 0008 0023     		movs	r3, #0
 2038 000a FB60     		str	r3, [r7, #12]
 999:Drivers/STM32L0xx_HAL_Driver/Src/stm32l0xx_hal_rcc_ex.c ****   uint32_t tickstart;
1000:Drivers/STM32L0xx_HAL_Driver/Src/stm32l0xx_hal_rcc_ex.c **** 
1001:Drivers/STM32L0xx_HAL_Driver/Src/stm32l0xx_hal_rcc_ex.c ****   /* Get timeout */
1002:Drivers/STM32L0xx_HAL_Driver/Src/stm32l0xx_hal_rcc_ex.c ****   tickstart = HAL_GetTick();
 2039              		.loc 1 1002 15
 2040 000c FFF7FEFF 		bl	HAL_GetTick
 2041 0010 0300     		movs	r3, r0
 2042 0012 BB60     		str	r3, [r7, #8]
 2043              	.L134:
1003:Drivers/STM32L0xx_HAL_Driver/Src/stm32l0xx_hal_rcc_ex.c **** 
1004:Drivers/STM32L0xx_HAL_Driver/Src/stm32l0xx_hal_rcc_ex.c ****   /* Wait for CRS flag or timeout detection */
1005:Drivers/STM32L0xx_HAL_Driver/Src/stm32l0xx_hal_rcc_ex.c ****   do
1006:Drivers/STM32L0xx_HAL_Driver/Src/stm32l0xx_hal_rcc_ex.c ****   {
1007:Drivers/STM32L0xx_HAL_Driver/Src/stm32l0xx_hal_rcc_ex.c ****     if(Timeout != HAL_MAX_DELAY)
 2044              		.loc 1 1007 7
ARM GAS  C:\Users\lidka\AppData\Local\Temp\ccURlygc.s 			page 57


 2045 0014 7B68     		ldr	r3, [r7, #4]
 2046 0016 0133     		adds	r3, r3, #1
 2047 0018 0CD0     		beq	.L126
1008:Drivers/STM32L0xx_HAL_Driver/Src/stm32l0xx_hal_rcc_ex.c ****     {
1009:Drivers/STM32L0xx_HAL_Driver/Src/stm32l0xx_hal_rcc_ex.c ****       if(((HAL_GetTick() - tickstart) > Timeout) || (Timeout == 0U))
 2048              		.loc 1 1009 12
 2049 001a FFF7FEFF 		bl	HAL_GetTick
 2050 001e 0200     		movs	r2, r0
 2051              		.loc 1 1009 26
 2052 0020 BB68     		ldr	r3, [r7, #8]
 2053 0022 D31A     		subs	r3, r2, r3
 2054              		.loc 1 1009 9
 2055 0024 7A68     		ldr	r2, [r7, #4]
 2056 0026 9A42     		cmp	r2, r3
 2057 0028 02D3     		bcc	.L127
 2058              		.loc 1 1009 50 discriminator 1
 2059 002a 7B68     		ldr	r3, [r7, #4]
 2060 002c 002B     		cmp	r3, #0
 2061 002e 01D1     		bne	.L126
 2062              	.L127:
1010:Drivers/STM32L0xx_HAL_Driver/Src/stm32l0xx_hal_rcc_ex.c ****       {
1011:Drivers/STM32L0xx_HAL_Driver/Src/stm32l0xx_hal_rcc_ex.c ****         crsstatus = RCC_CRS_TIMEOUT;
 2063              		.loc 1 1011 19
 2064 0030 0123     		movs	r3, #1
 2065 0032 FB60     		str	r3, [r7, #12]
 2066              	.L126:
1012:Drivers/STM32L0xx_HAL_Driver/Src/stm32l0xx_hal_rcc_ex.c ****       }
1013:Drivers/STM32L0xx_HAL_Driver/Src/stm32l0xx_hal_rcc_ex.c ****     }
1014:Drivers/STM32L0xx_HAL_Driver/Src/stm32l0xx_hal_rcc_ex.c ****     /* Check CRS SYNCOK flag  */
1015:Drivers/STM32L0xx_HAL_Driver/Src/stm32l0xx_hal_rcc_ex.c ****     if(__HAL_RCC_CRS_GET_FLAG(RCC_CRS_FLAG_SYNCOK))
 2067              		.loc 1 1015 8
 2068 0034 2D4B     		ldr	r3, .L136
 2069 0036 9B68     		ldr	r3, [r3, #8]
 2070 0038 0122     		movs	r2, #1
 2071 003a 1340     		ands	r3, r2
 2072              		.loc 1 1015 7
 2073 003c 012B     		cmp	r3, #1
 2074 003e 06D1     		bne	.L128
1016:Drivers/STM32L0xx_HAL_Driver/Src/stm32l0xx_hal_rcc_ex.c ****     {
1017:Drivers/STM32L0xx_HAL_Driver/Src/stm32l0xx_hal_rcc_ex.c ****       /* CRS SYNC event OK */
1018:Drivers/STM32L0xx_HAL_Driver/Src/stm32l0xx_hal_rcc_ex.c ****       crsstatus |= RCC_CRS_SYNCOK;
 2075              		.loc 1 1018 17
 2076 0040 FB68     		ldr	r3, [r7, #12]
 2077 0042 0222     		movs	r2, #2
 2078 0044 1343     		orrs	r3, r2
 2079 0046 FB60     		str	r3, [r7, #12]
1019:Drivers/STM32L0xx_HAL_Driver/Src/stm32l0xx_hal_rcc_ex.c **** 
1020:Drivers/STM32L0xx_HAL_Driver/Src/stm32l0xx_hal_rcc_ex.c ****       /* Clear CRS SYNC event OK bit */
1021:Drivers/STM32L0xx_HAL_Driver/Src/stm32l0xx_hal_rcc_ex.c ****       __HAL_RCC_CRS_CLEAR_FLAG(RCC_CRS_FLAG_SYNCOK);
 2080              		.loc 1 1021 7
 2081 0048 284B     		ldr	r3, .L136
 2082 004a 0122     		movs	r2, #1
 2083 004c DA60     		str	r2, [r3, #12]
 2084              	.L128:
1022:Drivers/STM32L0xx_HAL_Driver/Src/stm32l0xx_hal_rcc_ex.c ****     }
1023:Drivers/STM32L0xx_HAL_Driver/Src/stm32l0xx_hal_rcc_ex.c **** 
1024:Drivers/STM32L0xx_HAL_Driver/Src/stm32l0xx_hal_rcc_ex.c ****     /* Check CRS SYNCWARN flag  */
ARM GAS  C:\Users\lidka\AppData\Local\Temp\ccURlygc.s 			page 58


1025:Drivers/STM32L0xx_HAL_Driver/Src/stm32l0xx_hal_rcc_ex.c ****     if(__HAL_RCC_CRS_GET_FLAG(RCC_CRS_FLAG_SYNCWARN))
 2085              		.loc 1 1025 8
 2086 004e 274B     		ldr	r3, .L136
 2087 0050 9B68     		ldr	r3, [r3, #8]
 2088 0052 0222     		movs	r2, #2
 2089 0054 1340     		ands	r3, r2
 2090              		.loc 1 1025 7
 2091 0056 022B     		cmp	r3, #2
 2092 0058 06D1     		bne	.L129
1026:Drivers/STM32L0xx_HAL_Driver/Src/stm32l0xx_hal_rcc_ex.c ****     {
1027:Drivers/STM32L0xx_HAL_Driver/Src/stm32l0xx_hal_rcc_ex.c ****       /* CRS SYNC warning */
1028:Drivers/STM32L0xx_HAL_Driver/Src/stm32l0xx_hal_rcc_ex.c ****       crsstatus |= RCC_CRS_SYNCWARN;
 2093              		.loc 1 1028 17
 2094 005a FB68     		ldr	r3, [r7, #12]
 2095 005c 0422     		movs	r2, #4
 2096 005e 1343     		orrs	r3, r2
 2097 0060 FB60     		str	r3, [r7, #12]
1029:Drivers/STM32L0xx_HAL_Driver/Src/stm32l0xx_hal_rcc_ex.c **** 
1030:Drivers/STM32L0xx_HAL_Driver/Src/stm32l0xx_hal_rcc_ex.c ****       /* Clear CRS SYNCWARN bit */
1031:Drivers/STM32L0xx_HAL_Driver/Src/stm32l0xx_hal_rcc_ex.c ****       __HAL_RCC_CRS_CLEAR_FLAG(RCC_CRS_FLAG_SYNCWARN);
 2098              		.loc 1 1031 7
 2099 0062 224B     		ldr	r3, .L136
 2100 0064 0222     		movs	r2, #2
 2101 0066 DA60     		str	r2, [r3, #12]
 2102              	.L129:
1032:Drivers/STM32L0xx_HAL_Driver/Src/stm32l0xx_hal_rcc_ex.c ****     }
1033:Drivers/STM32L0xx_HAL_Driver/Src/stm32l0xx_hal_rcc_ex.c **** 
1034:Drivers/STM32L0xx_HAL_Driver/Src/stm32l0xx_hal_rcc_ex.c ****     /* Check CRS TRIM overflow flag  */
1035:Drivers/STM32L0xx_HAL_Driver/Src/stm32l0xx_hal_rcc_ex.c ****     if(__HAL_RCC_CRS_GET_FLAG(RCC_CRS_FLAG_TRIMOVF))
 2103              		.loc 1 1035 8
 2104 0068 204B     		ldr	r3, .L136
 2105 006a 9A68     		ldr	r2, [r3, #8]
 2106 006c 8023     		movs	r3, #128
 2107 006e DB00     		lsls	r3, r3, #3
 2108 0070 1A40     		ands	r2, r3
 2109              		.loc 1 1035 7
 2110 0072 8023     		movs	r3, #128
 2111 0074 DB00     		lsls	r3, r3, #3
 2112 0076 9A42     		cmp	r2, r3
 2113 0078 06D1     		bne	.L130
1036:Drivers/STM32L0xx_HAL_Driver/Src/stm32l0xx_hal_rcc_ex.c ****     {
1037:Drivers/STM32L0xx_HAL_Driver/Src/stm32l0xx_hal_rcc_ex.c ****       /* CRS SYNC Error */
1038:Drivers/STM32L0xx_HAL_Driver/Src/stm32l0xx_hal_rcc_ex.c ****       crsstatus |= RCC_CRS_TRIMOVF;
 2114              		.loc 1 1038 17
 2115 007a FB68     		ldr	r3, [r7, #12]
 2116 007c 2022     		movs	r2, #32
 2117 007e 1343     		orrs	r3, r2
 2118 0080 FB60     		str	r3, [r7, #12]
1039:Drivers/STM32L0xx_HAL_Driver/Src/stm32l0xx_hal_rcc_ex.c **** 
1040:Drivers/STM32L0xx_HAL_Driver/Src/stm32l0xx_hal_rcc_ex.c ****       /* Clear CRS Error bit */
1041:Drivers/STM32L0xx_HAL_Driver/Src/stm32l0xx_hal_rcc_ex.c ****       __HAL_RCC_CRS_CLEAR_FLAG(RCC_CRS_FLAG_TRIMOVF);
 2119              		.loc 1 1041 7
 2120 0082 1A4B     		ldr	r3, .L136
 2121 0084 0422     		movs	r2, #4
 2122 0086 DA60     		str	r2, [r3, #12]
 2123              	.L130:
1042:Drivers/STM32L0xx_HAL_Driver/Src/stm32l0xx_hal_rcc_ex.c ****     }
ARM GAS  C:\Users\lidka\AppData\Local\Temp\ccURlygc.s 			page 59


1043:Drivers/STM32L0xx_HAL_Driver/Src/stm32l0xx_hal_rcc_ex.c **** 
1044:Drivers/STM32L0xx_HAL_Driver/Src/stm32l0xx_hal_rcc_ex.c ****     /* Check CRS Error flag  */
1045:Drivers/STM32L0xx_HAL_Driver/Src/stm32l0xx_hal_rcc_ex.c ****     if(__HAL_RCC_CRS_GET_FLAG(RCC_CRS_FLAG_SYNCERR))
 2124              		.loc 1 1045 8
 2125 0088 184B     		ldr	r3, .L136
 2126 008a 9A68     		ldr	r2, [r3, #8]
 2127 008c 8023     		movs	r3, #128
 2128 008e 5B00     		lsls	r3, r3, #1
 2129 0090 1A40     		ands	r2, r3
 2130              		.loc 1 1045 7
 2131 0092 8023     		movs	r3, #128
 2132 0094 5B00     		lsls	r3, r3, #1
 2133 0096 9A42     		cmp	r2, r3
 2134 0098 06D1     		bne	.L131
1046:Drivers/STM32L0xx_HAL_Driver/Src/stm32l0xx_hal_rcc_ex.c ****     {
1047:Drivers/STM32L0xx_HAL_Driver/Src/stm32l0xx_hal_rcc_ex.c ****       /* CRS SYNC Error */
1048:Drivers/STM32L0xx_HAL_Driver/Src/stm32l0xx_hal_rcc_ex.c ****       crsstatus |= RCC_CRS_SYNCERR;
 2135              		.loc 1 1048 17
 2136 009a FB68     		ldr	r3, [r7, #12]
 2137 009c 0822     		movs	r2, #8
 2138 009e 1343     		orrs	r3, r2
 2139 00a0 FB60     		str	r3, [r7, #12]
1049:Drivers/STM32L0xx_HAL_Driver/Src/stm32l0xx_hal_rcc_ex.c **** 
1050:Drivers/STM32L0xx_HAL_Driver/Src/stm32l0xx_hal_rcc_ex.c ****       /* Clear CRS Error bit */
1051:Drivers/STM32L0xx_HAL_Driver/Src/stm32l0xx_hal_rcc_ex.c ****       __HAL_RCC_CRS_CLEAR_FLAG(RCC_CRS_FLAG_SYNCERR);
 2140              		.loc 1 1051 7
 2141 00a2 124B     		ldr	r3, .L136
 2142 00a4 0422     		movs	r2, #4
 2143 00a6 DA60     		str	r2, [r3, #12]
 2144              	.L131:
1052:Drivers/STM32L0xx_HAL_Driver/Src/stm32l0xx_hal_rcc_ex.c ****     }
1053:Drivers/STM32L0xx_HAL_Driver/Src/stm32l0xx_hal_rcc_ex.c **** 
1054:Drivers/STM32L0xx_HAL_Driver/Src/stm32l0xx_hal_rcc_ex.c ****     /* Check CRS SYNC Missed flag  */
1055:Drivers/STM32L0xx_HAL_Driver/Src/stm32l0xx_hal_rcc_ex.c ****     if(__HAL_RCC_CRS_GET_FLAG(RCC_CRS_FLAG_SYNCMISS))
 2145              		.loc 1 1055 8
 2146 00a8 104B     		ldr	r3, .L136
 2147 00aa 9A68     		ldr	r2, [r3, #8]
 2148 00ac 8023     		movs	r3, #128
 2149 00ae 9B00     		lsls	r3, r3, #2
 2150 00b0 1A40     		ands	r2, r3
 2151              		.loc 1 1055 7
 2152 00b2 8023     		movs	r3, #128
 2153 00b4 9B00     		lsls	r3, r3, #2
 2154 00b6 9A42     		cmp	r2, r3
 2155 00b8 06D1     		bne	.L132
1056:Drivers/STM32L0xx_HAL_Driver/Src/stm32l0xx_hal_rcc_ex.c ****     {
1057:Drivers/STM32L0xx_HAL_Driver/Src/stm32l0xx_hal_rcc_ex.c ****       /* CRS SYNC Missed */
1058:Drivers/STM32L0xx_HAL_Driver/Src/stm32l0xx_hal_rcc_ex.c ****       crsstatus |= RCC_CRS_SYNCMISS;
 2156              		.loc 1 1058 17
 2157 00ba FB68     		ldr	r3, [r7, #12]
 2158 00bc 1022     		movs	r2, #16
 2159 00be 1343     		orrs	r3, r2
 2160 00c0 FB60     		str	r3, [r7, #12]
1059:Drivers/STM32L0xx_HAL_Driver/Src/stm32l0xx_hal_rcc_ex.c **** 
1060:Drivers/STM32L0xx_HAL_Driver/Src/stm32l0xx_hal_rcc_ex.c ****       /* Clear CRS SYNC Missed bit */
1061:Drivers/STM32L0xx_HAL_Driver/Src/stm32l0xx_hal_rcc_ex.c ****       __HAL_RCC_CRS_CLEAR_FLAG(RCC_CRS_FLAG_SYNCMISS);
 2161              		.loc 1 1061 7
ARM GAS  C:\Users\lidka\AppData\Local\Temp\ccURlygc.s 			page 60


 2162 00c2 0A4B     		ldr	r3, .L136
 2163 00c4 0422     		movs	r2, #4
 2164 00c6 DA60     		str	r2, [r3, #12]
 2165              	.L132:
1062:Drivers/STM32L0xx_HAL_Driver/Src/stm32l0xx_hal_rcc_ex.c ****     }
1063:Drivers/STM32L0xx_HAL_Driver/Src/stm32l0xx_hal_rcc_ex.c **** 
1064:Drivers/STM32L0xx_HAL_Driver/Src/stm32l0xx_hal_rcc_ex.c ****     /* Check CRS Expected SYNC flag  */
1065:Drivers/STM32L0xx_HAL_Driver/Src/stm32l0xx_hal_rcc_ex.c ****     if(__HAL_RCC_CRS_GET_FLAG(RCC_CRS_FLAG_ESYNC))
 2166              		.loc 1 1065 8
 2167 00c8 084B     		ldr	r3, .L136
 2168 00ca 9B68     		ldr	r3, [r3, #8]
 2169 00cc 0822     		movs	r2, #8
 2170 00ce 1340     		ands	r3, r2
 2171              		.loc 1 1065 7
 2172 00d0 082B     		cmp	r3, #8
 2173 00d2 02D1     		bne	.L133
1066:Drivers/STM32L0xx_HAL_Driver/Src/stm32l0xx_hal_rcc_ex.c ****     {
1067:Drivers/STM32L0xx_HAL_Driver/Src/stm32l0xx_hal_rcc_ex.c ****       /* frequency error counter reached a zero value */
1068:Drivers/STM32L0xx_HAL_Driver/Src/stm32l0xx_hal_rcc_ex.c ****       __HAL_RCC_CRS_CLEAR_FLAG(RCC_CRS_FLAG_ESYNC);
 2174              		.loc 1 1068 7 discriminator 2
 2175 00d4 054B     		ldr	r3, .L136
 2176 00d6 0822     		movs	r2, #8
 2177 00d8 DA60     		str	r2, [r3, #12]
 2178              	.L133:
1069:Drivers/STM32L0xx_HAL_Driver/Src/stm32l0xx_hal_rcc_ex.c ****     }
1070:Drivers/STM32L0xx_HAL_Driver/Src/stm32l0xx_hal_rcc_ex.c ****   } while(RCC_CRS_NONE == crsstatus);
 2179              		.loc 1 1070 3
 2180 00da FB68     		ldr	r3, [r7, #12]
 2181 00dc 002B     		cmp	r3, #0
 2182 00de 99D0     		beq	.L134
1071:Drivers/STM32L0xx_HAL_Driver/Src/stm32l0xx_hal_rcc_ex.c **** 
1072:Drivers/STM32L0xx_HAL_Driver/Src/stm32l0xx_hal_rcc_ex.c ****   return crsstatus;
 2183              		.loc 1 1072 10
 2184 00e0 FB68     		ldr	r3, [r7, #12]
1073:Drivers/STM32L0xx_HAL_Driver/Src/stm32l0xx_hal_rcc_ex.c **** }
 2185              		.loc 1 1073 1
 2186 00e2 1800     		movs	r0, r3
 2187 00e4 BD46     		mov	sp, r7
 2188 00e6 04B0     		add	sp, sp, #16
 2189              		@ sp needed
 2190 00e8 80BD     		pop	{r7, pc}
 2191              	.L137:
 2192 00ea C046     		.align	2
 2193              	.L136:
 2194 00ec 006C0040 		.word	1073769472
 2195              		.cfi_endproc
 2196              	.LFE60:
 2198              		.section	.text.HAL_RCCEx_CRS_IRQHandler,"ax",%progbits
 2199              		.align	1
 2200              		.global	HAL_RCCEx_CRS_IRQHandler
 2201              		.syntax unified
 2202              		.code	16
 2203              		.thumb_func
 2205              	HAL_RCCEx_CRS_IRQHandler:
 2206              	.LFB61:
1074:Drivers/STM32L0xx_HAL_Driver/Src/stm32l0xx_hal_rcc_ex.c **** 
1075:Drivers/STM32L0xx_HAL_Driver/Src/stm32l0xx_hal_rcc_ex.c **** /**
ARM GAS  C:\Users\lidka\AppData\Local\Temp\ccURlygc.s 			page 61


1076:Drivers/STM32L0xx_HAL_Driver/Src/stm32l0xx_hal_rcc_ex.c ****   * @brief Handle the Clock Recovery System interrupt request.
1077:Drivers/STM32L0xx_HAL_Driver/Src/stm32l0xx_hal_rcc_ex.c ****   * @retval None
1078:Drivers/STM32L0xx_HAL_Driver/Src/stm32l0xx_hal_rcc_ex.c ****   */
1079:Drivers/STM32L0xx_HAL_Driver/Src/stm32l0xx_hal_rcc_ex.c **** void HAL_RCCEx_CRS_IRQHandler(void)
1080:Drivers/STM32L0xx_HAL_Driver/Src/stm32l0xx_hal_rcc_ex.c **** {
 2207              		.loc 1 1080 1
 2208              		.cfi_startproc
 2209              		@ args = 0, pretend = 0, frame = 16
 2210              		@ frame_needed = 1, uses_anonymous_args = 0
 2211 0000 80B5     		push	{r7, lr}
 2212              	.LCFI34:
 2213              		.cfi_def_cfa_offset 8
 2214              		.cfi_offset 7, -8
 2215              		.cfi_offset 14, -4
 2216 0002 84B0     		sub	sp, sp, #16
 2217              	.LCFI35:
 2218              		.cfi_def_cfa_offset 24
 2219 0004 00AF     		add	r7, sp, #0
 2220              	.LCFI36:
 2221              		.cfi_def_cfa_register 7
1081:Drivers/STM32L0xx_HAL_Driver/Src/stm32l0xx_hal_rcc_ex.c ****   uint32_t crserror = RCC_CRS_NONE;
 2222              		.loc 1 1081 12
 2223 0006 0023     		movs	r3, #0
 2224 0008 FB60     		str	r3, [r7, #12]
1082:Drivers/STM32L0xx_HAL_Driver/Src/stm32l0xx_hal_rcc_ex.c ****   /* Get current IT flags and IT sources values */
1083:Drivers/STM32L0xx_HAL_Driver/Src/stm32l0xx_hal_rcc_ex.c ****   uint32_t itflags = READ_REG(CRS->ISR);
 2225              		.loc 1 1083 22
 2226 000a 2F4B     		ldr	r3, .L147
 2227              		.loc 1 1083 12
 2228 000c 9B68     		ldr	r3, [r3, #8]
 2229 000e BB60     		str	r3, [r7, #8]
1084:Drivers/STM32L0xx_HAL_Driver/Src/stm32l0xx_hal_rcc_ex.c ****   uint32_t itsources = READ_REG(CRS->CR);
 2230              		.loc 1 1084 24
 2231 0010 2D4B     		ldr	r3, .L147
 2232              		.loc 1 1084 12
 2233 0012 1B68     		ldr	r3, [r3]
 2234 0014 7B60     		str	r3, [r7, #4]
1085:Drivers/STM32L0xx_HAL_Driver/Src/stm32l0xx_hal_rcc_ex.c **** 
1086:Drivers/STM32L0xx_HAL_Driver/Src/stm32l0xx_hal_rcc_ex.c ****   /* Check CRS SYNCOK flag  */
1087:Drivers/STM32L0xx_HAL_Driver/Src/stm32l0xx_hal_rcc_ex.c ****   if(((itflags & RCC_CRS_FLAG_SYNCOK) != 0U) && ((itsources & RCC_CRS_IT_SYNCOK) != 0U))
 2235              		.loc 1 1087 16
 2236 0016 BB68     		ldr	r3, [r7, #8]
 2237 0018 0122     		movs	r2, #1
 2238 001a 1340     		ands	r3, r2
 2239              		.loc 1 1087 5
 2240 001c 09D0     		beq	.L139
 2241              		.loc 1 1087 61 discriminator 1
 2242 001e 7B68     		ldr	r3, [r7, #4]
 2243 0020 0122     		movs	r2, #1
 2244 0022 1340     		ands	r3, r2
 2245              		.loc 1 1087 46 discriminator 1
 2246 0024 05D0     		beq	.L139
1088:Drivers/STM32L0xx_HAL_Driver/Src/stm32l0xx_hal_rcc_ex.c ****   {
1089:Drivers/STM32L0xx_HAL_Driver/Src/stm32l0xx_hal_rcc_ex.c ****     /* Clear CRS SYNC event OK flag */
1090:Drivers/STM32L0xx_HAL_Driver/Src/stm32l0xx_hal_rcc_ex.c ****     WRITE_REG(CRS->ICR, CRS_ICR_SYNCOKC);
 2247              		.loc 1 1090 5
 2248 0026 284B     		ldr	r3, .L147
ARM GAS  C:\Users\lidka\AppData\Local\Temp\ccURlygc.s 			page 62


 2249 0028 0122     		movs	r2, #1
 2250 002a DA60     		str	r2, [r3, #12]
1091:Drivers/STM32L0xx_HAL_Driver/Src/stm32l0xx_hal_rcc_ex.c **** 
1092:Drivers/STM32L0xx_HAL_Driver/Src/stm32l0xx_hal_rcc_ex.c ****     /* user callback */
1093:Drivers/STM32L0xx_HAL_Driver/Src/stm32l0xx_hal_rcc_ex.c ****     HAL_RCCEx_CRS_SyncOkCallback();
 2251              		.loc 1 1093 5
 2252 002c FFF7FEFF 		bl	HAL_RCCEx_CRS_SyncOkCallback
 2253 0030 46E0     		b	.L140
 2254              	.L139:
1094:Drivers/STM32L0xx_HAL_Driver/Src/stm32l0xx_hal_rcc_ex.c ****   }
1095:Drivers/STM32L0xx_HAL_Driver/Src/stm32l0xx_hal_rcc_ex.c ****   /* Check CRS SYNCWARN flag  */
1096:Drivers/STM32L0xx_HAL_Driver/Src/stm32l0xx_hal_rcc_ex.c ****   else if(((itflags & RCC_CRS_FLAG_SYNCWARN) != 0U) && ((itsources & RCC_CRS_IT_SYNCWARN) != 0U))
 2255              		.loc 1 1096 21
 2256 0032 BB68     		ldr	r3, [r7, #8]
 2257 0034 0222     		movs	r2, #2
 2258 0036 1340     		ands	r3, r2
 2259              		.loc 1 1096 10
 2260 0038 09D0     		beq	.L141
 2261              		.loc 1 1096 68 discriminator 1
 2262 003a 7B68     		ldr	r3, [r7, #4]
 2263 003c 0222     		movs	r2, #2
 2264 003e 1340     		ands	r3, r2
 2265              		.loc 1 1096 53 discriminator 1
 2266 0040 05D0     		beq	.L141
1097:Drivers/STM32L0xx_HAL_Driver/Src/stm32l0xx_hal_rcc_ex.c ****   {
1098:Drivers/STM32L0xx_HAL_Driver/Src/stm32l0xx_hal_rcc_ex.c ****     /* Clear CRS SYNCWARN flag */
1099:Drivers/STM32L0xx_HAL_Driver/Src/stm32l0xx_hal_rcc_ex.c ****     WRITE_REG(CRS->ICR, CRS_ICR_SYNCWARNC);
 2267              		.loc 1 1099 5
 2268 0042 214B     		ldr	r3, .L147
 2269 0044 0222     		movs	r2, #2
 2270 0046 DA60     		str	r2, [r3, #12]
1100:Drivers/STM32L0xx_HAL_Driver/Src/stm32l0xx_hal_rcc_ex.c **** 
1101:Drivers/STM32L0xx_HAL_Driver/Src/stm32l0xx_hal_rcc_ex.c ****     /* user callback */
1102:Drivers/STM32L0xx_HAL_Driver/Src/stm32l0xx_hal_rcc_ex.c ****     HAL_RCCEx_CRS_SyncWarnCallback();
 2271              		.loc 1 1102 5
 2272 0048 FFF7FEFF 		bl	HAL_RCCEx_CRS_SyncWarnCallback
 2273 004c 38E0     		b	.L140
 2274              	.L141:
1103:Drivers/STM32L0xx_HAL_Driver/Src/stm32l0xx_hal_rcc_ex.c ****   }
1104:Drivers/STM32L0xx_HAL_Driver/Src/stm32l0xx_hal_rcc_ex.c ****   /* Check CRS Expected SYNC flag  */
1105:Drivers/STM32L0xx_HAL_Driver/Src/stm32l0xx_hal_rcc_ex.c ****   else if(((itflags & RCC_CRS_FLAG_ESYNC) != 0U) && ((itsources & RCC_CRS_IT_ESYNC) != 0U))
 2275              		.loc 1 1105 21
 2276 004e BB68     		ldr	r3, [r7, #8]
 2277 0050 0822     		movs	r2, #8
 2278 0052 1340     		ands	r3, r2
 2279              		.loc 1 1105 10
 2280 0054 09D0     		beq	.L142
 2281              		.loc 1 1105 65 discriminator 1
 2282 0056 7B68     		ldr	r3, [r7, #4]
 2283 0058 0822     		movs	r2, #8
 2284 005a 1340     		ands	r3, r2
 2285              		.loc 1 1105 50 discriminator 1
 2286 005c 05D0     		beq	.L142
1106:Drivers/STM32L0xx_HAL_Driver/Src/stm32l0xx_hal_rcc_ex.c ****   {
1107:Drivers/STM32L0xx_HAL_Driver/Src/stm32l0xx_hal_rcc_ex.c ****     /* frequency error counter reached a zero value */
1108:Drivers/STM32L0xx_HAL_Driver/Src/stm32l0xx_hal_rcc_ex.c ****     WRITE_REG(CRS->ICR, CRS_ICR_ESYNCC);
 2287              		.loc 1 1108 5
ARM GAS  C:\Users\lidka\AppData\Local\Temp\ccURlygc.s 			page 63


 2288 005e 1A4B     		ldr	r3, .L147
 2289 0060 0822     		movs	r2, #8
 2290 0062 DA60     		str	r2, [r3, #12]
1109:Drivers/STM32L0xx_HAL_Driver/Src/stm32l0xx_hal_rcc_ex.c **** 
1110:Drivers/STM32L0xx_HAL_Driver/Src/stm32l0xx_hal_rcc_ex.c ****     /* user callback */
1111:Drivers/STM32L0xx_HAL_Driver/Src/stm32l0xx_hal_rcc_ex.c ****     HAL_RCCEx_CRS_ExpectedSyncCallback();
 2291              		.loc 1 1111 5
 2292 0064 FFF7FEFF 		bl	HAL_RCCEx_CRS_ExpectedSyncCallback
 2293 0068 2AE0     		b	.L140
 2294              	.L142:
1112:Drivers/STM32L0xx_HAL_Driver/Src/stm32l0xx_hal_rcc_ex.c ****   }
1113:Drivers/STM32L0xx_HAL_Driver/Src/stm32l0xx_hal_rcc_ex.c ****   /* Check CRS Error flags  */
1114:Drivers/STM32L0xx_HAL_Driver/Src/stm32l0xx_hal_rcc_ex.c ****   else
1115:Drivers/STM32L0xx_HAL_Driver/Src/stm32l0xx_hal_rcc_ex.c ****   {
1116:Drivers/STM32L0xx_HAL_Driver/Src/stm32l0xx_hal_rcc_ex.c ****     if(((itflags & RCC_CRS_FLAG_ERR) != 0U) && ((itsources & RCC_CRS_IT_ERR) != 0U))
 2295              		.loc 1 1116 18
 2296 006a BB68     		ldr	r3, [r7, #8]
 2297 006c 0422     		movs	r2, #4
 2298 006e 1340     		ands	r3, r2
 2299              		.loc 1 1116 7
 2300 0070 26D0     		beq	.L146
 2301              		.loc 1 1116 60 discriminator 1
 2302 0072 7B68     		ldr	r3, [r7, #4]
 2303 0074 0422     		movs	r2, #4
 2304 0076 1340     		ands	r3, r2
 2305              		.loc 1 1116 45 discriminator 1
 2306 0078 22D0     		beq	.L146
1117:Drivers/STM32L0xx_HAL_Driver/Src/stm32l0xx_hal_rcc_ex.c ****     {
1118:Drivers/STM32L0xx_HAL_Driver/Src/stm32l0xx_hal_rcc_ex.c ****       if((itflags & RCC_CRS_FLAG_SYNCERR) != 0U)
 2307              		.loc 1 1118 19
 2308 007a BA68     		ldr	r2, [r7, #8]
 2309 007c 8023     		movs	r3, #128
 2310 007e 5B00     		lsls	r3, r3, #1
 2311 0080 1340     		ands	r3, r2
 2312              		.loc 1 1118 9
 2313 0082 03D0     		beq	.L143
1119:Drivers/STM32L0xx_HAL_Driver/Src/stm32l0xx_hal_rcc_ex.c ****       {
1120:Drivers/STM32L0xx_HAL_Driver/Src/stm32l0xx_hal_rcc_ex.c ****         crserror |= RCC_CRS_SYNCERR;
 2314              		.loc 1 1120 18
 2315 0084 FB68     		ldr	r3, [r7, #12]
 2316 0086 0822     		movs	r2, #8
 2317 0088 1343     		orrs	r3, r2
 2318 008a FB60     		str	r3, [r7, #12]
 2319              	.L143:
1121:Drivers/STM32L0xx_HAL_Driver/Src/stm32l0xx_hal_rcc_ex.c ****       }
1122:Drivers/STM32L0xx_HAL_Driver/Src/stm32l0xx_hal_rcc_ex.c ****       if((itflags & RCC_CRS_FLAG_SYNCMISS) != 0U)
 2320              		.loc 1 1122 19
 2321 008c BA68     		ldr	r2, [r7, #8]
 2322 008e 8023     		movs	r3, #128
 2323 0090 9B00     		lsls	r3, r3, #2
 2324 0092 1340     		ands	r3, r2
 2325              		.loc 1 1122 9
 2326 0094 03D0     		beq	.L144
1123:Drivers/STM32L0xx_HAL_Driver/Src/stm32l0xx_hal_rcc_ex.c ****       {
1124:Drivers/STM32L0xx_HAL_Driver/Src/stm32l0xx_hal_rcc_ex.c ****         crserror |= RCC_CRS_SYNCMISS;
 2327              		.loc 1 1124 18
 2328 0096 FB68     		ldr	r3, [r7, #12]
ARM GAS  C:\Users\lidka\AppData\Local\Temp\ccURlygc.s 			page 64


 2329 0098 1022     		movs	r2, #16
 2330 009a 1343     		orrs	r3, r2
 2331 009c FB60     		str	r3, [r7, #12]
 2332              	.L144:
1125:Drivers/STM32L0xx_HAL_Driver/Src/stm32l0xx_hal_rcc_ex.c ****       }
1126:Drivers/STM32L0xx_HAL_Driver/Src/stm32l0xx_hal_rcc_ex.c ****       if((itflags & RCC_CRS_FLAG_TRIMOVF) != 0U)
 2333              		.loc 1 1126 19
 2334 009e BA68     		ldr	r2, [r7, #8]
 2335 00a0 8023     		movs	r3, #128
 2336 00a2 DB00     		lsls	r3, r3, #3
 2337 00a4 1340     		ands	r3, r2
 2338              		.loc 1 1126 9
 2339 00a6 03D0     		beq	.L145
1127:Drivers/STM32L0xx_HAL_Driver/Src/stm32l0xx_hal_rcc_ex.c ****       {
1128:Drivers/STM32L0xx_HAL_Driver/Src/stm32l0xx_hal_rcc_ex.c ****         crserror |= RCC_CRS_TRIMOVF;
 2340              		.loc 1 1128 18
 2341 00a8 FB68     		ldr	r3, [r7, #12]
 2342 00aa 2022     		movs	r2, #32
 2343 00ac 1343     		orrs	r3, r2
 2344 00ae FB60     		str	r3, [r7, #12]
 2345              	.L145:
1129:Drivers/STM32L0xx_HAL_Driver/Src/stm32l0xx_hal_rcc_ex.c ****       }
1130:Drivers/STM32L0xx_HAL_Driver/Src/stm32l0xx_hal_rcc_ex.c **** 
1131:Drivers/STM32L0xx_HAL_Driver/Src/stm32l0xx_hal_rcc_ex.c ****       /* Clear CRS Error flags */
1132:Drivers/STM32L0xx_HAL_Driver/Src/stm32l0xx_hal_rcc_ex.c ****       WRITE_REG(CRS->ICR, CRS_ICR_ERRC);
 2346              		.loc 1 1132 7
 2347 00b0 054B     		ldr	r3, .L147
 2348 00b2 0422     		movs	r2, #4
 2349 00b4 DA60     		str	r2, [r3, #12]
1133:Drivers/STM32L0xx_HAL_Driver/Src/stm32l0xx_hal_rcc_ex.c **** 
1134:Drivers/STM32L0xx_HAL_Driver/Src/stm32l0xx_hal_rcc_ex.c ****       /* user error callback */
1135:Drivers/STM32L0xx_HAL_Driver/Src/stm32l0xx_hal_rcc_ex.c ****       HAL_RCCEx_CRS_ErrorCallback(crserror);
 2350              		.loc 1 1135 7
 2351 00b6 FB68     		ldr	r3, [r7, #12]
 2352 00b8 1800     		movs	r0, r3
 2353 00ba FFF7FEFF 		bl	HAL_RCCEx_CRS_ErrorCallback
1136:Drivers/STM32L0xx_HAL_Driver/Src/stm32l0xx_hal_rcc_ex.c ****     }
1137:Drivers/STM32L0xx_HAL_Driver/Src/stm32l0xx_hal_rcc_ex.c ****   }
1138:Drivers/STM32L0xx_HAL_Driver/Src/stm32l0xx_hal_rcc_ex.c **** }
 2354              		.loc 1 1138 1
 2355 00be FFE7     		b	.L146
 2356              	.L140:
 2357              	.L146:
 2358 00c0 C046     		nop
 2359 00c2 BD46     		mov	sp, r7
 2360 00c4 04B0     		add	sp, sp, #16
 2361              		@ sp needed
 2362 00c6 80BD     		pop	{r7, pc}
 2363              	.L148:
 2364              		.align	2
 2365              	.L147:
 2366 00c8 006C0040 		.word	1073769472
 2367              		.cfi_endproc
 2368              	.LFE61:
 2370              		.section	.text.HAL_RCCEx_CRS_SyncOkCallback,"ax",%progbits
 2371              		.align	1
 2372              		.weak	HAL_RCCEx_CRS_SyncOkCallback
ARM GAS  C:\Users\lidka\AppData\Local\Temp\ccURlygc.s 			page 65


 2373              		.syntax unified
 2374              		.code	16
 2375              		.thumb_func
 2377              	HAL_RCCEx_CRS_SyncOkCallback:
 2378              	.LFB62:
1139:Drivers/STM32L0xx_HAL_Driver/Src/stm32l0xx_hal_rcc_ex.c **** 
1140:Drivers/STM32L0xx_HAL_Driver/Src/stm32l0xx_hal_rcc_ex.c **** /**
1141:Drivers/STM32L0xx_HAL_Driver/Src/stm32l0xx_hal_rcc_ex.c ****   * @brief  RCCEx Clock Recovery System SYNCOK interrupt callback.
1142:Drivers/STM32L0xx_HAL_Driver/Src/stm32l0xx_hal_rcc_ex.c ****   * @retval none
1143:Drivers/STM32L0xx_HAL_Driver/Src/stm32l0xx_hal_rcc_ex.c ****   */
1144:Drivers/STM32L0xx_HAL_Driver/Src/stm32l0xx_hal_rcc_ex.c **** __weak void HAL_RCCEx_CRS_SyncOkCallback(void)
1145:Drivers/STM32L0xx_HAL_Driver/Src/stm32l0xx_hal_rcc_ex.c **** {
 2379              		.loc 1 1145 1
 2380              		.cfi_startproc
 2381              		@ args = 0, pretend = 0, frame = 0
 2382              		@ frame_needed = 1, uses_anonymous_args = 0
 2383 0000 80B5     		push	{r7, lr}
 2384              	.LCFI37:
 2385              		.cfi_def_cfa_offset 8
 2386              		.cfi_offset 7, -8
 2387              		.cfi_offset 14, -4
 2388 0002 00AF     		add	r7, sp, #0
 2389              	.LCFI38:
 2390              		.cfi_def_cfa_register 7
1146:Drivers/STM32L0xx_HAL_Driver/Src/stm32l0xx_hal_rcc_ex.c ****   /* NOTE : This function should not be modified, when the callback is needed,
1147:Drivers/STM32L0xx_HAL_Driver/Src/stm32l0xx_hal_rcc_ex.c ****             the @ref HAL_RCCEx_CRS_SyncOkCallback should be implemented in the user file
1148:Drivers/STM32L0xx_HAL_Driver/Src/stm32l0xx_hal_rcc_ex.c ****    */
1149:Drivers/STM32L0xx_HAL_Driver/Src/stm32l0xx_hal_rcc_ex.c **** }
 2391              		.loc 1 1149 1
 2392 0004 C046     		nop
 2393 0006 BD46     		mov	sp, r7
 2394              		@ sp needed
 2395 0008 80BD     		pop	{r7, pc}
 2396              		.cfi_endproc
 2397              	.LFE62:
 2399              		.section	.text.HAL_RCCEx_CRS_SyncWarnCallback,"ax",%progbits
 2400              		.align	1
 2401              		.weak	HAL_RCCEx_CRS_SyncWarnCallback
 2402              		.syntax unified
 2403              		.code	16
 2404              		.thumb_func
 2406              	HAL_RCCEx_CRS_SyncWarnCallback:
 2407              	.LFB63:
1150:Drivers/STM32L0xx_HAL_Driver/Src/stm32l0xx_hal_rcc_ex.c **** 
1151:Drivers/STM32L0xx_HAL_Driver/Src/stm32l0xx_hal_rcc_ex.c **** /**
1152:Drivers/STM32L0xx_HAL_Driver/Src/stm32l0xx_hal_rcc_ex.c ****   * @brief  RCCEx Clock Recovery System SYNCWARN interrupt callback.
1153:Drivers/STM32L0xx_HAL_Driver/Src/stm32l0xx_hal_rcc_ex.c ****   * @retval none
1154:Drivers/STM32L0xx_HAL_Driver/Src/stm32l0xx_hal_rcc_ex.c ****   */
1155:Drivers/STM32L0xx_HAL_Driver/Src/stm32l0xx_hal_rcc_ex.c **** __weak void HAL_RCCEx_CRS_SyncWarnCallback(void)
1156:Drivers/STM32L0xx_HAL_Driver/Src/stm32l0xx_hal_rcc_ex.c **** {
 2408              		.loc 1 1156 1
 2409              		.cfi_startproc
 2410              		@ args = 0, pretend = 0, frame = 0
 2411              		@ frame_needed = 1, uses_anonymous_args = 0
 2412 0000 80B5     		push	{r7, lr}
 2413              	.LCFI39:
 2414              		.cfi_def_cfa_offset 8
ARM GAS  C:\Users\lidka\AppData\Local\Temp\ccURlygc.s 			page 66


 2415              		.cfi_offset 7, -8
 2416              		.cfi_offset 14, -4
 2417 0002 00AF     		add	r7, sp, #0
 2418              	.LCFI40:
 2419              		.cfi_def_cfa_register 7
1157:Drivers/STM32L0xx_HAL_Driver/Src/stm32l0xx_hal_rcc_ex.c ****   /* NOTE : This function should not be modified, when the callback is needed,
1158:Drivers/STM32L0xx_HAL_Driver/Src/stm32l0xx_hal_rcc_ex.c ****             the @ref HAL_RCCEx_CRS_SyncWarnCallback should be implemented in the user file
1159:Drivers/STM32L0xx_HAL_Driver/Src/stm32l0xx_hal_rcc_ex.c ****    */
1160:Drivers/STM32L0xx_HAL_Driver/Src/stm32l0xx_hal_rcc_ex.c **** }
 2420              		.loc 1 1160 1
 2421 0004 C046     		nop
 2422 0006 BD46     		mov	sp, r7
 2423              		@ sp needed
 2424 0008 80BD     		pop	{r7, pc}
 2425              		.cfi_endproc
 2426              	.LFE63:
 2428              		.section	.text.HAL_RCCEx_CRS_ExpectedSyncCallback,"ax",%progbits
 2429              		.align	1
 2430              		.weak	HAL_RCCEx_CRS_ExpectedSyncCallback
 2431              		.syntax unified
 2432              		.code	16
 2433              		.thumb_func
 2435              	HAL_RCCEx_CRS_ExpectedSyncCallback:
 2436              	.LFB64:
1161:Drivers/STM32L0xx_HAL_Driver/Src/stm32l0xx_hal_rcc_ex.c **** 
1162:Drivers/STM32L0xx_HAL_Driver/Src/stm32l0xx_hal_rcc_ex.c **** /**
1163:Drivers/STM32L0xx_HAL_Driver/Src/stm32l0xx_hal_rcc_ex.c ****   * @brief  RCCEx Clock Recovery System Expected SYNC interrupt callback.
1164:Drivers/STM32L0xx_HAL_Driver/Src/stm32l0xx_hal_rcc_ex.c ****   * @retval none
1165:Drivers/STM32L0xx_HAL_Driver/Src/stm32l0xx_hal_rcc_ex.c ****   */
1166:Drivers/STM32L0xx_HAL_Driver/Src/stm32l0xx_hal_rcc_ex.c **** __weak void HAL_RCCEx_CRS_ExpectedSyncCallback(void)
1167:Drivers/STM32L0xx_HAL_Driver/Src/stm32l0xx_hal_rcc_ex.c **** {
 2437              		.loc 1 1167 1
 2438              		.cfi_startproc
 2439              		@ args = 0, pretend = 0, frame = 0
 2440              		@ frame_needed = 1, uses_anonymous_args = 0
 2441 0000 80B5     		push	{r7, lr}
 2442              	.LCFI41:
 2443              		.cfi_def_cfa_offset 8
 2444              		.cfi_offset 7, -8
 2445              		.cfi_offset 14, -4
 2446 0002 00AF     		add	r7, sp, #0
 2447              	.LCFI42:
 2448              		.cfi_def_cfa_register 7
1168:Drivers/STM32L0xx_HAL_Driver/Src/stm32l0xx_hal_rcc_ex.c ****   /* NOTE : This function should not be modified, when the callback is needed,
1169:Drivers/STM32L0xx_HAL_Driver/Src/stm32l0xx_hal_rcc_ex.c ****             the @ref HAL_RCCEx_CRS_ExpectedSyncCallback should be implemented in the user file
1170:Drivers/STM32L0xx_HAL_Driver/Src/stm32l0xx_hal_rcc_ex.c ****    */
1171:Drivers/STM32L0xx_HAL_Driver/Src/stm32l0xx_hal_rcc_ex.c **** }
 2449              		.loc 1 1171 1
 2450 0004 C046     		nop
 2451 0006 BD46     		mov	sp, r7
 2452              		@ sp needed
 2453 0008 80BD     		pop	{r7, pc}
 2454              		.cfi_endproc
 2455              	.LFE64:
 2457              		.section	.text.HAL_RCCEx_CRS_ErrorCallback,"ax",%progbits
 2458              		.align	1
 2459              		.weak	HAL_RCCEx_CRS_ErrorCallback
ARM GAS  C:\Users\lidka\AppData\Local\Temp\ccURlygc.s 			page 67


 2460              		.syntax unified
 2461              		.code	16
 2462              		.thumb_func
 2464              	HAL_RCCEx_CRS_ErrorCallback:
 2465              	.LFB65:
1172:Drivers/STM32L0xx_HAL_Driver/Src/stm32l0xx_hal_rcc_ex.c **** 
1173:Drivers/STM32L0xx_HAL_Driver/Src/stm32l0xx_hal_rcc_ex.c **** /**
1174:Drivers/STM32L0xx_HAL_Driver/Src/stm32l0xx_hal_rcc_ex.c ****   * @brief  RCCEx Clock Recovery System Error interrupt callback.
1175:Drivers/STM32L0xx_HAL_Driver/Src/stm32l0xx_hal_rcc_ex.c ****   * @param  Error Combination of Error status.
1176:Drivers/STM32L0xx_HAL_Driver/Src/stm32l0xx_hal_rcc_ex.c ****   *         This parameter can be a combination of the following values:
1177:Drivers/STM32L0xx_HAL_Driver/Src/stm32l0xx_hal_rcc_ex.c ****   *           @arg @ref RCC_CRS_SYNCERR
1178:Drivers/STM32L0xx_HAL_Driver/Src/stm32l0xx_hal_rcc_ex.c ****   *           @arg @ref RCC_CRS_SYNCMISS
1179:Drivers/STM32L0xx_HAL_Driver/Src/stm32l0xx_hal_rcc_ex.c ****   *           @arg @ref RCC_CRS_TRIMOVF
1180:Drivers/STM32L0xx_HAL_Driver/Src/stm32l0xx_hal_rcc_ex.c ****   * @retval none
1181:Drivers/STM32L0xx_HAL_Driver/Src/stm32l0xx_hal_rcc_ex.c ****   */
1182:Drivers/STM32L0xx_HAL_Driver/Src/stm32l0xx_hal_rcc_ex.c **** __weak void HAL_RCCEx_CRS_ErrorCallback(uint32_t Error)
1183:Drivers/STM32L0xx_HAL_Driver/Src/stm32l0xx_hal_rcc_ex.c **** {
 2466              		.loc 1 1183 1
 2467              		.cfi_startproc
 2468              		@ args = 0, pretend = 0, frame = 8
 2469              		@ frame_needed = 1, uses_anonymous_args = 0
 2470 0000 80B5     		push	{r7, lr}
 2471              	.LCFI43:
 2472              		.cfi_def_cfa_offset 8
 2473              		.cfi_offset 7, -8
 2474              		.cfi_offset 14, -4
 2475 0002 82B0     		sub	sp, sp, #8
 2476              	.LCFI44:
 2477              		.cfi_def_cfa_offset 16
 2478 0004 00AF     		add	r7, sp, #0
 2479              	.LCFI45:
 2480              		.cfi_def_cfa_register 7
 2481 0006 7860     		str	r0, [r7, #4]
1184:Drivers/STM32L0xx_HAL_Driver/Src/stm32l0xx_hal_rcc_ex.c ****   /* Prevent unused argument(s) compilation warning */
1185:Drivers/STM32L0xx_HAL_Driver/Src/stm32l0xx_hal_rcc_ex.c ****   UNUSED(Error);
1186:Drivers/STM32L0xx_HAL_Driver/Src/stm32l0xx_hal_rcc_ex.c **** 
1187:Drivers/STM32L0xx_HAL_Driver/Src/stm32l0xx_hal_rcc_ex.c ****   /* NOTE : This function should not be modified, when the callback is needed,
1188:Drivers/STM32L0xx_HAL_Driver/Src/stm32l0xx_hal_rcc_ex.c ****             the @ref HAL_RCCEx_CRS_ErrorCallback should be implemented in the user file
1189:Drivers/STM32L0xx_HAL_Driver/Src/stm32l0xx_hal_rcc_ex.c ****    */
1190:Drivers/STM32L0xx_HAL_Driver/Src/stm32l0xx_hal_rcc_ex.c **** }
 2482              		.loc 1 1190 1
 2483 0008 C046     		nop
 2484 000a BD46     		mov	sp, r7
 2485 000c 02B0     		add	sp, sp, #8
 2486              		@ sp needed
 2487 000e 80BD     		pop	{r7, pc}
 2488              		.cfi_endproc
 2489              	.LFE65:
 2491              		.text
 2492              	.Letext0:
 2493              		.file 2 "d:\\program files (x86)\\gnu arm embedded toolchain\\10 2021.10\\arm-none-eabi\\include\\
 2494              		.file 3 "d:\\program files (x86)\\gnu arm embedded toolchain\\10 2021.10\\arm-none-eabi\\include\\
 2495              		.file 4 "Drivers/CMSIS/Device/ST/STM32L0xx/Include/stm32l053xx.h"
 2496              		.file 5 "Drivers/CMSIS/Device/ST/STM32L0xx/Include/stm32l0xx.h"
 2497              		.file 6 "Drivers/STM32L0xx_HAL_Driver/Inc/stm32l0xx_hal_def.h"
 2498              		.file 7 "Drivers/STM32L0xx_HAL_Driver/Inc/stm32l0xx_hal_rcc_ex.h"
 2499              		.file 8 "Drivers/CMSIS/Device/ST/STM32L0xx/Include/system_stm32l0xx.h"
ARM GAS  C:\Users\lidka\AppData\Local\Temp\ccURlygc.s 			page 68


ARM GAS  C:\Users\lidka\AppData\Local\Temp\ccURlygc.s 			page 69

