ARM GAS  C:\Users\lidka\AppData\Local\Temp\ccABIEeK.s 			page 1


   1              		.cpu cortex-m0plus
   2              		.arch armv6s-m
   3              		.fpu softvfp
   4              		.eabi_attribute 20, 1
   5              		.eabi_attribute 21, 1
   6              		.eabi_attribute 23, 3
   7              		.eabi_attribute 24, 1
   8              		.eabi_attribute 25, 1
   9              		.eabi_attribute 26, 1
  10              		.eabi_attribute 30, 6
  11              		.eabi_attribute 34, 0
  12              		.eabi_attribute 18, 4
  13              		.file	"usart.c"
  14              		.text
  15              	.Ltext0:
  16              		.cfi_sections	.debug_frame
  17              		.global	huart2
  18              		.section	.bss.huart2,"aw",%nobits
  19              		.align	2
  22              	huart2:
  23 0000 00000000 		.space	132
  23      00000000 
  23      00000000 
  23      00000000 
  23      00000000 
  24              		.section	.text.MX_USART2_UART_Init,"ax",%progbits
  25              		.align	1
  26              		.global	MX_USART2_UART_Init
  27              		.syntax unified
  28              		.code	16
  29              		.thumb_func
  31              	MX_USART2_UART_Init:
  32              	.LFB47:
  33              		.file 1 "Core/Src/usart.c"
   1:Core/Src/usart.c **** /* USER CODE BEGIN Header */
   2:Core/Src/usart.c **** /**
   3:Core/Src/usart.c ****   ******************************************************************************
   4:Core/Src/usart.c ****   * @file    usart.c
   5:Core/Src/usart.c ****   * @brief   This file provides code for the configuration
   6:Core/Src/usart.c ****   *          of the USART instances.
   7:Core/Src/usart.c ****   ******************************************************************************
   8:Core/Src/usart.c ****   * @attention
   9:Core/Src/usart.c ****   *
  10:Core/Src/usart.c ****   * Copyright (c) 2022 STMicroelectronics.
  11:Core/Src/usart.c ****   * All rights reserved.
  12:Core/Src/usart.c ****   *
  13:Core/Src/usart.c ****   * This software is licensed under terms that can be found in the LICENSE file
  14:Core/Src/usart.c ****   * in the root directory of this software component.
  15:Core/Src/usart.c ****   * If no LICENSE file comes with this software, it is provided AS-IS.
  16:Core/Src/usart.c ****   *
  17:Core/Src/usart.c ****   ******************************************************************************
  18:Core/Src/usart.c ****   */
  19:Core/Src/usart.c **** /* USER CODE END Header */
  20:Core/Src/usart.c **** /* Includes ------------------------------------------------------------------*/
  21:Core/Src/usart.c **** #include "usart.h"
  22:Core/Src/usart.c **** 
  23:Core/Src/usart.c **** /* USER CODE BEGIN 0 */
ARM GAS  C:\Users\lidka\AppData\Local\Temp\ccABIEeK.s 			page 2


  24:Core/Src/usart.c **** 
  25:Core/Src/usart.c **** /* USER CODE END 0 */
  26:Core/Src/usart.c **** 
  27:Core/Src/usart.c **** UART_HandleTypeDef huart2;
  28:Core/Src/usart.c **** 
  29:Core/Src/usart.c **** /* USART2 init function */
  30:Core/Src/usart.c **** 
  31:Core/Src/usart.c **** void MX_USART2_UART_Init(void)
  32:Core/Src/usart.c **** {
  34              		.loc 1 32 1
  35              		.cfi_startproc
  36              		@ args = 0, pretend = 0, frame = 0
  37              		@ frame_needed = 1, uses_anonymous_args = 0
  38 0000 80B5     		push	{r7, lr}
  39              	.LCFI0:
  40              		.cfi_def_cfa_offset 8
  41              		.cfi_offset 7, -8
  42              		.cfi_offset 14, -4
  43 0002 00AF     		add	r7, sp, #0
  44              	.LCFI1:
  45              		.cfi_def_cfa_register 7
  33:Core/Src/usart.c **** 
  34:Core/Src/usart.c ****   /* USER CODE BEGIN USART2_Init 0 */
  35:Core/Src/usart.c **** 
  36:Core/Src/usart.c ****   /* USER CODE END USART2_Init 0 */
  37:Core/Src/usart.c **** 
  38:Core/Src/usart.c ****   /* USER CODE BEGIN USART2_Init 1 */
  39:Core/Src/usart.c **** 
  40:Core/Src/usart.c ****   /* USER CODE END USART2_Init 1 */
  41:Core/Src/usart.c ****   huart2.Instance = USART2;
  46              		.loc 1 41 19
  47 0004 144B     		ldr	r3, .L4
  48 0006 154A     		ldr	r2, .L4+4
  49 0008 1A60     		str	r2, [r3]
  42:Core/Src/usart.c ****   huart2.Init.BaudRate = 115200;
  50              		.loc 1 42 24
  51 000a 134B     		ldr	r3, .L4
  52 000c E122     		movs	r2, #225
  53 000e 5202     		lsls	r2, r2, #9
  54 0010 5A60     		str	r2, [r3, #4]
  43:Core/Src/usart.c ****   huart2.Init.WordLength = UART_WORDLENGTH_8B;
  55              		.loc 1 43 26
  56 0012 114B     		ldr	r3, .L4
  57 0014 0022     		movs	r2, #0
  58 0016 9A60     		str	r2, [r3, #8]
  44:Core/Src/usart.c ****   huart2.Init.StopBits = UART_STOPBITS_1;
  59              		.loc 1 44 24
  60 0018 0F4B     		ldr	r3, .L4
  61 001a 0022     		movs	r2, #0
  62 001c DA60     		str	r2, [r3, #12]
  45:Core/Src/usart.c ****   huart2.Init.Parity = UART_PARITY_NONE;
  63              		.loc 1 45 22
  64 001e 0E4B     		ldr	r3, .L4
  65 0020 0022     		movs	r2, #0
  66 0022 1A61     		str	r2, [r3, #16]
  46:Core/Src/usart.c ****   huart2.Init.Mode = UART_MODE_TX_RX;
  67              		.loc 1 46 20
ARM GAS  C:\Users\lidka\AppData\Local\Temp\ccABIEeK.s 			page 3


  68 0024 0C4B     		ldr	r3, .L4
  69 0026 0C22     		movs	r2, #12
  70 0028 5A61     		str	r2, [r3, #20]
  47:Core/Src/usart.c ****   huart2.Init.HwFlowCtl = UART_HWCONTROL_NONE;
  71              		.loc 1 47 25
  72 002a 0B4B     		ldr	r3, .L4
  73 002c 0022     		movs	r2, #0
  74 002e 9A61     		str	r2, [r3, #24]
  48:Core/Src/usart.c ****   huart2.Init.OverSampling = UART_OVERSAMPLING_16;
  75              		.loc 1 48 28
  76 0030 094B     		ldr	r3, .L4
  77 0032 0022     		movs	r2, #0
  78 0034 DA61     		str	r2, [r3, #28]
  49:Core/Src/usart.c ****   huart2.Init.OneBitSampling = UART_ONE_BIT_SAMPLE_DISABLE;
  79              		.loc 1 49 30
  80 0036 084B     		ldr	r3, .L4
  81 0038 0022     		movs	r2, #0
  82 003a 1A62     		str	r2, [r3, #32]
  50:Core/Src/usart.c ****   huart2.AdvancedInit.AdvFeatureInit = UART_ADVFEATURE_NO_INIT;
  83              		.loc 1 50 38
  84 003c 064B     		ldr	r3, .L4
  85 003e 0022     		movs	r2, #0
  86 0040 5A62     		str	r2, [r3, #36]
  51:Core/Src/usart.c ****   if (HAL_UART_Init(&huart2) != HAL_OK)
  87              		.loc 1 51 7
  88 0042 054B     		ldr	r3, .L4
  89 0044 1800     		movs	r0, r3
  90 0046 FFF7FEFF 		bl	HAL_UART_Init
  91 004a 031E     		subs	r3, r0, #0
  92              		.loc 1 51 6
  93 004c 01D0     		beq	.L3
  52:Core/Src/usart.c ****   {
  53:Core/Src/usart.c ****     Error_Handler();
  94              		.loc 1 53 5
  95 004e FFF7FEFF 		bl	Error_Handler
  96              	.L3:
  54:Core/Src/usart.c ****   }
  55:Core/Src/usart.c ****   /* USER CODE BEGIN USART2_Init 2 */
  56:Core/Src/usart.c **** 
  57:Core/Src/usart.c ****   /* USER CODE END USART2_Init 2 */
  58:Core/Src/usart.c **** 
  59:Core/Src/usart.c **** }
  97              		.loc 1 59 1
  98 0052 C046     		nop
  99 0054 BD46     		mov	sp, r7
 100              		@ sp needed
 101 0056 80BD     		pop	{r7, pc}
 102              	.L5:
 103              		.align	2
 104              	.L4:
 105 0058 00000000 		.word	huart2
 106 005c 00440040 		.word	1073759232
 107              		.cfi_endproc
 108              	.LFE47:
 110              		.section	.text.HAL_UART_MspInit,"ax",%progbits
 111              		.align	1
 112              		.global	HAL_UART_MspInit
ARM GAS  C:\Users\lidka\AppData\Local\Temp\ccABIEeK.s 			page 4


 113              		.syntax unified
 114              		.code	16
 115              		.thumb_func
 117              	HAL_UART_MspInit:
 118              	.LFB48:
  60:Core/Src/usart.c **** 
  61:Core/Src/usart.c **** void HAL_UART_MspInit(UART_HandleTypeDef* uartHandle)
  62:Core/Src/usart.c **** {
 119              		.loc 1 62 1
 120              		.cfi_startproc
 121              		@ args = 0, pretend = 0, frame = 32
 122              		@ frame_needed = 1, uses_anonymous_args = 0
 123 0000 90B5     		push	{r4, r7, lr}
 124              	.LCFI2:
 125              		.cfi_def_cfa_offset 12
 126              		.cfi_offset 4, -12
 127              		.cfi_offset 7, -8
 128              		.cfi_offset 14, -4
 129 0002 89B0     		sub	sp, sp, #36
 130              	.LCFI3:
 131              		.cfi_def_cfa_offset 48
 132 0004 00AF     		add	r7, sp, #0
 133              	.LCFI4:
 134              		.cfi_def_cfa_register 7
 135 0006 7860     		str	r0, [r7, #4]
  63:Core/Src/usart.c **** 
  64:Core/Src/usart.c ****   GPIO_InitTypeDef GPIO_InitStruct = {0};
 136              		.loc 1 64 20
 137 0008 0C24     		movs	r4, #12
 138 000a 3B19     		adds	r3, r7, r4
 139 000c 1800     		movs	r0, r3
 140 000e 1423     		movs	r3, #20
 141 0010 1A00     		movs	r2, r3
 142 0012 0021     		movs	r1, #0
 143 0014 FFF7FEFF 		bl	memset
  65:Core/Src/usart.c ****   if(uartHandle->Instance==USART2)
 144              		.loc 1 65 16
 145 0018 7B68     		ldr	r3, [r7, #4]
 146 001a 1B68     		ldr	r3, [r3]
 147              		.loc 1 65 5
 148 001c 1C4A     		ldr	r2, .L9
 149 001e 9342     		cmp	r3, r2
 150 0020 31D1     		bne	.L8
  66:Core/Src/usart.c ****   {
  67:Core/Src/usart.c ****   /* USER CODE BEGIN USART2_MspInit 0 */
  68:Core/Src/usart.c **** 
  69:Core/Src/usart.c ****   /* USER CODE END USART2_MspInit 0 */
  70:Core/Src/usart.c ****     /* USART2 clock enable */
  71:Core/Src/usart.c ****     __HAL_RCC_USART2_CLK_ENABLE();
 151              		.loc 1 71 5
 152 0022 1C4B     		ldr	r3, .L9+4
 153 0024 9A6B     		ldr	r2, [r3, #56]
 154 0026 1B4B     		ldr	r3, .L9+4
 155 0028 8021     		movs	r1, #128
 156 002a 8902     		lsls	r1, r1, #10
 157 002c 0A43     		orrs	r2, r1
 158 002e 9A63     		str	r2, [r3, #56]
ARM GAS  C:\Users\lidka\AppData\Local\Temp\ccABIEeK.s 			page 5


 159              	.LBB2:
  72:Core/Src/usart.c **** 
  73:Core/Src/usart.c ****     __HAL_RCC_GPIOA_CLK_ENABLE();
 160              		.loc 1 73 5
 161 0030 184B     		ldr	r3, .L9+4
 162 0032 DA6A     		ldr	r2, [r3, #44]
 163 0034 174B     		ldr	r3, .L9+4
 164 0036 0121     		movs	r1, #1
 165 0038 0A43     		orrs	r2, r1
 166 003a DA62     		str	r2, [r3, #44]
 167 003c 154B     		ldr	r3, .L9+4
 168 003e DB6A     		ldr	r3, [r3, #44]
 169 0040 0122     		movs	r2, #1
 170 0042 1340     		ands	r3, r2
 171 0044 BB60     		str	r3, [r7, #8]
 172 0046 BB68     		ldr	r3, [r7, #8]
 173              	.LBE2:
  74:Core/Src/usart.c ****     /**USART2 GPIO Configuration
  75:Core/Src/usart.c ****     PA2     ------> USART2_TX
  76:Core/Src/usart.c ****     PA3     ------> USART2_RX
  77:Core/Src/usart.c ****     */
  78:Core/Src/usart.c ****     GPIO_InitStruct.Pin = USART_TX_Pin|USART_RX_Pin;
 174              		.loc 1 78 25
 175 0048 2100     		movs	r1, r4
 176 004a 7B18     		adds	r3, r7, r1
 177 004c 0C22     		movs	r2, #12
 178 004e 1A60     		str	r2, [r3]
  79:Core/Src/usart.c ****     GPIO_InitStruct.Mode = GPIO_MODE_AF_PP;
 179              		.loc 1 79 26
 180 0050 7B18     		adds	r3, r7, r1
 181 0052 0222     		movs	r2, #2
 182 0054 5A60     		str	r2, [r3, #4]
  80:Core/Src/usart.c ****     GPIO_InitStruct.Pull = GPIO_NOPULL;
 183              		.loc 1 80 26
 184 0056 7B18     		adds	r3, r7, r1
 185 0058 0022     		movs	r2, #0
 186 005a 9A60     		str	r2, [r3, #8]
  81:Core/Src/usart.c ****     GPIO_InitStruct.Speed = GPIO_SPEED_FREQ_VERY_HIGH;
 187              		.loc 1 81 27
 188 005c 7B18     		adds	r3, r7, r1
 189 005e 0322     		movs	r2, #3
 190 0060 DA60     		str	r2, [r3, #12]
  82:Core/Src/usart.c ****     GPIO_InitStruct.Alternate = GPIO_AF4_USART2;
 191              		.loc 1 82 31
 192 0062 7B18     		adds	r3, r7, r1
 193 0064 0422     		movs	r2, #4
 194 0066 1A61     		str	r2, [r3, #16]
  83:Core/Src/usart.c ****     HAL_GPIO_Init(GPIOA, &GPIO_InitStruct);
 195              		.loc 1 83 5
 196 0068 7A18     		adds	r2, r7, r1
 197 006a A023     		movs	r3, #160
 198 006c DB05     		lsls	r3, r3, #23
 199 006e 1100     		movs	r1, r2
 200 0070 1800     		movs	r0, r3
 201 0072 FFF7FEFF 		bl	HAL_GPIO_Init
  84:Core/Src/usart.c **** 
  85:Core/Src/usart.c ****     /* USART2 interrupt Init */
ARM GAS  C:\Users\lidka\AppData\Local\Temp\ccABIEeK.s 			page 6


  86:Core/Src/usart.c ****     HAL_NVIC_SetPriority(USART2_IRQn, 0, 0);
 202              		.loc 1 86 5
 203 0076 0022     		movs	r2, #0
 204 0078 0021     		movs	r1, #0
 205 007a 1C20     		movs	r0, #28
 206 007c FFF7FEFF 		bl	HAL_NVIC_SetPriority
  87:Core/Src/usart.c ****     HAL_NVIC_EnableIRQ(USART2_IRQn);
 207              		.loc 1 87 5
 208 0080 1C20     		movs	r0, #28
 209 0082 FFF7FEFF 		bl	HAL_NVIC_EnableIRQ
 210              	.L8:
  88:Core/Src/usart.c ****   /* USER CODE BEGIN USART2_MspInit 1 */
  89:Core/Src/usart.c **** 
  90:Core/Src/usart.c ****   /* USER CODE END USART2_MspInit 1 */
  91:Core/Src/usart.c ****   }
  92:Core/Src/usart.c **** }
 211              		.loc 1 92 1
 212 0086 C046     		nop
 213 0088 BD46     		mov	sp, r7
 214 008a 09B0     		add	sp, sp, #36
 215              		@ sp needed
 216 008c 90BD     		pop	{r4, r7, pc}
 217              	.L10:
 218 008e C046     		.align	2
 219              	.L9:
 220 0090 00440040 		.word	1073759232
 221 0094 00100240 		.word	1073876992
 222              		.cfi_endproc
 223              	.LFE48:
 225              		.section	.text.HAL_UART_MspDeInit,"ax",%progbits
 226              		.align	1
 227              		.global	HAL_UART_MspDeInit
 228              		.syntax unified
 229              		.code	16
 230              		.thumb_func
 232              	HAL_UART_MspDeInit:
 233              	.LFB49:
  93:Core/Src/usart.c **** 
  94:Core/Src/usart.c **** void HAL_UART_MspDeInit(UART_HandleTypeDef* uartHandle)
  95:Core/Src/usart.c **** {
 234              		.loc 1 95 1
 235              		.cfi_startproc
 236              		@ args = 0, pretend = 0, frame = 8
 237              		@ frame_needed = 1, uses_anonymous_args = 0
 238 0000 80B5     		push	{r7, lr}
 239              	.LCFI5:
 240              		.cfi_def_cfa_offset 8
 241              		.cfi_offset 7, -8
 242              		.cfi_offset 14, -4
 243 0002 82B0     		sub	sp, sp, #8
 244              	.LCFI6:
 245              		.cfi_def_cfa_offset 16
 246 0004 00AF     		add	r7, sp, #0
 247              	.LCFI7:
 248              		.cfi_def_cfa_register 7
 249 0006 7860     		str	r0, [r7, #4]
  96:Core/Src/usart.c **** 
ARM GAS  C:\Users\lidka\AppData\Local\Temp\ccABIEeK.s 			page 7


  97:Core/Src/usart.c ****   if(uartHandle->Instance==USART2)
 250              		.loc 1 97 16
 251 0008 7B68     		ldr	r3, [r7, #4]
 252 000a 1B68     		ldr	r3, [r3]
 253              		.loc 1 97 5
 254 000c 0A4A     		ldr	r2, .L14
 255 000e 9342     		cmp	r3, r2
 256 0010 0ED1     		bne	.L13
  98:Core/Src/usart.c ****   {
  99:Core/Src/usart.c ****   /* USER CODE BEGIN USART2_MspDeInit 0 */
 100:Core/Src/usart.c **** 
 101:Core/Src/usart.c ****   /* USER CODE END USART2_MspDeInit 0 */
 102:Core/Src/usart.c ****     /* Peripheral clock disable */
 103:Core/Src/usart.c ****     __HAL_RCC_USART2_CLK_DISABLE();
 257              		.loc 1 103 5
 258 0012 0A4B     		ldr	r3, .L14+4
 259 0014 9A6B     		ldr	r2, [r3, #56]
 260 0016 094B     		ldr	r3, .L14+4
 261 0018 0949     		ldr	r1, .L14+8
 262 001a 0A40     		ands	r2, r1
 263 001c 9A63     		str	r2, [r3, #56]
 104:Core/Src/usart.c **** 
 105:Core/Src/usart.c ****     /**USART2 GPIO Configuration
 106:Core/Src/usart.c ****     PA2     ------> USART2_TX
 107:Core/Src/usart.c ****     PA3     ------> USART2_RX
 108:Core/Src/usart.c ****     */
 109:Core/Src/usart.c ****     HAL_GPIO_DeInit(GPIOA, USART_TX_Pin|USART_RX_Pin);
 264              		.loc 1 109 5
 265 001e A023     		movs	r3, #160
 266 0020 DB05     		lsls	r3, r3, #23
 267 0022 0C21     		movs	r1, #12
 268 0024 1800     		movs	r0, r3
 269 0026 FFF7FEFF 		bl	HAL_GPIO_DeInit
 110:Core/Src/usart.c **** 
 111:Core/Src/usart.c ****     /* USART2 interrupt Deinit */
 112:Core/Src/usart.c ****     HAL_NVIC_DisableIRQ(USART2_IRQn);
 270              		.loc 1 112 5
 271 002a 1C20     		movs	r0, #28
 272 002c FFF7FEFF 		bl	HAL_NVIC_DisableIRQ
 273              	.L13:
 113:Core/Src/usart.c ****   /* USER CODE BEGIN USART2_MspDeInit 1 */
 114:Core/Src/usart.c **** 
 115:Core/Src/usart.c ****   /* USER CODE END USART2_MspDeInit 1 */
 116:Core/Src/usart.c ****   }
 117:Core/Src/usart.c **** }
 274              		.loc 1 117 1
 275 0030 C046     		nop
 276 0032 BD46     		mov	sp, r7
 277 0034 02B0     		add	sp, sp, #8
 278              		@ sp needed
 279 0036 80BD     		pop	{r7, pc}
 280              	.L15:
 281              		.align	2
 282              	.L14:
 283 0038 00440040 		.word	1073759232
 284 003c 00100240 		.word	1073876992
 285 0040 FFFFFDFF 		.word	-131073
ARM GAS  C:\Users\lidka\AppData\Local\Temp\ccABIEeK.s 			page 8


 286              		.cfi_endproc
 287              	.LFE49:
 289              		.text
 290              	.Letext0:
 291              		.file 2 "d:\\program files (x86)\\gnu arm embedded toolchain\\10 2021.10\\arm-none-eabi\\include\\
 292              		.file 3 "d:\\program files (x86)\\gnu arm embedded toolchain\\10 2021.10\\arm-none-eabi\\include\\
 293              		.file 4 "Drivers/CMSIS/Device/ST/STM32L0xx/Include/stm32l053xx.h"
 294              		.file 5 "Drivers/STM32L0xx_HAL_Driver/Inc/stm32l0xx_hal_def.h"
 295              		.file 6 "Drivers/STM32L0xx_HAL_Driver/Inc/stm32l0xx_hal_gpio.h"
 296              		.file 7 "Drivers/STM32L0xx_HAL_Driver/Inc/stm32l0xx_hal_dma.h"
 297              		.file 8 "Drivers/STM32L0xx_HAL_Driver/Inc/stm32l0xx_hal_uart.h"
 298              		.file 9 "Core/Inc/usart.h"
ARM GAS  C:\Users\lidka\AppData\Local\Temp\ccABIEeK.s 			page 9

